(idecision_tree
continuous_decision_tree
p0
(dp1
S'split_point'
p2
F0.09508264999999999
sS'attribute'
p3
I52
sS'gt_subtree'
p4
(idecision_tree
continuous_decision_tree
p5
(dp6
g2
F-1.0
sg3
I66
sg4
(idecision_tree
continuous_decision_tree
p7
(dp8
g2
F0.9903154999999999
sg3
I35
sg4
(idecision_tree
continuous_decision_tree
p9
(dp10
g2
F2.0
sg3
I66
sg4
(idecision_tree
continuous_decision_tree
p11
(dp12
g2
F0.444444
sg3
I8
sg4
(idecision_tree
continuous_decision_tree
p13
(dp14
g2
F-12.0
sg3
I63
sg4
(idecision_tree
continuous_decision_tree
p15
(dp16
g2
F0.9911734999999999
sg3
I35
sg4
(idecision_tree
continuous_decision_tree
p17
(dp18
g2
F0.9971595
sg3
I34
sg4
(idecision_tree
continuous_decision_tree
p19
(dp20
g2
F0.0
sg3
I59
sg4
(idecision_tree
continuous_decision_tree
p21
(dp22
g2
F3.0
sg3
I62
sg4
(idecision_tree
decision_tree_leaf
p23
(dp24
S'counts'
p25
ccollections
defaultdict
p26
(c__builtin__
int
p27
tp28
Rp29
S'P'
p30
I18
sS'Pn'
p31
I1
ssS'value'
p32
g30
sbsS'lt_subtree'
p33
(idecision_tree
continuous_decision_tree
p34
(dp35
g2
F0.776201
sg3
I48
sg4
(idecision_tree
decision_tree_leaf
p36
(dp37
g25
g26
(g27
tp38
Rp39
g30
I1
ssg32
g30
sbsg33
(idecision_tree
continuous_decision_tree
p40
(dp41
g2
F88.85155
sg3
I40
sg4
(idecision_tree
decision_tree_leaf
p42
(dp43
g25
g26
(g27
tp44
Rp45
g30
I1
ssg32
g30
sbsg33
(idecision_tree
continuous_decision_tree
p46
(dp47
g2
F97.0
sg3
I63
sg4
(idecision_tree
decision_tree_leaf
p48
(dp49
g25
g26
(g27
tp50
Rp51
g30
I2
ssg32
g30
sbsg33
(idecision_tree
continuous_decision_tree
p52
(dp53
g2
F0.8333335
sg3
I8
sg4
(idecision_tree
decision_tree_leaf
p54
(dp55
g25
g26
(g27
tp56
Rp57
g30
I1
ssg32
g30
sbsg33
(idecision_tree
continuous_decision_tree
p58
(dp59
g2
F4.0
sg3
I66
sg4
(idecision_tree
decision_tree_leaf
p60
(dp61
g25
g26
(g27
tp62
Rp63
g30
I2
ssg32
g30
sbsg33
(idecision_tree
continuous_decision_tree
p64
(dp65
g2
F1.5
sg3
I62
sg4
(idecision_tree
decision_tree_leaf
p66
(dp67
g25
g26
(g27
tp68
Rp69
g30
I3
ssg32
g30
sbsg33
(idecision_tree
continuous_decision_tree
p70
(dp71
g2
F7.5
sg3
I59
sg4
(idecision_tree
decision_tree_leaf
p72
(dp73
g25
g26
(g27
tp74
Rp75
g30
I2
ssg32
g30
sbsg33
(idecision_tree
continuous_decision_tree
p76
(dp77
g2
F0.9986605
sg3
I34
sg4
(idecision_tree
decision_tree_leaf
p78
(dp79
g25
g26
(g27
tp80
Rp81
g30
I1
ssg32
g30
sbsg33
(idecision_tree
continuous_decision_tree
p82
(dp83
g2
F-83.25
sg3
I67
sg4
(idecision_tree
decision_tree_leaf
p84
(dp85
g25
g26
(g27
tp86
Rp87
g30
I2
ssg32
g30
sbsg33
(idecision_tree
decision_tree_leaf
p88
(dp89
g25
g26
(g27
tp90
Rp91
S'Pn'
p92
I1
ssg32
g92
sbsbsbsbsbsbsbsbsbsbsbsg33
(idecision_tree
continuous_decision_tree
p93
(dp94
g2
F-19.0
sg3
I59
sg4
(idecision_tree
continuous_decision_tree
p95
(dp96
g2
F0.2878585
sg3
I52
sg4
(idecision_tree
decision_tree_leaf
p97
(dp98
g25
g26
(g27
tp99
Rp100
g30
I1
ssg32
g30
sbsg33
(idecision_tree
continuous_decision_tree
p101
(dp102
g2
F50.2
sg3
I67
sg4
(idecision_tree
continuous_decision_tree
p103
(dp104
g2
F0.9179044999999999
sg3
I48
sg4
(idecision_tree
decision_tree_leaf
p105
(dp106
g25
g26
(g27
tp107
Rp108
g30
I1
ssg32
g30
sbsg33
(idecision_tree
continuous_decision_tree
p109
(dp110
g2
F72.5549
sg3
I40
sg4
(idecision_tree
continuous_decision_tree
p111
(dp112
g2
F126.0
sg3
I67
sg4
(idecision_tree
decision_tree_leaf
p113
(dp114
g25
g26
(g27
tp115
Rp116
g30
I1
ssg32
g30
sbsg33
(idecision_tree
decision_tree_leaf
p117
(dp118
g25
g26
(g27
tp119
Rp120
S'PKP'
p121
I1
ssg32
g121
sbsbsg33
(idecision_tree
decision_tree_leaf
p122
(dp123
g25
g26
(g27
tp124
Rp125
g30
I1
ssg32
g30
sbsbsbsg33
(idecision_tree
decision_tree_leaf
p126
(dp127
g25
g26
(g27
tp128
Rp129
g30
I1
ssg32
g30
sbsbsbsg33
(idecision_tree
decision_tree_leaf
p130
(dp131
g25
g26
(g27
tp132
Rp133
g30
I1
ssg32
g30
sbsbsbsg33
(idecision_tree
continuous_decision_tree
p134
(dp135
g2
F124.5
sg3
I67
sg4
(idecision_tree
continuous_decision_tree
p136
(dp137
g2
F5.0
sg3
I59
sg4
(idecision_tree
decision_tree_leaf
p138
(dp139
g25
g26
(g27
tp140
Rp141
g30
I1
ssg32
g30
sbsg33
(idecision_tree
continuous_decision_tree
p142
(dp143
g2
F0.5
sg3
I62
sg4
(idecision_tree
decision_tree_leaf
p144
(dp145
g25
g26
(g27
tp146
Rp147
g30
I1
ssg32
g30
sbsg33
(idecision_tree
continuous_decision_tree
p148
(dp149
g2
F9.0
sg3
I63
sg4
(idecision_tree
decision_tree_leaf
p150
(dp151
g25
g26
(g27
tp152
Rp153
g30
I1
ssg32
g30
sbsg33
(idecision_tree
continuous_decision_tree
p154
(dp155
g2
F0.0369351
sg3
I51
sg4
(idecision_tree
continuous_decision_tree
p156
(dp157
g2
F0.5299255
sg3
I49
sg4
(idecision_tree
decision_tree_leaf
p158
(dp159
g25
g26
(g27
tp160
Rp161
g30
I1
ssg32
g30
sbsg33
(idecision_tree
continuous_decision_tree
p162
(dp163
g2
F0.995872
sg3
I34
sg4
(idecision_tree
decision_tree_leaf
p164
(dp165
g25
g26
(g27
tp166
Rp167
g30
I1
ssg32
g30
sbsg33
(idecision_tree
continuous_decision_tree
p168
(dp169
g2
F0.1112715
sg3
I52
sg4
(idecision_tree
continuous_decision_tree
p170
(dp171
g2
F0.996991
sg3
I35
sg4
(idecision_tree
decision_tree_leaf
p172
(dp173
g25
g26
(g27
tp174
Rp175
g30
I1
ssg32
g30
sbsg33
(idecision_tree
continuous_decision_tree
p176
(dp177
g2
F3.5
sg3
I66
sg4
(idecision_tree
decision_tree_leaf
p178
(dp179
g25
g26
(g27
tp180
Rp181
g30
I1
ssg32
g30
sbsg33
(idecision_tree
continuous_decision_tree
p182
(dp183
g2
F86.45695
sg3
I40
sg4
(idecision_tree
decision_tree_leaf
p184
(dp185
g25
g26
(g27
tp186
Rp187
g30
I1
ssg32
g30
sbsg33
(idecision_tree
continuous_decision_tree
p188
(dp189
g2
F0.36899550000000003
sg3
I48
sg4
(idecision_tree
decision_tree_leaf
p190
(dp191
g25
g26
(g27
tp192
Rp193
g30
I2
sS'PKP'
p194
I1
ssg32
g30
sbsg33
(idecision_tree
decision_tree_leaf
p195
(dp196
g25
g26
(g27
tp197
Rp198
g30
I1
ssg32
g30
sbsbsbsbsbsg33
(idecision_tree
decision_tree_leaf
p199
(dp200
g25
g26
(g27
tp201
Rp202
g30
I1
ssg32
g30
sbsbsbsbsg33
(idecision_tree
decision_tree_leaf
p203
(dp204
g25
g26
(g27
tp205
Rp206
g30
I1
ssg32
g30
sbsbsbsbsbsg33
(idecision_tree
continuous_decision_tree
p207
(dp208
g2
F38.98335
sg3
I63
sg4
(idecision_tree
continuous_decision_tree
p209
(dp210
g2
F0.1739715
sg3
I48
sg4
(idecision_tree
continuous_decision_tree
p211
(dp212
g2
F0.388907
sg3
I52
sg4
(idecision_tree
decision_tree_leaf
p213
(dp214
g25
g26
(g27
tp215
Rp216
g30
I3
ssg32
g30
sbsg33
(idecision_tree
continuous_decision_tree
p217
(dp218
g2
F0.11621019999999999
sg3
I51
sg4
(idecision_tree
decision_tree_leaf
p219
(dp220
g25
g26
(g27
tp221
Rp222
g30
I2
ssg32
g30
sbsg33
(idecision_tree
continuous_decision_tree
p223
(dp224
g2
F-80.4724
sg3
I67
sg4
(idecision_tree
continuous_decision_tree
p225
(dp226
g2
F4.5
sg3
I62
sg4
(idecision_tree
decision_tree_leaf
p227
(dp228
g25
g26
(g27
tp229
Rp230
g30
I2
ssg32
g30
sbsg33
(idecision_tree
continuous_decision_tree
p231
(dp232
g2
F78.63005000000001
sg3
I40
sg4
(idecision_tree
continuous_decision_tree
p233
(dp234
g2
F0.988866
sg3
I34
sg4
(idecision_tree
continuous_decision_tree
p235
(dp236
g2
F16.1111
sg3
I67
sg4
(idecision_tree
decision_tree_leaf
p237
(dp238
g25
g26
(g27
tp239
Rp240
g30
I1
ssg32
g30
sbsg33
(idecision_tree
decision_tree_leaf
p241
(dp242
g25
g26
(g27
tp243
Rp244
S'PKP'
p245
I1
ssg32
g245
sbsbsg33
(idecision_tree
decision_tree_leaf
p246
(dp247
g25
g26
(g27
tp248
Rp249
g30
I1
ssg32
g30
sbsbsg33
(idecision_tree
decision_tree_leaf
p250
(dp251
g25
g26
(g27
tp252
Rp253
g30
I1
ssg32
g30
sbsbsbsg33
(idecision_tree
decision_tree_leaf
p254
(dp255
g25
g26
(g27
tp256
Rp257
g30
I2
ssg32
g30
sbsbsbsbsg33
(idecision_tree
decision_tree_leaf
p258
(dp259
g25
g26
(g27
tp260
Rp261
g30
I1
ssg32
g30
sbsbsg33
(idecision_tree
continuous_decision_tree
p262
(dp263
g2
F23.0
sg3
I59
sg4
(idecision_tree
continuous_decision_tree
p264
(dp265
g2
F3.0
sg3
I66
sg4
(idecision_tree
continuous_decision_tree
p266
(dp267
g2
F3.5
sg3
I66
sg4
(idecision_tree
continuous_decision_tree
p268
(dp269
g2
F1.0
sg3
I58
sg4
(idecision_tree
continuous_decision_tree
p270
(dp271
g2
F30.0
sg3
I59
sg4
(idecision_tree
continuous_decision_tree
p272
(dp273
g2
F67.63335000000001
sg3
I67
sg4
(idecision_tree
decision_tree_leaf
p274
(dp275
g25
g26
(g27
tp276
Rp277
g30
I1
ssg32
g30
sbsg33
(idecision_tree
decision_tree_leaf
p278
(dp279
g25
g26
(g27
tp280
Rp281
S'PKP'
p282
I1
ssg32
g282
sbsbsg33
(idecision_tree
decision_tree_leaf
p283
(dp284
g25
g26
(g27
tp285
Rp286
g30
I3
ssg32
g30
sbsbsg33
(idecision_tree
decision_tree_leaf
p287
(dp288
g25
g26
(g27
tp289
Rp290
g30
I1
ssg32
g30
sbsbsg33
(idecision_tree
continuous_decision_tree
p291
(dp292
g2
F1.5
sg3
I62
sg4
(idecision_tree
decision_tree_leaf
p293
(dp294
g25
g26
(g27
tp295
Rp296
g30
I3
sS'PKP'
p297
I1
ssg32
g30
sbsg33
(idecision_tree
decision_tree_leaf
p298
(dp299
g25
g26
(g27
tp300
Rp301
g30
I1
ssg32
g30
sbsbsbsg33
(idecision_tree
decision_tree_leaf
p302
(dp303
g25
g26
(g27
tp304
Rp305
g30
I4
ssg32
g30
sbsbsg33
(idecision_tree
continuous_decision_tree
p306
(dp307
g2
F2.0
sg3
I58
sg4
(idecision_tree
continuous_decision_tree
p308
(dp309
g2
F13.5
sg3
I63
sg4
(idecision_tree
continuous_decision_tree
p310
(dp311
g2
F13.25
sg3
I59
sg4
(idecision_tree
continuous_decision_tree
p312
(dp313
g2
F1.0743475
sg3
I52
sg4
(idecision_tree
decision_tree_leaf
p314
(dp315
g25
g26
(g27
tp316
Rp317
g30
I1
ssg32
g30
sbsg33
(idecision_tree
continuous_decision_tree
p318
(dp319
g2
F1.471988
sg3
I48
sg4
(idecision_tree
decision_tree_leaf
p320
(dp321
g25
g26
(g27
tp322
Rp323
g30
I1
ssg32
g30
sbsg33
(idecision_tree
continuous_decision_tree
p324
(dp325
g2
F3.0
sg3
I62
sg4
(idecision_tree
decision_tree_leaf
p326
(dp327
g25
g26
(g27
tp328
Rp329
g30
I7
sS'PKP'
p330
I1
ssg32
g30
sbsg33
(idecision_tree
decision_tree_leaf
p331
(dp332
g25
g26
(g27
tp333
Rp334
g30
I1
ssg32
g30
sbsbsbsbsg33
(idecision_tree
decision_tree_leaf
p335
(dp336
g25
g26
(g27
tp337
Rp338
g30
I1
ssg32
g30
sbsbsg33
(idecision_tree
continuous_decision_tree
p339
(dp340
g2
F-1.083335
sg3
I63
sg4
(idecision_tree
decision_tree_leaf
p341
(dp342
g25
g26
(g27
tp343
Rp344
g30
I10
sS'Pn'
p345
I1
ssg32
g30
sbsg33
(idecision_tree
decision_tree_leaf
p346
(dp347
g25
g26
(g27
tp348
Rp349
g30
I1
ssg32
g30
sbsbsbsg33
(idecision_tree
decision_tree_leaf
p350
(dp351
g25
g26
(g27
tp352
Rp353
g30
I18
ssg32
g30
sbsbsbsbsbsbsg33
(idecision_tree
decision_tree_leaf
p354
(dp355
g25
g26
(g27
tp356
Rp357
g30
I13
sS'PKP'
p358
I1
ssg32
g30
sbsbsg33
(idecision_tree
continuous_decision_tree
p359
(dp360
g2
F151.35
sg3
I67
sg4
(idecision_tree
decision_tree_leaf
p361
(dp362
g25
g26
(g27
tp363
Rp364
g30
I1
ssg32
g30
sbsg33
(idecision_tree
continuous_decision_tree
p365
(dp366
g2
F-2.0
sg3
I62
sg4
(idecision_tree
decision_tree_leaf
p367
(dp368
g25
g26
(g27
tp369
Rp370
g30
I27
sS'S'
p371
I1
ssg32
g30
sbsg33
(idecision_tree
decision_tree_leaf
p372
(dp373
g25
g26
(g27
tp374
Rp375
g30
I1
ssg32
g30
sbsbsbsbsg33
(idecision_tree
decision_tree_leaf
p376
(dp377
g25
g26
(g27
tp378
Rp379
g30
I2
ssg32
g30
sbsbsg33
(idecision_tree
continuous_decision_tree
p380
(dp381
g2
F0.0
sg3
I67
sg4
(idecision_tree
continuous_decision_tree
p382
(dp383
g2
F92.5
sg3
I67
sg4
(idecision_tree
continuous_decision_tree
p384
(dp385
g2
F79.12299999999999
sg3
I40
sg4
(idecision_tree
continuous_decision_tree
p386
(dp387
g2
F0.464008
sg3
I52
sg4
(idecision_tree
decision_tree_leaf
p388
(dp389
g25
g26
(g27
tp390
Rp391
g30
I1
ssg32
g30
sbsg33
(idecision_tree
continuous_decision_tree
p392
(dp393
g2
F0.0171066
sg3
I50
sg4
(idecision_tree
continuous_decision_tree
p394
(dp395
g2
F1.0
sg3
I66
sg4
(idecision_tree
decision_tree_leaf
p396
(dp397
g25
g26
(g27
tp398
Rp399
g30
I8
sS'PKP'
p400
I1
ssg32
g30
sbsg33
(idecision_tree
decision_tree_leaf
p401
(dp402
g25
g26
(g27
tp403
Rp404
g30
I7
ssg32
g30
sbsbsg33
(idecision_tree
decision_tree_leaf
p405
(dp406
g25
g26
(g27
tp407
Rp408
g30
I1
ssg32
g30
sbsbsbsg33
(idecision_tree
continuous_decision_tree
p409
(dp410
g2
F0.06907289999999999
sg3
I51
sg4
(idecision_tree
continuous_decision_tree
p411
(dp412
g2
F-41.5
sg3
I63
sg4
(idecision_tree
decision_tree_leaf
p413
(dp414
g25
g26
(g27
tp415
Rp416
g30
I13
sS'PKP'
p417
I1
ssg32
g30
sbsg33
(idecision_tree
decision_tree_leaf
p418
(dp419
g25
g26
(g27
tp420
Rp421
g30
I3
ssg32
g30
sbsbsg33
(idecision_tree
decision_tree_leaf
p422
(dp423
g25
g26
(g27
tp424
Rp425
g30
I4
ssg32
g30
sbsbsbsg33
(idecision_tree
continuous_decision_tree
p426
(dp427
g2
F0.990946
sg3
I34
sg4
(idecision_tree
continuous_decision_tree
p428
(dp429
g2
F39.166650000000004
sg3
I67
sg4
(idecision_tree
continuous_decision_tree
p430
(dp431
g2
F0.07273805
sg3
I38
sg4
(idecision_tree
continuous_decision_tree
p432
(dp433
g2
F0.0
sg3
I62
sg4
(idecision_tree
decision_tree_leaf
p434
(dp435
g25
g26
(g27
tp436
Rp437
g30
I3
sS'PKP'
p438
I1
ssg32
g30
sbsg33
(idecision_tree
decision_tree_leaf
p439
(dp440
g25
g26
(g27
tp441
Rp442
g30
I13
ssg32
g30
sbsbsg33
(idecision_tree
decision_tree_leaf
p443
(dp444
g25
g26
(g27
tp445
Rp446
g30
I3
ssg32
g30
sbsbsg33
(idecision_tree
continuous_decision_tree
p447
(dp448
g2
F75.26675
sg3
I40
sg4
(idecision_tree
continuous_decision_tree
p449
(dp450
g2
F0.17685250000000002
sg3
I48
sg4
(idecision_tree
continuous_decision_tree
p451
(dp452
g2
F0.997202
sg3
I35
sg4
(idecision_tree
decision_tree_leaf
p453
(dp454
g25
g26
(g27
tp455
Rp456
g30
I3
ssg32
g30
sbsg33
(idecision_tree
continuous_decision_tree
p457
(dp458
g2
F0.116206
sg3
I52
sg4
(idecision_tree
continuous_decision_tree
p459
(dp460
g2
F0.9970445
sg3
I34
sg4
(idecision_tree
decision_tree_leaf
p461
(dp462
g25
g26
(g27
tp463
Rp464
g30
I3
ssg32
g30
sbsg33
(idecision_tree
continuous_decision_tree
p465
(dp466
g2
F0.0
sg3
I63
sg4
(idecision_tree
decision_tree_leaf
p467
(dp468
g25
g26
(g27
tp469
Rp470
g30
I5
sS'PKP'
p471
I1
ssg32
g30
sbsg33
(idecision_tree
decision_tree_leaf
p472
(dp473
g25
g26
(g27
tp474
Rp475
g30
I3
ssg32
g30
sbsbsbsg33
(idecision_tree
decision_tree_leaf
p476
(dp477
g25
g26
(g27
tp478
Rp479
g30
I4
ssg32
g30
sbsbsbsg33
(idecision_tree
decision_tree_leaf
p480
(dp481
g25
g26
(g27
tp482
Rp483
g30
I1
ssg32
g30
sbsbsg33
(idecision_tree
continuous_decision_tree
p484
(dp485
g2
F0.05559925
sg3
I51
sg4
(idecision_tree
continuous_decision_tree
p486
(dp487
g2
F0.9920070000000001
sg3
I34
sg4
(idecision_tree
continuous_decision_tree
p488
(dp489
g2
F0.5
sg3
I62
sg4
(idecision_tree
decision_tree_leaf
p490
(dp491
g25
g26
(g27
tp492
Rp493
g30
I3
ssg32
g30
sbsg33
(idecision_tree
continuous_decision_tree
p494
(dp495
g2
F0.5
sg3
I58
sg4
(idecision_tree
decision_tree_leaf
p496
(dp497
g25
g26
(g27
tp498
Rp499
g30
I1
ssg32
g30
sbsg33
(idecision_tree
continuous_decision_tree
p500
(dp501
g2
F0.5
sg3
I66
sg4
(idecision_tree
decision_tree_leaf
p502
(dp503
g25
g26
(g27
tp504
Rp505
g30
I1
ssg32
g30
sbsg33
(idecision_tree
continuous_decision_tree
p506
(dp507
g2
F20.74845
sg3
I44
sg4
(idecision_tree
continuous_decision_tree
p508
(dp509
g2
F0.07946365
sg3
I38
sg4
(idecision_tree
continuous_decision_tree
p510
(dp511
g2
F73.13605
sg3
I40
sg4
(idecision_tree
decision_tree_leaf
p512
(dp513
g25
g26
(g27
tp514
Rp515
g30
I1
ssg32
g30
sbsg33
(idecision_tree
continuous_decision_tree
p516
(dp517
g2
F6.5
sg3
I67
sg4
(idecision_tree
decision_tree_leaf
p518
(dp519
g25
g26
(g27
tp520
Rp521
g30
I2
ssg32
g30
sbsg33
(idecision_tree
continuous_decision_tree
p522
(dp523
g2
F0.24843300000000001
sg3
I52
sg4
(idecision_tree
decision_tree_leaf
p524
(dp525
g25
g26
(g27
tp526
Rp527
g30
I2
ssg32
g30
sbsg33
(idecision_tree
continuous_decision_tree
p528
(dp529
g2
F0.112429
sg3
I50
sg4
(idecision_tree
decision_tree_leaf
p530
(dp531
g25
g26
(g27
tp532
Rp533
g30
I2
ssg32
g30
sbsg33
(idecision_tree
continuous_decision_tree
p534
(dp535
g2
F0.3362235
sg3
I49
sg4
(idecision_tree
continuous_decision_tree
p536
(dp537
g2
F3.314085
sg3
I39
sg4
(idecision_tree
decision_tree_leaf
p538
(dp539
g25
g26
(g27
tp540
Rp541
g30
I1
sS'PKP'
p542
I1
ssg32
g30
sbsg33
(idecision_tree
decision_tree_leaf
p543
(dp544
g25
g26
(g27
tp545
Rp546
g30
I1
ssg32
g30
sbsbsg33
(idecision_tree
decision_tree_leaf
p547
(dp548
g25
g26
(g27
tp549
Rp550
g30
I1
ssg32
g30
sbsbsbsbsbsbsg33
(idecision_tree
decision_tree_leaf
p551
(dp552
g25
g26
(g27
tp553
Rp554
g30
I1
ssg32
g30
sbsbsg33
(idecision_tree
decision_tree_leaf
p555
(dp556
g25
g26
(g27
tp557
Rp558
g30
I1
ssg32
g30
sbsbsbsbsbsg33
(idecision_tree
decision_tree_leaf
p559
(dp560
g25
g26
(g27
tp561
Rp562
g30
I1
ssg32
g30
sbsbsg33
(idecision_tree
decision_tree_leaf
p563
(dp564
g25
g26
(g27
tp565
Rp566
g30
I1
ssg32
g30
sbsbsbsbsg33
(idecision_tree
continuous_decision_tree
p567
(dp568
g2
F41.0
sg3
I63
sg4
(idecision_tree
decision_tree_leaf
p569
(dp570
g25
g26
(g27
tp571
Rp572
g30
I2
ssg32
g30
sbsg33
(idecision_tree
continuous_decision_tree
p573
(dp574
g2
F0.349256
sg3
I50
sg4
(idecision_tree
decision_tree_leaf
p575
(dp576
g25
g26
(g27
tp577
Rp578
g30
I2
ssg32
g30
sbsg33
(idecision_tree
continuous_decision_tree
p579
(dp580
g2
F0.1501135
sg3
I48
sg4
(idecision_tree
continuous_decision_tree
p581
(dp582
g2
F0.977324
sg3
I34
sg4
(idecision_tree
continuous_decision_tree
p583
(dp584
g2
F0.382053
sg3
I52
sg4
(idecision_tree
decision_tree_leaf
p585
(dp586
g25
g26
(g27
tp587
Rp588
g30
I2
ssg32
g30
sbsg33
(idecision_tree
continuous_decision_tree
p589
(dp590
g2
F42.5
sg3
I67
sg4
(idecision_tree
decision_tree_leaf
p591
(dp592
g25
g26
(g27
tp593
Rp594
g30
I2
ssg32
g30
sbsg33
(idecision_tree
continuous_decision_tree
p595
(dp596
g2
F1.0
sg3
I66
sg4
(idecision_tree
continuous_decision_tree
p597
(dp598
g2
F77.04255
sg3
I40
sg4
(idecision_tree
continuous_decision_tree
p599
(dp600
g2
F22.0
sg3
I67
sg4
(idecision_tree
decision_tree_leaf
p601
(dp602
g25
g26
(g27
tp603
Rp604
S'PKP'
p605
I1
ssg32
g605
sbsg33
(idecision_tree
decision_tree_leaf
p606
(dp607
g25
g26
(g27
tp608
Rp609
g30
I1
ssg32
g30
sbsbsg33
(idecision_tree
decision_tree_leaf
p610
(dp611
g25
g26
(g27
tp612
Rp613
g30
I1
ssg32
g30
sbsbsg33
(idecision_tree
decision_tree_leaf
p614
(dp615
g25
g26
(g27
tp616
Rp617
g30
I5
ssg32
g30
sbsbsbsbsg33
(idecision_tree
decision_tree_leaf
p618
(dp619
g25
g26
(g27
tp620
Rp621
g30
I2
ssg32
g30
sbsbsg33
(idecision_tree
decision_tree_leaf
p622
(dp623
g25
g26
(g27
tp624
Rp625
g30
I2
ssg32
g30
sbsbsbsbsbsbsg33
(idecision_tree
continuous_decision_tree
p626
(dp627
g2
F1.0
sg3
I58
sg4
(idecision_tree
continuous_decision_tree
p628
(dp629
g2
F6.0
sg3
I59
sg4
(idecision_tree
continuous_decision_tree
p630
(dp631
g2
F1.0
sg3
I66
sg4
(idecision_tree
continuous_decision_tree
p632
(dp633
g2
F-101.0
sg3
I67
sg4
(idecision_tree
continuous_decision_tree
p634
(dp635
g2
F74.60245
sg3
I40
sg4
(idecision_tree
decision_tree_leaf
p636
(dp637
g25
g26
(g27
tp638
Rp639
g30
I6
sS'Pn'
p640
I1
ssg32
g30
sbsg33
(idecision_tree
decision_tree_leaf
p641
(dp642
g25
g26
(g27
tp643
Rp644
g30
I5
sS'PKP'
p645
I1
ssg32
g30
sbsbsg33
(idecision_tree
continuous_decision_tree
p646
(dp647
g2
F10.0
sg3
I59
sg4
(idecision_tree
decision_tree_leaf
p648
(dp649
g25
g26
(g27
tp650
Rp651
g30
I6
sS'Pn'
p652
I1
ssg32
g30
sbsg33
(idecision_tree
decision_tree_leaf
p653
(dp654
g25
g26
(g27
tp655
Rp656
g30
I1
ssg32
g30
sbsbsbsg33
(idecision_tree
continuous_decision_tree
p657
(dp658
g2
F2.3956749999999998
sg3
I39
sg4
(idecision_tree
continuous_decision_tree
p659
(dp660
g2
F0.0
sg3
I66
sg4
(idecision_tree
decision_tree_leaf
p661
(dp662
g25
g26
(g27
tp663
Rp664
g30
I12
sS'Pn'
p665
I1
ssg32
g30
sbsg33
(idecision_tree
continuous_decision_tree
p666
(dp667
g2
F0.07110745
sg3
I50
sg4
(idecision_tree
continuous_decision_tree
p668
(dp669
g2
F0.052099
sg3
I49
sg4
(idecision_tree
continuous_decision_tree
p670
(dp671
g2
F0.1463355
sg3
I51
sg4
(idecision_tree
decision_tree_leaf
p672
(dp673
g25
g26
(g27
tp674
Rp675
g30
I1
ssg32
g30
sbsg33
(idecision_tree
continuous_decision_tree
p676
(dp677
g2
F2.74531
sg3
I39
sg4
(idecision_tree
continuous_decision_tree
p678
(dp679
g2
F0.210013
sg3
I52
sg4
(idecision_tree
continuous_decision_tree
p680
(dp681
g2
F-49.835699999999996
sg3
I67
sg4
(idecision_tree
decision_tree_leaf
p682
(dp683
g25
g26
(g27
tp684
Rp685
g30
I1
ssg32
g30
sbsg33
(idecision_tree
continuous_decision_tree
p686
(dp687
g2
F17.33625
sg3
I44
sg4
(idecision_tree
continuous_decision_tree
p688
(dp689
g2
F73.48055
sg3
I40
sg4
(idecision_tree
continuous_decision_tree
p690
(dp691
g2
F-126.28569999999999
sg3
I67
sg4
(idecision_tree
decision_tree_leaf
p692
(dp693
g25
g26
(g27
tp694
Rp695
S'PKP'
p696
I1
ssg32
g696
sbsg33
(idecision_tree
decision_tree_leaf
p697
(dp698
g25
g26
(g27
tp699
Rp700
g30
I1
ssg32
g30
sbsbsg33
(idecision_tree
decision_tree_leaf
p701
(dp702
g25
g26
(g27
tp703
Rp704
g30
I1
ssg32
g30
sbsbsg33
(idecision_tree
decision_tree_leaf
p705
(dp706
g25
g26
(g27
tp707
Rp708
g30
I2
ssg32
g30
sbsbsbsg33
(idecision_tree
decision_tree_leaf
p709
(dp710
g25
g26
(g27
tp711
Rp712
g30
I2
ssg32
g30
sbsbsg33
(idecision_tree
decision_tree_leaf
p713
(dp714
g25
g26
(g27
tp715
Rp716
g30
I1
ssg32
g30
sbsbsbsg33
(idecision_tree
decision_tree_leaf
p717
(dp718
g25
g26
(g27
tp719
Rp720
g30
I1
ssg32
g30
sbsbsg33
(idecision_tree
decision_tree_leaf
p721
(dp722
g25
g26
(g27
tp723
Rp724
g30
I1
ssg32
g30
sbsbsbsg33
(idecision_tree
continuous_decision_tree
p725
(dp726
g2
F0.054559500000000004
sg3
I50
sg4
(idecision_tree
continuous_decision_tree
p727
(dp728
g2
F0.9759045
sg3
I34
sg4
(idecision_tree
continuous_decision_tree
p729
(dp730
g2
F41.0
sg3
I63
sg4
(idecision_tree
decision_tree_leaf
p731
(dp732
g25
g26
(g27
tp733
Rp734
g30
I1
ssg32
g30
sbsg33
(idecision_tree
continuous_decision_tree
p735
(dp736
g2
F39.0
sg3
I59
sg4
(idecision_tree
decision_tree_leaf
p737
(dp738
g25
g26
(g27
tp739
Rp740
g30
I1
ssg32
g30
sbsg33
(idecision_tree
continuous_decision_tree
p741
(dp742
g2
F0.0708669
sg3
I51
sg4
(idecision_tree
continuous_decision_tree
p743
(dp744
g2
F0.0757083
sg3
I49
sg4
(idecision_tree
decision_tree_leaf
p745
(dp746
g25
g26
(g27
tp747
Rp748
g30
I5
sS'PKP'
p749
I1
ssg32
g30
sbsg33
(idecision_tree
decision_tree_leaf
p750
(dp751
g25
g26
(g27
tp752
Rp753
g30
I1
ssg32
g30
sbsbsg33
(idecision_tree
decision_tree_leaf
p754
(dp755
g25
g26
(g27
tp756
Rp757
g30
I1
ssg32
g30
sbsbsbsbsg33
(idecision_tree
decision_tree_leaf
p758
(dp759
g25
g26
(g27
tp760
Rp761
g30
I1
ssg32
g30
sbsbsg33
(idecision_tree
decision_tree_leaf
p762
(dp763
g25
g26
(g27
tp764
Rp765
g30
I1
ssg32
g30
sbsbsbsbsg33
(idecision_tree
continuous_decision_tree
p766
(dp767
g2
F-98.25
sg3
I67
sg4
(idecision_tree
continuous_decision_tree
p768
(dp769
g2
F0.5471365
sg3
I49
sg4
(idecision_tree
decision_tree_leaf
p770
(dp771
g25
g26
(g27
tp772
Rp773
g30
I1
ssg32
g30
sbsg33
(idecision_tree
continuous_decision_tree
p774
(dp775
g2
F2.0
sg3
I62
sg4
(idecision_tree
decision_tree_leaf
p776
(dp777
g25
g26
(g27
tp778
Rp779
g30
I3
sS'PKP'
p780
I1
ssg32
g30
sbsg33
(idecision_tree
decision_tree_leaf
p781
(dp782
g25
g26
(g27
tp783
Rp784
g30
I11
ssg32
g30
sbsbsbsg33
(idecision_tree
continuous_decision_tree
p785
(dp786
g2
F1.0
sg3
I66
sg4
(idecision_tree
decision_tree_leaf
p787
(dp788
g25
g26
(g27
tp789
Rp790
g30
I4
sS'PKP'
p791
I1
ssg32
g30
sbsg33
(idecision_tree
decision_tree_leaf
p792
(dp793
g25
g26
(g27
tp794
Rp795
g30
I11
ssg32
g30
sbsbsbsbsg33
(idecision_tree
continuous_decision_tree
p796
(dp797
g2
F0.023442400000000002
sg3
I38
sg4
(idecision_tree
continuous_decision_tree
p798
(dp799
g2
F9.600195
sg3
I44
sg4
(idecision_tree
continuous_decision_tree
p800
(dp801
g2
F0.0463634
sg3
I50
sg4
(idecision_tree
continuous_decision_tree
p802
(dp803
g2
F86.7909
sg3
I40
sg4
(idecision_tree
decision_tree_leaf
p804
(dp805
g25
g26
(g27
tp806
Rp807
g30
I5
ssg32
g30
sbsg33
(idecision_tree
continuous_decision_tree
p808
(dp809
g2
F1.569875
sg3
I39
sg4
(idecision_tree
decision_tree_leaf
p810
(dp811
g25
g26
(g27
tp812
Rp813
g30
I53
sS'PKP'
p814
I1
ssg32
g30
sbsg33
(idecision_tree
decision_tree_leaf
p815
(dp816
g25
g26
(g27
tp817
Rp818
g30
I5
ssg32
g30
sbsbsbsg33
(idecision_tree
decision_tree_leaf
p819
(dp820
g25
g26
(g27
tp821
Rp822
g30
I4
ssg32
g30
sbsbsg33
(idecision_tree
decision_tree_leaf
p823
(dp824
g25
g26
(g27
tp825
Rp826
g30
I1
ssg32
g30
sbsbsg33
(idecision_tree
decision_tree_leaf
p827
(dp828
g25
g26
(g27
tp829
Rp830
g30
I1
ssg32
g30
sbsbsbsbsbsg33
(idecision_tree
continuous_decision_tree
p831
(dp832
g2
F0.14481
sg3
I38
sg4
(idecision_tree
continuous_decision_tree
p833
(dp834
g2
F86.96244999999999
sg3
I40
sg4
(idecision_tree
continuous_decision_tree
p835
(dp836
g2
F0.0
sg3
I62
sg4
(idecision_tree
continuous_decision_tree
p837
(dp838
g2
F1.25
sg3
I67
sg4
(idecision_tree
continuous_decision_tree
p839
(dp840
g2
F0.7930999999999999
sg3
I48
sg4
(idecision_tree
decision_tree_leaf
p841
(dp842
g25
g26
(g27
tp843
Rp844
g30
I2
ssg32
g30
sbsg33
(idecision_tree
continuous_decision_tree
p845
(dp846
g2
F0.834329
sg3
I35
sg4
(idecision_tree
continuous_decision_tree
p847
(dp848
g2
F31.886049999999997
sg3
I44
sg4
(idecision_tree
decision_tree_leaf
p849
(dp850
g25
g26
(g27
tp851
Rp852
g30
I2
ssg32
g30
sbsg33
(idecision_tree
continuous_decision_tree
p853
(dp854
g2
F0.6367795
sg3
I38
sg4
(idecision_tree
decision_tree_leaf
p855
(dp856
g25
g26
(g27
tp857
Rp858
g30
I2
ssg32
g30
sbsg33
(idecision_tree
continuous_decision_tree
p859
(dp860
g2
F0.8365735000000001
sg3
I52
sg4
(idecision_tree
decision_tree_leaf
p861
(dp862
g25
g26
(g27
tp863
Rp864
g30
I1
ssg32
g30
sbsg33
(idecision_tree
continuous_decision_tree
p865
(dp866
g2
F1.60249
sg3
I39
sg4
(idecision_tree
continuous_decision_tree
p867
(dp868
g2
F0.27077850000000003
sg3
I37
sg4
(idecision_tree
decision_tree_leaf
p869
(dp870
g25
g26
(g27
tp871
Rp872
g30
I1
ssg32
g30
sbsg33
(idecision_tree
continuous_decision_tree
p873
(dp874
g2
F-0.5
sg3
I58
sg4
(idecision_tree
continuous_decision_tree
p875
(dp876
g2
F-12.0
sg3
I59
sg4
(idecision_tree
continuous_decision_tree
p877
(dp878
g2
F1.0
sg3
I62
sg4
(idecision_tree
continuous_decision_tree
p879
(dp880
g2
F0.1922545
sg3
I50
sg4
(idecision_tree
continuous_decision_tree
p881
(dp882
g2
F0.1979565
sg3
I49
sg4
(idecision_tree
continuous_decision_tree
p883
(dp884
g2
F61.25
sg3
I67
sg4
(idecision_tree
decision_tree_leaf
p885
(dp886
g25
g26
(g27
tp887
Rp888
g30
I1
ssg32
g30
sbsg33
(idecision_tree
decision_tree_leaf
p889
(dp890
g25
g26
(g27
tp891
Rp892
S'PKP'
p893
I1
ssg32
g893
sbsbsg33
(idecision_tree
decision_tree_leaf
p894
(dp895
g25
g26
(g27
tp896
Rp897
g30
I1
ssg32
g30
sbsbsg33
(idecision_tree
decision_tree_leaf
p898
(dp899
g25
g26
(g27
tp900
Rp901
g30
I1
ssg32
g30
sbsbsg33
(idecision_tree
decision_tree_leaf
p902
(dp903
g25
g26
(g27
tp904
Rp905
g30
I5
ssg32
g30
sbsbsg33
(idecision_tree
decision_tree_leaf
p906
(dp907
g25
g26
(g27
tp908
Rp909
g30
I1
ssg32
g30
sbsbsg33
(idecision_tree
decision_tree_leaf
p910
(dp911
g25
g26
(g27
tp912
Rp913
g30
I1
ssg32
g30
sbsbsbsg33
(idecision_tree
decision_tree_leaf
p914
(dp915
g25
g26
(g27
tp916
Rp917
g30
I1
ssg32
g30
sbsbsbsbsbsg33
(idecision_tree
decision_tree_leaf
p918
(dp919
g25
g26
(g27
tp920
Rp921
g30
I1
ssg32
g30
sbsbsbsg33
(idecision_tree
decision_tree_leaf
p922
(dp923
g25
g26
(g27
tp924
Rp925
g30
I20
sS'PKP'
p926
I1
ssg32
g30
sbsbsg33
(idecision_tree
continuous_decision_tree
p927
(dp928
g2
F-82.0
sg3
I63
sg4
(idecision_tree
continuous_decision_tree
p929
(dp930
g2
F0.5
sg3
I58
sg4
(idecision_tree
decision_tree_leaf
p931
(dp932
g25
g26
(g27
tp933
Rp934
g30
I1
ssg32
g30
sbsg33
(idecision_tree
continuous_decision_tree
p935
(dp936
g2
F5.5
sg3
I59
sg4
(idecision_tree
decision_tree_leaf
p937
(dp938
g25
g26
(g27
tp939
Rp940
g30
I1
ssg32
g30
sbsg33
(idecision_tree
continuous_decision_tree
p941
(dp942
g2
F0.05491495
sg3
I51
sg4
(idecision_tree
continuous_decision_tree
p943
(dp944
g2
F95.75
sg3
I67
sg4
(idecision_tree
continuous_decision_tree
p945
(dp946
g2
F2.0
sg3
I66
sg4
(idecision_tree
decision_tree_leaf
p947
(dp948
g25
g26
(g27
tp949
Rp950
g30
I1
ssg32
g30
sbsg33
(idecision_tree
continuous_decision_tree
p951
(dp952
g2
F-1.0
sg3
I62
sg4
(idecision_tree
continuous_decision_tree
p953
(dp954
g2
F117.0
sg3
I67
sg4
(idecision_tree
decision_tree_leaf
p955
(dp956
g25
g26
(g27
tp957
Rp958
g30
I1
ssg32
g30
sbsg33
(idecision_tree
decision_tree_leaf
p959
(dp960
g25
g26
(g27
tp961
Rp962
S'PKP'
p963
I1
ssg32
g963
sbsbsg33
(idecision_tree
decision_tree_leaf
p964
(dp965
g25
g26
(g27
tp966
Rp967
g30
I2
ssg32
g30
sbsbsbsg33
(idecision_tree
decision_tree_leaf
p968
(dp969
g25
g26
(g27
tp970
Rp971
g30
I1
ssg32
g30
sbsbsg33
(idecision_tree
decision_tree_leaf
p972
(dp973
g25
g26
(g27
tp974
Rp975
g30
I1
ssg32
g30
sbsbsbsbsg33
(idecision_tree
decision_tree_leaf
p976
(dp977
g25
g26
(g27
tp978
Rp979
g30
I1
ssg32
g30
sbsbsbsg33
(idecision_tree
continuous_decision_tree
p980
(dp981
g2
F-8.0
sg3
I59
sg4
(idecision_tree
continuous_decision_tree
p982
(dp983
g2
F1.0
sg3
I66
sg4
(idecision_tree
continuous_decision_tree
p984
(dp985
g2
F0.0
sg3
I59
sg4
(idecision_tree
continuous_decision_tree
p986
(dp987
g2
F3.0
sg3
I66
sg4
(idecision_tree
continuous_decision_tree
p988
(dp989
g2
F0.1516245
sg3
I50
sg4
(idecision_tree
continuous_decision_tree
p990
(dp991
g2
F4.0
sg3
I66
sg4
(idecision_tree
continuous_decision_tree
p992
(dp993
g2
F2.0
sg3
I62
sg4
(idecision_tree
continuous_decision_tree
p994
(dp995
g2
F0.38505900000000004
sg3
I51
sg4
(idecision_tree
decision_tree_leaf
p996
(dp997
g25
g26
(g27
tp998
Rp999
g30
I1
ssg32
g30
sbsg33
(idecision_tree
decision_tree_leaf
p1000
(dp1001
g25
g26
(g27
tp1002
Rp1003
g30
I18
sS'Pn'
p1004
I1
ssg32
g30
sbsbsg33
(idecision_tree
decision_tree_leaf
p1005
(dp1006
g25
g26
(g27
tp1007
Rp1008
g30
I9
sS'PKP'
p1009
I1
ssg32
g30
sbsbsg33
(idecision_tree
continuous_decision_tree
p1010
(dp1011
g2
F1.6012300000000002
sg3
I48
sg4
(idecision_tree
decision_tree_leaf
p1012
(dp1013
g25
g26
(g27
tp1014
Rp1015
g30
I1
ssg32
g30
sbsg33
(idecision_tree
continuous_decision_tree
p1016
(dp1017
g2
F-42.3333
sg3
I63
sg4
(idecision_tree
continuous_decision_tree
p1018
(dp1019
g2
F0.790829
sg3
I52
sg4
(idecision_tree
decision_tree_leaf
p1020
(dp1021
g25
g26
(g27
tp1022
Rp1023
g30
I1
ssg32
g30
sbsg33
(idecision_tree
continuous_decision_tree
p1024
(dp1025
g2
F0.6184815
sg3
I49
sg4
(idecision_tree
decision_tree_leaf
p1026
(dp1027
g25
g26
(g27
tp1028
Rp1029
g30
I2
ssg32
g30
sbsg33
(idecision_tree
continuous_decision_tree
p1030
(dp1031
g2
F0.286058
sg3
I50
sg4
(idecision_tree
decision_tree_leaf
p1032
(dp1033
g25
g26
(g27
tp1034
Rp1035
g30
I3
ssg32
g30
sbsg33
(idecision_tree
continuous_decision_tree
p1036
(dp1037
g2
F2.5
sg3
I58
sg4
(idecision_tree
decision_tree_leaf
p1038
(dp1039
g25
g26
(g27
tp1040
Rp1041
g30
I3
ssg32
g30
sbsg33
(idecision_tree
continuous_decision_tree
p1042
(dp1043
g2
F2.66861
sg3
I39
sg4
(idecision_tree
decision_tree_leaf
p1044
(dp1045
g25
g26
(g27
tp1046
Rp1047
g30
I3
ssg32
g30
sbsg33
(idecision_tree
decision_tree_leaf
p1048
(dp1049
g25
g26
(g27
tp1050
Rp1051
g30
I10
sS'Pn'
p1052
I1
ssg32
g30
sbsbsbsbsbsbsg33
(idecision_tree
decision_tree_leaf
p1053
(dp1054
g25
g26
(g27
tp1055
Rp1056
g30
I2
ssg32
g30
sbsbsbsbsg33
(idecision_tree
continuous_decision_tree
p1057
(dp1058
g2
F65.98745
sg3
I40
sg4
(idecision_tree
continuous_decision_tree
p1059
(dp1060
g2
F0.11208679999999999
sg3
I48
sg4
(idecision_tree
continuous_decision_tree
p1061
(dp1062
g2
F0.556238
sg3
I49
sg4
(idecision_tree
decision_tree_leaf
p1063
(dp1064
g25
g26
(g27
tp1065
Rp1066
g30
I3
ssg32
g30
sbsg33
(idecision_tree
continuous_decision_tree
p1067
(dp1068
g2
F3.768085
sg3
I39
sg4
(idecision_tree
decision_tree_leaf
p1069
(dp1070
g25
g26
(g27
tp1071
Rp1072
g30
I2
ssg32
g30
sbsg33
(idecision_tree
continuous_decision_tree
p1073
(dp1074
g2
F0.97699
sg3
I35
sg4
(idecision_tree
decision_tree_leaf
p1075
(dp1076
g25
g26
(g27
tp1077
Rp1078
g30
I1
ssg32
g30
sbsg33
(idecision_tree
decision_tree_leaf
p1079
(dp1080
g25
g26
(g27
tp1081
Rp1082
g30
I9
sS'PKP'
p1083
I1
ssg32
g30
sbsbsbsbsg33
(idecision_tree
decision_tree_leaf
p1084
(dp1085
g25
g26
(g27
tp1086
Rp1087
g30
I2
ssg32
g30
sbsbsg33
(idecision_tree
decision_tree_leaf
p1088
(dp1089
g25
g26
(g27
tp1090
Rp1091
g30
I1
ssg32
g30
sbsbsbsg33
(idecision_tree
continuous_decision_tree
p1092
(dp1093
g2
F77.40455
sg3
I40
sg4
(idecision_tree
continuous_decision_tree
p1094
(dp1095
g2
F0.1783815
sg3
I38
sg4
(idecision_tree
continuous_decision_tree
p1096
(dp1097
g2
F0.520413
sg3
I48
sg4
(idecision_tree
continuous_decision_tree
p1098
(dp1099
g2
F-114.13300000000001
sg3
I67
sg4
(idecision_tree
continuous_decision_tree
p1100
(dp1101
g2
F3.12279
sg3
I52
sg4
(idecision_tree
decision_tree_leaf
p1102
(dp1103
g25
g26
(g27
tp1104
Rp1105
g30
I1
ssg32
g30
sbsg33
(idecision_tree
continuous_decision_tree
p1106
(dp1107
g2
F0.7632095
sg3
I38
sg4
(idecision_tree
decision_tree_leaf
p1108
(dp1109
g25
g26
(g27
tp1110
Rp1111
g30
I1
ssg32
g30
sbsg33
(idecision_tree
continuous_decision_tree
p1112
(dp1113
g2
F57.75
sg3
I63
sg4
(idecision_tree
decision_tree_leaf
p1114
(dp1115
g25
g26
(g27
tp1116
Rp1117
g30
I2
ssg32
g30
sbsg33
(idecision_tree
continuous_decision_tree
p1118
(dp1119
g2
F79.29595
sg3
I40
sg4
(idecision_tree
continuous_decision_tree
p1120
(dp1121
g2
F0.3539015
sg3
I50
sg4
(idecision_tree
continuous_decision_tree
p1122
(dp1123
g2
F0.25741400000000003
sg3
I49
sg4
(idecision_tree
decision_tree_leaf
p1124
(dp1125
g25
g26
(g27
tp1126
Rp1127
g30
I2
sS'Pn'
p1128
I1
ssg32
g30
sbsg33
(idecision_tree
decision_tree_leaf
p1129
(dp1130
g25
g26
(g27
tp1131
Rp1132
g30
I2
ssg32
g30
sbsbsg33
(idecision_tree
decision_tree_leaf
p1133
(dp1134
g25
g26
(g27
tp1135
Rp1136
g30
I3
ssg32
g30
sbsbsg33
(idecision_tree
decision_tree_leaf
p1137
(dp1138
g25
g26
(g27
tp1139
Rp1140
g30
I2
ssg32
g30
sbsbsbsbsbsg33
(idecision_tree
decision_tree_leaf
p1141
(dp1142
g25
g26
(g27
tp1143
Rp1144
g30
I1
ssg32
g30
sbsbsg33
(idecision_tree
continuous_decision_tree
p1145
(dp1146
g2
F-187.41649999999998
sg3
I67
sg4
(idecision_tree
continuous_decision_tree
p1147
(dp1148
g2
F0.785974
sg3
I52
sg4
(idecision_tree
decision_tree_leaf
p1149
(dp1150
g25
g26
(g27
tp1151
Rp1152
g30
I1
ssg32
g30
sbsg33
(idecision_tree
decision_tree_leaf
p1153
(dp1154
g25
g26
(g27
tp1155
Rp1156
g30
I14
sS'Pn'
p1157
I1
ssg32
g30
sbsbsg33
(idecision_tree
decision_tree_leaf
p1158
(dp1159
g25
g26
(g27
tp1160
Rp1161
g30
I1
ssg32
g30
sbsbsbsg33
(idecision_tree
decision_tree_leaf
p1162
(dp1163
g25
g26
(g27
tp1164
Rp1165
g30
I14
sS'PKP'
p1166
I1
ssg32
g30
sbsbsg33
(idecision_tree
continuous_decision_tree
p1167
(dp1168
g2
F-93.79165
sg3
I67
sg4
(idecision_tree
continuous_decision_tree
p1169
(dp1170
g2
F0.0
sg3
I63
sg4
(idecision_tree
continuous_decision_tree
p1171
(dp1172
g2
F20.0
sg3
I63
sg4
(idecision_tree
decision_tree_leaf
p1173
(dp1174
g25
g26
(g27
tp1175
Rp1176
g30
I14
sS'Pn'
p1177
I1
ssg32
g30
sbsg33
(idecision_tree
continuous_decision_tree
p1178
(dp1179
g2
F2.396715
sg3
I39
sg4
(idecision_tree
continuous_decision_tree
p1180
(dp1181
g2
F2.353415
sg3
I48
sg4
(idecision_tree
decision_tree_leaf
p1182
(dp1183
g25
g26
(g27
tp1184
Rp1185
g30
I2
ssg32
g30
sbsg33
(idecision_tree
continuous_decision_tree
p1186
(dp1187
g2
F0.57677
sg3
I52
sg4
(idecision_tree
decision_tree_leaf
p1188
(dp1189
g25
g26
(g27
tp1190
Rp1191
g30
I2
ssg32
g30
sbsg33
(idecision_tree
continuous_decision_tree
p1192
(dp1193
g2
F0.9185415
sg3
I34
sg4
(idecision_tree
continuous_decision_tree
p1194
(dp1195
g2
F0.1698025
sg3
I51
sg4
(idecision_tree
decision_tree_leaf
p1196
(dp1197
g25
g26
(g27
tp1198
Rp1199
g30
I2
ssg32
g30
sbsg33
(idecision_tree
continuous_decision_tree
p1200
(dp1201
g2
F5.95072
sg3
I39
sg4
(idecision_tree
decision_tree_leaf
p1202
(dp1203
g25
g26
(g27
tp1204
Rp1205
g30
I1
ssg32
g30
sbsg33
(idecision_tree
decision_tree_leaf
p1206
(dp1207
g25
g26
(g27
tp1208
Rp1209
g30
I5
sg371
I1
ssg32
g30
sbsbsbsg33
(idecision_tree
decision_tree_leaf
p1210
(dp1211
g25
g26
(g27
tp1212
Rp1213
g30
I2
ssg32
g30
sbsbsbsbsg33
(idecision_tree
continuous_decision_tree
p1214
(dp1215
g2
F0.295668
sg3
I49
sg4
(idecision_tree
continuous_decision_tree
p1216
(dp1217
g2
F0.512175
sg3
I50
sg4
(idecision_tree
decision_tree_leaf
p1218
(dp1219
g25
g26
(g27
tp1220
Rp1221
g30
I1
ssg32
g30
sbsg33
(idecision_tree
continuous_decision_tree
p1222
(dp1223
g2
F0.49912049999999997
sg3
I52
sg4
(idecision_tree
decision_tree_leaf
p1224
(dp1225
g25
g26
(g27
tp1226
Rp1227
g30
I1
ssg32
g30
sbsg33
(idecision_tree
continuous_decision_tree
p1228
(dp1229
g2
F0.5102675000000001
sg3
I38
sg4
(idecision_tree
decision_tree_leaf
p1230
(dp1231
g25
g26
(g27
tp1232
Rp1233
g30
I1
ssg32
g30
sbsg33
(idecision_tree
continuous_decision_tree
p1234
(dp1235
g2
F0.8346709999999999
sg3
I35
sg4
(idecision_tree
decision_tree_leaf
p1236
(dp1237
g25
g26
(g27
tp1238
Rp1239
g30
I8
sS'Sn'
p1240
I1
ssg32
g30
sbsg33
(idecision_tree
decision_tree_leaf
p1241
(dp1242
g25
g26
(g27
tp1243
Rp1244
g30
I1
ssg32
g30
sbsbsbsbsbsg33
(idecision_tree
continuous_decision_tree
p1245
(dp1246
g2
F15.0
sg3
I63
sg4
(idecision_tree
decision_tree_leaf
p1247
(dp1248
g25
g26
(g27
tp1249
Rp1250
g30
I1
ssg32
g30
sbsg33
(idecision_tree
continuous_decision_tree
p1251
(dp1252
g2
F1.0
sg3
I62
sg4
(idecision_tree
decision_tree_leaf
p1253
(dp1254
g25
g26
(g27
tp1255
Rp1256
g30
I3
sS'PKP'
p1257
I1
ssg32
g30
sbsg33
(idecision_tree
decision_tree_leaf
p1258
(dp1259
g25
g26
(g27
tp1260
Rp1261
g30
I9
ssg32
g30
sbsbsbsbsbsbsg33
(idecision_tree
decision_tree_leaf
p1262
(dp1263
g25
g26
(g27
tp1264
Rp1265
g30
I5
ssg32
g30
sbsbsg33
(idecision_tree
continuous_decision_tree
p1266
(dp1267
g2
F0.5177579999999999
sg3
I51
sg4
(idecision_tree
decision_tree_leaf
p1268
(dp1269
g25
g26
(g27
tp1270
Rp1271
g30
I1
ssg32
g30
sbsg33
(idecision_tree
continuous_decision_tree
p1272
(dp1273
g2
F0.8830565
sg3
I35
sg4
(idecision_tree
continuous_decision_tree
p1274
(dp1275
g2
F2.0
sg3
I66
sg4
(idecision_tree
continuous_decision_tree
p1276
(dp1277
g2
F1.5
sg3
I62
sg4
(idecision_tree
continuous_decision_tree
p1278
(dp1279
g2
F24.25
sg3
I59
sg4
(idecision_tree
decision_tree_leaf
p1280
(dp1281
g25
g26
(g27
tp1282
Rp1283
g30
I1
ssg32
g30
sbsg33
(idecision_tree
decision_tree_leaf
p1284
(dp1285
g25
g26
(g27
tp1286
Rp1287
g30
I4
sg371
I1
ssg32
g30
sbsbsg33
(idecision_tree
decision_tree_leaf
p1288
(dp1289
g25
g26
(g27
tp1290
Rp1291
g30
I1
ssg32
g30
sbsbsg33
(idecision_tree
decision_tree_leaf
p1292
(dp1293
g25
g26
(g27
tp1294
Rp1295
g30
I7
ssg32
g30
sbsbsg33
(idecision_tree
decision_tree_leaf
p1296
(dp1297
g25
g26
(g27
tp1298
Rp1299
g30
I1
ssg32
g30
sbsbsbsbsbsbsg33
(idecision_tree
continuous_decision_tree
p1300
(dp1301
g2
F0.0
sg3
I62
sg4
(idecision_tree
continuous_decision_tree
p1302
(dp1303
g2
F1.0
sg3
I58
sg4
(idecision_tree
continuous_decision_tree
p1304
(dp1305
g2
F-7.25
sg3
I63
sg4
(idecision_tree
continuous_decision_tree
p1306
(dp1307
g2
F0.289746
sg3
I52
sg4
(idecision_tree
continuous_decision_tree
p1308
(dp1309
g2
F7.041650000000001
sg3
I67
sg4
(idecision_tree
decision_tree_leaf
p1310
(dp1311
g25
g26
(g27
tp1312
Rp1313
g30
I1
ssg32
g30
sbsg33
(idecision_tree
decision_tree_leaf
p1314
(dp1315
g25
g26
(g27
tp1316
Rp1317
S'Pn'
p1318
I1
ssg32
g1318
sbsbsg33
(idecision_tree
decision_tree_leaf
p1319
(dp1320
g25
g26
(g27
tp1321
Rp1322
g30
I1
ssg32
g30
sbsbsg33
(idecision_tree
continuous_decision_tree
p1323
(dp1324
g2
F19.83335
sg3
I67
sg4
(idecision_tree
decision_tree_leaf
p1325
(dp1326
g25
g26
(g27
tp1327
Rp1328
S'Pn'
p1329
I1
ssg32
g1329
sbsg33
(idecision_tree
decision_tree_leaf
p1330
(dp1331
g25
g26
(g27
tp1332
Rp1333
g30
I1
ssg32
g30
sbsbsbsg33
(idecision_tree
decision_tree_leaf
p1334
(dp1335
g25
g26
(g27
tp1336
Rp1337
g30
I4
ssg32
g30
sbsbsg33
(idecision_tree
decision_tree_leaf
p1338
(dp1339
g25
g26
(g27
tp1340
Rp1341
g30
I6
ssg32
g30
sbsbsbsg33
(idecision_tree
continuous_decision_tree
p1342
(dp1343
g2
F0.8969985
sg3
I34
sg4
(idecision_tree
continuous_decision_tree
p1344
(dp1345
g2
F0.9804795
sg3
I34
sg4
(idecision_tree
continuous_decision_tree
p1346
(dp1347
g2
F1.129133
sg3
I52
sg4
(idecision_tree
decision_tree_leaf
p1348
(dp1349
g25
g26
(g27
tp1350
Rp1351
g30
I1
ssg32
g30
sbsg33
(idecision_tree
continuous_decision_tree
p1352
(dp1353
g2
F0.425276
sg3
I51
sg4
(idecision_tree
decision_tree_leaf
p1354
(dp1355
g25
g26
(g27
tp1356
Rp1357
g30
I1
ssg32
g30
sbsg33
(idecision_tree
continuous_decision_tree
p1358
(dp1359
g2
F-29.333334999999998
sg3
I63
sg4
(idecision_tree
continuous_decision_tree
p1360
(dp1361
g2
F1.0
sg3
I62
sg4
(idecision_tree
continuous_decision_tree
p1362
(dp1363
g2
F-115.0
sg3
I67
sg4
(idecision_tree
continuous_decision_tree
p1364
(dp1365
g2
F-69.0
sg3
I67
sg4
(idecision_tree
decision_tree_leaf
p1366
(dp1367
g25
g26
(g27
tp1368
Rp1369
g30
I1
ssg32
g30
sbsg33
(idecision_tree
decision_tree_leaf
p1370
(dp1371
g25
g26
(g27
tp1372
Rp1373
S'Pn'
p1374
I1
ssg32
g1374
sbsbsg33
(idecision_tree
decision_tree_leaf
p1375
(dp1376
g25
g26
(g27
tp1377
Rp1378
g30
I1
ssg32
g30
sbsbsg33
(idecision_tree
decision_tree_leaf
p1379
(dp1380
g25
g26
(g27
tp1381
Rp1382
g30
I12
ssg32
g30
sbsbsg33
(idecision_tree
decision_tree_leaf
p1383
(dp1384
g25
g26
(g27
tp1385
Rp1386
g30
I2
ssg32
g30
sbsbsbsbsg33
(idecision_tree
continuous_decision_tree
p1387
(dp1388
g2
F8.25
sg3
I59
sg4
(idecision_tree
decision_tree_leaf
p1389
(dp1390
g25
g26
(g27
tp1391
Rp1392
g30
I18
sS'Sn'
p1393
I1
ssg32
g30
sbsg33
(idecision_tree
continuous_decision_tree
p1394
(dp1395
g2
F-54.0
sg3
I67
sg4
(idecision_tree
continuous_decision_tree
p1396
(dp1397
g2
F0.1921385
sg3
I52
sg4
(idecision_tree
continuous_decision_tree
p1398
(dp1399
g2
F0.9595990000000001
sg3
I35
sg4
(idecision_tree
continuous_decision_tree
p1400
(dp1401
g2
F0.5135475
sg3
I52
sg4
(idecision_tree
decision_tree_leaf
p1402
(dp1403
g25
g26
(g27
tp1404
Rp1405
g30
I3
ssg32
g30
sbsg33
(idecision_tree
continuous_decision_tree
p1406
(dp1407
g2
F0.0
sg3
I63
sg4
(idecision_tree
continuous_decision_tree
p1408
(dp1409
g2
F0.0
sg3
I67
sg4
(idecision_tree
decision_tree_leaf
p1410
(dp1411
g25
g26
(g27
tp1412
Rp1413
g30
I5
sg371
I1
ssg32
g30
sbsg33
(idecision_tree
decision_tree_leaf
p1414
(dp1415
g25
g26
(g27
tp1416
Rp1417
g30
I1
ssg32
g30
sbsbsg33
(idecision_tree
decision_tree_leaf
p1418
(dp1419
g25
g26
(g27
tp1420
Rp1421
g30
I11
ssg32
g30
sbsbsbsg33
(idecision_tree
continuous_decision_tree
p1422
(dp1423
g2
F0.289094
sg3
I49
sg4
(idecision_tree
decision_tree_leaf
p1424
(dp1425
g25
g26
(g27
tp1426
Rp1427
g30
I17
sS'Pn'
p1428
I1
ssg32
g30
sbsg33
(idecision_tree
continuous_decision_tree
p1429
(dp1430
g2
F0.0
sg3
I66
sg4
(idecision_tree
continuous_decision_tree
p1431
(dp1432
g2
F54.0
sg3
I67
sg4
(idecision_tree
decision_tree_leaf
p1433
(dp1434
g25
g26
(g27
tp1435
Rp1436
g30
I1
ssg32
g30
sbsg33
(idecision_tree
decision_tree_leaf
p1437
(dp1438
g25
g26
(g27
tp1439
Rp1440
g30
I13
sS'Pn'
p1441
I1
ssg32
g30
sbsbsg33
(idecision_tree
decision_tree_leaf
p1442
(dp1443
g25
g26
(g27
tp1444
Rp1445
g30
I4
ssg32
g30
sbsbsbsbsg33
(idecision_tree
continuous_decision_tree
p1446
(dp1447
g2
F0.0833232
sg3
I37
sg4
(idecision_tree
continuous_decision_tree
p1448
(dp1449
g2
F0.9226055
sg3
I34
sg4
(idecision_tree
continuous_decision_tree
p1450
(dp1451
g2
F0.158725
sg3
I50
sg4
(idecision_tree
continuous_decision_tree
p1452
(dp1453
g2
F0.0
sg3
I63
sg4
(idecision_tree
continuous_decision_tree
p1454
(dp1455
g2
F0.666667
sg3
I8
sg4
(idecision_tree
decision_tree_leaf
p1456
(dp1457
g25
g26
(g27
tp1458
Rp1459
g30
I6
sS'PKP'
p1460
I1
ssg32
g30
sbsg33
(idecision_tree
decision_tree_leaf
p1461
(dp1462
g25
g26
(g27
tp1463
Rp1464
g30
I2
ssg32
g30
sbsbsg33
(idecision_tree
decision_tree_leaf
p1465
(dp1466
g25
g26
(g27
tp1467
Rp1468
g30
I5
ssg32
g30
sbsbsg33
(idecision_tree
decision_tree_leaf
p1469
(dp1470
g25
g26
(g27
tp1471
Rp1472
g30
I2
ssg32
g30
sbsbsg33
(idecision_tree
decision_tree_leaf
p1473
(dp1474
g25
g26
(g27
tp1475
Rp1476
g30
I2
ssg32
g30
sbsbsg33
(idecision_tree
decision_tree_leaf
p1477
(dp1478
g25
g26
(g27
tp1479
Rp1480
g30
I1
ssg32
g30
sbsbsbsg33
(idecision_tree
continuous_decision_tree
p1481
(dp1482
g2
F0.20666299999999999
sg3
I38
sg4
(idecision_tree
continuous_decision_tree
p1483
(dp1484
g2
F53.166650000000004
sg3
I63
sg4
(idecision_tree
decision_tree_leaf
p1485
(dp1486
g25
g26
(g27
tp1487
Rp1488
g30
I2
ssg32
g30
sbsg33
(idecision_tree
continuous_decision_tree
p1489
(dp1490
g2
F0.0964757
sg3
I37
sg4
(idecision_tree
continuous_decision_tree
p1491
(dp1492
g2
F14.50385
sg3
I44
sg4
(idecision_tree
continuous_decision_tree
p1493
(dp1494
g2
F1.53083
sg3
I39
sg4
(idecision_tree
continuous_decision_tree
p1495
(dp1496
g2
F7.0
sg3
I59
sg4
(idecision_tree
continuous_decision_tree
p1497
(dp1498
g2
F0.22088600000000003
sg3
I52
sg4
(idecision_tree
continuous_decision_tree
p1499
(dp1500
g2
F-68.5
sg3
I67
sg4
(idecision_tree
decision_tree_leaf
p1501
(dp1502
g25
g26
(g27
tp1503
Rp1504
S'PKP'
p1505
I1
ssg32
g1505
sbsg33
(idecision_tree
decision_tree_leaf
p1506
(dp1507
g25
g26
(g27
tp1508
Rp1509
g30
I1
ssg32
g30
sbsbsg33
(idecision_tree
decision_tree_leaf
p1510
(dp1511
g25
g26
(g27
tp1512
Rp1513
g30
I1
ssg32
g30
sbsbsg33
(idecision_tree
decision_tree_leaf
p1514
(dp1515
g25
g26
(g27
tp1516
Rp1517
g30
I9
ssg32
g30
sbsbsg33
(idecision_tree
decision_tree_leaf
p1518
(dp1519
g25
g26
(g27
tp1520
Rp1521
g30
I1
ssg32
g30
sbsbsg33
(idecision_tree
decision_tree_leaf
p1522
(dp1523
g25
g26
(g27
tp1524
Rp1525
g30
I1
ssg32
g30
sbsbsg33
(idecision_tree
decision_tree_leaf
p1526
(dp1527
g25
g26
(g27
tp1528
Rp1529
g30
I2
ssg32
g30
sbsbsbsg33
(idecision_tree
continuous_decision_tree
p1530
(dp1531
g2
F-0.5
sg3
I62
sg4
(idecision_tree
continuous_decision_tree
p1532
(dp1533
g2
F-2.0
sg3
I59
sg4
(idecision_tree
continuous_decision_tree
p1534
(dp1535
g2
F-34.0
sg3
I63
sg4
(idecision_tree
continuous_decision_tree
p1536
(dp1537
g2
F0.151426
sg3
I49
sg4
(idecision_tree
continuous_decision_tree
p1538
(dp1539
g2
F-116.5
sg3
I67
sg4
(idecision_tree
decision_tree_leaf
p1540
(dp1541
g25
g26
(g27
tp1542
Rp1543
g30
I4
ssg32
g30
sbsg33
(idecision_tree
continuous_decision_tree
p1544
(dp1545
g2
F0.33406100000000005
sg3
I50
sg4
(idecision_tree
decision_tree_leaf
p1546
(dp1547
g25
g26
(g27
tp1548
Rp1549
g30
I3
ssg32
g30
sbsg33
(idecision_tree
continuous_decision_tree
p1550
(dp1551
g2
F0.5555555
sg3
I8
sg4
(idecision_tree
continuous_decision_tree
p1552
(dp1553
g2
F0.596757
sg3
I48
sg4
(idecision_tree
decision_tree_leaf
p1554
(dp1555
g25
g26
(g27
tp1556
Rp1557
g30
I2
ssg32
g30
sbsg33
(idecision_tree
continuous_decision_tree
p1558
(dp1559
g2
F81.53035
sg3
I40
sg4
(idecision_tree
decision_tree_leaf
p1560
(dp1561
g25
g26
(g27
tp1562
Rp1563
g30
I1
ssg32
g30
sbsg33
(idecision_tree
continuous_decision_tree
p1564
(dp1565
g2
F0.1420085
sg3
I37
sg4
(idecision_tree
continuous_decision_tree
p1566
(dp1567
g2
F0.9548165
sg3
I35
sg4
(idecision_tree
continuous_decision_tree
p1568
(dp1569
g2
F-148.0
sg3
I67
sg4
(idecision_tree
decision_tree_leaf
p1570
(dp1571
g25
g26
(g27
tp1572
Rp1573
S'PKP'
p1574
I1
ssg32
g1574
sbsg33
(idecision_tree
decision_tree_leaf
p1575
(dp1576
g25
g26
(g27
tp1577
Rp1578
g30
I1
ssg32
g30
sbsbsg33
(idecision_tree
decision_tree_leaf
p1579
(dp1580
g25
g26
(g27
tp1581
Rp1582
g30
I1
ssg32
g30
sbsbsg33
(idecision_tree
decision_tree_leaf
p1583
(dp1584
g25
g26
(g27
tp1585
Rp1586
g30
I1
ssg32
g30
sbsbsbsbsg33
(idecision_tree
decision_tree_leaf
p1587
(dp1588
g25
g26
(g27
tp1589
Rp1590
g30
I1
ssg32
g30
sbsbsbsbsg33
(idecision_tree
decision_tree_leaf
p1591
(dp1592
g25
g26
(g27
tp1593
Rp1594
g30
I3
ssg32
g30
sbsbsg33
(idecision_tree
decision_tree_leaf
p1595
(dp1596
g25
g26
(g27
tp1597
Rp1598
g30
I1
ssg32
g30
sbsbsg33
(idecision_tree
decision_tree_leaf
p1599
(dp1600
g25
g26
(g27
tp1601
Rp1602
g30
I1
ssg32
g30
sbsbsg33
(idecision_tree
decision_tree_leaf
p1603
(dp1604
g25
g26
(g27
tp1605
Rp1606
g30
I1
ssg32
g30
sbsbsbsbsbsbsg33
(idecision_tree
continuous_decision_tree
p1607
(dp1608
g2
F0.0
sg3
I59
sg4
(idecision_tree
continuous_decision_tree
p1609
(dp1610
g2
F0.0
sg3
I67
sg4
(idecision_tree
continuous_decision_tree
p1611
(dp1612
g2
F0.666667
sg3
I8
sg4
(idecision_tree
continuous_decision_tree
p1613
(dp1614
g2
F0.0
sg3
I63
sg4
(idecision_tree
continuous_decision_tree
p1615
(dp1616
g2
F36.5
sg3
I67
sg4
(idecision_tree
decision_tree_leaf
p1617
(dp1618
g25
g26
(g27
tp1619
Rp1620
g30
I1
ssg32
g30
sbsg33
(idecision_tree
continuous_decision_tree
p1621
(dp1622
g2
F0.181732
sg3
I52
sg4
(idecision_tree
continuous_decision_tree
p1623
(dp1624
g2
F0.4548875
sg3
I49
sg4
(idecision_tree
decision_tree_leaf
p1625
(dp1626
g25
g26
(g27
tp1627
Rp1628
g30
I1
sS'PKP'
p1629
I1
ssg32
g30
sbsg33
(idecision_tree
decision_tree_leaf
p1630
(dp1631
g25
g26
(g27
tp1632
Rp1633
g30
I1
ssg32
g30
sbsbsg33
(idecision_tree
decision_tree_leaf
p1634
(dp1635
g25
g26
(g27
tp1636
Rp1637
g30
I1
ssg32
g30
sbsbsbsg33
(idecision_tree
decision_tree_leaf
p1638
(dp1639
g25
g26
(g27
tp1640
Rp1641
g30
I3
ssg32
g30
sbsbsg33
(idecision_tree
decision_tree_leaf
p1642
(dp1643
g25
g26
(g27
tp1644
Rp1645
g30
I13
ssg32
g30
sbsbsg33
(idecision_tree
continuous_decision_tree
p1646
(dp1647
g2
F29.0
sg3
I63
sg4
(idecision_tree
decision_tree_leaf
p1648
(dp1649
g25
g26
(g27
tp1650
Rp1651
g30
I1
ssg32
g30
sbsg33
(idecision_tree
continuous_decision_tree
p1652
(dp1653
g2
F0.5384395
sg3
I51
sg4
(idecision_tree
decision_tree_leaf
p1654
(dp1655
g25
g26
(g27
tp1656
Rp1657
g30
I1
ssg32
g30
sbsg33
(idecision_tree
continuous_decision_tree
p1658
(dp1659
g2
F6.427375
sg3
I39
sg4
(idecision_tree
decision_tree_leaf
p1660
(dp1661
g25
g26
(g27
tp1662
Rp1663
g30
I1
ssg32
g30
sbsg33
(idecision_tree
continuous_decision_tree
p1664
(dp1665
g2
F-230.0
sg3
I67
sg4
(idecision_tree
continuous_decision_tree
p1666
(dp1667
g2
F0.924472
sg3
I35
sg4
(idecision_tree
decision_tree_leaf
p1668
(dp1669
g25
g26
(g27
tp1670
Rp1671
g30
I2
ssg32
g30
sbsg33
(idecision_tree
continuous_decision_tree
p1672
(dp1673
g2
F0.8931009999999999
sg3
I34
sg4
(idecision_tree
decision_tree_leaf
p1674
(dp1675
g25
g26
(g27
tp1676
Rp1677
g30
I1
ssg32
g30
sbsg33
(idecision_tree
continuous_decision_tree
p1678
(dp1679
g2
F0.27102550000000003
sg3
I52
sg4
(idecision_tree
decision_tree_leaf
p1680
(dp1681
g25
g26
(g27
tp1682
Rp1683
g30
I1
ssg32
g30
sbsg33
(idecision_tree
continuous_decision_tree
p1684
(dp1685
g2
F-179.0
sg3
I67
sg4
(idecision_tree
decision_tree_leaf
p1686
(dp1687
g25
g26
(g27
tp1688
Rp1689
g30
I3
ssg32
g30
sbsg33
(idecision_tree
decision_tree_leaf
p1690
(dp1691
g25
g26
(g27
tp1692
Rp1693
g371
I1
ssg32
g371
sbsbsbsbsbsg33
(idecision_tree
decision_tree_leaf
p1694
(dp1695
g25
g26
(g27
tp1696
Rp1697
g30
I1
ssg32
g30
sbsbsbsbsbsbsg33
(idecision_tree
decision_tree_leaf
p1698
(dp1699
g25
g26
(g27
tp1700
Rp1701
g30
I6
ssg32
g30
sbsbsbsbsg33
(idecision_tree
continuous_decision_tree
p1702
(dp1703
g2
F76.36664999999999
sg3
I67
sg4
(idecision_tree
continuous_decision_tree
p1704
(dp1705
g2
F-24.0
sg3
I59
sg4
(idecision_tree
continuous_decision_tree
p1706
(dp1707
g2
F1.0882375
sg3
I50
sg4
(idecision_tree
decision_tree_leaf
p1708
(dp1709
g25
g26
(g27
tp1710
Rp1711
g30
I1
ssg32
g30
sbsg33
(idecision_tree
continuous_decision_tree
p1712
(dp1713
g2
F0.805766
sg3
I38
sg4
(idecision_tree
decision_tree_leaf
p1714
(dp1715
g25
g26
(g27
tp1716
Rp1717
g30
I1
ssg32
g30
sbsg33
(idecision_tree
continuous_decision_tree
p1718
(dp1719
g2
F0.6807205000000001
sg3
I51
sg4
(idecision_tree
decision_tree_leaf
p1720
(dp1721
g25
g26
(g27
tp1722
Rp1723
g30
I1
ssg32
g30
sbsg33
(idecision_tree
continuous_decision_tree
p1724
(dp1725
g2
F0.986783
sg3
I34
sg4
(idecision_tree
decision_tree_leaf
p1726
(dp1727
g25
g26
(g27
tp1728
Rp1729
g30
I1
ssg32
g30
sbsg33
(idecision_tree
continuous_decision_tree
p1730
(dp1731
g2
F0.6537634999999999
sg3
I48
sg4
(idecision_tree
decision_tree_leaf
p1732
(dp1733
g25
g26
(g27
tp1734
Rp1735
g30
I3
ssg32
g30
sbsg33
(idecision_tree
continuous_decision_tree
p1736
(dp1737
g2
F0.5384725
sg3
I49
sg4
(idecision_tree
decision_tree_leaf
p1738
(dp1739
g25
g26
(g27
tp1740
Rp1741
g30
I3
ssg32
g30
sbsg33
(idecision_tree
continuous_decision_tree
p1742
(dp1743
g2
F0.9490780000000001
sg3
I35
sg4
(idecision_tree
continuous_decision_tree
p1744
(dp1745
g2
F0.5555555
sg3
I8
sg4
(idecision_tree
continuous_decision_tree
p1746
(dp1747
g2
F-1.0
sg3
I58
sg4
(idecision_tree
continuous_decision_tree
p1748
(dp1749
g2
F115.2085
sg3
I67
sg4
(idecision_tree
decision_tree_leaf
p1750
(dp1751
g25
g26
(g27
tp1752
Rp1753
S'Pn'
p1754
I1
ssg32
g1754
sbsg33
(idecision_tree
decision_tree_leaf
p1755
(dp1756
g25
g26
(g27
tp1757
Rp1758
g30
I1
ssg32
g30
sbsbsg33
(idecision_tree
decision_tree_leaf
p1759
(dp1760
g25
g26
(g27
tp1761
Rp1762
g30
I5
ssg32
g30
sbsbsg33
(idecision_tree
decision_tree_leaf
p1763
(dp1764
g25
g26
(g27
tp1765
Rp1766
g30
I2
ssg32
g30
sbsbsg33
(idecision_tree
decision_tree_leaf
p1767
(dp1768
g25
g26
(g27
tp1769
Rp1770
g30
I3
ssg32
g30
sbsbsbsbsbsbsbsbsg33
(idecision_tree
continuous_decision_tree
p1771
(dp1772
g2
F3.0
sg3
I66
sg4
(idecision_tree
decision_tree_leaf
p1773
(dp1774
g25
g26
(g27
tp1775
Rp1776
g30
I3
sS'PKP'
p1777
I1
ssg32
g30
sbsg33
(idecision_tree
decision_tree_leaf
p1778
(dp1779
g25
g26
(g27
tp1780
Rp1781
g30
I13
ssg32
g30
sbsbsbsg33
(idecision_tree
continuous_decision_tree
p1782
(dp1783
g2
F0.0
sg3
I66
sg4
(idecision_tree
continuous_decision_tree
p1784
(dp1785
g2
F1.833335
sg3
I67
sg4
(idecision_tree
continuous_decision_tree
p1786
(dp1787
g2
F1.0
sg3
I62
sg4
(idecision_tree
continuous_decision_tree
p1788
(dp1789
g2
F22.75
sg3
I67
sg4
(idecision_tree
decision_tree_leaf
p1790
(dp1791
g25
g26
(g27
tp1792
Rp1793
g30
I1
ssg32
g30
sbsg33
(idecision_tree
decision_tree_leaf
p1794
(dp1795
g25
g26
(g27
tp1796
Rp1797
S'Sn'
p1798
I1
ssg32
g1798
sbsbsg33
(idecision_tree
decision_tree_leaf
p1799
(dp1800
g25
g26
(g27
tp1801
Rp1802
g30
I13
ssg32
g30
sbsbsg33
(idecision_tree
continuous_decision_tree
p1803
(dp1804
g2
F3.5
sg3
I66
sg4
(idecision_tree
decision_tree_leaf
p1805
(dp1806
g25
g26
(g27
tp1807
Rp1808
g30
I1
ssg32
g30
sbsg33
(idecision_tree
continuous_decision_tree
p1809
(dp1810
g2
F2.0
sg3
I62
sg4
(idecision_tree
decision_tree_leaf
p1811
(dp1812
g25
g26
(g27
tp1813
Rp1814
g30
I2
sS'Pn'
p1815
I1
ssg32
g30
sbsg33
(idecision_tree
decision_tree_leaf
p1816
(dp1817
g25
g26
(g27
tp1818
Rp1819
g30
I6
ssg32
g30
sbsbsbsbsg33
(idecision_tree
decision_tree_leaf
p1820
(dp1821
g25
g26
(g27
tp1822
Rp1823
g30
I15
ssg32
g30
sbsbsbsbsbsg33
(idecision_tree
continuous_decision_tree
p1824
(dp1825
g2
F2.0
sg3
I62
sg4
(idecision_tree
continuous_decision_tree
p1826
(dp1827
g2
F0.2641945
sg3
I52
sg4
(idecision_tree
continuous_decision_tree
p1828
(dp1829
g2
F3.0
sg3
I66
sg4
(idecision_tree
continuous_decision_tree
p1830
(dp1831
g2
F33.75
sg3
I59
sg4
(idecision_tree
continuous_decision_tree
p1832
(dp1833
g2
F-168.119
sg3
I67
sg4
(idecision_tree
continuous_decision_tree
p1834
(dp1835
g2
F0.774466
sg3
I52
sg4
(idecision_tree
decision_tree_leaf
p1836
(dp1837
g25
g26
(g27
tp1838
Rp1839
g30
I1
ssg32
g30
sbsg33
(idecision_tree
continuous_decision_tree
p1840
(dp1841
g2
F53.666650000000004
sg3
I59
sg4
(idecision_tree
decision_tree_leaf
p1842
(dp1843
g25
g26
(g27
tp1844
Rp1845
g30
I1
ssg32
g30
sbsg33
(idecision_tree
continuous_decision_tree
p1846
(dp1847
g2
F2.5
sg3
I62
sg4
(idecision_tree
continuous_decision_tree
p1848
(dp1849
g2
F0.9573400000000001
sg3
I34
sg4
(idecision_tree
continuous_decision_tree
p1850
(dp1851
g2
F4.0
sg3
I66
sg4
(idecision_tree
decision_tree_leaf
p1852
(dp1853
g25
g26
(g27
tp1854
Rp1855
g30
I5
sS'PKP'
p1856
I1
ssg32
g30
sbsg33
(idecision_tree
decision_tree_leaf
p1857
(dp1858
g25
g26
(g27
tp1859
Rp1860
g30
I1
ssg32
g30
sbsbsg33
(idecision_tree
decision_tree_leaf
p1861
(dp1862
g25
g26
(g27
tp1863
Rp1864
g30
I1
ssg32
g30
sbsbsg33
(idecision_tree
decision_tree_leaf
p1865
(dp1866
g25
g26
(g27
tp1867
Rp1868
g30
I1
ssg32
g30
sbsbsbsbsg33
(idecision_tree
decision_tree_leaf
p1869
(dp1870
g25
g26
(g27
tp1871
Rp1872
g30
I1
ssg32
g30
sbsbsg33
(idecision_tree
decision_tree_leaf
p1873
(dp1874
g25
g26
(g27
tp1875
Rp1876
g30
I32
sS'PKP'
p1877
I3
ssg32
g30
sbsbsg33
(idecision_tree
continuous_decision_tree
p1878
(dp1879
g2
F-117.0
sg3
I67
sg4
(idecision_tree
continuous_decision_tree
p1880
(dp1881
g2
F0.040614399999999995
sg3
I38
sg4
(idecision_tree
continuous_decision_tree
p1882
(dp1883
g2
F0.0993397
sg3
I49
sg4
(idecision_tree
continuous_decision_tree
p1884
(dp1885
g2
F0.115579
sg3
I48
sg4
(idecision_tree
continuous_decision_tree
p1886
(dp1887
g2
F2.0
sg3
I66
sg4
(idecision_tree
continuous_decision_tree
p1888
(dp1889
g2
F1.549085
sg3
I39
sg4
(idecision_tree
continuous_decision_tree
p1890
(dp1891
g2
F84.952
sg3
I40
sg4
(idecision_tree
decision_tree_leaf
p1892
(dp1893
g25
g26
(g27
tp1894
Rp1895
g30
I1
ssg32
g30
sbsg33
(idecision_tree
continuous_decision_tree
p1896
(dp1897
g2
F0.9555214999999999
sg3
I35
sg4
(idecision_tree
decision_tree_leaf
p1898
(dp1899
g25
g26
(g27
tp1900
Rp1901
g30
I7
sS'PKP'
p1902
I1
ssg32
g30
sbsg33
(idecision_tree
decision_tree_leaf
p1903
(dp1904
g25
g26
(g27
tp1905
Rp1906
g30
I1
ssg32
g30
sbsbsbsg33
(idecision_tree
decision_tree_leaf
p1907
(dp1908
g25
g26
(g27
tp1909
Rp1910
g30
I1
ssg32
g30
sbsbsg33
(idecision_tree
decision_tree_leaf
p1911
(dp1912
g25
g26
(g27
tp1913
Rp1914
g30
I7
ssg32
g30
sbsbsg33
(idecision_tree
decision_tree_leaf
p1915
(dp1916
g25
g26
(g27
tp1917
Rp1918
g30
I3
ssg32
g30
sbsbsg33
(idecision_tree
decision_tree_leaf
p1919
(dp1920
g25
g26
(g27
tp1921
Rp1922
g30
I2
ssg32
g30
sbsbsg33
(idecision_tree
decision_tree_leaf
p1923
(dp1924
g25
g26
(g27
tp1925
Rp1926
g30
I1
ssg32
g30
sbsbsg33
(idecision_tree
continuous_decision_tree
p1927
(dp1928
g2
F0.08038155
sg3
I51
sg4
(idecision_tree
continuous_decision_tree
p1929
(dp1930
g2
F0.0528249
sg3
I38
sg4
(idecision_tree
decision_tree_leaf
p1931
(dp1932
g25
g26
(g27
tp1933
Rp1934
g30
I14
sS'PKP'
p1935
I1
ssg32
g30
sbsg33
(idecision_tree
decision_tree_leaf
p1936
(dp1937
g25
g26
(g27
tp1938
Rp1939
g30
I1
ssg32
g30
sbsbsg33
(idecision_tree
decision_tree_leaf
p1940
(dp1941
g25
g26
(g27
tp1942
Rp1943
g30
I1
ssg32
g30
sbsbsbsbsg33
(idecision_tree
continuous_decision_tree
p1944
(dp1945
g2
F-113.458
sg3
I67
sg4
(idecision_tree
continuous_decision_tree
p1946
(dp1947
g2
F3.0
sg3
I66
sg4
(idecision_tree
continuous_decision_tree
p1948
(dp1949
g2
F0.146757
sg3
I52
sg4
(idecision_tree
continuous_decision_tree
p1950
(dp1951
g2
F0.1013125
sg3
I50
sg4
(idecision_tree
continuous_decision_tree
p1952
(dp1953
g2
F-90.44999999999999
sg3
I67
sg4
(idecision_tree
decision_tree_leaf
p1954
(dp1955
g25
g26
(g27
tp1956
Rp1957
g30
I13
sS'PKP'
p1958
I1
ssg32
g30
sbsg33
(idecision_tree
decision_tree_leaf
p1959
(dp1960
g25
g26
(g27
tp1961
Rp1962
g30
I1
ssg32
g30
sbsbsg33
(idecision_tree
decision_tree_leaf
p1963
(dp1964
g25
g26
(g27
tp1965
Rp1966
g30
I15
sS'PKP'
p1967
I1
ssg32
g30
sbsbsg33
(idecision_tree
continuous_decision_tree
p1968
(dp1969
g2
F0.1591195
sg3
I51
sg4
(idecision_tree
decision_tree_leaf
p1970
(dp1971
g25
g26
(g27
tp1972
Rp1973
g30
I1
ssg32
g30
sbsg33
(idecision_tree
continuous_decision_tree
p1974
(dp1975
g2
F1.225835
sg3
I39
sg4
(idecision_tree
continuous_decision_tree
p1976
(dp1977
g2
F10.89292
sg3
I44
sg4
(idecision_tree
continuous_decision_tree
p1978
(dp1979
g2
F-14.83335
sg3
I63
sg4
(idecision_tree
continuous_decision_tree
p1980
(dp1981
g2
F5.0
sg3
I62
sg4
(idecision_tree
decision_tree_leaf
p1982
(dp1983
g25
g26
(g27
tp1984
Rp1985
g30
I2
ssg32
g30
sbsg33
(idecision_tree
continuous_decision_tree
p1986
(dp1987
g2
F71.05815
sg3
I40
sg4
(idecision_tree
continuous_decision_tree
p1988
(dp1989
g2
F10.7205
sg3
I67
sg4
(idecision_tree
continuous_decision_tree
p1990
(dp1991
g2
F15.66665
sg3
I59
sg4
(idecision_tree
continuous_decision_tree
p1992
(dp1993
g2
F0.10561680000000001
sg3
I48
sg4
(idecision_tree
continuous_decision_tree
p1994
(dp1995
g2
F95.8205
sg3
I67
sg4
(idecision_tree
decision_tree_leaf
p1996
(dp1997
g25
g26
(g27
tp1998
Rp1999
g30
I1
ssg32
g30
sbsg33
(idecision_tree
decision_tree_leaf
p2000
(dp2001
g25
g26
(g27
tp2002
Rp2003
S'PKP'
p2004
I1
ssg32
g2004
sbsbsg33
(idecision_tree
decision_tree_leaf
p2005
(dp2006
g25
g26
(g27
tp2007
Rp2008
g30
I1
ssg32
g30
sbsbsg33
(idecision_tree
decision_tree_leaf
p2009
(dp2010
g25
g26
(g27
tp2011
Rp2012
g30
I2
ssg32
g30
sbsbsg33
(idecision_tree
decision_tree_leaf
p2013
(dp2014
g25
g26
(g27
tp2015
Rp2016
g30
I2
ssg32
g30
sbsbsg33
(idecision_tree
decision_tree_leaf
p2017
(dp2018
g25
g26
(g27
tp2019
Rp2020
g30
I1
ssg32
g30
sbsbsbsg33
(idecision_tree
decision_tree_leaf
p2021
(dp2022
g25
g26
(g27
tp2023
Rp2024
g30
I2
ssg32
g30
sbsbsg33
(idecision_tree
decision_tree_leaf
p2025
(dp2026
g25
g26
(g27
tp2027
Rp2028
g30
I1
ssg32
g30
sbsbsg33
(idecision_tree
decision_tree_leaf
p2029
(dp2030
g25
g26
(g27
tp2031
Rp2032
g30
I1
ssg32
g30
sbsbsbsbsg33
(idecision_tree
continuous_decision_tree
p2033
(dp2034
g2
F0.9749965
sg3
I35
sg4
(idecision_tree
continuous_decision_tree
p2035
(dp2036
g2
F0.0493438
sg3
I37
sg4
(idecision_tree
continuous_decision_tree
p2037
(dp2038
g2
F13.65955
sg3
I44
sg4
(idecision_tree
continuous_decision_tree
p2039
(dp2040
g2
F-102.3335
sg3
I67
sg4
(idecision_tree
continuous_decision_tree
p2041
(dp2042
g2
F0.976989
sg3
I34
sg4
(idecision_tree
continuous_decision_tree
p2043
(dp2044
g2
F0.666667
sg3
I8
sg4
(idecision_tree
continuous_decision_tree
p2045
(dp2046
g2
F8.75
sg3
I59
sg4
(idecision_tree
decision_tree_leaf
p2047
(dp2048
g25
g26
(g27
tp2049
Rp2050
g30
I1
ssg32
g30
sbsg33
(idecision_tree
continuous_decision_tree
p2051
(dp2052
g2
F1.5
sg3
I66
sg4
(idecision_tree
decision_tree_leaf
p2053
(dp2054
g25
g26
(g27
tp2055
Rp2056
g30
I1
ssg32
g30
sbsg33
(idecision_tree
continuous_decision_tree
p2057
(dp2058
g2
F0.07747865000000001
sg3
I51
sg4
(idecision_tree
continuous_decision_tree
p2059
(dp2060
g2
F-50.666835
sg3
I67
sg4
(idecision_tree
decision_tree_leaf
p2061
(dp2062
g25
g26
(g27
tp2063
Rp2064
g30
I1
ssg32
g30
sbsg33
(idecision_tree
decision_tree_leaf
p2065
(dp2066
g25
g26
(g27
tp2067
Rp2068
S'PKP'
p2069
I1
ssg32
g2069
sbsbsg33
(idecision_tree
decision_tree_leaf
p2070
(dp2071
g25
g26
(g27
tp2072
Rp2073
g30
I1
ssg32
g30
sbsbsbsbsg33
(idecision_tree
decision_tree_leaf
p2074
(dp2075
g25
g26
(g27
tp2076
Rp2077
g30
I5
ssg32
g30
sbsbsg33
(idecision_tree
decision_tree_leaf
p2078
(dp2079
g25
g26
(g27
tp2080
Rp2081
g30
I1
ssg32
g30
sbsbsg33
(idecision_tree
decision_tree_leaf
p2082
(dp2083
g25
g26
(g27
tp2084
Rp2085
g30
I1
ssg32
g30
sbsbsg33
(idecision_tree
decision_tree_leaf
p2086
(dp2087
g25
g26
(g27
tp2088
Rp2089
g30
I1
ssg32
g30
sbsbsg33
(idecision_tree
decision_tree_leaf
p2090
(dp2091
g25
g26
(g27
tp2092
Rp2093
g30
I1
ssg32
g30
sbsbsg33
(idecision_tree
continuous_decision_tree
p2094
(dp2095
g2
F0.10355149999999999
sg3
I52
sg4
(idecision_tree
continuous_decision_tree
p2096
(dp2097
g2
F2.0
sg3
I66
sg4
(idecision_tree
continuous_decision_tree
p2098
(dp2099
g2
F77.09864999999999
sg3
I40
sg4
(idecision_tree
decision_tree_leaf
p2100
(dp2101
g25
g26
(g27
tp2102
Rp2103
g30
I1
ssg32
g30
sbsg33
(idecision_tree
continuous_decision_tree
p2104
(dp2105
g2
F-46.33335
sg3
I67
sg4
(idecision_tree
decision_tree_leaf
p2106
(dp2107
g25
g26
(g27
tp2108
Rp2109
g30
I3
sS'PKP'
p2110
I1
ssg32
g30
sbsg33
(idecision_tree
decision_tree_leaf
p2111
(dp2112
g25
g26
(g27
tp2113
Rp2114
g30
I2
ssg32
g30
sbsbsbsg33
(idecision_tree
decision_tree_leaf
p2115
(dp2116
g25
g26
(g27
tp2117
Rp2118
g30
I5
ssg32
g30
sbsbsg33
(idecision_tree
decision_tree_leaf
p2119
(dp2120
g25
g26
(g27
tp2121
Rp2122
g30
I1
ssg32
g30
sbsbsbsbsg33
(idecision_tree
continuous_decision_tree
p2123
(dp2124
g2
F0.5555555
sg3
I8
sg4
(idecision_tree
continuous_decision_tree
p2125
(dp2126
g2
F50.0
sg3
I59
sg4
(idecision_tree
decision_tree_leaf
p2127
(dp2128
g25
g26
(g27
tp2129
Rp2130
g30
I1
ssg32
g30
sbsg33
(idecision_tree
continuous_decision_tree
p2131
(dp2132
g2
F52.666650000000004
sg3
I63
sg4
(idecision_tree
decision_tree_leaf
p2133
(dp2134
g25
g26
(g27
tp2135
Rp2136
g30
I1
ssg32
g30
sbsg33
(idecision_tree
continuous_decision_tree
p2137
(dp2138
g2
F0.06656985
sg3
I51
sg4
(idecision_tree
continuous_decision_tree
p2139
(dp2140
g2
F0.5289895
sg3
I49
sg4
(idecision_tree
decision_tree_leaf
p2141
(dp2142
g25
g26
(g27
tp2143
Rp2144
g30
I1
ssg32
g30
sbsg33
(idecision_tree
continuous_decision_tree
p2145
(dp2146
g2
F87.21535
sg3
I40
sg4
(idecision_tree
decision_tree_leaf
p2147
(dp2148
g25
g26
(g27
tp2149
Rp2150
g30
I1
ssg32
g30
sbsg33
(idecision_tree
continuous_decision_tree
p2151
(dp2152
g2
F1.3338700000000001
sg3
I39
sg4
(idecision_tree
continuous_decision_tree
p2153
(dp2154
g2
F0.1811105
sg3
I50
sg4
(idecision_tree
decision_tree_leaf
p2155
(dp2156
g25
g26
(g27
tp2157
Rp2158
g30
I2
ssg32
g30
sbsg33
(idecision_tree
continuous_decision_tree
p2159
(dp2160
g2
F0.3572305
sg3
I48
sg4
(idecision_tree
decision_tree_leaf
p2161
(dp2162
g25
g26
(g27
tp2163
Rp2164
g30
I2
ssg32
g30
sbsg33
(idecision_tree
continuous_decision_tree
p2165
(dp2166
g2
F-164.41649999999998
sg3
I67
sg4
(idecision_tree
continuous_decision_tree
p2167
(dp2168
g2
F-142.16649999999998
sg3
I67
sg4
(idecision_tree
continuous_decision_tree
p2169
(dp2170
g2
F-124.6665
sg3
I67
sg4
(idecision_tree
decision_tree_leaf
p2171
(dp2172
g25
g26
(g27
tp2173
Rp2174
S'PKP'
p2175
I1
ssg32
g2175
sbsg33
(idecision_tree
decision_tree_leaf
p2176
(dp2177
g25
g26
(g27
tp2178
Rp2179
g30
I1
ssg32
g30
sbsbsg33
(idecision_tree
decision_tree_leaf
p2180
(dp2181
g25
g26
(g27
tp2182
Rp2183
g30
I1
ssg32
g30
sbsbsg33
(idecision_tree
decision_tree_leaf
p2184
(dp2185
g25
g26
(g27
tp2186
Rp2187
g30
I1
ssg32
g30
sbsbsbsbsg33
(idecision_tree
decision_tree_leaf
p2188
(dp2189
g25
g26
(g27
tp2190
Rp2191
g30
I1
ssg32
g30
sbsbsbsbsg33
(idecision_tree
decision_tree_leaf
p2192
(dp2193
g25
g26
(g27
tp2194
Rp2195
g30
I1
ssg32
g30
sbsbsbsbsg33
(idecision_tree
continuous_decision_tree
p2196
(dp2197
g2
F-204.91649999999998
sg3
I67
sg4
(idecision_tree
continuous_decision_tree
p2198
(dp2199
g2
F3.5
sg3
I66
sg4
(idecision_tree
decision_tree_leaf
p2200
(dp2201
g25
g26
(g27
tp2202
Rp2203
g30
I1
ssg32
g30
sbsg33
(idecision_tree
continuous_decision_tree
p2204
(dp2205
g2
F1.9156849999999999
sg3
I39
sg4
(idecision_tree
continuous_decision_tree
p2206
(dp2207
g2
F0.284105
sg3
I50
sg4
(idecision_tree
decision_tree_leaf
p2208
(dp2209
g25
g26
(g27
tp2210
Rp2211
g30
I2
ssg32
g30
sbsg33
(idecision_tree
continuous_decision_tree
p2212
(dp2213
g2
F24.66665
sg3
I63
sg4
(idecision_tree
continuous_decision_tree
p2214
(dp2215
g2
F83.22444999999999
sg3
I40
sg4
(idecision_tree
decision_tree_leaf
p2216
(dp2217
g25
g26
(g27
tp2218
Rp2219
g30
I1
ssg32
g30
sbsg33
(idecision_tree
continuous_decision_tree
p2220
(dp2221
g2
F0.444444
sg3
I8
sg4
(idecision_tree
continuous_decision_tree
p2222
(dp2223
g2
F13.16665
sg3
I59
sg4
(idecision_tree
continuous_decision_tree
p2224
(dp2225
g2
F2.5
sg3
I62
sg4
(idecision_tree
continuous_decision_tree
p2226
(dp2227
g2
F0.11827499999999999
sg3
I38
sg4
(idecision_tree
continuous_decision_tree
p2228
(dp2229
g2
F-169.65
sg3
I67
sg4
(idecision_tree
decision_tree_leaf
p2230
(dp2231
g25
g26
(g27
tp2232
Rp2233
g30
I1
ssg32
g30
sbsg33
(idecision_tree
decision_tree_leaf
p2234
(dp2235
g25
g26
(g27
tp2236
Rp2237
S'PKP'
p2238
I1
ssg32
g2238
sbsbsg33
(idecision_tree
decision_tree_leaf
p2239
(dp2240
g25
g26
(g27
tp2241
Rp2242
g30
I1
ssg32
g30
sbsbsg33
(idecision_tree
decision_tree_leaf
p2243
(dp2244
g25
g26
(g27
tp2245
Rp2246
g30
I1
ssg32
g30
sbsbsg33
(idecision_tree
decision_tree_leaf
p2247
(dp2248
g25
g26
(g27
tp2249
Rp2250
g30
I1
ssg32
g30
sbsbsg33
(idecision_tree
decision_tree_leaf
p2251
(dp2252
g25
g26
(g27
tp2253
Rp2254
g30
I1
ssg32
g30
sbsbsbsg33
(idecision_tree
decision_tree_leaf
p2255
(dp2256
g25
g26
(g27
tp2257
Rp2258
g30
I2
ssg32
g30
sbsbsbsg33
(idecision_tree
decision_tree_leaf
p2259
(dp2260
g25
g26
(g27
tp2261
Rp2262
g30
I2
ssg32
g30
sbsbsbsg33
(idecision_tree
decision_tree_leaf
p2263
(dp2264
g25
g26
(g27
tp2265
Rp2266
g30
I1
ssg32
g30
sbsbsbsbsbsg33
(idecision_tree
continuous_decision_tree
p2267
(dp2268
g2
F14.0
sg3
I63
sg4
(idecision_tree
continuous_decision_tree
p2269
(dp2270
g2
F0.0
sg3
I62
sg4
(idecision_tree
continuous_decision_tree
p2271
(dp2272
g2
F-116.762
sg3
I67
sg4
(idecision_tree
continuous_decision_tree
p2273
(dp2274
g2
F0.07859025
sg3
I50
sg4
(idecision_tree
continuous_decision_tree
p2275
(dp2276
g2
F0.0
sg3
I66
sg4
(idecision_tree
continuous_decision_tree
p2277
(dp2278
g2
F0.9685269999999999
sg3
I34
sg4
(idecision_tree
continuous_decision_tree
p2279
(dp2280
g2
F14.0
sg3
I59
sg4
(idecision_tree
continuous_decision_tree
p2281
(dp2282
g2
F25.0
sg3
I59
sg4
(idecision_tree
continuous_decision_tree
p2283
(dp2284
g2
F0.054806499999999994
sg3
I38
sg4
(idecision_tree
decision_tree_leaf
p2285
(dp2286
g25
g26
(g27
tp2287
Rp2288
g30
I9
sS'PKP'
p2289
I1
ssg32
g30
sbsg33
(idecision_tree
decision_tree_leaf
p2290
(dp2291
g25
g26
(g27
tp2292
Rp2293
g30
I1
ssg32
g30
sbsbsg33
(idecision_tree
decision_tree_leaf
p2294
(dp2295
g25
g26
(g27
tp2296
Rp2297
g30
I10
sS'PKP'
p2298
I1
ssg32
g30
sbsbsg33
(idecision_tree
decision_tree_leaf
p2299
(dp2300
g25
g26
(g27
tp2301
Rp2302
g30
I19
ssg32
g30
sbsbsg33
(idecision_tree
continuous_decision_tree
p2303
(dp2304
g2
F1.0
sg3
I62
sg4
(idecision_tree
continuous_decision_tree
p2305
(dp2306
g2
F0.16368349999999998
sg3
I52
sg4
(idecision_tree
continuous_decision_tree
p2307
(dp2308
g2
F0.08146705
sg3
I51
sg4
(idecision_tree
continuous_decision_tree
p2309
(dp2310
g2
F1.0
sg3
I66
sg4
(idecision_tree
decision_tree_leaf
p2311
(dp2312
g25
g26
(g27
tp2313
Rp2314
g30
I15
sS'PKP'
p2315
I1
ssg32
g30
sbsg33
(idecision_tree
decision_tree_leaf
p2316
(dp2317
g25
g26
(g27
tp2318
Rp2319
g30
I3
ssg32
g30
sbsbsg33
(idecision_tree
decision_tree_leaf
p2320
(dp2321
g25
g26
(g27
tp2322
Rp2323
g30
I3
ssg32
g30
sbsbsg33
(idecision_tree
decision_tree_leaf
p2324
(dp2325
g25
g26
(g27
tp2326
Rp2327
g30
I4
ssg32
g30
sbsbsg33
(idecision_tree
continuous_decision_tree
p2328
(dp2329
g2
F0.21466249999999998
sg3
I51
sg4
(idecision_tree
decision_tree_leaf
p2330
(dp2331
g25
g26
(g27
tp2332
Rp2333
g30
I1
ssg32
g30
sbsg33
(idecision_tree
continuous_decision_tree
p2334
(dp2335
g2
F0.4813505
sg3
I49
sg4
(idecision_tree
decision_tree_leaf
p2336
(dp2337
g25
g26
(g27
tp2338
Rp2339
g30
I1
ssg32
g30
sbsg33
(idecision_tree
decision_tree_leaf
p2340
(dp2341
g25
g26
(g27
tp2342
Rp2343
g30
I10
sS'PKP'
p2344
I1
ssg32
g30
sbsbsbsbsbsg33
(idecision_tree
continuous_decision_tree
p2345
(dp2346
g2
F9.5
sg3
I67
sg4
(idecision_tree
decision_tree_leaf
p2347
(dp2348
g25
g26
(g27
tp2349
Rp2350
g30
I1
ssg32
g30
sbsg33
(idecision_tree
decision_tree_leaf
p2351
(dp2352
g25
g26
(g27
tp2353
Rp2354
g30
I7
sS'PKP'
p2355
I1
ssg32
g30
sbsbsbsg33
(idecision_tree
continuous_decision_tree
p2356
(dp2357
g2
F1.0
sg3
I58
sg4
(idecision_tree
continuous_decision_tree
p2358
(dp2359
g2
F0.0534804
sg3
I38
sg4
(idecision_tree
continuous_decision_tree
p2360
(dp2361
g2
F19.75
sg3
I63
sg4
(idecision_tree
continuous_decision_tree
p2362
(dp2363
g2
F0.18061850000000002
sg3
I52
sg4
(idecision_tree
continuous_decision_tree
p2364
(dp2365
g2
F-42.1665
sg3
I67
sg4
(idecision_tree
decision_tree_leaf
p2366
(dp2367
g25
g26
(g27
tp2368
Rp2369
g30
I2
sS'PKP'
p2370
I1
ssg32
g30
sbsg33
(idecision_tree
decision_tree_leaf
p2371
(dp2372
g25
g26
(g27
tp2373
Rp2374
g30
I1
ssg32
g30
sbsbsg33
(idecision_tree
decision_tree_leaf
p2375
(dp2376
g25
g26
(g27
tp2377
Rp2378
g30
I1
ssg32
g30
sbsbsg33
(idecision_tree
decision_tree_leaf
p2379
(dp2380
g25
g26
(g27
tp2381
Rp2382
g30
I1
ssg32
g30
sbsbsg33
(idecision_tree
decision_tree_leaf
p2383
(dp2384
g25
g26
(g27
tp2385
Rp2386
g30
I1
ssg32
g30
sbsbsg33
(idecision_tree
decision_tree_leaf
p2387
(dp2388
g25
g26
(g27
tp2389
Rp2390
g30
I11
ssg32
g30
sbsbsbsg33
(idecision_tree
decision_tree_leaf
p2391
(dp2392
g25
g26
(g27
tp2393
Rp2394
g30
I17
sS'PKP'
p2395
I1
ssg32
g30
sbsbsg33
(idecision_tree
decision_tree_leaf
p2396
(dp2397
g25
g26
(g27
tp2398
Rp2399
g30
I7
ssg32
g30
sbsbsg33
(idecision_tree
continuous_decision_tree
p2400
(dp2401
g2
F0.0
sg3
I62
sg4
(idecision_tree
continuous_decision_tree
p2402
(dp2403
g2
F0.9455875
sg3
I35
sg4
(idecision_tree
decision_tree_leaf
p2404
(dp2405
g25
g26
(g27
tp2406
Rp2407
g30
I293
sS'PKP'
p2408
I16
ssg32
g30
sbsg33
(idecision_tree
continuous_decision_tree
p2409
(dp2410
g2
F1.584735
sg3
I39
sg4
(idecision_tree
continuous_decision_tree
p2411
(dp2412
g2
F0.3211665
sg3
I49
sg4
(idecision_tree
decision_tree_leaf
p2413
(dp2414
g25
g26
(g27
tp2415
Rp2416
g30
I20
sS'PKP'
p2417
I1
ssg32
g30
sbsg33
(idecision_tree
continuous_decision_tree
p2418
(dp2419
g2
F0.0601421
sg3
I38
sg4
(idecision_tree
continuous_decision_tree
p2420
(dp2421
g2
F87.6287
sg3
I40
sg4
(idecision_tree
decision_tree_leaf
p2422
(dp2423
g25
g26
(g27
tp2424
Rp2425
g30
I2
ssg32
g30
sbsg33
(idecision_tree
continuous_decision_tree
p2426
(dp2427
g2
F0.0596494
sg3
I37
sg4
(idecision_tree
continuous_decision_tree
p2428
(dp2429
g2
F0.5
sg3
I62
sg4
(idecision_tree
decision_tree_leaf
p2430
(dp2431
g25
g26
(g27
tp2432
Rp2433
g30
I2
ssg32
g30
sbsg33
(idecision_tree
continuous_decision_tree
p2434
(dp2435
g2
F3.0
sg3
I59
sg4
(idecision_tree
decision_tree_leaf
p2436
(dp2437
g25
g26
(g27
tp2438
Rp2439
g30
I1
ssg32
g30
sbsg33
(idecision_tree
continuous_decision_tree
p2440
(dp2441
g2
F2.0
sg3
I63
sg4
(idecision_tree
decision_tree_leaf
p2442
(dp2443
g25
g26
(g27
tp2444
Rp2445
g30
I1
ssg32
g30
sbsg33
(idecision_tree
continuous_decision_tree
p2446
(dp2447
g2
F0.913991
sg3
I34
sg4
(idecision_tree
continuous_decision_tree
p2448
(dp2449
g2
F62.0
sg3
I67
sg4
(idecision_tree
decision_tree_leaf
p2450
(dp2451
g25
g26
(g27
tp2452
Rp2453
g30
I2
ssg32
g30
sbsg33
(idecision_tree
continuous_decision_tree
p2454
(dp2455
g2
F0.1532075
sg3
I50
sg4
(idecision_tree
continuous_decision_tree
p2456
(dp2457
g2
F0.13038550000000002
sg3
I49
sg4
(idecision_tree
decision_tree_leaf
p2458
(dp2459
g25
g26
(g27
tp2460
Rp2461
g30
I1
sS'PKP'
p2462
I1
ssg32
g30
sbsg33
(idecision_tree
decision_tree_leaf
p2463
(dp2464
g25
g26
(g27
tp2465
Rp2466
g30
I1
ssg32
g30
sbsbsg33
(idecision_tree
decision_tree_leaf
p2467
(dp2468
g25
g26
(g27
tp2469
Rp2470
g30
I1
ssg32
g30
sbsbsbsg33
(idecision_tree
decision_tree_leaf
p2471
(dp2472
g25
g26
(g27
tp2473
Rp2474
g30
I2
ssg32
g30
sbsbsbsbsbsg33
(idecision_tree
decision_tree_leaf
p2475
(dp2476
g25
g26
(g27
tp2477
Rp2478
g30
I2
ssg32
g30
sbsbsbsg33
(idecision_tree
decision_tree_leaf
p2479
(dp2480
g25
g26
(g27
tp2481
Rp2482
g30
I2
ssg32
g30
sbsbsbsg33
(idecision_tree
continuous_decision_tree
p2483
(dp2484
g2
F-152.0
sg3
I67
sg4
(idecision_tree
continuous_decision_tree
p2485
(dp2486
g2
F0.717233
sg3
I50
sg4
(idecision_tree
decision_tree_leaf
p2487
(dp2488
g25
g26
(g27
tp2489
Rp2490
g30
I1
ssg32
g30
sbsg33
(idecision_tree
continuous_decision_tree
p2491
(dp2492
g2
F1.0345885
sg3
I48
sg4
(idecision_tree
decision_tree_leaf
p2493
(dp2494
g25
g26
(g27
tp2495
Rp2496
g30
I1
ssg32
g30
sbsg33
(idecision_tree
continuous_decision_tree
p2497
(dp2498
g2
F0.1344145
sg3
I38
sg4
(idecision_tree
decision_tree_leaf
p2499
(dp2500
g25
g26
(g27
tp2501
Rp2502
g30
I1
ssg32
g30
sbsg33
(idecision_tree
continuous_decision_tree
p2503
(dp2504
g2
F0.912046
sg3
I34
sg4
(idecision_tree
continuous_decision_tree
p2505
(dp2506
g2
F1.5523500000000001
sg3
I39
sg4
(idecision_tree
decision_tree_leaf
p2507
(dp2508
g25
g26
(g27
tp2509
Rp2510
g30
I2
ssg32
g30
sbsg33
(idecision_tree
decision_tree_leaf
p2511
(dp2512
g25
g26
(g27
tp2513
Rp2514
g30
I11
sS'PKP'
p2515
I1
ssg32
g30
sbsbsg33
(idecision_tree
decision_tree_leaf
p2516
(dp2517
g25
g26
(g27
tp2518
Rp2519
g30
I1
ssg32
g30
sbsbsbsbsbsg33
(idecision_tree
decision_tree_leaf
p2520
(dp2521
g25
g26
(g27
tp2522
Rp2523
g30
I1
ssg32
g30
sbsbsbsbsg33
(idecision_tree
continuous_decision_tree
p2524
(dp2525
g2
F0.106933
sg3
I37
sg4
(idecision_tree
continuous_decision_tree
p2526
(dp2527
g2
F-1.0
sg3
I58
sg4
(idecision_tree
continuous_decision_tree
p2528
(dp2529
g2
F-1.0
sg3
I62
sg4
(idecision_tree
continuous_decision_tree
p2530
(dp2531
g2
F73.56475
sg3
I40
sg4
(idecision_tree
continuous_decision_tree
p2532
(dp2533
g2
F0.1261835
sg3
I37
sg4
(idecision_tree
continuous_decision_tree
p2534
(dp2535
g2
F2.0
sg3
I66
sg4
(idecision_tree
decision_tree_leaf
p2536
(dp2537
g25
g26
(g27
tp2538
Rp2539
g30
I2
sS'PKP'
p2540
I1
ssg32
g30
sbsg33
(idecision_tree
decision_tree_leaf
p2541
(dp2542
g25
g26
(g27
tp2543
Rp2544
g30
I10
ssg32
g30
sbsbsg33
(idecision_tree
decision_tree_leaf
p2545
(dp2546
g25
g26
(g27
tp2547
Rp2548
g30
I12
sS'PKP'
p2549
I1
ssg32
g30
sbsbsg33
(idecision_tree
continuous_decision_tree
p2550
(dp2551
g2
F0.690015
sg3
I52
sg4
(idecision_tree
decision_tree_leaf
p2552
(dp2553
g25
g26
(g27
tp2554
Rp2555
g30
I1
ssg32
g30
sbsg33
(idecision_tree
continuous_decision_tree
p2556
(dp2557
g2
F0.144906
sg3
I51
sg4
(idecision_tree
decision_tree_leaf
p2558
(dp2559
g25
g26
(g27
tp2560
Rp2561
g30
I1
ssg32
g30
sbsg33
(idecision_tree
continuous_decision_tree
p2562
(dp2563
g2
F0.6404839999999999
sg3
I50
sg4
(idecision_tree
decision_tree_leaf
p2564
(dp2565
g25
g26
(g27
tp2566
Rp2567
g30
I1
ssg32
g30
sbsg33
(idecision_tree
continuous_decision_tree
p2568
(dp2569
g2
F0.499409
sg3
I49
sg4
(idecision_tree
decision_tree_leaf
p2570
(dp2571
g25
g26
(g27
tp2572
Rp2573
g30
I1
ssg32
g30
sbsg33
(idecision_tree
continuous_decision_tree
p2574
(dp2575
g2
F23.1994
sg3
I44
sg4
(idecision_tree
decision_tree_leaf
p2576
(dp2577
g25
g26
(g27
tp2578
Rp2579
g30
I7
sS'PKP'
p2580
I1
ssg32
g30
sbsg33
(idecision_tree
decision_tree_leaf
p2581
(dp2582
g25
g26
(g27
tp2583
Rp2584
g30
I1
ssg32
g30
sbsbsbsbsbsbsbsg33
(idecision_tree
decision_tree_leaf
p2585
(dp2586
g25
g26
(g27
tp2587
Rp2588
g30
I3
ssg32
g30
sbsbsg33
(idecision_tree
decision_tree_leaf
p2589
(dp2590
g25
g26
(g27
tp2591
Rp2592
g30
I7
ssg32
g30
sbsbsg33
(idecision_tree
continuous_decision_tree
p2593
(dp2594
g2
F-4.333335
sg3
I59
sg4
(idecision_tree
continuous_decision_tree
p2595
(dp2596
g2
F0.326519
sg3
I48
sg4
(idecision_tree
continuous_decision_tree
p2597
(dp2598
g2
F0.03814025
sg3
I51
sg4
(idecision_tree
continuous_decision_tree
p2599
(dp2600
g2
F0.058724849999999995
sg3
I38
sg4
(idecision_tree
continuous_decision_tree
p2601
(dp2602
g2
F0.9472615
sg3
I34
sg4
(idecision_tree
continuous_decision_tree
p2603
(dp2604
g2
F-1.0
sg3
I62
sg4
(idecision_tree
continuous_decision_tree
p2605
(dp2606
g2
F0.07266500000000001
sg3
I37
sg4
(idecision_tree
continuous_decision_tree
p2607
(dp2608
g2
F-79.0
sg3
I63
sg4
(idecision_tree
decision_tree_leaf
p2609
(dp2610
g25
g26
(g27
tp2611
Rp2612
g30
I7
sS'PKP'
p2613
I1
ssg32
g30
sbsg33
(idecision_tree
decision_tree_leaf
p2614
(dp2615
g25
g26
(g27
tp2616
Rp2617
g30
I1
ssg32
g30
sbsbsg33
(idecision_tree
decision_tree_leaf
p2618
(dp2619
g25
g26
(g27
tp2620
Rp2621
g30
I1
ssg32
g30
sbsbsg33
(idecision_tree
decision_tree_leaf
p2622
(dp2623
g25
g26
(g27
tp2624
Rp2625
g30
I3
ssg32
g30
sbsbsg33
(idecision_tree
decision_tree_leaf
p2626
(dp2627
g25
g26
(g27
tp2628
Rp2629
g30
I1
ssg32
g30
sbsbsg33
(idecision_tree
decision_tree_leaf
p2630
(dp2631
g25
g26
(g27
tp2632
Rp2633
g30
I1
ssg32
g30
sbsbsg33
(idecision_tree
decision_tree_leaf
p2634
(dp2635
g25
g26
(g27
tp2636
Rp2637
g30
I1
ssg32
g30
sbsbsg33
(idecision_tree
continuous_decision_tree
p2638
(dp2639
g2
F-1.0
sg3
I62
sg4
(idecision_tree
decision_tree_leaf
p2640
(dp2641
g25
g26
(g27
tp2642
Rp2643
g30
I12
sS'PKP'
p2644
I1
ssg32
g30
sbsg33
(idecision_tree
decision_tree_leaf
p2645
(dp2646
g25
g26
(g27
tp2647
Rp2648
g30
I3
ssg32
g30
sbsbsbsg33
(idecision_tree
decision_tree_leaf
p2649
(dp2650
g25
g26
(g27
tp2651
Rp2652
g30
I61
sS'PKP'
p2653
I4
ssg32
g30
sbsbsbsbsbsbsbsbsg33
(idecision_tree
continuous_decision_tree
p2654
(dp2655
g2
F1.0
sg3
I8
sg4
(idecision_tree
continuous_decision_tree
p2656
(dp2657
g2
F0.48211550000000003
sg3
I52
sg4
(idecision_tree
continuous_decision_tree
p2658
(dp2659
g2
F-46.708349999999996
sg3
I63
sg4
(idecision_tree
continuous_decision_tree
p2660
(dp2661
g2
F0.8727575000000001
sg3
I48
sg4
(idecision_tree
decision_tree_leaf
p2662
(dp2663
g25
g26
(g27
tp2664
Rp2665
g30
I1
ssg32
g30
sbsg33
(idecision_tree
continuous_decision_tree
p2666
(dp2667
g2
F1.522285
sg3
I39
sg4
(idecision_tree
continuous_decision_tree
p2668
(dp2669
g2
F0.12710855
sg3
I37
sg4
(idecision_tree
continuous_decision_tree
p2670
(dp2671
g2
F-20.58335
sg3
I59
sg4
(idecision_tree
continuous_decision_tree
p2672
(dp2673
g2
F-3.0
sg3
I66
sg4
(idecision_tree
decision_tree_leaf
p2674
(dp2675
g25
g26
(g27
tp2676
Rp2677
g30
I1
ssg32
g30
sbsg33
(idecision_tree
continuous_decision_tree
p2678
(dp2679
g2
F0.205458
sg3
I49
sg4
(idecision_tree
continuous_decision_tree
p2680
(dp2681
g2
F-55.07875
sg3
I67
sg4
(idecision_tree
decision_tree_leaf
p2682
(dp2683
g25
g26
(g27
tp2684
Rp2685
g30
I1
ssg32
g30
sbsg33
(idecision_tree
decision_tree_leaf
p2686
(dp2687
g25
g26
(g27
tp2688
Rp2689
S'Lg'
p2690
I1
ssg32
g2690
sbsbsg33
(idecision_tree
decision_tree_leaf
p2691
(dp2692
g25
g26
(g27
tp2693
Rp2694
g30
I1
ssg32
g30
sbsbsbsg33
(idecision_tree
decision_tree_leaf
p2695
(dp2696
g25
g26
(g27
tp2697
Rp2698
g30
I1
ssg32
g30
sbsbsg33
(idecision_tree
decision_tree_leaf
p2699
(dp2700
g25
g26
(g27
tp2701
Rp2702
g30
I1
ssg32
g30
sbsbsg33
(idecision_tree
decision_tree_leaf
p2703
(dp2704
g25
g26
(g27
tp2705
Rp2706
g30
I1
ssg32
g30
sbsbsbsg33
(idecision_tree
decision_tree_leaf
p2707
(dp2708
g25
g26
(g27
tp2709
Rp2710
g30
I1
ssg32
g30
sbsbsg33
(idecision_tree
continuous_decision_tree
p2711
(dp2712
g2
F0.984382
sg3
I34
sg4
(idecision_tree
continuous_decision_tree
p2713
(dp2714
g2
F1.53803
sg3
I39
sg4
(idecision_tree
decision_tree_leaf
p2715
(dp2716
g25
g26
(g27
tp2717
Rp2718
g30
I7
sS'PKP'
p2719
I1
ssg32
g30
sbsg33
(idecision_tree
decision_tree_leaf
p2720
(dp2721
g25
g26
(g27
tp2722
Rp2723
g30
I1
ssg32
g30
sbsbsg33
(idecision_tree
continuous_decision_tree
p2724
(dp2725
g2
F0.280029
sg3
I52
sg4
(idecision_tree
continuous_decision_tree
p2726
(dp2727
g2
F0.4708595
sg3
I51
sg4
(idecision_tree
decision_tree_leaf
p2728
(dp2729
g25
g26
(g27
tp2730
Rp2731
g30
I1
ssg32
g30
sbsg33
(idecision_tree
continuous_decision_tree
p2732
(dp2733
g2
F9.068204999999999
sg3
I44
sg4
(idecision_tree
continuous_decision_tree
p2734
(dp2735
g2
F0.281622
sg3
I38
sg4
(idecision_tree
decision_tree_leaf
p2736
(dp2737
g25
g26
(g27
tp2738
Rp2739
g30
I1
ssg32
g30
sbsg33
(idecision_tree
continuous_decision_tree
p2740
(dp2741
g2
F-96.93350000000001
sg3
I67
sg4
(idecision_tree
continuous_decision_tree
p2742
(dp2743
g2
F-2.5
sg3
I66
sg4
(idecision_tree
continuous_decision_tree
p2744
(dp2745
g2
F-21.25
sg3
I63
sg4
(idecision_tree
continuous_decision_tree
p2746
(dp2747
g2
F-0.5
sg3
I58
sg4
(idecision_tree
continuous_decision_tree
p2748
(dp2749
g2
F-45.5
sg3
I67
sg4
(idecision_tree
decision_tree_leaf
p2750
(dp2751
g25
g26
(g27
tp2752
Rp2753
g30
I1
ssg32
g30
sbsg33
(idecision_tree
decision_tree_leaf
p2754
(dp2755
g25
g26
(g27
tp2756
Rp2757
S'PKP'
p2758
I1
ssg32
g2758
sbsbsg33
(idecision_tree
decision_tree_leaf
p2759
(dp2760
g25
g26
(g27
tp2761
Rp2762
g30
I1
ssg32
g30
sbsbsg33
(idecision_tree
decision_tree_leaf
p2763
(dp2764
g25
g26
(g27
tp2765
Rp2766
g30
I1
ssg32
g30
sbsbsg33
(idecision_tree
decision_tree_leaf
p2767
(dp2768
g25
g26
(g27
tp2769
Rp2770
g30
I1
ssg32
g30
sbsbsg33
(idecision_tree
decision_tree_leaf
p2771
(dp2772
g25
g26
(g27
tp2773
Rp2774
g30
I1
ssg32
g30
sbsbsbsg33
(idecision_tree
decision_tree_leaf
p2775
(dp2776
g25
g26
(g27
tp2777
Rp2778
g30
I1
ssg32
g30
sbsbsbsg33
(idecision_tree
continuous_decision_tree
p2779
(dp2780
g2
F-8.0
sg3
I66
sg4
(idecision_tree
continuous_decision_tree
p2781
(dp2782
g2
F0.630494
sg3
I51
sg4
(idecision_tree
decision_tree_leaf
p2783
(dp2784
g25
g26
(g27
tp2785
Rp2786
g30
I1
ssg32
g30
sbsg33
(idecision_tree
continuous_decision_tree
p2787
(dp2788
g2
F3.4410499999999997
sg3
I39
sg4
(idecision_tree
decision_tree_leaf
p2789
(dp2790
g25
g26
(g27
tp2791
Rp2792
g30
I1
ssg32
g30
sbsg33
(idecision_tree
decision_tree_leaf
p2793
(dp2794
g25
g26
(g27
tp2795
Rp2796
g30
I5
sg371
I1
ssg32
g30
sbsbsbsg33
(idecision_tree
decision_tree_leaf
p2797
(dp2798
g25
g26
(g27
tp2799
Rp2800
g30
I1
ssg32
g30
sbsbsbsbsbsg33
(idecision_tree
continuous_decision_tree
p2801
(dp2802
g2
F-19.16665
sg3
I59
sg4
(idecision_tree
continuous_decision_tree
p2803
(dp2804
g2
F0.962581
sg3
I35
sg4
(idecision_tree
continuous_decision_tree
p2805
(dp2806
g2
F0.9767715
sg3
I35
sg4
(idecision_tree
continuous_decision_tree
p2807
(dp2808
g2
F2.1012000000000004
sg3
I39
sg4
(idecision_tree
continuous_decision_tree
p2809
(dp2810
g2
F-3.0
sg3
I66
sg4
(idecision_tree
continuous_decision_tree
p2811
(dp2812
g2
F2.94657
sg3
I39
sg4
(idecision_tree
continuous_decision_tree
p2813
(dp2814
g2
F-87.04165
sg3
I67
sg4
(idecision_tree
continuous_decision_tree
p2815
(dp2816
g2
F-16.45835
sg3
I67
sg4
(idecision_tree
decision_tree_leaf
p2817
(dp2818
g25
g26
(g27
tp2819
Rp2820
g30
I14
sS'Pn'
p2821
I1
ssg32
g30
sbsg33
(idecision_tree
continuous_decision_tree
p2822
(dp2823
g2
F1.0
sg3
I58
sg4
(idecision_tree
continuous_decision_tree
p2824
(dp2825
g2
F-70.375
sg3
I67
sg4
(idecision_tree
decision_tree_leaf
p2826
(dp2827
g25
g26
(g27
tp2828
Rp2829
g30
I1
ssg32
g30
sbsg33
(idecision_tree
decision_tree_leaf
p2830
(dp2831
g25
g26
(g27
tp2832
Rp2833
S'Pn'
p2834
I1
ssg32
g2834
sbsbsg33
(idecision_tree
decision_tree_leaf
p2835
(dp2836
g25
g26
(g27
tp2837
Rp2838
g30
I15
ssg32
g30
sbsbsbsg33
(idecision_tree
continuous_decision_tree
p2839
(dp2840
g2
F0.0
sg3
I59
sg4
(idecision_tree
continuous_decision_tree
p2841
(dp2842
g2
F-146.2
sg3
I67
sg4
(idecision_tree
decision_tree_leaf
p2843
(dp2844
g25
g26
(g27
tp2845
Rp2846
g30
I11
sS'Pn'
p2847
I1
ssg32
g30
sbsg33
(idecision_tree
continuous_decision_tree
p2848
(dp2849
g2
F-84.5
sg3
I63
sg4
(idecision_tree
continuous_decision_tree
p2850
(dp2851
g2
F0.9165045
sg3
I52
sg4
(idecision_tree
decision_tree_leaf
p2852
(dp2853
g25
g26
(g27
tp2854
Rp2855
g30
I1
ssg32
g30
sbsg33
(idecision_tree
continuous_decision_tree
p2856
(dp2857
g2
F87.21844999999999
sg3
I40
sg4
(idecision_tree
decision_tree_leaf
p2858
(dp2859
g25
g26
(g27
tp2860
Rp2861
g30
I1
ssg32
g30
sbsg33
(idecision_tree
continuous_decision_tree
p2862
(dp2863
g2
F0.3222955
sg3
I49
sg4
(idecision_tree
decision_tree_leaf
p2864
(dp2865
g25
g26
(g27
tp2866
Rp2867
g30
I1
ssg32
g30
sbsg33
(idecision_tree
continuous_decision_tree
p2868
(dp2869
g2
F-229.66699999999997
sg3
I67
sg4
(idecision_tree
continuous_decision_tree
p2870
(dp2871
g2
F0.987167
sg3
I34
sg4
(idecision_tree
continuous_decision_tree
p2872
(dp2873
g2
F-174.83350000000002
sg3
I67
sg4
(idecision_tree
decision_tree_leaf
p2874
(dp2875
g25
g26
(g27
tp2876
Rp2877
g30
I1
ssg32
g30
sbsg33
(idecision_tree
decision_tree_leaf
p2878
(dp2879
g25
g26
(g27
tp2880
Rp2881
S'Pn'
p2882
I1
ssg32
g2882
sbsbsg33
(idecision_tree
decision_tree_leaf
p2883
(dp2884
g25
g26
(g27
tp2885
Rp2886
g30
I1
ssg32
g30
sbsbsg33
(idecision_tree
decision_tree_leaf
p2887
(dp2888
g25
g26
(g27
tp2889
Rp2890
g30
I1
ssg32
g30
sbsbsbsbsbsg33
(idecision_tree
decision_tree_leaf
p2891
(dp2892
g25
g26
(g27
tp2893
Rp2894
g30
I1
ssg32
g30
sbsbsbsg33
(idecision_tree
decision_tree_leaf
p2895
(dp2896
g25
g26
(g27
tp2897
Rp2898
g30
I12
ssg32
g30
sbsbsbsg33
(idecision_tree
continuous_decision_tree
p2899
(dp2900
g2
F-53.4833
sg3
I67
sg4
(idecision_tree
decision_tree_leaf
p2901
(dp2902
g25
g26
(g27
tp2903
Rp2904
g30
I15
sS'Pn'
p2905
I1
ssg32
g30
sbsg33
(idecision_tree
continuous_decision_tree
p2906
(dp2907
g2
F0.9319459999999999
sg3
I34
sg4
(idecision_tree
continuous_decision_tree
p2908
(dp2909
g2
F0.382132
sg3
I52
sg4
(idecision_tree
decision_tree_leaf
p2910
(dp2911
g25
g26
(g27
tp2912
Rp2913
g30
I3
ssg32
g30
sbsg33
(idecision_tree
continuous_decision_tree
p2914
(dp2915
g2
F0.5663415
sg3
I48
sg4
(idecision_tree
decision_tree_leaf
p2916
(dp2917
g25
g26
(g27
tp2918
Rp2919
g30
I2
ssg32
g30
sbsg33
(idecision_tree
continuous_decision_tree
p2920
(dp2921
g2
F1.0
sg3
I62
sg4
(idecision_tree
continuous_decision_tree
p2922
(dp2923
g2
F-138.79149999999998
sg3
I67
sg4
(idecision_tree
continuous_decision_tree
p2924
(dp2925
g2
F-2.5
sg3
I66
sg4
(idecision_tree
continuous_decision_tree
p2926
(dp2927
g2
F-110.9915
sg3
I67
sg4
(idecision_tree
decision_tree_leaf
p2928
(dp2929
g25
g26
(g27
tp2930
Rp2931
g30
I1
ssg32
g30
sbsg33
(idecision_tree
decision_tree_leaf
p2932
(dp2933
g25
g26
(g27
tp2934
Rp2935
S'PKP'
p2936
I1
ssg32
g2936
sbsbsg33
(idecision_tree
decision_tree_leaf
p2937
(dp2938
g25
g26
(g27
tp2939
Rp2940
g30
I1
ssg32
g30
sbsbsg33
(idecision_tree
decision_tree_leaf
p2941
(dp2942
g25
g26
(g27
tp2943
Rp2944
g30
I1
ssg32
g30
sbsbsg33
(idecision_tree
decision_tree_leaf
p2945
(dp2946
g25
g26
(g27
tp2947
Rp2948
g30
I7
ssg32
g30
sbsbsbsbsg33
(idecision_tree
decision_tree_leaf
p2949
(dp2950
g25
g26
(g27
tp2951
Rp2952
g30
I1
ssg32
g30
sbsbsbsbsg33
(idecision_tree
continuous_decision_tree
p2953
(dp2954
g2
F1.27736
sg3
I48
sg4
(idecision_tree
decision_tree_leaf
p2955
(dp2956
g25
g26
(g27
tp2957
Rp2958
g30
I1
ssg32
g30
sbsg33
(idecision_tree
continuous_decision_tree
p2959
(dp2960
g2
F-4.0
sg3
I66
sg4
(idecision_tree
continuous_decision_tree
p2961
(dp2962
g2
F-16.33335
sg3
I59
sg4
(idecision_tree
decision_tree_leaf
p2963
(dp2964
g25
g26
(g27
tp2965
Rp2966
g30
I8
sS'Pn'
p2967
I1
ssg32
g30
sbsg33
(idecision_tree
decision_tree_leaf
p2968
(dp2969
g25
g26
(g27
tp2970
Rp2971
g30
I1
ssg32
g30
sbsbsg33
(idecision_tree
decision_tree_leaf
p2972
(dp2973
g25
g26
(g27
tp2974
Rp2975
g30
I21
ssg32
g30
sbsbsbsbsg33
(idecision_tree
continuous_decision_tree
p2976
(dp2977
g2
F0.984537
sg3
I34
sg4
(idecision_tree
continuous_decision_tree
p2978
(dp2979
g2
F0.316888
sg3
I48
sg4
(idecision_tree
continuous_decision_tree
p2980
(dp2981
g2
F2.0
sg3
I58
sg4
(idecision_tree
continuous_decision_tree
p2982
(dp2983
g2
F-152.7975
sg3
I67
sg4
(idecision_tree
decision_tree_leaf
p2984
(dp2985
g25
g26
(g27
tp2986
Rp2987
S'Pg'
p2988
I1
ssg32
g2988
sbsg33
(idecision_tree
decision_tree_leaf
p2989
(dp2990
g25
g26
(g27
tp2991
Rp2992
g30
I1
ssg32
g30
sbsbsg33
(idecision_tree
decision_tree_leaf
p2993
(dp2994
g25
g26
(g27
tp2995
Rp2996
g30
I17
ssg32
g30
sbsbsg33
(idecision_tree
continuous_decision_tree
p2997
(dp2998
g2
F-2.5
sg3
I62
sg4
(idecision_tree
continuous_decision_tree
p2999
(dp3000
g2
F0.5549535
sg3
I52
sg4
(idecision_tree
decision_tree_leaf
p3001
(dp3002
g25
g26
(g27
tp3003
Rp3004
g30
I1
ssg32
g30
sbsg33
(idecision_tree
continuous_decision_tree
p3005
(dp3006
g2
F-11.5
sg3
I67
sg4
(idecision_tree
decision_tree_leaf
p3007
(dp3008
g25
g26
(g27
tp3009
Rp3010
g30
I3
ssg32
g30
sbsg33
(idecision_tree
continuous_decision_tree
p3011
(dp3012
g2
F-11.0
sg3
I59
sg4
(idecision_tree
continuous_decision_tree
p3013
(dp3014
g2
F0.9892034999999999
sg3
I34
sg4
(idecision_tree
continuous_decision_tree
p3015
(dp3016
g2
F-23.0
sg3
I63
sg4
(idecision_tree
continuous_decision_tree
p3017
(dp3018
g2
F0.318861
sg3
I49
sg4
(idecision_tree
decision_tree_leaf
p3019
(dp3020
g25
g26
(g27
tp3021
Rp3022
g30
I1
ssg32
g30
sbsg33
(idecision_tree
continuous_decision_tree
p3023
(dp3024
g2
F-4.0
sg3
I66
sg4
(idecision_tree
decision_tree_leaf
p3025
(dp3026
g25
g26
(g27
tp3027
Rp3028
g30
I5
sS'Pn'
p3029
I1
ssg32
g30
sbsg33
(idecision_tree
decision_tree_leaf
p3030
(dp3031
g25
g26
(g27
tp3032
Rp3033
g30
I1
ssg32
g30
sbsbsbsg33
(idecision_tree
decision_tree_leaf
p3034
(dp3035
g25
g26
(g27
tp3036
Rp3037
g30
I2
ssg32
g30
sbsbsg33
(idecision_tree
decision_tree_leaf
p3038
(dp3039
g25
g26
(g27
tp3040
Rp3041
g30
I2
ssg32
g30
sbsbsg33
(idecision_tree
decision_tree_leaf
p3042
(dp3043
g25
g26
(g27
tp3044
Rp3045
g30
I1
ssg32
g30
sbsbsbsbsg33
(idecision_tree
decision_tree_leaf
p3046
(dp3047
g25
g26
(g27
tp3048
Rp3049
g30
I1
ssg32
g30
sbsbsbsg33
(idecision_tree
continuous_decision_tree
p3050
(dp3051
g2
F-2.5
sg3
I62
sg4
(idecision_tree
continuous_decision_tree
p3052
(dp3053
g2
F0.1552105
sg3
I48
sg4
(idecision_tree
continuous_decision_tree
p3054
(dp3055
g2
F-9.75
sg3
I59
sg4
(idecision_tree
continuous_decision_tree
p3056
(dp3057
g2
F-21.16665
sg3
I63
sg4
(idecision_tree
continuous_decision_tree
p3058
(dp3059
g2
F83.66210000000001
sg3
I40
sg4
(idecision_tree
decision_tree_leaf
p3060
(dp3061
g25
g26
(g27
tp3062
Rp3063
g30
I2
ssg32
g30
sbsg33
(idecision_tree
continuous_decision_tree
p3064
(dp3065
g2
F0.24603450000000002
sg3
I52
sg4
(idecision_tree
continuous_decision_tree
p3066
(dp3067
g2
F0.981391
sg3
I35
sg4
(idecision_tree
continuous_decision_tree
p3068
(dp3069
g2
F-84.22635
sg3
I67
sg4
(idecision_tree
decision_tree_leaf
p3070
(dp3071
g25
g26
(g27
tp3072
Rp3073
g30
I1
ssg32
g30
sbsg33
(idecision_tree
continuous_decision_tree
p3074
(dp3075
g2
F0.11106350000000001
sg3
I50
sg4
(idecision_tree
continuous_decision_tree
p3076
(dp3077
g2
F0.35521800000000003
sg3
I49
sg4
(idecision_tree
continuous_decision_tree
p3078
(dp3079
g2
F-157.25
sg3
I67
sg4
(idecision_tree
decision_tree_leaf
p3080
(dp3081
g25
g26
(g27
tp3082
Rp3083
S'PKP'
p3084
I1
ssg32
g3084
sbsg33
(idecision_tree
decision_tree_leaf
p3085
(dp3086
g25
g26
(g27
tp3087
Rp3088
g30
I1
ssg32
g30
sbsbsg33
(idecision_tree
decision_tree_leaf
p3089
(dp3090
g25
g26
(g27
tp3091
Rp3092
g30
I1
ssg32
g30
sbsbsg33
(idecision_tree
decision_tree_leaf
p3093
(dp3094
g25
g26
(g27
tp3095
Rp3096
g30
I1
ssg32
g30
sbsbsbsg33
(idecision_tree
decision_tree_leaf
p3097
(dp3098
g25
g26
(g27
tp3099
Rp3100
g30
I1
ssg32
g30
sbsbsg33
(idecision_tree
decision_tree_leaf
p3101
(dp3102
g25
g26
(g27
tp3103
Rp3104
g30
I2
ssg32
g30
sbsbsbsg33
(idecision_tree
decision_tree_leaf
p3105
(dp3106
g25
g26
(g27
tp3107
Rp3108
g30
I2
ssg32
g30
sbsbsg33
(idecision_tree
decision_tree_leaf
p3109
(dp3110
g25
g26
(g27
tp3111
Rp3112
g30
I2
ssg32
g30
sbsbsg33
(idecision_tree
decision_tree_leaf
p3113
(dp3114
g25
g26
(g27
tp3115
Rp3116
g30
I3
ssg32
g30
sbsbsg33
(idecision_tree
decision_tree_leaf
p3117
(dp3118
g25
g26
(g27
tp3119
Rp3120
g30
I1
ssg32
g30
sbsbsbsbsg33
(idecision_tree
continuous_decision_tree
p3121
(dp3122
g2
F-16.5
sg3
I63
sg4
(idecision_tree
continuous_decision_tree
p3123
(dp3124
g2
F-7.5
sg3
I59
sg4
(idecision_tree
continuous_decision_tree
p3125
(dp3126
g2
F0.38888849999999997
sg3
I8
sg4
(idecision_tree
continuous_decision_tree
p3127
(dp3128
g2
F1.0
sg3
I58
sg4
(idecision_tree
continuous_decision_tree
p3129
(dp3130
g2
F0.46495175
sg3
I52
sg4
(idecision_tree
continuous_decision_tree
p3131
(dp3132
g2
F-47.0625
sg3
I67
sg4
(idecision_tree
decision_tree_leaf
p3133
(dp3134
g25
g26
(g27
tp3135
Rp3136
S'Pn'
p3137
I1
ssg32
g3137
sbsg33
(idecision_tree
decision_tree_leaf
p3138
(dp3139
g25
g26
(g27
tp3140
Rp3141
g30
I1
ssg32
g30
sbsbsg33
(idecision_tree
decision_tree_leaf
p3142
(dp3143
g25
g26
(g27
tp3144
Rp3145
g30
I1
ssg32
g30
sbsbsg33
(idecision_tree
decision_tree_leaf
p3146
(dp3147
g25
g26
(g27
tp3148
Rp3149
g30
I15
ssg32
g30
sbsbsg33
(idecision_tree
decision_tree_leaf
p3150
(dp3151
g25
g26
(g27
tp3152
Rp3153
g30
I1
ssg32
g30
sbsbsg33
(idecision_tree
continuous_decision_tree
p3154
(dp3155
g2
F10.704550000000001
sg3
I44
sg4
(idecision_tree
continuous_decision_tree
p3156
(dp3157
g2
F0.31362450000000003
sg3
I38
sg4
(idecision_tree
decision_tree_leaf
p3158
(dp3159
g25
g26
(g27
tp3160
Rp3161
g30
I1
ssg32
g30
sbsg33
(idecision_tree
continuous_decision_tree
p3162
(dp3163
g2
F-119.25
sg3
I67
sg4
(idecision_tree
continuous_decision_tree
p3164
(dp3165
g2
F0.3164625
sg3
I50
sg4
(idecision_tree
decision_tree_leaf
p3166
(dp3167
g25
g26
(g27
tp3168
Rp3169
g30
I1
ssg32
g30
sbsg33
(idecision_tree
continuous_decision_tree
p3170
(dp3171
g2
F1.085957
sg3
I48
sg4
(idecision_tree
decision_tree_leaf
p3172
(dp3173
g25
g26
(g27
tp3174
Rp3175
g30
I1
ssg32
g30
sbsg33
(idecision_tree
continuous_decision_tree
p3176
(dp3177
g2
F0.16636
sg3
I37
sg4
(idecision_tree
decision_tree_leaf
p3178
(dp3179
g25
g26
(g27
tp3180
Rp3181
g30
I1
ssg32
g30
sbsg33
(idecision_tree
continuous_decision_tree
p3182
(dp3183
g2
F0.965106
sg3
I35
sg4
(idecision_tree
continuous_decision_tree
p3184
(dp3185
g2
F25.0
sg3
I63
sg4
(idecision_tree
decision_tree_leaf
p3186
(dp3187
g25
g26
(g27
tp3188
Rp3189
g30
I1
ssg32
g30
sbsg33
(idecision_tree
continuous_decision_tree
p3190
(dp3191
g2
F0.165821
sg3
I49
sg4
(idecision_tree
continuous_decision_tree
p3192
(dp3193
g2
F80.161
sg3
I40
sg4
(idecision_tree
decision_tree_leaf
p3194
(dp3195
g25
g26
(g27
tp3196
Rp3197
g30
I1
ssg32
g30
sbsg33
(idecision_tree
continuous_decision_tree
p3198
(dp3199
g2
F0.23595500000000003
sg3
I52
sg4
(idecision_tree
continuous_decision_tree
p3200
(dp3201
g2
F0.5555555
sg3
I8
sg4
(idecision_tree
decision_tree_leaf
p3202
(dp3203
g25
g26
(g27
tp3204
Rp3205
g30
I1
ssg32
g30
sbsg33
(idecision_tree
continuous_decision_tree
p3206
(dp3207
g2
F-72.5
sg3
I67
sg4
(idecision_tree
decision_tree_leaf
p3208
(dp3209
g25
g26
(g27
tp3210
Rp3211
g30
I2
ssg32
g30
sbsg33
(idecision_tree
decision_tree_leaf
p3212
(dp3213
g25
g26
(g27
tp3214
Rp3215
S'PKP'
p3216
I1
ssg32
g3216
sbsbsbsg33
(idecision_tree
decision_tree_leaf
p3217
(dp3218
g25
g26
(g27
tp3219
Rp3220
g30
I2
ssg32
g30
sbsbsbsg33
(idecision_tree
decision_tree_leaf
p3221
(dp3222
g25
g26
(g27
tp3223
Rp3224
g30
I2
ssg32
g30
sbsbsbsg33
(idecision_tree
decision_tree_leaf
p3225
(dp3226
g25
g26
(g27
tp3227
Rp3228
g30
I1
ssg32
g30
sbsbsbsbsbsg33
(idecision_tree
decision_tree_leaf
p3229
(dp3230
g25
g26
(g27
tp3231
Rp3232
g30
I2
ssg32
g30
sbsbsbsg33
(idecision_tree
decision_tree_leaf
p3233
(dp3234
g25
g26
(g27
tp3235
Rp3236
g30
I1
ssg32
g30
sbsbsbsg33
(idecision_tree
continuous_decision_tree
p3237
(dp3238
g2
F-18.0
sg3
I63
sg4
(idecision_tree
decision_tree_leaf
p3239
(dp3240
g25
g26
(g27
tp3241
Rp3242
g30
I1
ssg32
g30
sbsg33
(idecision_tree
continuous_decision_tree
p3243
(dp3244
g2
F0.0574451
sg3
I38
sg4
(idecision_tree
continuous_decision_tree
p3245
(dp3246
g2
F0.06189855
sg3
I51
sg4
(idecision_tree
continuous_decision_tree
p3247
(dp3248
g2
F-1.5
sg3
I58
sg4
(idecision_tree
continuous_decision_tree
p3249
(dp3250
g2
F67.5
sg3
I67
sg4
(idecision_tree
decision_tree_leaf
p3251
(dp3252
g25
g26
(g27
tp3253
Rp3254
g30
I2
ssg32
g30
sbsg33
(idecision_tree
continuous_decision_tree
p3255
(dp3256
g2
F0.16895749999999998
sg3
I50
sg4
(idecision_tree
decision_tree_leaf
p3257
(dp3258
g25
g26
(g27
tp3259
Rp3260
g30
I2
ssg32
g30
sbsg33
(idecision_tree
decision_tree_leaf
p3261
(dp3262
g25
g26
(g27
tp3263
Rp3264
g30
I8
sS'PKP'
p3265
I1
ssg32
g30
sbsbsbsg33
(idecision_tree
decision_tree_leaf
p3266
(dp3267
g25
g26
(g27
tp3268
Rp3269
g30
I2
ssg32
g30
sbsbsg33
(idecision_tree
decision_tree_leaf
p3270
(dp3271
g25
g26
(g27
tp3272
Rp3273
g30
I1
ssg32
g30
sbsbsg33
(idecision_tree
decision_tree_leaf
p3274
(dp3275
g25
g26
(g27
tp3276
Rp3277
g30
I1
ssg32
g30
sbsbsbsbsbsg33
(idecision_tree
continuous_decision_tree
p3278
(dp3279
g2
F0.0
sg3
I59
sg4
(idecision_tree
continuous_decision_tree
p3280
(dp3281
g2
F0.0
sg3
I63
sg4
(idecision_tree
continuous_decision_tree
p3282
(dp3283
g2
F7.445465
sg3
I44
sg4
(idecision_tree
continuous_decision_tree
p3284
(dp3285
g2
F0.0714374
sg3
I38
sg4
(idecision_tree
continuous_decision_tree
p3286
(dp3287
g2
F0.143138
sg3
I49
sg4
(idecision_tree
continuous_decision_tree
p3288
(dp3289
g2
F-2.36665
sg3
I67
sg4
(idecision_tree
decision_tree_leaf
p3290
(dp3291
g25
g26
(g27
tp3292
Rp3293
g30
I3
ssg32
g30
sbsg33
(idecision_tree
continuous_decision_tree
p3294
(dp3295
g2
F84.72615
sg3
I40
sg4
(idecision_tree
decision_tree_leaf
p3296
(dp3297
g25
g26
(g27
tp3298
Rp3299
g30
I3
ssg32
g30
sbsg33
(idecision_tree
continuous_decision_tree
p3300
(dp3301
g2
F0.666667
sg3
I8
sg4
(idecision_tree
decision_tree_leaf
p3302
(dp3303
g25
g26
(g27
tp3304
Rp3305
g30
I7
sS'PKP'
p3306
I1
ssg32
g30
sbsg33
(idecision_tree
decision_tree_leaf
p3307
(dp3308
g25
g26
(g27
tp3309
Rp3310
g30
I7
ssg32
g30
sbsbsbsbsg33
(idecision_tree
decision_tree_leaf
p3311
(dp3312
g25
g26
(g27
tp3313
Rp3314
g30
I3
ssg32
g30
sbsbsg33
(idecision_tree
decision_tree_leaf
p3315
(dp3316
g25
g26
(g27
tp3317
Rp3318
g30
I1
ssg32
g30
sbsbsg33
(idecision_tree
decision_tree_leaf
p3319
(dp3320
g25
g26
(g27
tp3321
Rp3322
g30
I2
ssg32
g30
sbsbsg33
(idecision_tree
continuous_decision_tree
p3323
(dp3324
g2
F-77.5
sg3
I63
sg4
(idecision_tree
decision_tree_leaf
p3325
(dp3326
g25
g26
(g27
tp3327
Rp3328
g30
I9
sS'PKP'
p3329
I1
ssg32
g30
sbsg33
(idecision_tree
continuous_decision_tree
p3330
(dp3331
g2
F-5.5
sg3
I66
sg4
(idecision_tree
continuous_decision_tree
p3332
(dp3333
g2
F-94.5
sg3
I63
sg4
(idecision_tree
continuous_decision_tree
p3334
(dp3335
g2
F0.1855505
sg3
I49
sg4
(idecision_tree
continuous_decision_tree
p3336
(dp3337
g2
F15.2882
sg3
I44
sg4
(idecision_tree
continuous_decision_tree
p3338
(dp3339
g2
F-1.0
sg3
I62
sg4
(idecision_tree
decision_tree_leaf
p3340
(dp3341
g25
g26
(g27
tp3342
Rp3343
g30
I3
sS'PKP'
p3344
I1
ssg32
g30
sbsg33
(idecision_tree
decision_tree_leaf
p3345
(dp3346
g25
g26
(g27
tp3347
Rp3348
g30
I2
ssg32
g30
sbsbsg33
(idecision_tree
decision_tree_leaf
p3349
(dp3350
g25
g26
(g27
tp3351
Rp3352
g30
I1
ssg32
g30
sbsbsg33
(idecision_tree
decision_tree_leaf
p3353
(dp3354
g25
g26
(g27
tp3355
Rp3356
g30
I1
ssg32
g30
sbsbsg33
(idecision_tree
decision_tree_leaf
p3357
(dp3358
g25
g26
(g27
tp3359
Rp3360
g30
I1
ssg32
g30
sbsbsg33
(idecision_tree
decision_tree_leaf
p3361
(dp3362
g25
g26
(g27
tp3363
Rp3364
g30
I1
ssg32
g30
sbsbsbsbsg33
(idecision_tree
continuous_decision_tree
p3365
(dp3366
g2
F0.13007249999999998
sg3
I37
sg4
(idecision_tree
continuous_decision_tree
p3367
(dp3368
g2
F0.122278
sg3
I49
sg4
(idecision_tree
continuous_decision_tree
p3369
(dp3370
g2
F-39.25
sg3
I63
sg4
(idecision_tree
continuous_decision_tree
p3371
(dp3372
g2
F0.0
sg3
I58
sg4
(idecision_tree
continuous_decision_tree
p3373
(dp3374
g2
F-9.5
sg3
I59
sg4
(idecision_tree
continuous_decision_tree
p3375
(dp3376
g2
F-50.58335
sg3
I67
sg4
(idecision_tree
decision_tree_leaf
p3377
(dp3378
g25
g26
(g27
tp3379
Rp3380
S'PKP'
p3381
I1
ssg32
g3381
sbsg33
(idecision_tree
decision_tree_leaf
p3382
(dp3383
g25
g26
(g27
tp3384
Rp3385
g30
I1
ssg32
g30
sbsbsg33
(idecision_tree
decision_tree_leaf
p3386
(dp3387
g25
g26
(g27
tp3388
Rp3389
g30
I1
ssg32
g30
sbsbsg33
(idecision_tree
decision_tree_leaf
p3390
(dp3391
g25
g26
(g27
tp3392
Rp3393
g30
I17
ssg32
g30
sbsbsg33
(idecision_tree
decision_tree_leaf
p3394
(dp3395
g25
g26
(g27
tp3396
Rp3397
g30
I2
ssg32
g30
sbsbsg33
(idecision_tree
decision_tree_leaf
p3398
(dp3399
g25
g26
(g27
tp3400
Rp3401
g30
I1
ssg32
g30
sbsbsg33
(idecision_tree
continuous_decision_tree
p3402
(dp3403
g2
F-6.5
sg3
I66
sg4
(idecision_tree
continuous_decision_tree
p3404
(dp3405
g2
F0.8794285
sg3
I35
sg4
(idecision_tree
continuous_decision_tree
p3406
(dp3407
g2
F11.226275000000001
sg3
I44
sg4
(idecision_tree
continuous_decision_tree
p3408
(dp3409
g2
F0.466271
sg3
I52
sg4
(idecision_tree
decision_tree_leaf
p3410
(dp3411
g25
g26
(g27
tp3412
Rp3413
g30
I2
ssg32
g30
sbsg33
(idecision_tree
continuous_decision_tree
p3414
(dp3415
g2
F0.274341
sg3
I50
sg4
(idecision_tree
decision_tree_leaf
p3416
(dp3417
g25
g26
(g27
tp3418
Rp3419
g30
I2
ssg32
g30
sbsg33
(idecision_tree
continuous_decision_tree
p3420
(dp3421
g2
F-1.0
sg3
I58
sg4
(idecision_tree
decision_tree_leaf
p3422
(dp3423
g25
g26
(g27
tp3424
Rp3425
g30
I13
sS'PKP'
p3426
I1
ssg32
g30
sbsg33
(idecision_tree
decision_tree_leaf
p3427
(dp3428
g25
g26
(g27
tp3429
Rp3430
g30
I1
ssg32
g30
sbsbsbsbsg33
(idecision_tree
decision_tree_leaf
p3431
(dp3432
g25
g26
(g27
tp3433
Rp3434
g30
I1
ssg32
g30
sbsbsg33
(idecision_tree
decision_tree_leaf
p3435
(dp3436
g25
g26
(g27
tp3437
Rp3438
g30
I1
ssg32
g30
sbsbsg33
(idecision_tree
decision_tree_leaf
p3439
(dp3440
g25
g26
(g27
tp3441
Rp3442
g30
I1
ssg32
g30
sbsbsbsbsbsg33
(idecision_tree
continuous_decision_tree
p3443
(dp3444
g2
F18.2435
sg3
I44
sg4
(idecision_tree
continuous_decision_tree
p3445
(dp3446
g2
F0.159501
sg3
I50
sg4
(idecision_tree
continuous_decision_tree
p3447
(dp3448
g2
F0.348178
sg3
I48
sg4
(idecision_tree
continuous_decision_tree
p3449
(dp3450
g2
F-4.5
sg3
I66
sg4
(idecision_tree
continuous_decision_tree
p3451
(dp3452
g2
F0.991904
sg3
I35
sg4
(idecision_tree
decision_tree_leaf
p3453
(dp3454
g25
g26
(g27
tp3455
Rp3456
g30
I2
ssg32
g30
sbsg33
(idecision_tree
decision_tree_leaf
p3457
(dp3458
g25
g26
(g27
tp3459
Rp3460
g30
I13
sS'Pn'
p3461
I1
ssg32
g30
sbsbsg33
(idecision_tree
decision_tree_leaf
p3462
(dp3463
g25
g26
(g27
tp3464
Rp3465
g30
I2
ssg32
g30
sbsbsg33
(idecision_tree
continuous_decision_tree
p3466
(dp3467
g2
F-21.125
sg3
I59
sg4
(idecision_tree
decision_tree_leaf
p3468
(dp3469
g25
g26
(g27
tp3470
Rp3471
g30
I1
ssg32
g30
sbsg33
(idecision_tree
continuous_decision_tree
p3472
(dp3473
g2
F-11.125
sg3
I63
sg4
(idecision_tree
decision_tree_leaf
p3474
(dp3475
g25
g26
(g27
tp3476
Rp3477
g30
I1
ssg32
g30
sbsg33
(idecision_tree
continuous_decision_tree
p3478
(dp3479
g2
F0.6410775
sg3
I52
sg4
(idecision_tree
decision_tree_leaf
p3480
(dp3481
g25
g26
(g27
tp3482
Rp3483
g30
I1
ssg32
g30
sbsg33
(idecision_tree
continuous_decision_tree
p3484
(dp3485
g2
F0.9751285
sg3
I50
sg4
(idecision_tree
decision_tree_leaf
p3486
(dp3487
g25
g26
(g27
tp3488
Rp3489
g30
I1
ssg32
g30
sbsg33
(idecision_tree
continuous_decision_tree
p3490
(dp3491
g2
F0.992184
sg3
I34
sg4
(idecision_tree
decision_tree_leaf
p3492
(dp3493
g25
g26
(g27
tp3494
Rp3495
g30
I1
ssg32
g30
sbsg33
(idecision_tree
continuous_decision_tree
p3496
(dp3497
g2
F0.982802
sg3
I35
sg4
(idecision_tree
decision_tree_leaf
p3498
(dp3499
g25
g26
(g27
tp3500
Rp3501
g30
I2
ssg32
g30
sbsg33
(idecision_tree
continuous_decision_tree
p3502
(dp3503
g2
F-4.5
sg3
I66
sg4
(idecision_tree
decision_tree_leaf
p3504
(dp3505
g25
g26
(g27
tp3506
Rp3507
g30
I9
sS'Pn'
p3508
I1
ssg32
g30
sbsg33
(idecision_tree
decision_tree_leaf
p3509
(dp3510
g25
g26
(g27
tp3511
Rp3512
g30
I2
ssg32
g30
sbsbsbsbsbsbsbsbsbsg33
(idecision_tree
continuous_decision_tree
p3513
(dp3514
g2
F0.666667
sg3
I8
sg4
(idecision_tree
decision_tree_leaf
p3515
(dp3516
g25
g26
(g27
tp3517
Rp3518
g30
I27
sS'PKP'
p3519
I1
ssg32
g30
sbsg33
(idecision_tree
continuous_decision_tree
p3520
(dp3521
g2
F-20.66665
sg3
I67
sg4
(idecision_tree
continuous_decision_tree
p3522
(dp3523
g2
F-2.0
sg3
I66
sg4
(idecision_tree
decision_tree_leaf
p3524
(dp3525
g25
g26
(g27
tp3526
Rp3527
g30
I3
sS'PKP'
p3528
I1
ssg32
g30
sbsg33
(idecision_tree
decision_tree_leaf
p3529
(dp3530
g25
g26
(g27
tp3531
Rp3532
g30
I4
ssg32
g30
sbsbsg33
(idecision_tree
decision_tree_leaf
p3533
(dp3534
g25
g26
(g27
tp3535
Rp3536
g30
I1
ssg32
g30
sbsbsbsbsg33
(idecision_tree
continuous_decision_tree
p3537
(dp3538
g2
F-34.833349999999996
sg3
I63
sg4
(idecision_tree
continuous_decision_tree
p3539
(dp3540
g2
F0.03805795
sg3
I51
sg4
(idecision_tree
continuous_decision_tree
p3541
(dp3542
g2
F71.40725
sg3
I40
sg4
(idecision_tree
continuous_decision_tree
p3543
(dp3544
g2
F0.05147615
sg3
I38
sg4
(idecision_tree
continuous_decision_tree
p3545
(dp3546
g2
F5.539429999999999
sg3
I39
sg4
(idecision_tree
decision_tree_leaf
p3547
(dp3548
g25
g26
(g27
tp3549
Rp3550
g30
I1
ssg32
g30
sbsg33
(idecision_tree
continuous_decision_tree
p3551
(dp3552
g2
F0.996484
sg3
I35
sg4
(idecision_tree
decision_tree_leaf
p3553
(dp3554
g25
g26
(g27
tp3555
Rp3556
g30
I1
ssg32
g30
sbsg33
(idecision_tree
continuous_decision_tree
p3557
(dp3558
g2
F1.096062
sg3
I48
sg4
(idecision_tree
decision_tree_leaf
p3559
(dp3560
g25
g26
(g27
tp3561
Rp3562
g30
I2
ssg32
g30
sbsg33
(idecision_tree
continuous_decision_tree
p3563
(dp3564
g2
F-1.0
sg3
I62
sg4
(idecision_tree
continuous_decision_tree
p3565
(dp3566
g2
F-31.0
sg3
I63
sg4
(idecision_tree
continuous_decision_tree
p3567
(dp3568
g2
F-103.50015
sg3
I67
sg4
(idecision_tree
decision_tree_leaf
p3569
(dp3570
g25
g26
(g27
tp3571
Rp3572
g30
I1
ssg32
g30
sbsg33
(idecision_tree
decision_tree_leaf
p3573
(dp3574
g25
g26
(g27
tp3575
Rp3576
S'PKP'
p3577
I1
ssg32
g3577
sbsbsg33
(idecision_tree
decision_tree_leaf
p3578
(dp3579
g25
g26
(g27
tp3580
Rp3581
g30
I1
ssg32
g30
sbsbsg33
(idecision_tree
decision_tree_leaf
p3582
(dp3583
g25
g26
(g27
tp3584
Rp3585
g30
I9
ssg32
g30
sbsbsbsbsbsg33
(idecision_tree
decision_tree_leaf
p3586
(dp3587
g25
g26
(g27
tp3588
Rp3589
g30
I1
ssg32
g30
sbsbsg33
(idecision_tree
decision_tree_leaf
p3590
(dp3591
g25
g26
(g27
tp3592
Rp3593
g30
I1
ssg32
g30
sbsbsg33
(idecision_tree
decision_tree_leaf
p3594
(dp3595
g25
g26
(g27
tp3596
Rp3597
g30
I1
ssg32
g30
sbsbsg33
(idecision_tree
continuous_decision_tree
p3598
(dp3599
g2
F-4.5
sg3
I62
sg4
(idecision_tree
continuous_decision_tree
p3600
(dp3601
g2
F2.165
sg3
I48
sg4
(idecision_tree
decision_tree_leaf
p3602
(dp3603
g25
g26
(g27
tp3604
Rp3605
g30
I1
ssg32
g30
sbsg33
(idecision_tree
continuous_decision_tree
p3606
(dp3607
g2
F0.044275
sg3
I37
sg4
(idecision_tree
continuous_decision_tree
p3608
(dp3609
g2
F10.600455
sg3
I44
sg4
(idecision_tree
continuous_decision_tree
p3610
(dp3611
g2
F0.529775
sg3
I52
sg4
(idecision_tree
decision_tree_leaf
p3612
(dp3613
g25
g26
(g27
tp3614
Rp3615
g30
I2
ssg32
g30
sbsg33
(idecision_tree
continuous_decision_tree
p3616
(dp3617
g2
F81.9596
sg3
I40
sg4
(idecision_tree
decision_tree_leaf
p3618
(dp3619
g25
g26
(g27
tp3620
Rp3621
g30
I2
ssg32
g30
sbsg33
(idecision_tree
continuous_decision_tree
p3622
(dp3623
g2
F-49.833349999999996
sg3
I67
sg4
(idecision_tree
continuous_decision_tree
p3624
(dp3625
g2
F0.08041799999999999
sg3
I51
sg4
(idecision_tree
continuous_decision_tree
p3626
(dp3627
g2
F0.36293050000000004
sg3
I49
sg4
(idecision_tree
decision_tree_leaf
p3628
(dp3629
g25
g26
(g27
tp3630
Rp3631
g30
I1
ssg32
g30
sbsg33
(idecision_tree
continuous_decision_tree
p3632
(dp3633
g2
F1.5679400000000001
sg3
I39
sg4
(idecision_tree
continuous_decision_tree
p3634
(dp3635
g2
F-2.5
sg3
I66
sg4
(idecision_tree
decision_tree_leaf
p3636
(dp3637
g25
g26
(g27
tp3638
Rp3639
g30
I1
ssg32
g30
sbsg33
(idecision_tree
continuous_decision_tree
p3640
(dp3641
g2
F-44.333349999999996
sg3
I59
sg4
(idecision_tree
continuous_decision_tree
p3642
(dp3643
g2
F-16.916685
sg3
I67
sg4
(idecision_tree
decision_tree_leaf
p3644
(dp3645
g25
g26
(g27
tp3646
Rp3647
g30
I1
ssg32
g30
sbsg33
(idecision_tree
decision_tree_leaf
p3648
(dp3649
g25
g26
(g27
tp3650
Rp3651
S'PKP'
p3652
I1
ssg32
g3652
sbsbsg33
(idecision_tree
decision_tree_leaf
p3653
(dp3654
g25
g26
(g27
tp3655
Rp3656
g30
I1
ssg32
g30
sbsbsbsg33
(idecision_tree
decision_tree_leaf
p3657
(dp3658
g25
g26
(g27
tp3659
Rp3660
g30
I1
ssg32
g30
sbsbsbsg33
(idecision_tree
decision_tree_leaf
p3661
(dp3662
g25
g26
(g27
tp3663
Rp3664
g30
I2
ssg32
g30
sbsbsg33
(idecision_tree
decision_tree_leaf
p3665
(dp3666
g25
g26
(g27
tp3667
Rp3668
g30
I1
ssg32
g30
sbsbsbsbsg33
(idecision_tree
decision_tree_leaf
p3669
(dp3670
g25
g26
(g27
tp3671
Rp3672
g30
I1
ssg32
g30
sbsbsg33
(idecision_tree
decision_tree_leaf
p3673
(dp3674
g25
g26
(g27
tp3675
Rp3676
g30
I1
ssg32
g30
sbsbsbsg33
(idecision_tree
decision_tree_leaf
p3677
(dp3678
g25
g26
(g27
tp3679
Rp3680
g30
I1
ssg32
g30
sbsbsbsbsbsbsbsg33
(idecision_tree
continuous_decision_tree
p3681
(dp3682
g2
F0.0
sg3
I62
sg4
(idecision_tree
continuous_decision_tree
p3683
(dp3684
g2
F1.0
sg3
I62
sg4
(idecision_tree
decision_tree_leaf
p3685
(dp3686
g25
g26
(g27
tp3687
Rp3688
g30
I88
sS'PKP'
p3689
I6
ssg32
g30
sbsg33
(idecision_tree
continuous_decision_tree
p3690
(dp3691
g2
F0.187546
sg3
I50
sg4
(idecision_tree
continuous_decision_tree
p3692
(dp3693
g2
F0.2070255
sg3
I50
sg4
(idecision_tree
continuous_decision_tree
p3694
(dp3695
g2
F0.495889
sg3
I49
sg4
(idecision_tree
decision_tree_leaf
p3696
(dp3697
g25
g26
(g27
tp3698
Rp3699
g30
I2
ssg32
g30
sbsg33
(idecision_tree
continuous_decision_tree
p3700
(dp3701
g2
F11.3293
sg3
I44
sg4
(idecision_tree
decision_tree_leaf
p3702
(dp3703
g25
g26
(g27
tp3704
Rp3705
g30
I9
sS'PKP'
p3706
I1
ssg32
g30
sbsg33
(idecision_tree
decision_tree_leaf
p3707
(dp3708
g25
g26
(g27
tp3709
Rp3710
g30
I2
ssg32
g30
sbsbsbsg33
(idecision_tree
decision_tree_leaf
p3711
(dp3712
g25
g26
(g27
tp3713
Rp3714
g30
I2
ssg32
g30
sbsbsg33
(idecision_tree
continuous_decision_tree
p3715
(dp3716
g2
F0.9879450000000001
sg3
I35
sg4
(idecision_tree
decision_tree_leaf
p3717
(dp3718
g25
g26
(g27
tp3719
Rp3720
g30
I29
sS'PKP'
p3721
I2
ssg32
g30
sbsg33
(idecision_tree
continuous_decision_tree
p3722
(dp3723
g2
F1.0960525
sg3
I49
sg4
(idecision_tree
decision_tree_leaf
p3724
(dp3725
g25
g26
(g27
tp3726
Rp3727
g30
I1
ssg32
g30
sbsg33
(idecision_tree
continuous_decision_tree
p3728
(dp3729
g2
F0.06909655
sg3
I38
sg4
(idecision_tree
continuous_decision_tree
p3730
(dp3731
g2
F22.5
sg3
I63
sg4
(idecision_tree
decision_tree_leaf
p3732
(dp3733
g25
g26
(g27
tp3734
Rp3735
g30
I2
ssg32
g30
sbsg33
(idecision_tree
decision_tree_leaf
p3736
(dp3737
g25
g26
(g27
tp3738
Rp3739
g30
I11
sS'PKP'
p3740
I1
ssg32
g30
sbsbsg33
(idecision_tree
decision_tree_leaf
p3741
(dp3742
g25
g26
(g27
tp3743
Rp3744
g30
I1
ssg32
g30
sbsbsbsbsbsbsg33
(idecision_tree
continuous_decision_tree
p3745
(dp3746
g2
F1.78837
sg3
I39
sg4
(idecision_tree
continuous_decision_tree
p3747
(dp3748
g2
F3.2806550000000003
sg3
I39
sg4
(idecision_tree
continuous_decision_tree
p3749
(dp3750
g2
F0.002825125
sg3
I51
sg4
(idecision_tree
continuous_decision_tree
p3751
(dp3752
g2
F0.03917255
sg3
I49
sg4
(idecision_tree
continuous_decision_tree
p3753
(dp3754
g2
F88.92134999999999
sg3
I40
sg4
(idecision_tree
decision_tree_leaf
p3755
(dp3756
g25
g26
(g27
tp3757
Rp3758
g30
I1
ssg32
g30
sbsg33
(idecision_tree
continuous_decision_tree
p3759
(dp3760
g2
F-74.75
sg3
I63
sg4
(idecision_tree
continuous_decision_tree
p3761
(dp3762
g2
F0.5
sg3
I59
sg4
(idecision_tree
decision_tree_leaf
p3763
(dp3764
g25
g26
(g27
tp3765
Rp3766
g30
I1
ssg32
g30
sbsg33
(idecision_tree
continuous_decision_tree
p3767
(dp3768
g2
F0.9987280000000001
sg3
I35
sg4
(idecision_tree
decision_tree_leaf
p3769
(dp3770
g25
g26
(g27
tp3771
Rp3772
g30
I1
ssg32
g30
sbsg33
(idecision_tree
continuous_decision_tree
p3773
(dp3774
g2
F0.111968
sg3
I48
sg4
(idecision_tree
continuous_decision_tree
p3775
(dp3776
g2
F-77.75
sg3
I67
sg4
(idecision_tree
continuous_decision_tree
p3777
(dp3778
g2
F0.38888849999999997
sg3
I8
sg4
(idecision_tree
continuous_decision_tree
p3779
(dp3780
g2
F-2.5
sg3
I66
sg4
(idecision_tree
continuous_decision_tree
p3781
(dp3782
g2
F-2.5
sg3
I62
sg4
(idecision_tree
continuous_decision_tree
p3783
(dp3784
g2
F0.07955409999999999
sg3
I52
sg4
(idecision_tree
decision_tree_leaf
p3785
(dp3786
g25
g26
(g27
tp3787
Rp3788
g30
I1
ssg32
g30
sbsg33
(idecision_tree
continuous_decision_tree
p3789
(dp3790
g2
F0.9947235
sg3
I34
sg4
(idecision_tree
continuous_decision_tree
p3791
(dp3792
g2
F-47.75
sg3
I67
sg4
(idecision_tree
decision_tree_leaf
p3793
(dp3794
g25
g26
(g27
tp3795
Rp3796
g30
I2
ssg32
g30
sbsg33
(idecision_tree
decision_tree_leaf
p3797
(dp3798
g25
g26
(g27
tp3799
Rp3800
S'PKP'
p3801
I1
ssg32
g3801
sbsbsg33
(idecision_tree
decision_tree_leaf
p3802
(dp3803
g25
g26
(g27
tp3804
Rp3805
g30
I2
ssg32
g30
sbsbsbsg33
(idecision_tree
decision_tree_leaf
p3806
(dp3807
g25
g26
(g27
tp3808
Rp3809
g30
I1
ssg32
g30
sbsbsg33
(idecision_tree
decision_tree_leaf
p3810
(dp3811
g25
g26
(g27
tp3812
Rp3813
g30
I4
ssg32
g30
sbsbsg33
(idecision_tree
decision_tree_leaf
p3814
(dp3815
g25
g26
(g27
tp3816
Rp3817
g30
I1
ssg32
g30
sbsbsg33
(idecision_tree
decision_tree_leaf
p3818
(dp3819
g25
g26
(g27
tp3820
Rp3821
g30
I1
ssg32
g30
sbsbsg33
(idecision_tree
decision_tree_leaf
p3822
(dp3823
g25
g26
(g27
tp3824
Rp3825
g30
I1
ssg32
g30
sbsbsbsbsg33
(idecision_tree
decision_tree_leaf
p3826
(dp3827
g25
g26
(g27
tp3828
Rp3829
g30
I2
ssg32
g30
sbsbsbsg33
(idecision_tree
decision_tree_leaf
p3830
(dp3831
g25
g26
(g27
tp3832
Rp3833
g30
I1
ssg32
g30
sbsbsg33
(idecision_tree
decision_tree_leaf
p3834
(dp3835
g25
g26
(g27
tp3836
Rp3837
g30
I1
ssg32
g30
sbsbsg33
(idecision_tree
continuous_decision_tree
p3838
(dp3839
g2
F0.0556155
sg3
I48
sg4
(idecision_tree
continuous_decision_tree
p3840
(dp3841
g2
F-3.0
sg3
I62
sg4
(idecision_tree
decision_tree_leaf
p3842
(dp3843
g25
g26
(g27
tp3844
Rp3845
g30
I20
sS'PKP'
p3846
I1
ssg32
g30
sbsg33
(idecision_tree
decision_tree_leaf
p3847
(dp3848
g25
g26
(g27
tp3849
Rp3850
g30
I1
ssg32
g30
sbsbsg33
(idecision_tree
decision_tree_leaf
p3851
(dp3852
g25
g26
(g27
tp3853
Rp3854
g30
I1
ssg32
g30
sbsbsbsg33
(idecision_tree
continuous_decision_tree
p3855
(dp3856
g2
F-4.5
sg3
I66
sg4
(idecision_tree
continuous_decision_tree
p3857
(dp3858
g2
F-108.25
sg3
I67
sg4
(idecision_tree
continuous_decision_tree
p3859
(dp3860
g2
F0.190993
sg3
I51
sg4
(idecision_tree
decision_tree_leaf
p3861
(dp3862
g25
g26
(g27
tp3863
Rp3864
g30
I2
ssg32
g30
sbsg33
(idecision_tree
continuous_decision_tree
p3865
(dp3866
g2
F0.666667
sg3
I8
sg4
(idecision_tree
decision_tree_leaf
p3867
(dp3868
g25
g26
(g27
tp3869
Rp3870
g30
I8
sS'PKP'
p3871
I1
ssg32
g30
sbsg33
(idecision_tree
decision_tree_leaf
p3872
(dp3873
g25
g26
(g27
tp3874
Rp3875
g30
I11
ssg32
g30
sbsbsbsg33
(idecision_tree
decision_tree_leaf
p3876
(dp3877
g25
g26
(g27
tp3878
Rp3879
g30
I1
ssg32
g30
sbsbsg33
(idecision_tree
decision_tree_leaf
p3880
(dp3881
g25
g26
(g27
tp3882
Rp3883
g30
I1
ssg32
g30
sbsbsbsbsb.