(idecision_tree
continuous_decision_tree
p0
(dp1
S'split_point'
p2
F0.0
sS'attribute'
p3
I66
sS'gt_subtree'
p4
(idecision_tree
continuous_decision_tree
p5
(dp6
g2
F0.0
sg3
I62
sg4
(idecision_tree
continuous_decision_tree
p7
(dp8
g2
F40.0
sg3
I63
sg4
(idecision_tree
continuous_decision_tree
p9
(dp10
g2
F41.5
sg3
I63
sg4
(idecision_tree
continuous_decision_tree
p11
(dp12
g2
F2.09661
sg3
I39
sg4
(idecision_tree
continuous_decision_tree
p13
(dp14
g2
F2.95186
sg3
I39
sg4
(idecision_tree
continuous_decision_tree
p15
(dp16
g2
F33.9167
sg3
I59
sg4
(idecision_tree
continuous_decision_tree
p17
(dp18
g2
F0.4702925
sg3
I50
sg4
(idecision_tree
continuous_decision_tree
p19
(dp20
g2
F34.75
sg3
I59
sg4
(idecision_tree
continuous_decision_tree
p21
(dp22
g2
F74.51875
sg3
I44
sg4
(idecision_tree
decision_tree_leaf
p23
(dp24
S'counts'
p25
ccollections
defaultdict
p26
(c__builtin__
int
p27
tp28
Rp29
S'P'
p30
I1
ssS'value'
p31
g30
sbsS'lt_subtree'
p32
(idecision_tree
continuous_decision_tree
p33
(dp34
g2
F0.438987
sg3
I48
sg4
(idecision_tree
continuous_decision_tree
p35
(dp36
g2
F43.25
sg3
I63
sg4
(idecision_tree
continuous_decision_tree
p37
(dp38
g2
F-58.8335
sg3
I67
sg4
(idecision_tree
continuous_decision_tree
p39
(dp40
g2
F0.6134105
sg3
I50
sg4
(idecision_tree
continuous_decision_tree
p41
(dp42
g2
F1.408195
sg3
I49
sg4
(idecision_tree
decision_tree_leaf
p43
(dp44
g25
g26
(g27
tp45
Rp46
g30
I1
ssg31
g30
sbsg32
(idecision_tree
continuous_decision_tree
p47
(dp48
g2
F0.9794495
sg3
I35
sg4
(idecision_tree
continuous_decision_tree
p49
(dp50
g2
F51.75
sg3
I67
sg4
(idecision_tree
decision_tree_leaf
p51
(dp52
g25
g26
(g27
tp53
Rp54
g30
I1
ssg31
g30
sbsg32
(idecision_tree
decision_tree_leaf
p55
(dp56
g25
g26
(g27
tp57
Rp58
S'Pg'
p59
I1
ssg31
g59
sbsbsg32
(idecision_tree
decision_tree_leaf
p60
(dp61
g25
g26
(g27
tp62
Rp63
g30
I1
ssg31
g30
sbsbsbsg32
(idecision_tree
decision_tree_leaf
p64
(dp65
g25
g26
(g27
tp66
Rp67
g30
I1
ssg31
g30
sbsbsg32
(idecision_tree
decision_tree_leaf
p68
(dp69
g25
g26
(g27
tp70
Rp71
g30
I1
ssg31
g30
sbsbsg32
(idecision_tree
decision_tree_leaf
p72
(dp73
g25
g26
(g27
tp74
Rp75
g30
I1
ssg31
g30
sbsbsg32
(idecision_tree
decision_tree_leaf
p76
(dp77
g25
g26
(g27
tp78
Rp79
g30
I1
ssg31
g30
sbsbsbsg32
(idecision_tree
decision_tree_leaf
p80
(dp81
g25
g26
(g27
tp82
Rp83
g30
I1
ssg31
g30
sbsbsg32
(idecision_tree
continuous_decision_tree
p84
(dp85
g2
F6.666650000000001
sg3
I67
sg4
(idecision_tree
continuous_decision_tree
p86
(dp87
g2
F0.37045249999999996
sg3
I48
sg4
(idecision_tree
continuous_decision_tree
p88
(dp89
g2
F0.9655425
sg3
I35
sg4
(idecision_tree
continuous_decision_tree
p90
(dp91
g2
F4.02254
sg3
I39
sg4
(idecision_tree
continuous_decision_tree
p92
(dp93
g2
F53.8125
sg3
I67
sg4
(idecision_tree
decision_tree_leaf
p94
(dp95
g25
g26
(g27
tp96
Rp97
g30
I5
ssg31
g30
sbsg32
(idecision_tree
decision_tree_leaf
p98
(dp99
g25
g26
(g27
tp100
Rp101
S'Pn'
p102
I1
ssg31
g102
sbsbsg32
(idecision_tree
decision_tree_leaf
p103
(dp104
g25
g26
(g27
tp105
Rp106
g30
I2
ssg31
g30
sbsbsg32
(idecision_tree
decision_tree_leaf
p107
(dp108
g25
g26
(g27
tp109
Rp110
g30
I2
ssg31
g30
sbsbsg32
(idecision_tree
decision_tree_leaf
p111
(dp112
g25
g26
(g27
tp113
Rp114
g30
I2
ssg31
g30
sbsbsg32
(idecision_tree
decision_tree_leaf
p115
(dp116
g25
g26
(g27
tp117
Rp118
g30
I2
ssg31
g30
sbsbsbsg32
(idecision_tree
continuous_decision_tree
p119
(dp120
g2
F3.4860550000000003
sg3
I39
sg4
(idecision_tree
continuous_decision_tree
p121
(dp122
g2
F3.9582300000000004
sg3
I39
sg4
(idecision_tree
continuous_decision_tree
p123
(dp124
g2
F51.9938
sg3
I40
sg4
(idecision_tree
continuous_decision_tree
p125
(dp126
g2
F3.0
sg3
I66
sg4
(idecision_tree
decision_tree_leaf
p127
(dp128
g25
g26
(g27
tp129
Rp130
g30
I4
sS'S'
p131
I1
ssg31
g30
sbsg32
(idecision_tree
decision_tree_leaf
p132
(dp133
g25
g26
(g27
tp134
Rp135
g30
I6
ssg31
g30
sbsbsg32
(idecision_tree
decision_tree_leaf
p136
(dp137
g25
g26
(g27
tp138
Rp139
g30
I2
ssg31
g30
sbsbsg32
(idecision_tree
continuous_decision_tree
p140
(dp141
g2
F45.44445
sg3
I63
sg4
(idecision_tree
continuous_decision_tree
p142
(dp143
g2
F0.991446
sg3
I35
sg4
(idecision_tree
decision_tree_leaf
p144
(dp145
g25
g26
(g27
tp146
Rp147
g30
I2
ssg31
g30
sbsg32
(idecision_tree
continuous_decision_tree
p148
(dp149
g2
F1.748925
sg3
I48
sg4
(idecision_tree
decision_tree_leaf
p150
(dp151
g25
g26
(g27
tp152
Rp153
g30
I2
ssg31
g30
sbsg32
(idecision_tree
decision_tree_leaf
p154
(dp155
g25
g26
(g27
tp156
Rp157
g30
I5
sS'Pn'
p158
I1
ssg31
g30
sbsbsbsg32
(idecision_tree
decision_tree_leaf
p159
(dp160
g25
g26
(g27
tp161
Rp162
g30
I1
ssg31
g30
sbsbsbsg32
(idecision_tree
continuous_decision_tree
p163
(dp164
g2
F42.25
sg3
I63
sg4
(idecision_tree
continuous_decision_tree
p165
(dp166
g2
F-8.0
sg3
I67
sg4
(idecision_tree
continuous_decision_tree
p167
(dp168
g2
F3.008345
sg3
I39
sg4
(idecision_tree
continuous_decision_tree
p169
(dp170
g2
F0.8342855
sg3
I35
sg4
(idecision_tree
decision_tree_leaf
p171
(dp172
g25
g26
(g27
tp173
Rp174
g30
I8
sS'Pg'
p175
I1
ssg31
g30
sbsg32
(idecision_tree
decision_tree_leaf
p176
(dp177
g25
g26
(g27
tp178
Rp179
g30
I1
ssg31
g30
sbsbsg32
(idecision_tree
decision_tree_leaf
p180
(dp181
g25
g26
(g27
tp182
Rp183
g30
I1
ssg31
g30
sbsbsg32
(idecision_tree
decision_tree_leaf
p184
(dp185
g25
g26
(g27
tp186
Rp187
g30
I1
ssg31
g30
sbsbsg32
(idecision_tree
decision_tree_leaf
p188
(dp189
g25
g26
(g27
tp190
Rp191
g30
I1
ssg31
g30
sbsbsbsbsg32
(idecision_tree
continuous_decision_tree
p192
(dp193
g2
F42.1553
sg3
I44
sg4
(idecision_tree
continuous_decision_tree
p194
(dp195
g2
F-32.525
sg3
I67
sg4
(idecision_tree
continuous_decision_tree
p196
(dp197
g2
F5.0
sg3
I62
sg4
(idecision_tree
decision_tree_leaf
p198
(dp199
g25
g26
(g27
tp200
Rp201
g30
I1
ssg31
g30
sbsg32
(idecision_tree
continuous_decision_tree
p202
(dp203
g2
F51.75
sg3
I59
sg4
(idecision_tree
decision_tree_leaf
p204
(dp205
g25
g26
(g27
tp206
Rp207
g30
I1
ssg31
g30
sbsg32
(idecision_tree
continuous_decision_tree
p208
(dp209
g2
F4.5
sg3
I66
sg4
(idecision_tree
decision_tree_leaf
p210
(dp211
g25
g26
(g27
tp212
Rp213
g30
I1
ssg31
g30
sbsg32
(idecision_tree
continuous_decision_tree
p214
(dp215
g2
F0.5566
sg3
I51
sg4
(idecision_tree
decision_tree_leaf
p216
(dp217
g25
g26
(g27
tp218
Rp219
g30
I2
ssg31
g30
sbsg32
(idecision_tree
continuous_decision_tree
p220
(dp221
g2
F0.4778615
sg3
I50
sg4
(idecision_tree
continuous_decision_tree
p222
(dp223
g2
F43.6261
sg3
I44
sg4
(idecision_tree
continuous_decision_tree
p224
(dp225
g2
F0.4181875
sg3
I52
sg4
(idecision_tree
decision_tree_leaf
p226
(dp227
g25
g26
(g27
tp228
Rp229
g30
I1
ssg31
g30
sbsg32
(idecision_tree
continuous_decision_tree
p230
(dp231
g2
F0.7162535
sg3
I49
sg4
(idecision_tree
continuous_decision_tree
p232
(dp233
g2
F90.75
sg3
I67
sg4
(idecision_tree
decision_tree_leaf
p234
(dp235
g25
g26
(g27
tp236
Rp237
g30
I1
ssg31
g30
sbsg32
(idecision_tree
decision_tree_leaf
p238
(dp239
g25
g26
(g27
tp240
Rp241
S'Pn'
p242
I1
ssg31
g242
sbsbsg32
(idecision_tree
decision_tree_leaf
p243
(dp244
g25
g26
(g27
tp245
Rp246
g30
I1
ssg31
g30
sbsbsbsg32
(idecision_tree
decision_tree_leaf
p247
(dp248
g25
g26
(g27
tp249
Rp250
g30
I1
ssg31
g30
sbsbsg32
(idecision_tree
decision_tree_leaf
p251
(dp252
g25
g26
(g27
tp253
Rp254
g30
I1
ssg31
g30
sbsbsbsbsbsbsg32
(idecision_tree
decision_tree_leaf
p255
(dp256
g25
g26
(g27
tp257
Rp258
g30
I1
ssg31
g30
sbsbsg32
(idecision_tree
continuous_decision_tree
p259
(dp260
g2
F41.9844
sg3
I67
sg4
(idecision_tree
continuous_decision_tree
p261
(dp262
g2
F66.0
sg3
I63
sg4
(idecision_tree
continuous_decision_tree
p263
(dp264
g2
F8.5
sg3
I66
sg4
(idecision_tree
decision_tree_leaf
p265
(dp266
g25
g26
(g27
tp267
Rp268
g30
I1
ssg31
g30
sbsg32
(idecision_tree
continuous_decision_tree
p269
(dp270
g2
F97.5
sg3
I63
sg4
(idecision_tree
decision_tree_leaf
p271
(dp272
g25
g26
(g27
tp273
Rp274
g30
I1
ssg31
g30
sbsg32
(idecision_tree
decision_tree_leaf
p275
(dp276
g25
g26
(g27
tp277
Rp278
g30
I9
sS'Pn'
p279
I1
ssg31
g30
sbsbsbsg32
(idecision_tree
continuous_decision_tree
p280
(dp281
g2
F0.21064100000000002
sg3
I51
sg4
(idecision_tree
continuous_decision_tree
p282
(dp283
g2
F0.666667
sg3
I8
sg4
(idecision_tree
continuous_decision_tree
p284
(dp285
g2
F92.25
sg3
I67
sg4
(idecision_tree
decision_tree_leaf
p286
(dp287
g25
g26
(g27
tp288
Rp289
g30
I1
ssg31
g30
sbsg32
(idecision_tree
continuous_decision_tree
p290
(dp291
g2
F4.5
sg3
I66
sg4
(idecision_tree
decision_tree_leaf
p292
(dp293
g25
g26
(g27
tp294
Rp295
g30
I1
ssg31
g30
sbsg32
(idecision_tree
continuous_decision_tree
p296
(dp297
g2
F5.0
sg3
I59
sg4
(idecision_tree
continuous_decision_tree
p298
(dp299
g2
F55.5
sg3
I67
sg4
(idecision_tree
decision_tree_leaf
p300
(dp301
g25
g26
(g27
tp302
Rp303
S'Pn'
p304
I1
ssg31
g304
sbsg32
(idecision_tree
decision_tree_leaf
p305
(dp306
g25
g26
(g27
tp307
Rp308
g30
I1
ssg31
g30
sbsbsg32
(idecision_tree
decision_tree_leaf
p309
(dp310
g25
g26
(g27
tp311
Rp312
g30
I1
ssg31
g30
sbsbsbsbsg32
(idecision_tree
decision_tree_leaf
p313
(dp314
g25
g26
(g27
tp315
Rp316
g30
I7
ssg31
g30
sbsbsg32
(idecision_tree
decision_tree_leaf
p317
(dp318
g25
g26
(g27
tp319
Rp320
g30
I1
ssg31
g30
sbsbsbsg32
(idecision_tree
continuous_decision_tree
p321
(dp322
g2
F0.1670885
sg3
I52
sg4
(idecision_tree
continuous_decision_tree
p323
(dp324
g2
F88.79825
sg3
I40
sg4
(idecision_tree
decision_tree_leaf
p325
(dp326
g25
g26
(g27
tp327
Rp328
g30
I1
ssg31
g30
sbsg32
(idecision_tree
continuous_decision_tree
p329
(dp330
g2
F0.38888849999999997
sg3
I8
sg4
(idecision_tree
continuous_decision_tree
p331
(dp332
g2
F0.6438745
sg3
I49
sg4
(idecision_tree
decision_tree_leaf
p333
(dp334
g25
g26
(g27
tp335
Rp336
g30
I2
ssg31
g30
sbsg32
(idecision_tree
continuous_decision_tree
p337
(dp338
g2
F0.9906325
sg3
I35
sg4
(idecision_tree
decision_tree_leaf
p339
(dp340
g25
g26
(g27
tp341
Rp342
g30
I1
ssg31
g30
sbsg32
(idecision_tree
continuous_decision_tree
p343
(dp344
g2
F3.0
sg3
I66
sg4
(idecision_tree
decision_tree_leaf
p345
(dp346
g25
g26
(g27
tp347
Rp348
g30
I1
ssg31
g30
sbsg32
(idecision_tree
continuous_decision_tree
p349
(dp350
g2
F49.125
sg3
I63
sg4
(idecision_tree
continuous_decision_tree
p351
(dp352
g2
F0.984092
sg3
I34
sg4
(idecision_tree
decision_tree_leaf
p353
(dp354
g25
g26
(g27
tp355
Rp356
g30
I1
ssg31
g30
sbsg32
(idecision_tree
continuous_decision_tree
p357
(dp358
g2
F-171.5
sg3
I67
sg4
(idecision_tree
continuous_decision_tree
p359
(dp360
g2
F-57.5156
sg3
I67
sg4
(idecision_tree
decision_tree_leaf
p361
(dp362
g25
g26
(g27
tp363
Rp364
S'PKP'
p365
I1
ssg31
g365
sbsg32
(idecision_tree
decision_tree_leaf
p366
(dp367
g25
g26
(g27
tp368
Rp369
g30
I1
ssg31
g30
sbsbsg32
(idecision_tree
decision_tree_leaf
p370
(dp371
g25
g26
(g27
tp372
Rp373
g30
I1
ssg31
g30
sbsbsbsg32
(idecision_tree
decision_tree_leaf
p374
(dp375
g25
g26
(g27
tp376
Rp377
g30
I1
ssg31
g30
sbsbsbsbsbsg32
(idecision_tree
decision_tree_leaf
p378
(dp379
g25
g26
(g27
tp380
Rp381
g30
I1
ssg31
g30
sbsbsbsg32
(idecision_tree
decision_tree_leaf
p382
(dp383
g25
g26
(g27
tp384
Rp385
g30
I1
ssg31
g30
sbsbsbsbsbsg32
(idecision_tree
continuous_decision_tree
p386
(dp387
g2
F1.0
sg3
I62
sg4
(idecision_tree
continuous_decision_tree
p388
(dp389
g2
F1.87101
sg3
I39
sg4
(idecision_tree
continuous_decision_tree
p390
(dp391
g2
F0.2559805
sg3
I50
sg4
(idecision_tree
continuous_decision_tree
p392
(dp393
g2
F43.69445
sg3
I63
sg4
(idecision_tree
continuous_decision_tree
p394
(dp395
g2
F-13.341249999999999
sg3
I67
sg4
(idecision_tree
continuous_decision_tree
p396
(dp397
g2
F0.976181
sg3
I35
sg4
(idecision_tree
decision_tree_leaf
p398
(dp399
g25
g26
(g27
tp400
Rp401
g30
I1
ssg31
g30
sbsg32
(idecision_tree
continuous_decision_tree
p402
(dp403
g2
F43.666650000000004
sg3
I59
sg4
(idecision_tree
decision_tree_leaf
p404
(dp405
g25
g26
(g27
tp406
Rp407
g30
I1
ssg31
g30
sbsg32
(idecision_tree
continuous_decision_tree
p408
(dp409
g2
F0.6683385
sg3
I48
sg4
(idecision_tree
continuous_decision_tree
p410
(dp411
g2
F54.94445
sg3
I67
sg4
(idecision_tree
decision_tree_leaf
p412
(dp413
g25
g26
(g27
tp414
Rp415
g30
I3
ssg31
g30
sbsg32
(idecision_tree
decision_tree_leaf
p416
(dp417
g25
g26
(g27
tp418
Rp419
S'Pn'
p420
I1
ssg31
g420
sbsbsg32
(idecision_tree
decision_tree_leaf
p421
(dp422
g25
g26
(g27
tp423
Rp424
g30
I1
ssg31
g30
sbsbsbsbsg32
(idecision_tree
decision_tree_leaf
p425
(dp426
g25
g26
(g27
tp427
Rp428
g30
I2
ssg31
g30
sbsbsg32
(idecision_tree
decision_tree_leaf
p429
(dp430
g25
g26
(g27
tp431
Rp432
g30
I2
ssg31
g30
sbsbsg32
(idecision_tree
decision_tree_leaf
p433
(dp434
g25
g26
(g27
tp435
Rp436
g30
I1
ssg31
g30
sbsbsg32
(idecision_tree
continuous_decision_tree
p437
(dp438
g2
F0.412316
sg3
I38
sg4
(idecision_tree
continuous_decision_tree
p439
(dp440
g2
F79.25
sg3
I63
sg4
(idecision_tree
continuous_decision_tree
p441
(dp442
g2
F0.9667615
sg3
I52
sg4
(idecision_tree
decision_tree_leaf
p443
(dp444
g25
g26
(g27
tp445
Rp446
g30
I1
ssg31
g30
sbsg32
(idecision_tree
continuous_decision_tree
p447
(dp448
g2
F1.1188695
sg3
I49
sg4
(idecision_tree
decision_tree_leaf
p449
(dp450
g25
g26
(g27
tp451
Rp452
g30
I1
ssg31
g30
sbsg32
(idecision_tree
continuous_decision_tree
p453
(dp454
g2
F1.8753950000000001
sg3
I48
sg4
(idecision_tree
decision_tree_leaf
p455
(dp456
g25
g26
(g27
tp457
Rp458
g30
I1
ssg31
g30
sbsg32
(idecision_tree
continuous_decision_tree
p459
(dp460
g2
F1.885525
sg3
I37
sg4
(idecision_tree
decision_tree_leaf
p461
(dp462
g25
g26
(g27
tp463
Rp464
g30
I1
ssg31
g30
sbsg32
(idecision_tree
continuous_decision_tree
p465
(dp466
g2
F0.877766
sg3
I35
sg4
(idecision_tree
continuous_decision_tree
p467
(dp468
g2
F56.19
sg3
I40
sg4
(idecision_tree
continuous_decision_tree
p469
(dp470
g2
F1.515705
sg3
I39
sg4
(idecision_tree
continuous_decision_tree
p471
(dp472
g2
F-2.3181999999999974
sg3
I67
sg4
(idecision_tree
decision_tree_leaf
p473
(dp474
g25
g26
(g27
tp475
Rp476
g30
I2
ssg31
g30
sbsg32
(idecision_tree
decision_tree_leaf
p477
(dp478
g25
g26
(g27
tp479
Rp480
S'Lg'
p481
I1
ssg31
g481
sbsbsg32
(idecision_tree
decision_tree_leaf
p482
(dp483
g25
g26
(g27
tp484
Rp485
g30
I1
ssg31
g30
sbsbsg32
(idecision_tree
decision_tree_leaf
p486
(dp487
g25
g26
(g27
tp488
Rp489
g30
I3
ssg31
g30
sbsbsg32
(idecision_tree
decision_tree_leaf
p490
(dp491
g25
g26
(g27
tp492
Rp493
g30
I1
ssg31
g30
sbsbsbsbsbsbsg32
(idecision_tree
continuous_decision_tree
p494
(dp495
g2
F5.0
sg3
I66
sg4
(idecision_tree
decision_tree_leaf
p496
(dp497
g25
g26
(g27
tp498
Rp499
g30
I1
ssg31
g30
sbsg32
(idecision_tree
continuous_decision_tree
p500
(dp501
g2
F42.34375
sg3
I63
sg4
(idecision_tree
continuous_decision_tree
p502
(dp503
g2
F-77.0
sg3
I67
sg4
(idecision_tree
continuous_decision_tree
p504
(dp505
g2
F0.7416425
sg3
I51
sg4
(idecision_tree
decision_tree_leaf
p506
(dp507
g25
g26
(g27
tp508
Rp509
g30
I1
ssg31
g30
sbsg32
(idecision_tree
continuous_decision_tree
p510
(dp511
g2
F0.954867
sg3
I35
sg4
(idecision_tree
decision_tree_leaf
p512
(dp513
g25
g26
(g27
tp514
Rp515
g30
I1
ssg31
g30
sbsg32
(idecision_tree
continuous_decision_tree
p516
(dp517
g2
F0.5624955
sg3
I52
sg4
(idecision_tree
continuous_decision_tree
p518
(dp519
g2
F0.3958805
sg3
I50
sg4
(idecision_tree
continuous_decision_tree
p520
(dp521
g2
F0.5570499999999999
sg3
I48
sg4
(idecision_tree
continuous_decision_tree
p522
(dp523
g2
F59.0
sg3
I67
sg4
(idecision_tree
decision_tree_leaf
p524
(dp525
g25
g26
(g27
tp526
Rp527
g30
I1
ssg31
g30
sbsg32
(idecision_tree
decision_tree_leaf
p528
(dp529
g25
g26
(g27
tp530
Rp531
S'Pn'
p532
I1
ssg31
g532
sbsbsg32
(idecision_tree
decision_tree_leaf
p533
(dp534
g25
g26
(g27
tp535
Rp536
g30
I1
ssg31
g30
sbsbsg32
(idecision_tree
decision_tree_leaf
p537
(dp538
g25
g26
(g27
tp539
Rp540
g30
I1
ssg31
g30
sbsbsg32
(idecision_tree
decision_tree_leaf
p541
(dp542
g25
g26
(g27
tp543
Rp544
g30
I2
ssg31
g30
sbsbsbsbsg32
(idecision_tree
decision_tree_leaf
p545
(dp546
g25
g26
(g27
tp547
Rp548
g30
I1
ssg31
g30
sbsbsg32
(idecision_tree
decision_tree_leaf
p549
(dp550
g25
g26
(g27
tp551
Rp552
g30
I1
ssg31
g30
sbsbsbsbsg32
(idecision_tree
continuous_decision_tree
p553
(dp554
g2
F1.0
sg3
I58
sg4
(idecision_tree
decision_tree_leaf
p555
(dp556
g25
g26
(g27
tp557
Rp558
g30
I11
sS'PKP'
p559
I1
ssg31
g30
sbsg32
(idecision_tree
continuous_decision_tree
p560
(dp561
g2
F3.0
sg3
I62
sg4
(idecision_tree
continuous_decision_tree
p562
(dp563
g2
F-72.58335
sg3
I67
sg4
(idecision_tree
decision_tree_leaf
p564
(dp565
g25
g26
(g27
tp566
Rp567
S'Pn'
p568
I1
ssg31
g568
sbsg32
(idecision_tree
decision_tree_leaf
p569
(dp570
g25
g26
(g27
tp571
Rp572
g30
I1
ssg31
g30
sbsbsg32
(idecision_tree
decision_tree_leaf
p573
(dp574
g25
g26
(g27
tp575
Rp576
g30
I9
ssg31
g30
sbsbsbsbsbsg32
(idecision_tree
decision_tree_leaf
p577
(dp578
g25
g26
(g27
tp579
Rp580
g30
I3
ssg31
g30
sbsbsbsg32
(idecision_tree
decision_tree_leaf
p581
(dp582
g25
g26
(g27
tp583
Rp584
g30
I10
sS'Pn'
p585
I1
ssg31
g30
sbsbsg32
(idecision_tree
continuous_decision_tree
p586
(dp587
g2
F-26.75
sg3
I59
sg4
(idecision_tree
continuous_decision_tree
p588
(dp589
g2
F-11.25
sg3
I59
sg4
(idecision_tree
continuous_decision_tree
p590
(dp591
g2
F8.0
sg3
I67
sg4
(idecision_tree
continuous_decision_tree
p592
(dp593
g2
F0.27704399999999996
sg3
I51
sg4
(idecision_tree
continuous_decision_tree
p594
(dp595
g2
F2.88564
sg3
I39
sg4
(idecision_tree
continuous_decision_tree
p596
(dp597
g2
F0.1803925
sg3
I48
sg4
(idecision_tree
continuous_decision_tree
p598
(dp599
g2
F19.16665
sg3
I59
sg4
(idecision_tree
continuous_decision_tree
p600
(dp601
g2
F27.11665
sg3
I67
sg4
(idecision_tree
continuous_decision_tree
p602
(dp603
g2
F26.78335
sg3
I59
sg4
(idecision_tree
continuous_decision_tree
p604
(dp605
g2
F0.985501
sg3
I49
sg4
(idecision_tree
decision_tree_leaf
p606
(dp607
g25
g26
(g27
tp608
Rp609
g30
I2
ssg31
g30
sbsg32
(idecision_tree
continuous_decision_tree
p610
(dp611
g2
F0.9919835
sg3
I34
sg4
(idecision_tree
decision_tree_leaf
p612
(dp613
g25
g26
(g27
tp614
Rp615
g30
I2
ssg31
g30
sbsg32
(idecision_tree
continuous_decision_tree
p616
(dp617
g2
F5.0
sg3
I66
sg4
(idecision_tree
continuous_decision_tree
p618
(dp619
g2
F30.125
sg3
I67
sg4
(idecision_tree
decision_tree_leaf
p620
(dp621
g25
g26
(g27
tp622
Rp623
S'Pg'
p624
I1
ssg31
g624
sbsg32
(idecision_tree
decision_tree_leaf
p625
(dp626
g25
g26
(g27
tp627
Rp628
g30
I1
ssg31
g30
sbsbsg32
(idecision_tree
decision_tree_leaf
p629
(dp630
g25
g26
(g27
tp631
Rp632
g30
I7
ssg31
g30
sbsbsbsbsg32
(idecision_tree
continuous_decision_tree
p633
(dp634
g2
F2.0
sg3
I58
sg4
(idecision_tree
continuous_decision_tree
p635
(dp636
g2
F0.9185905
sg3
I35
sg4
(idecision_tree
continuous_decision_tree
p637
(dp638
g2
F0.9798255
sg3
I34
sg4
(idecision_tree
decision_tree_leaf
p639
(dp640
g25
g26
(g27
tp641
Rp642
g30
I8
sS'Pg'
p643
I1
ssg31
g30
sbsg32
(idecision_tree
decision_tree_leaf
p644
(dp645
g25
g26
(g27
tp646
Rp647
g30
I1
ssg31
g30
sbsbsg32
(idecision_tree
decision_tree_leaf
p648
(dp649
g25
g26
(g27
tp650
Rp651
g30
I1
ssg31
g30
sbsbsg32
(idecision_tree
decision_tree_leaf
p652
(dp653
g25
g26
(g27
tp654
Rp655
g30
I1
ssg31
g30
sbsbsbsg32
(idecision_tree
continuous_decision_tree
p656
(dp657
g2
F19.54165
sg3
I59
sg4
(idecision_tree
continuous_decision_tree
p658
(dp659
g2
F0.268615
sg3
I50
sg4
(idecision_tree
continuous_decision_tree
p660
(dp661
g2
F1.880915
sg3
I48
sg4
(idecision_tree
decision_tree_leaf
p662
(dp663
g25
g26
(g27
tp664
Rp665
g30
I1
ssg31
g30
sbsg32
(idecision_tree
continuous_decision_tree
p666
(dp667
g2
F15.375
sg3
I67
sg4
(idecision_tree
continuous_decision_tree
p668
(dp669
g2
F0.5555555
sg3
I8
sg4
(idecision_tree
continuous_decision_tree
p670
(dp671
g2
F3.5
sg3
I66
sg4
(idecision_tree
continuous_decision_tree
p672
(dp673
g2
F0.42194
sg3
I49
sg4
(idecision_tree
decision_tree_leaf
p674
(dp675
g25
g26
(g27
tp676
Rp677
g30
I1
ssg31
g30
sbsg32
(idecision_tree
continuous_decision_tree
p678
(dp679
g2
F19.875
sg3
I67
sg4
(idecision_tree
decision_tree_leaf
p680
(dp681
g25
g26
(g27
tp682
Rp683
g30
I2
ssg31
g30
sbsg32
(idecision_tree
decision_tree_leaf
p684
(dp685
g25
g26
(g27
tp686
Rp687
S'Pn'
p688
I1
ssg31
g688
sbsbsbsg32
(idecision_tree
decision_tree_leaf
p689
(dp690
g25
g26
(g27
tp691
Rp692
g30
I2
ssg31
g30
sbsbsg32
(idecision_tree
decision_tree_leaf
p693
(dp694
g25
g26
(g27
tp695
Rp696
g30
I2
ssg31
g30
sbsbsg32
(idecision_tree
decision_tree_leaf
p697
(dp698
g25
g26
(g27
tp699
Rp700
g30
I2
ssg31
g30
sbsbsbsg32
(idecision_tree
decision_tree_leaf
p701
(dp702
g25
g26
(g27
tp703
Rp704
g30
I1
ssg31
g30
sbsbsg32
(idecision_tree
decision_tree_leaf
p705
(dp706
g25
g26
(g27
tp707
Rp708
g30
I1
ssg31
g30
sbsbsbsg32
(idecision_tree
decision_tree_leaf
p709
(dp710
g25
g26
(g27
tp711
Rp712
g30
I140
sg131
I1
sS'Pn'
p713
I9
sS'Sn'
p714
I1
sS'Pg'
p715
I1
ssg31
g30
sbsbsg32
(idecision_tree
continuous_decision_tree
p716
(dp717
g2
F0.5251845
sg3
I51
sg4
(idecision_tree
decision_tree_leaf
p718
(dp719
g25
g26
(g27
tp720
Rp721
g30
I1
ssg31
g30
sbsg32
(idecision_tree
continuous_decision_tree
p722
(dp723
g2
F0.9945385
sg3
I34
sg4
(idecision_tree
decision_tree_leaf
p724
(dp725
g25
g26
(g27
tp726
Rp727
g30
I1
ssg31
g30
sbsg32
(idecision_tree
continuous_decision_tree
p728
(dp729
g2
F0.666667
sg3
I8
sg4
(idecision_tree
continuous_decision_tree
p730
(dp731
g2
F3.5
sg3
I66
sg4
(idecision_tree
decision_tree_leaf
p732
(dp733
g25
g26
(g27
tp734
Rp735
g30
I1
ssg31
g30
sbsg32
(idecision_tree
continuous_decision_tree
p736
(dp737
g2
F0.6152185
sg3
I50
sg4
(idecision_tree
decision_tree_leaf
p738
(dp739
g25
g26
(g27
tp740
Rp741
g30
I1
ssg31
g30
sbsg32
(idecision_tree
continuous_decision_tree
p742
(dp743
g2
F0.481162
sg3
I52
sg4
(idecision_tree
decision_tree_leaf
p744
(dp745
g25
g26
(g27
tp746
Rp747
g30
I1
ssg31
g30
sbsg32
(idecision_tree
continuous_decision_tree
p748
(dp749
g2
F131.5
sg3
I67
sg4
(idecision_tree
decision_tree_leaf
p750
(dp751
g25
g26
(g27
tp752
Rp753
g30
I1
ssg31
g30
sbsg32
(idecision_tree
continuous_decision_tree
p754
(dp755
g2
F0.9839115
sg3
I35
sg4
(idecision_tree
continuous_decision_tree
p756
(dp757
g2
F104.75
sg3
I67
sg4
(idecision_tree
decision_tree_leaf
p758
(dp759
g25
g26
(g27
tp760
Rp761
S'Pn'
p762
I1
ssg31
g762
sbsg32
(idecision_tree
decision_tree_leaf
p763
(dp764
g25
g26
(g27
tp765
Rp766
g30
I1
ssg31
g30
sbsbsg32
(idecision_tree
decision_tree_leaf
p767
(dp768
g25
g26
(g27
tp769
Rp770
g30
I1
ssg31
g30
sbsbsbsbsbsbsg32
(idecision_tree
decision_tree_leaf
p771
(dp772
g25
g26
(g27
tp773
Rp774
g30
I4
ssg31
g30
sbsbsbsbsbsg32
(idecision_tree
continuous_decision_tree
p775
(dp776
g2
F1.45152
sg3
I39
sg4
(idecision_tree
continuous_decision_tree
p777
(dp778
g2
F0.9805489999999999
sg3
I34
sg4
(idecision_tree
continuous_decision_tree
p779
(dp780
g2
F2.0
sg3
I66
sg4
(idecision_tree
decision_tree_leaf
p781
(dp782
g25
g26
(g27
tp783
Rp784
g30
I24
sS'Pn'
p785
I3
ssg31
g30
sbsg32
(idecision_tree
continuous_decision_tree
p786
(dp787
g2
F0.526535
sg3
I52
sg4
(idecision_tree
decision_tree_leaf
p788
(dp789
g25
g26
(g27
tp790
Rp791
g30
I2
ssg31
g30
sbsg32
(idecision_tree
continuous_decision_tree
p792
(dp793
g2
F0.5456945
sg3
I50
sg4
(idecision_tree
decision_tree_leaf
p794
(dp795
g25
g26
(g27
tp796
Rp797
g30
I2
ssg31
g30
sbsg32
(idecision_tree
continuous_decision_tree
p798
(dp799
g2
F1.24362
sg3
I48
sg4
(idecision_tree
decision_tree_leaf
p800
(dp801
g25
g26
(g27
tp802
Rp803
g30
I2
ssg31
g30
sbsg32
(idecision_tree
continuous_decision_tree
p804
(dp805
g2
F0.9953505
sg3
I34
sg4
(idecision_tree
decision_tree_leaf
p806
(dp807
g25
g26
(g27
tp808
Rp809
g30
I2
ssg31
g30
sbsg32
(idecision_tree
continuous_decision_tree
p810
(dp811
g2
F0.666667
sg3
I8
sg4
(idecision_tree
continuous_decision_tree
p812
(dp813
g2
F186.5
sg3
I67
sg4
(idecision_tree
decision_tree_leaf
p814
(dp815
g25
g26
(g27
tp816
Rp817
g30
I1
ssg31
g30
sbsg32
(idecision_tree
continuous_decision_tree
p818
(dp819
g2
F0.5
sg3
I66
sg4
(idecision_tree
continuous_decision_tree
p820
(dp821
g2
F91.0
sg3
I67
sg4
(idecision_tree
decision_tree_leaf
p822
(dp823
g25
g26
(g27
tp824
Rp825
S'Pn'
p826
I1
ssg31
g826
sbsg32
(idecision_tree
decision_tree_leaf
p827
(dp828
g25
g26
(g27
tp829
Rp830
g30
I1
ssg31
g30
sbsbsg32
(idecision_tree
decision_tree_leaf
p831
(dp832
g25
g26
(g27
tp833
Rp834
g30
I1
ssg31
g30
sbsbsbsg32
(idecision_tree
decision_tree_leaf
p835
(dp836
g25
g26
(g27
tp837
Rp838
g30
I12
ssg31
g30
sbsbsbsbsbsbsbsg32
(idecision_tree
continuous_decision_tree
p839
(dp840
g2
F0.486902
sg3
I48
sg4
(idecision_tree
continuous_decision_tree
p841
(dp842
g2
F0.5894755
sg3
I49
sg4
(idecision_tree
continuous_decision_tree
p843
(dp844
g2
F18.85
sg3
I67
sg4
(idecision_tree
continuous_decision_tree
p845
(dp846
g2
F0.8315745
sg3
I49
sg4
(idecision_tree
continuous_decision_tree
p847
(dp848
g2
F0.5822115
sg3
I50
sg4
(idecision_tree
continuous_decision_tree
p849
(dp850
g2
F24.25
sg3
I63
sg4
(idecision_tree
decision_tree_leaf
p851
(dp852
g25
g26
(g27
tp853
Rp854
g30
I1
ssg31
g30
sbsg32
(idecision_tree
continuous_decision_tree
p855
(dp856
g2
F1.0
sg3
I62
sg4
(idecision_tree
decision_tree_leaf
p857
(dp858
g25
g26
(g27
tp859
Rp860
g30
I2
sS'Pn'
p861
I1
ssg31
g30
sbsg32
(idecision_tree
decision_tree_leaf
p862
(dp863
g25
g26
(g27
tp864
Rp865
g30
I9
ssg31
g30
sbsbsbsg32
(idecision_tree
continuous_decision_tree
p866
(dp867
g2
F0.8612335
sg3
I34
sg4
(idecision_tree
continuous_decision_tree
p868
(dp869
g2
F24.42855
sg3
I63
sg4
(idecision_tree
decision_tree_leaf
p870
(dp871
g25
g26
(g27
tp872
Rp873
g30
I3
ssg31
g30
sbsg32
(idecision_tree
continuous_decision_tree
p874
(dp875
g2
F3.26994
sg3
I48
sg4
(idecision_tree
decision_tree_leaf
p876
(dp877
g25
g26
(g27
tp878
Rp879
g30
I2
ssg31
g30
sbsg32
(idecision_tree
continuous_decision_tree
p880
(dp881
g2
F0.666667
sg3
I8
sg4
(idecision_tree
continuous_decision_tree
p882
(dp883
g2
F54.42855
sg3
I67
sg4
(idecision_tree
decision_tree_leaf
p884
(dp885
g25
g26
(g27
tp886
Rp887
g30
I1
ssg31
g30
sbsg32
(idecision_tree
decision_tree_leaf
p888
(dp889
g25
g26
(g27
tp890
Rp891
S'Lg'
p892
I1
ssg31
g892
sbsbsg32
(idecision_tree
decision_tree_leaf
p893
(dp894
g25
g26
(g27
tp895
Rp896
g30
I4
ssg31
g30
sbsbsbsbsg32
(idecision_tree
decision_tree_leaf
p897
(dp898
g25
g26
(g27
tp899
Rp900
g30
I1
ssg31
g30
sbsbsbsg32
(idecision_tree
continuous_decision_tree
p901
(dp902
g2
F0.9837039999999999
sg3
I35
sg4
(idecision_tree
decision_tree_leaf
p903
(dp904
g25
g26
(g27
tp905
Rp906
g30
I1
ssg31
g30
sbsg32
(idecision_tree
continuous_decision_tree
p907
(dp908
g2
F9.5
sg3
I63
sg4
(idecision_tree
decision_tree_leaf
p909
(dp910
g25
g26
(g27
tp911
Rp912
g30
I1
ssg31
g30
sbsg32
(idecision_tree
continuous_decision_tree
p913
(dp914
g2
F29.0
sg3
I59
sg4
(idecision_tree
decision_tree_leaf
p915
(dp916
g25
g26
(g27
tp917
Rp918
g30
I1
ssg31
g30
sbsg32
(idecision_tree
continuous_decision_tree
p919
(dp920
g2
F0.2008375
sg3
I52
sg4
(idecision_tree
continuous_decision_tree
p921
(dp922
g2
F143.33350000000002
sg3
I67
sg4
(idecision_tree
continuous_decision_tree
p923
(dp924
g2
F0.762323
sg3
I50
sg4
(idecision_tree
decision_tree_leaf
p925
(dp926
g25
g26
(g27
tp927
Rp928
g30
I1
ssg31
g30
sbsg32
(idecision_tree
continuous_decision_tree
p929
(dp930
g2
F2.399545
sg3
I39
sg4
(idecision_tree
decision_tree_leaf
p931
(dp932
g25
g26
(g27
tp933
Rp934
g30
I1
ssg31
g30
sbsg32
(idecision_tree
continuous_decision_tree
p935
(dp936
g2
F0.370279
sg3
I51
sg4
(idecision_tree
continuous_decision_tree
p937
(dp938
g2
F57.84675
sg3
I40
sg4
(idecision_tree
continuous_decision_tree
p939
(dp940
g2
F171.70850000000002
sg3
I67
sg4
(idecision_tree
decision_tree_leaf
p941
(dp942
g25
g26
(g27
tp943
Rp944
g30
I2
ssg31
g30
sbsg32
(idecision_tree
decision_tree_leaf
p945
(dp946
g25
g26
(g27
tp947
Rp948
S'Pn'
p949
I1
ssg31
g949
sbsbsg32
(idecision_tree
decision_tree_leaf
p950
(dp951
g25
g26
(g27
tp952
Rp953
g30
I1
ssg31
g30
sbsbsg32
(idecision_tree
decision_tree_leaf
p954
(dp955
g25
g26
(g27
tp956
Rp957
g30
I1
ssg31
g30
sbsbsbsbsg32
(idecision_tree
decision_tree_leaf
p958
(dp959
g25
g26
(g27
tp960
Rp961
g30
I1
ssg31
g30
sbsbsg32
(idecision_tree
decision_tree_leaf
p962
(dp963
g25
g26
(g27
tp964
Rp965
g30
I1
ssg31
g30
sbsbsbsbsbsbsg32
(idecision_tree
continuous_decision_tree
p966
(dp967
g2
F0.6278345000000001
sg3
I51
sg4
(idecision_tree
decision_tree_leaf
p968
(dp969
g25
g26
(g27
tp970
Rp971
g30
I1
ssg31
g30
sbsg32
(idecision_tree
continuous_decision_tree
p972
(dp973
g2
F0.9844945
sg3
I35
sg4
(idecision_tree
decision_tree_leaf
p974
(dp975
g25
g26
(g27
tp976
Rp977
g30
I1
ssg31
g30
sbsg32
(idecision_tree
continuous_decision_tree
p978
(dp979
g2
F0.9786984999999999
sg3
I34
sg4
(idecision_tree
decision_tree_leaf
p980
(dp981
g25
g26
(g27
tp982
Rp983
g30
I1
ssg31
g30
sbsg32
(idecision_tree
continuous_decision_tree
p984
(dp985
g2
F49.669200000000004
sg3
I40
sg4
(idecision_tree
continuous_decision_tree
p986
(dp987
g2
F0.666667
sg3
I8
sg4
(idecision_tree
decision_tree_leaf
p988
(dp989
g25
g26
(g27
tp990
Rp991
g30
I2
sS'Pn'
p992
I1
ssg31
g30
sbsg32
(idecision_tree
decision_tree_leaf
p993
(dp994
g25
g26
(g27
tp995
Rp996
g30
I6
ssg31
g30
sbsbsg32
(idecision_tree
decision_tree_leaf
p997
(dp998
g25
g26
(g27
tp999
Rp1000
g30
I1
ssg31
g30
sbsbsbsbsbsbsg32
(idecision_tree
continuous_decision_tree
p1001
(dp1002
g2
F202.5
sg3
I67
sg4
(idecision_tree
continuous_decision_tree
p1003
(dp1004
g2
F208.0
sg3
I67
sg4
(idecision_tree
continuous_decision_tree
p1005
(dp1006
g2
F0.15691650000000001
sg3
I50
sg4
(idecision_tree
continuous_decision_tree
p1007
(dp1008
g2
F4.961215
sg3
I48
sg4
(idecision_tree
decision_tree_leaf
p1009
(dp1010
g25
g26
(g27
tp1011
Rp1012
g30
I1
ssg31
g30
sbsg32
(idecision_tree
continuous_decision_tree
p1013
(dp1014
g2
F0.8800015
sg3
I34
sg4
(idecision_tree
continuous_decision_tree
p1015
(dp1016
g2
F0.9166045
sg3
I35
sg4
(idecision_tree
continuous_decision_tree
p1017
(dp1018
g2
F0.666667
sg3
I8
sg4
(idecision_tree
decision_tree_leaf
p1019
(dp1020
g25
g26
(g27
tp1021
Rp1022
g30
I2
sS'PKP'
p1023
I1
ssg31
g30
sbsg32
(idecision_tree
decision_tree_leaf
p1024
(dp1025
g25
g26
(g27
tp1026
Rp1027
g30
I4
ssg31
g30
sbsbsg32
(idecision_tree
decision_tree_leaf
p1028
(dp1029
g25
g26
(g27
tp1030
Rp1031
g30
I2
ssg31
g30
sbsbsg32
(idecision_tree
decision_tree_leaf
p1032
(dp1033
g25
g26
(g27
tp1034
Rp1035
g30
I1
ssg31
g30
sbsbsbsg32
(idecision_tree
decision_tree_leaf
p1036
(dp1037
g25
g26
(g27
tp1038
Rp1039
g30
I1
ssg31
g30
sbsbsg32
(idecision_tree
decision_tree_leaf
p1040
(dp1041
g25
g26
(g27
tp1042
Rp1043
g30
I1
ssg31
g30
sbsbsg32
(idecision_tree
continuous_decision_tree
p1044
(dp1045
g2
F1.0
sg3
I66
sg4
(idecision_tree
continuous_decision_tree
p1046
(dp1047
g2
F2.0
sg3
I66
sg4
(idecision_tree
continuous_decision_tree
p1048
(dp1049
g2
F17.17145
sg3
I59
sg4
(idecision_tree
decision_tree_leaf
p1050
(dp1051
g25
g26
(g27
tp1052
Rp1053
g30
I7
sS'Pn'
p1054
I1
ssg31
g30
sbsg32
(idecision_tree
continuous_decision_tree
p1055
(dp1056
g2
F0.76274
sg3
I52
sg4
(idecision_tree
decision_tree_leaf
p1057
(dp1058
g25
g26
(g27
tp1059
Rp1060
g30
I1
ssg31
g30
sbsg32
(idecision_tree
continuous_decision_tree
p1061
(dp1062
g2
F0.8176654999999999
sg3
I50
sg4
(idecision_tree
decision_tree_leaf
p1063
(dp1064
g25
g26
(g27
tp1065
Rp1066
g30
I1
ssg31
g30
sbsg32
(idecision_tree
continuous_decision_tree
p1067
(dp1068
g2
F0.732333
sg3
I48
sg4
(idecision_tree
continuous_decision_tree
p1069
(dp1070
g2
F0.974214
sg3
I34
sg4
(idecision_tree
decision_tree_leaf
p1071
(dp1072
g25
g26
(g27
tp1073
Rp1074
g30
I1
ssg31
g30
sbsg32
(idecision_tree
continuous_decision_tree
p1075
(dp1076
g2
F16.88395
sg3
I67
sg4
(idecision_tree
continuous_decision_tree
p1077
(dp1078
g2
F1.869185
sg3
I39
sg4
(idecision_tree
continuous_decision_tree
p1079
(dp1080
g2
F100.23795
sg3
I67
sg4
(idecision_tree
decision_tree_leaf
p1081
(dp1082
g25
g26
(g27
tp1083
Rp1084
g30
I1
ssg31
g30
sbsg32
(idecision_tree
decision_tree_leaf
p1085
(dp1086
g25
g26
(g27
tp1087
Rp1088
S'Pn'
p1089
I1
ssg31
g1089
sbsbsg32
(idecision_tree
decision_tree_leaf
p1090
(dp1091
g25
g26
(g27
tp1092
Rp1093
g30
I1
ssg31
g30
sbsbsg32
(idecision_tree
decision_tree_leaf
p1094
(dp1095
g25
g26
(g27
tp1096
Rp1097
g30
I1
ssg31
g30
sbsbsbsg32
(idecision_tree
decision_tree_leaf
p1098
(dp1099
g25
g26
(g27
tp1100
Rp1101
g30
I1
ssg31
g30
sbsbsbsbsbsg32
(idecision_tree
continuous_decision_tree
p1102
(dp1103
g2
F0.764458
sg3
I51
sg4
(idecision_tree
decision_tree_leaf
p1104
(dp1105
g25
g26
(g27
tp1106
Rp1107
g30
I1
ssg31
g30
sbsg32
(idecision_tree
continuous_decision_tree
p1108
(dp1109
g2
F56.0741
sg3
I44
sg4
(idecision_tree
decision_tree_leaf
p1110
(dp1111
g25
g26
(g27
tp1112
Rp1113
g30
I1
ssg31
g30
sbsg32
(idecision_tree
continuous_decision_tree
p1114
(dp1115
g2
F1.432125
sg3
I50
sg4
(idecision_tree
decision_tree_leaf
p1116
(dp1117
g25
g26
(g27
tp1118
Rp1119
g30
I2
ssg31
g30
sbsg32
(idecision_tree
continuous_decision_tree
p1120
(dp1121
g2
F0.9033625000000001
sg3
I38
sg4
(idecision_tree
decision_tree_leaf
p1122
(dp1123
g25
g26
(g27
tp1124
Rp1125
g30
I1
ssg31
g30
sbsg32
(idecision_tree
continuous_decision_tree
p1126
(dp1127
g2
F44.7893
sg3
I40
sg4
(idecision_tree
continuous_decision_tree
p1128
(dp1129
g2
F0.596402
sg3
I52
sg4
(idecision_tree
decision_tree_leaf
p1130
(dp1131
g25
g26
(g27
tp1132
Rp1133
g30
I2
ssg31
g30
sbsg32
(idecision_tree
continuous_decision_tree
p1134
(dp1135
g2
F1.684425
sg3
I39
sg4
(idecision_tree
decision_tree_leaf
p1136
(dp1137
g25
g26
(g27
tp1138
Rp1139
g30
I8
sS'Pn'
p1140
I1
ssg31
g30
sbsg32
(idecision_tree
decision_tree_leaf
p1141
(dp1142
g25
g26
(g27
tp1143
Rp1144
g30
I1
ssg31
g30
sbsbsbsg32
(idecision_tree
decision_tree_leaf
p1145
(dp1146
g25
g26
(g27
tp1147
Rp1148
g30
I1
ssg31
g30
sbsbsbsbsbsbsbsg32
(idecision_tree
decision_tree_leaf
p1149
(dp1150
g25
g26
(g27
tp1151
Rp1152
g30
I4
ssg31
g30
sbsbsbsbsg32
(idecision_tree
continuous_decision_tree
p1153
(dp1154
g2
F14.58335
sg3
I59
sg4
(idecision_tree
continuous_decision_tree
p1155
(dp1156
g2
F1.925289
sg3
I52
sg4
(idecision_tree
decision_tree_leaf
p1157
(dp1158
g25
g26
(g27
tp1159
Rp1160
g30
I1
ssg31
g30
sbsg32
(idecision_tree
continuous_decision_tree
p1161
(dp1162
g2
F0.45835000000000026
sg3
I63
sg4
(idecision_tree
continuous_decision_tree
p1163
(dp1164
g2
F5.5
sg3
I66
sg4
(idecision_tree
decision_tree_leaf
p1165
(dp1166
g25
g26
(g27
tp1167
Rp1168
g30
I1
ssg31
g30
sbsg32
(idecision_tree
continuous_decision_tree
p1169
(dp1170
g2
F1.18763
sg3
I49
sg4
(idecision_tree
decision_tree_leaf
p1171
(dp1172
g25
g26
(g27
tp1173
Rp1174
g30
I1
ssg31
g30
sbsg32
(idecision_tree
continuous_decision_tree
p1175
(dp1176
g2
F0.298806
sg3
I48
sg4
(idecision_tree
decision_tree_leaf
p1177
(dp1178
g25
g26
(g27
tp1179
Rp1180
g30
I3
ssg31
g30
sbsg32
(idecision_tree
continuous_decision_tree
p1181
(dp1182
g2
F0.8780589999999999
sg3
I35
sg4
(idecision_tree
continuous_decision_tree
p1183
(dp1184
g2
F15.0
sg3
I67
sg4
(idecision_tree
decision_tree_leaf
p1185
(dp1186
g25
g26
(g27
tp1187
Rp1188
g30
I4
ssg31
g30
sbsg32
(idecision_tree
decision_tree_leaf
p1189
(dp1190
g25
g26
(g27
tp1191
Rp1192
S'Pn'
p1193
I1
ssg31
g1193
sbsbsg32
(idecision_tree
decision_tree_leaf
p1194
(dp1195
g25
g26
(g27
tp1196
Rp1197
g30
I1
ssg31
g30
sbsbsbsbsbsg32
(idecision_tree
decision_tree_leaf
p1198
(dp1199
g25
g26
(g27
tp1200
Rp1201
g30
I1
ssg31
g30
sbsbsbsg32
(idecision_tree
continuous_decision_tree
p1202
(dp1203
g2
F0.250805
sg3
I48
sg4
(idecision_tree
continuous_decision_tree
p1204
(dp1205
g2
F0.431663
sg3
I50
sg4
(idecision_tree
continuous_decision_tree
p1206
(dp1207
g2
F12.475
sg3
I67
sg4
(idecision_tree
continuous_decision_tree
p1208
(dp1209
g2
F1.5
sg3
I62
sg4
(idecision_tree
decision_tree_leaf
p1210
(dp1211
g25
g26
(g27
tp1212
Rp1213
g30
I1
ssg31
g30
sbsg32
(idecision_tree
continuous_decision_tree
p1214
(dp1215
g2
F0.7869364999999999
sg3
I34
sg4
(idecision_tree
continuous_decision_tree
p1216
(dp1217
g2
F13.1
sg3
I63
sg4
(idecision_tree
decision_tree_leaf
p1218
(dp1219
g25
g26
(g27
tp1220
Rp1221
g30
I2
ssg31
g30
sbsg32
(idecision_tree
continuous_decision_tree
p1222
(dp1223
g2
F2.089915
sg3
I39
sg4
(idecision_tree
decision_tree_leaf
p1224
(dp1225
g25
g26
(g27
tp1226
Rp1227
g30
I4
sS'Sn'
p1228
I1
ssg31
g30
sbsg32
(idecision_tree
decision_tree_leaf
p1229
(dp1230
g25
g26
(g27
tp1231
Rp1232
g30
I2
ssg31
g30
sbsbsbsg32
(idecision_tree
decision_tree_leaf
p1233
(dp1234
g25
g26
(g27
tp1235
Rp1236
g30
I1
ssg31
g30
sbsbsbsg32
(idecision_tree
decision_tree_leaf
p1237
(dp1238
g25
g26
(g27
tp1239
Rp1240
g30
I1
ssg31
g30
sbsbsg32
(idecision_tree
continuous_decision_tree
p1241
(dp1242
g2
F11.5
sg3
I67
sg4
(idecision_tree
continuous_decision_tree
p1243
(dp1244
g2
F19.83335
sg3
I63
sg4
(idecision_tree
decision_tree_leaf
p1245
(dp1246
g25
g26
(g27
tp1247
Rp1248
g30
I1
ssg31
g30
sbsg32
(idecision_tree
continuous_decision_tree
p1249
(dp1250
g2
F2.5
sg3
I66
sg4
(idecision_tree
decision_tree_leaf
p1251
(dp1252
g25
g26
(g27
tp1253
Rp1254
g30
I1
ssg31
g30
sbsg32
(idecision_tree
continuous_decision_tree
p1255
(dp1256
g2
F0.574077
sg3
I52
sg4
(idecision_tree
decision_tree_leaf
p1257
(dp1258
g25
g26
(g27
tp1259
Rp1260
g30
I2
ssg31
g30
sbsg32
(idecision_tree
continuous_decision_tree
p1261
(dp1262
g2
F2.77189
sg3
I39
sg4
(idecision_tree
decision_tree_leaf
p1263
(dp1264
g25
g26
(g27
tp1265
Rp1266
g30
I1
ssg31
g30
sbsg32
(idecision_tree
continuous_decision_tree
p1267
(dp1268
g2
F0.8395935
sg3
I49
sg4
(idecision_tree
decision_tree_leaf
p1269
(dp1270
g25
g26
(g27
tp1271
Rp1272
g30
I1
ssg31
g30
sbsg32
(idecision_tree
continuous_decision_tree
p1273
(dp1274
g2
F73.3735
sg3
I40
sg4
(idecision_tree
decision_tree_leaf
p1275
(dp1276
g25
g26
(g27
tp1277
Rp1278
g30
I1
ssg31
g30
sbsg32
(idecision_tree
continuous_decision_tree
p1279
(dp1280
g2
F0.432097
sg3
I48
sg4
(idecision_tree
decision_tree_leaf
p1281
(dp1282
g25
g26
(g27
tp1283
Rp1284
g30
I1
ssg31
g30
sbsg32
(idecision_tree
continuous_decision_tree
p1285
(dp1286
g2
F139.5
sg3
I67
sg4
(idecision_tree
decision_tree_leaf
p1287
(dp1288
g25
g26
(g27
tp1289
Rp1290
g30
I2
ssg31
g30
sbsg32
(idecision_tree
decision_tree_leaf
p1291
(dp1292
g25
g26
(g27
tp1293
Rp1294
S'Pn'
p1295
I1
ssg31
g1295
sbsbsbsbsbsbsbsbsbsg32
(idecision_tree
decision_tree_leaf
p1296
(dp1297
g25
g26
(g27
tp1298
Rp1299
g30
I1
ssg31
g30
sbsbsbsg32
(idecision_tree
continuous_decision_tree
p1300
(dp1301
g2
F1.330335
sg3
I52
sg4
(idecision_tree
decision_tree_leaf
p1302
(dp1303
g25
g26
(g27
tp1304
Rp1305
g30
I1
ssg31
g30
sbsg32
(idecision_tree
decision_tree_leaf
p1306
(dp1307
g25
g26
(g27
tp1308
Rp1309
g30
I12
sS'Lg'
p1310
I1
ssg31
g30
sbsbsbsbsbsbsg32
(idecision_tree
continuous_decision_tree
p1311
(dp1312
g2
F0.0
sg3
I63
sg4
(idecision_tree
continuous_decision_tree
p1313
(dp1314
g2
F2.5
sg3
I66
sg4
(idecision_tree
continuous_decision_tree
p1315
(dp1316
g2
F6.0
sg3
I58
sg4
(idecision_tree
decision_tree_leaf
p1317
(dp1318
g25
g26
(g27
tp1319
Rp1320
g30
I1
ssg31
g30
sbsg32
(idecision_tree
continuous_decision_tree
p1321
(dp1322
g2
F54.2098
sg3
I44
sg4
(idecision_tree
decision_tree_leaf
p1323
(dp1324
g25
g26
(g27
tp1325
Rp1326
g30
I1
ssg31
g30
sbsg32
(idecision_tree
continuous_decision_tree
p1327
(dp1328
g2
F0.35526599999999997
sg3
I48
sg4
(idecision_tree
continuous_decision_tree
p1329
(dp1330
g2
F0.914093
sg3
I35
sg4
(idecision_tree
continuous_decision_tree
p1331
(dp1332
g2
F5.666665
sg3
I63
sg4
(idecision_tree
continuous_decision_tree
p1333
(dp1334
g2
F17.916665000000002
sg3
I67
sg4
(idecision_tree
decision_tree_leaf
p1335
(dp1336
g25
g26
(g27
tp1337
Rp1338
g30
I3
ssg31
g30
sbsg32
(idecision_tree
decision_tree_leaf
p1339
(dp1340
g25
g26
(g27
tp1341
Rp1342
S'Pn'
p1343
I1
ssg31
g1343
sbsbsg32
(idecision_tree
decision_tree_leaf
p1344
(dp1345
g25
g26
(g27
tp1346
Rp1347
g30
I3
ssg31
g30
sbsbsg32
(idecision_tree
decision_tree_leaf
p1348
(dp1349
g25
g26
(g27
tp1350
Rp1351
g30
I1
ssg31
g30
sbsbsg32
(idecision_tree
decision_tree_leaf
p1352
(dp1353
g25
g26
(g27
tp1354
Rp1355
g30
I2
ssg31
g30
sbsbsbsbsg32
(idecision_tree
continuous_decision_tree
p1356
(dp1357
g2
F0.4978855
sg3
I52
sg4
(idecision_tree
continuous_decision_tree
p1358
(dp1359
g2
F0.6140885
sg3
I49
sg4
(idecision_tree
decision_tree_leaf
p1360
(dp1361
g25
g26
(g27
tp1362
Rp1363
g30
I3
ssg31
g30
sbsg32
(idecision_tree
continuous_decision_tree
p1364
(dp1365
g2
F1.5
sg3
I66
sg4
(idecision_tree
decision_tree_leaf
p1366
(dp1367
g25
g26
(g27
tp1368
Rp1369
g30
I2
ssg31
g30
sbsg32
(idecision_tree
continuous_decision_tree
p1370
(dp1371
g2
F0.7163145
sg3
I52
sg4
(idecision_tree
decision_tree_leaf
p1372
(dp1373
g25
g26
(g27
tp1374
Rp1375
g30
I1
ssg31
g30
sbsg32
(idecision_tree
continuous_decision_tree
p1376
(dp1377
g2
F77.91735
sg3
I40
sg4
(idecision_tree
decision_tree_leaf
p1378
(dp1379
g25
g26
(g27
tp1380
Rp1381
g30
I1
ssg31
g30
sbsg32
(idecision_tree
continuous_decision_tree
p1382
(dp1383
g2
F194.5625
sg3
I67
sg4
(idecision_tree
decision_tree_leaf
p1384
(dp1385
g25
g26
(g27
tp1386
Rp1387
g30
I1
ssg31
g30
sbsg32
(idecision_tree
continuous_decision_tree
p1388
(dp1389
g2
F0.340337
sg3
I50
sg4
(idecision_tree
continuous_decision_tree
p1390
(dp1391
g2
F35.64985
sg3
I44
sg4
(idecision_tree
continuous_decision_tree
p1392
(dp1393
g2
F64.0
sg3
I67
sg4
(idecision_tree
decision_tree_leaf
p1394
(dp1395
g25
g26
(g27
tp1396
Rp1397
S'Pn'
p1398
I1
ssg31
g1398
sbsg32
(idecision_tree
decision_tree_leaf
p1399
(dp1400
g25
g26
(g27
tp1401
Rp1402
g30
I1
ssg31
g30
sbsbsg32
(idecision_tree
decision_tree_leaf
p1403
(dp1404
g25
g26
(g27
tp1405
Rp1406
g30
I1
ssg31
g30
sbsbsg32
(idecision_tree
decision_tree_leaf
p1407
(dp1408
g25
g26
(g27
tp1409
Rp1410
g30
I1
ssg31
g30
sbsbsbsbsbsbsbsg32
(idecision_tree
continuous_decision_tree
p1411
(dp1412
g2
F23.0
sg3
I63
sg4
(idecision_tree
decision_tree_leaf
p1413
(dp1414
g25
g26
(g27
tp1415
Rp1416
g30
I1
ssg31
g30
sbsg32
(idecision_tree
continuous_decision_tree
p1417
(dp1418
g2
F0.508544
sg3
I51
sg4
(idecision_tree
decision_tree_leaf
p1419
(dp1420
g25
g26
(g27
tp1421
Rp1422
g30
I2
ssg31
g30
sbsg32
(idecision_tree
continuous_decision_tree
p1423
(dp1424
g2
F78.08335
sg3
I67
sg4
(idecision_tree
continuous_decision_tree
p1425
(dp1426
g2
F0.4677715
sg3
I50
sg4
(idecision_tree
decision_tree_leaf
p1427
(dp1428
g25
g26
(g27
tp1429
Rp1430
g30
I1
ssg31
g30
sbsg32
(idecision_tree
continuous_decision_tree
p1431
(dp1432
g2
F47.31525
sg3
I44
sg4
(idecision_tree
decision_tree_leaf
p1433
(dp1434
g25
g26
(g27
tp1435
Rp1436
g30
I1
ssg31
g30
sbsg32
(idecision_tree
continuous_decision_tree
p1437
(dp1438
g2
F0.324092
sg3
I48
sg4
(idecision_tree
continuous_decision_tree
p1439
(dp1440
g2
F0.297361
sg3
I49
sg4
(idecision_tree
continuous_decision_tree
p1441
(dp1442
g2
F54.3052
sg3
I40
sg4
(idecision_tree
continuous_decision_tree
p1443
(dp1444
g2
F0.8787445
sg3
I34
sg4
(idecision_tree
continuous_decision_tree
p1445
(dp1446
g2
F133.5
sg3
I67
sg4
(idecision_tree
decision_tree_leaf
p1447
(dp1448
g25
g26
(g27
tp1449
Rp1450
g30
I1
ssg31
g30
sbsg32
(idecision_tree
decision_tree_leaf
p1451
(dp1452
g25
g26
(g27
tp1453
Rp1454
S'Pn'
p1455
I1
ssg31
g1455
sbsbsg32
(idecision_tree
decision_tree_leaf
p1456
(dp1457
g25
g26
(g27
tp1458
Rp1459
g30
I1
ssg31
g30
sbsbsg32
(idecision_tree
decision_tree_leaf
p1460
(dp1461
g25
g26
(g27
tp1462
Rp1463
g30
I1
ssg31
g30
sbsbsg32
(idecision_tree
decision_tree_leaf
p1464
(dp1465
g25
g26
(g27
tp1466
Rp1467
g30
I1
ssg31
g30
sbsbsg32
(idecision_tree
decision_tree_leaf
p1468
(dp1469
g25
g26
(g27
tp1470
Rp1471
g30
I1
ssg31
g30
sbsbsbsbsg32
(idecision_tree
decision_tree_leaf
p1472
(dp1473
g25
g26
(g27
tp1474
Rp1475
g30
I2
ssg31
g30
sbsbsbsbsbsbsg32
(idecision_tree
decision_tree_leaf
p1476
(dp1477
g25
g26
(g27
tp1478
Rp1479
g30
I1
ssg31
g30
sbsbsbsbsg32
(idecision_tree
continuous_decision_tree
p1480
(dp1481
g2
F5.25
sg3
I63
sg4
(idecision_tree
continuous_decision_tree
p1482
(dp1483
g2
F0.9676199999999999
sg3
I34
sg4
(idecision_tree
continuous_decision_tree
p1484
(dp1485
g2
F0.990982
sg3
I34
sg4
(idecision_tree
continuous_decision_tree
p1486
(dp1487
g2
F2.61895
sg3
I39
sg4
(idecision_tree
continuous_decision_tree
p1488
(dp1489
g2
F12.625
sg3
I67
sg4
(idecision_tree
continuous_decision_tree
p1490
(dp1491
g2
F81.1253
sg3
I40
sg4
(idecision_tree
decision_tree_leaf
p1492
(dp1493
g25
g26
(g27
tp1494
Rp1495
g30
I1
ssg31
g30
sbsg32
(idecision_tree
decision_tree_leaf
p1496
(dp1497
g25
g26
(g27
tp1498
Rp1499
g30
I9
sS'PKP'
p1500
I1
ssg31
g30
sbsbsg32
(idecision_tree
decision_tree_leaf
p1501
(dp1502
g25
g26
(g27
tp1503
Rp1504
g30
I1
ssg31
g30
sbsbsg32
(idecision_tree
decision_tree_leaf
p1505
(dp1506
g25
g26
(g27
tp1507
Rp1508
g30
I1
ssg31
g30
sbsbsg32
(idecision_tree
continuous_decision_tree
p1509
(dp1510
g2
F0.666667
sg3
I8
sg4
(idecision_tree
continuous_decision_tree
p1511
(dp1512
g2
F3.0
sg3
I66
sg4
(idecision_tree
continuous_decision_tree
p1513
(dp1514
g2
F81.30275
sg3
I40
sg4
(idecision_tree
decision_tree_leaf
p1515
(dp1516
g25
g26
(g27
tp1517
Rp1518
g30
I1
ssg31
g30
sbsg32
(idecision_tree
continuous_decision_tree
p1519
(dp1520
g2
F1.189455
sg3
I39
sg4
(idecision_tree
continuous_decision_tree
p1521
(dp1522
g2
F0.8333335
sg3
I8
sg4
(idecision_tree
decision_tree_leaf
p1523
(dp1524
g25
g26
(g27
tp1525
Rp1526
g30
I1
ssg31
g30
sbsg32
(idecision_tree
continuous_decision_tree
p1527
(dp1528
g2
F3.5
sg3
I62
sg4
(idecision_tree
decision_tree_leaf
p1529
(dp1530
g25
g26
(g27
tp1531
Rp1532
g30
I1
ssg31
g30
sbsg32
(idecision_tree
continuous_decision_tree
p1533
(dp1534
g2
F20.33335
sg3
I67
sg4
(idecision_tree
continuous_decision_tree
p1535
(dp1536
g2
F49.833349999999996
sg3
I67
sg4
(idecision_tree
decision_tree_leaf
p1537
(dp1538
g25
g26
(g27
tp1539
Rp1540
g30
I2
ssg31
g30
sbsg32
(idecision_tree
decision_tree_leaf
p1541
(dp1542
g25
g26
(g27
tp1543
Rp1544
S'PKP'
p1545
I1
ssg31
g1545
sbsbsg32
(idecision_tree
decision_tree_leaf
p1546
(dp1547
g25
g26
(g27
tp1548
Rp1549
g30
I2
ssg31
g30
sbsbsbsbsg32
(idecision_tree
decision_tree_leaf
p1550
(dp1551
g25
g26
(g27
tp1552
Rp1553
g30
I1
ssg31
g30
sbsbsbsg32
(idecision_tree
continuous_decision_tree
p1554
(dp1555
g2
F2.0
sg3
I66
sg4
(idecision_tree
continuous_decision_tree
p1556
(dp1557
g2
F42.75
sg3
I67
sg4
(idecision_tree
decision_tree_leaf
p1558
(dp1559
g25
g26
(g27
tp1560
Rp1561
S'PKP'
p1562
I1
ssg31
g1562
sbsg32
(idecision_tree
decision_tree_leaf
p1563
(dp1564
g25
g26
(g27
tp1565
Rp1566
g30
I1
ssg31
g30
sbsbsg32
(idecision_tree
decision_tree_leaf
p1567
(dp1568
g25
g26
(g27
tp1569
Rp1570
g30
I3
ssg31
g30
sbsbsbsg32
(idecision_tree
decision_tree_leaf
p1571
(dp1572
g25
g26
(g27
tp1573
Rp1574
g30
I11
ssg31
g30
sbsbsbsg32
(idecision_tree
continuous_decision_tree
p1575
(dp1576
g2
F0.367769
sg3
I38
sg4
(idecision_tree
continuous_decision_tree
p1577
(dp1578
g2
F4.0
sg3
I59
sg4
(idecision_tree
decision_tree_leaf
p1579
(dp1580
g25
g26
(g27
tp1581
Rp1582
g30
I11
sS'Pn'
p1583
I1
ssg31
g30
sbsg32
(idecision_tree
decision_tree_leaf
p1584
(dp1585
g25
g26
(g27
tp1586
Rp1587
g30
I1
ssg31
g30
sbsbsg32
(idecision_tree
continuous_decision_tree
p1588
(dp1589
g2
F14.68055
sg3
I63
sg4
(idecision_tree
continuous_decision_tree
p1590
(dp1591
g2
F37.25
sg3
I63
sg4
(idecision_tree
decision_tree_leaf
p1592
(dp1593
g25
g26
(g27
tp1594
Rp1595
g30
I1
ssg31
g30
sbsg32
(idecision_tree
continuous_decision_tree
p1596
(dp1597
g2
F0.1903365
sg3
I52
sg4
(idecision_tree
decision_tree_leaf
p1598
(dp1599
g25
g26
(g27
tp1600
Rp1601
g30
I10
sS'PKP'
p1602
I1
ssg31
g30
sbsg32
(idecision_tree
decision_tree_leaf
p1603
(dp1604
g25
g26
(g27
tp1605
Rp1606
g30
I1
ssg31
g30
sbsbsbsg32
(idecision_tree
continuous_decision_tree
p1607
(dp1608
g2
F0.895778
sg3
I50
sg4
(idecision_tree
decision_tree_leaf
p1609
(dp1610
g25
g26
(g27
tp1611
Rp1612
g30
I1
ssg31
g30
sbsg32
(idecision_tree
continuous_decision_tree
p1613
(dp1614
g2
F0.182662
sg3
I52
sg4
(idecision_tree
continuous_decision_tree
p1615
(dp1616
g2
F0.23964600000000003
sg3
I48
sg4
(idecision_tree
continuous_decision_tree
p1617
(dp1618
g2
F65.85
sg3
I67
sg4
(idecision_tree
decision_tree_leaf
p1619
(dp1620
g25
g26
(g27
tp1621
Rp1622
g30
I3
ssg31
g30
sbsg32
(idecision_tree
continuous_decision_tree
p1623
(dp1624
g2
F0.3271865
sg3
I49
sg4
(idecision_tree
continuous_decision_tree
p1625
(dp1626
g2
F3.566025
sg3
I39
sg4
(idecision_tree
decision_tree_leaf
p1627
(dp1628
g25
g26
(g27
tp1629
Rp1630
g30
I1
ssg31
g30
sbsg32
(idecision_tree
continuous_decision_tree
p1631
(dp1632
g2
F0.9512769999999999
sg3
I34
sg4
(idecision_tree
decision_tree_leaf
p1633
(dp1634
g25
g26
(g27
tp1635
Rp1636
g30
I1
ssg31
g30
sbsg32
(idecision_tree
continuous_decision_tree
p1637
(dp1638
g2
F9.95835
sg3
I67
sg4
(idecision_tree
continuous_decision_tree
p1639
(dp1640
g2
F17.18335
sg3
I67
sg4
(idecision_tree
decision_tree_leaf
p1641
(dp1642
g25
g26
(g27
tp1643
Rp1644
S'Pn'
p1645
I1
ssg31
g1645
sbsg32
(idecision_tree
decision_tree_leaf
p1646
(dp1647
g25
g26
(g27
tp1648
Rp1649
g30
I1
ssg31
g30
sbsbsg32
(idecision_tree
decision_tree_leaf
p1650
(dp1651
g25
g26
(g27
tp1652
Rp1653
g30
I1
ssg31
g30
sbsbsbsbsg32
(idecision_tree
decision_tree_leaf
p1654
(dp1655
g25
g26
(g27
tp1656
Rp1657
g30
I1
ssg31
g30
sbsbsbsg32
(idecision_tree
decision_tree_leaf
p1658
(dp1659
g25
g26
(g27
tp1660
Rp1661
g30
I1
ssg31
g30
sbsbsg32
(idecision_tree
decision_tree_leaf
p1662
(dp1663
g25
g26
(g27
tp1664
Rp1665
g30
I1
ssg31
g30
sbsbsbsbsbsbsg32
(idecision_tree
continuous_decision_tree
p1666
(dp1667
g2
F1.0
sg3
I66
sg4
(idecision_tree
continuous_decision_tree
p1668
(dp1669
g2
F0.8955445
sg3
I34
sg4
(idecision_tree
decision_tree_leaf
p1670
(dp1671
g25
g26
(g27
tp1672
Rp1673
g30
I59
sS'PKP'
p1674
I3
sS'Pn'
p1675
I1
ssg31
g30
sbsg32
(idecision_tree
decision_tree_leaf
p1676
(dp1677
g25
g26
(g27
tp1678
Rp1679
g30
I15
sS'PKP'
p1680
I1
ssg31
g30
sbsbsg32
(idecision_tree
continuous_decision_tree
p1681
(dp1682
g2
F0.9144
sg3
I35
sg4
(idecision_tree
continuous_decision_tree
p1683
(dp1684
g2
F134.5
sg3
I67
sg4
(idecision_tree
decision_tree_leaf
p1685
(dp1686
g25
g26
(g27
tp1687
Rp1688
g30
I1
ssg31
g30
sbsg32
(idecision_tree
decision_tree_leaf
p1689
(dp1690
g25
g26
(g27
tp1691
Rp1692
g30
I3
sS'PKP'
p1693
I1
ssg31
g30
sbsbsg32
(idecision_tree
decision_tree_leaf
p1694
(dp1695
g25
g26
(g27
tp1696
Rp1697
g30
I4
sS'PKP'
p1698
I1
ssg31
g30
sbsbsbsbsbsg32
(idecision_tree
continuous_decision_tree
p1699
(dp1700
g2
F89.38585
sg3
I40
sg4
(idecision_tree
continuous_decision_tree
p1701
(dp1702
g2
F0.120169
sg3
I51
sg4
(idecision_tree
continuous_decision_tree
p1703
(dp1704
g2
F1.5424099999999998
sg3
I39
sg4
(idecision_tree
continuous_decision_tree
p1705
(dp1706
g2
F89.53280000000001
sg3
I40
sg4
(idecision_tree
continuous_decision_tree
p1707
(dp1708
g2
F0.4474285
sg3
I52
sg4
(idecision_tree
decision_tree_leaf
p1709
(dp1710
g25
g26
(g27
tp1711
Rp1712
g30
I1
ssg31
g30
sbsg32
(idecision_tree
continuous_decision_tree
p1713
(dp1714
g2
F0.8730545000000001
sg3
I35
sg4
(idecision_tree
continuous_decision_tree
p1715
(dp1716
g2
F0.0
sg3
I67
sg4
(idecision_tree
continuous_decision_tree
p1717
(dp1718
g2
F0.928507
sg3
I48
sg4
(idecision_tree
decision_tree_leaf
p1719
(dp1720
g25
g26
(g27
tp1721
Rp1722
g30
I1
ssg31
g30
sbsg32
(idecision_tree
continuous_decision_tree
p1723
(dp1724
g2
F1.5
sg3
I67
sg4
(idecision_tree
decision_tree_leaf
p1725
(dp1726
g25
g26
(g27
tp1727
Rp1728
g30
I1
ssg31
g30
sbsg32
(idecision_tree
continuous_decision_tree
p1729
(dp1730
g2
F0.6652965
sg3
I49
sg4
(idecision_tree
decision_tree_leaf
p1731
(dp1732
g25
g26
(g27
tp1733
Rp1734
g30
I1
sS'PKP'
p1735
I1
ssg31
g30
sbsg32
(idecision_tree
decision_tree_leaf
p1736
(dp1737
g25
g26
(g27
tp1738
Rp1739
g30
I1
ssg31
g30
sbsbsbsbsg32
(idecision_tree
decision_tree_leaf
p1740
(dp1741
g25
g26
(g27
tp1742
Rp1743
g30
I2
ssg31
g30
sbsbsg32
(idecision_tree
decision_tree_leaf
p1744
(dp1745
g25
g26
(g27
tp1746
Rp1747
g30
I1
ssg31
g30
sbsbsbsg32
(idecision_tree
decision_tree_leaf
p1748
(dp1749
g25
g26
(g27
tp1750
Rp1751
g30
I2
ssg31
g30
sbsbsg32
(idecision_tree
decision_tree_leaf
p1752
(dp1753
g25
g26
(g27
tp1754
Rp1755
g30
I1
ssg31
g30
sbsbsg32
(idecision_tree
decision_tree_leaf
p1756
(dp1757
g25
g26
(g27
tp1758
Rp1759
g30
I1
ssg31
g30
sbsbsg32
(idecision_tree
continuous_decision_tree
p1760
(dp1761
g2
F0.0
sg3
I59
sg4
(idecision_tree
continuous_decision_tree
p1762
(dp1763
g2
F1.1373099999999998
sg3
I39
sg4
(idecision_tree
continuous_decision_tree
p1764
(dp1765
g2
F32.854150000000004
sg3
I59
sg4
(idecision_tree
continuous_decision_tree
p1766
(dp1767
g2
F0.8308504999999999
sg3
I35
sg4
(idecision_tree
continuous_decision_tree
p1768
(dp1769
g2
F0.912448
sg3
I34
sg4
(idecision_tree
continuous_decision_tree
p1770
(dp1771
g2
F84.75655
sg3
I40
sg4
(idecision_tree
decision_tree_leaf
p1772
(dp1773
g25
g26
(g27
tp1774
Rp1775
g30
I1
ssg31
g30
sbsg32
(idecision_tree
continuous_decision_tree
p1776
(dp1777
g2
F0.666667
sg3
I8
sg4
(idecision_tree
continuous_decision_tree
p1778
(dp1779
g2
F0.5
sg3
I62
sg4
(idecision_tree
decision_tree_leaf
p1780
(dp1781
g25
g26
(g27
tp1782
Rp1783
g30
I5
sS'Pn'
p1784
I1
ssg31
g30
sbsg32
(idecision_tree
decision_tree_leaf
p1785
(dp1786
g25
g26
(g27
tp1787
Rp1788
g30
I1
ssg31
g30
sbsbsg32
(idecision_tree
decision_tree_leaf
p1789
(dp1790
g25
g26
(g27
tp1791
Rp1792
g30
I4
ssg31
g30
sbsbsbsg32
(idecision_tree
decision_tree_leaf
p1793
(dp1794
g25
g26
(g27
tp1795
Rp1796
g30
I1
ssg31
g30
sbsbsg32
(idecision_tree
decision_tree_leaf
p1797
(dp1798
g25
g26
(g27
tp1799
Rp1800
g30
I1
ssg31
g30
sbsbsg32
(idecision_tree
continuous_decision_tree
p1801
(dp1802
g2
F0.0
sg3
I63
sg4
(idecision_tree
continuous_decision_tree
p1803
(dp1804
g2
F0.4891125
sg3
I50
sg4
(idecision_tree
continuous_decision_tree
p1805
(dp1806
g2
F5.5
sg3
I67
sg4
(idecision_tree
continuous_decision_tree
p1807
(dp1808
g2
F0.40435
sg3
I51
sg4
(idecision_tree
continuous_decision_tree
p1809
(dp1810
g2
F0.7404645
sg3
I51
sg4
(idecision_tree
decision_tree_leaf
p1811
(dp1812
g25
g26
(g27
tp1813
Rp1814
g30
I1
ssg31
g30
sbsg32
(idecision_tree
continuous_decision_tree
p1815
(dp1816
g2
F1.8297150000000002
sg3
I49
sg4
(idecision_tree
decision_tree_leaf
p1817
(dp1818
g25
g26
(g27
tp1819
Rp1820
g30
I1
ssg31
g30
sbsg32
(idecision_tree
continuous_decision_tree
p1821
(dp1822
g2
F0.42899050000000005
sg3
I52
sg4
(idecision_tree
continuous_decision_tree
p1823
(dp1824
g2
F2.0
sg3
I66
sg4
(idecision_tree
decision_tree_leaf
p1825
(dp1826
g25
g26
(g27
tp1827
Rp1828
g30
I1
ssg31
g30
sbsg32
(idecision_tree
continuous_decision_tree
p1829
(dp1830
g2
F0.7017990000000001
sg3
I50
sg4
(idecision_tree
continuous_decision_tree
p1831
(dp1832
g2
F5.916665
sg3
I67
sg4
(idecision_tree
decision_tree_leaf
p1833
(dp1834
g25
g26
(g27
tp1835
Rp1836
S'Pn'
p1837
I1
ssg31
g1837
sbsg32
(idecision_tree
decision_tree_leaf
p1838
(dp1839
g25
g26
(g27
tp1840
Rp1841
g30
I1
ssg31
g30
sbsbsg32
(idecision_tree
decision_tree_leaf
p1842
(dp1843
g25
g26
(g27
tp1844
Rp1845
g30
I1
ssg31
g30
sbsbsbsg32
(idecision_tree
decision_tree_leaf
p1846
(dp1847
g25
g26
(g27
tp1848
Rp1849
g30
I1
ssg31
g30
sbsbsbsbsg32
(idecision_tree
continuous_decision_tree
p1850
(dp1851
g2
F2.75
sg3
I63
sg4
(idecision_tree
continuous_decision_tree
p1852
(dp1853
g2
F1.160385
sg3
I52
sg4
(idecision_tree
decision_tree_leaf
p1854
(dp1855
g25
g26
(g27
tp1856
Rp1857
g30
I1
ssg31
g30
sbsg32
(idecision_tree
continuous_decision_tree
p1858
(dp1859
g2
F0.285001
sg3
I49
sg4
(idecision_tree
continuous_decision_tree
p1860
(dp1861
g2
F52.199600000000004
sg3
I44
sg4
(idecision_tree
decision_tree_leaf
p1862
(dp1863
g25
g26
(g27
tp1864
Rp1865
g30
I1
ssg31
g30
sbsg32
(idecision_tree
continuous_decision_tree
p1866
(dp1867
g2
F4.128439999999999
sg3
I39
sg4
(idecision_tree
decision_tree_leaf
p1868
(dp1869
g25
g26
(g27
tp1870
Rp1871
g30
I1
ssg31
g30
sbsg32
(idecision_tree
continuous_decision_tree
p1872
(dp1873
g2
F0.40275550000000004
sg3
I38
sg4
(idecision_tree
continuous_decision_tree
p1874
(dp1875
g2
F5.75
sg3
I67
sg4
(idecision_tree
decision_tree_leaf
p1876
(dp1877
g25
g26
(g27
tp1878
Rp1879
g30
I1
ssg31
g30
sbsg32
(idecision_tree
decision_tree_leaf
p1880
(dp1881
g25
g26
(g27
tp1882
Rp1883
S'Pn'
p1884
I1
ssg31
g1884
sbsbsg32
(idecision_tree
decision_tree_leaf
p1885
(dp1886
g25
g26
(g27
tp1887
Rp1888
g30
I1
ssg31
g30
sbsbsbsbsg32
(idecision_tree
decision_tree_leaf
p1889
(dp1890
g25
g26
(g27
tp1891
Rp1892
g30
I1
ssg31
g30
sbsbsbsg32
(idecision_tree
decision_tree_leaf
p1893
(dp1894
g25
g26
(g27
tp1895
Rp1896
g30
I1
ssg31
g30
sbsbsbsg32
(idecision_tree
decision_tree_leaf
p1897
(dp1898
g25
g26
(g27
tp1899
Rp1900
g30
I254
sg131
I4
sS'Pn'
p1901
I8
sS'Lg'
p1902
I6
ssg31
g30
sbsbsg32
(idecision_tree
continuous_decision_tree
p1903
(dp1904
g2
F-118.75
sg3
I67
sg4
(idecision_tree
continuous_decision_tree
p1905
(dp1906
g2
F0.802424
sg3
I52
sg4
(idecision_tree
continuous_decision_tree
p1907
(dp1908
g2
F6.875
sg3
I67
sg4
(idecision_tree
decision_tree_leaf
p1909
(dp1910
g25
g26
(g27
tp1911
Rp1912
g30
I1
ssg31
g30
sbsg32
(idecision_tree
continuous_decision_tree
p1913
(dp1914
g2
F2.5
sg3
I66
sg4
(idecision_tree
decision_tree_leaf
p1915
(dp1916
g25
g26
(g27
tp1917
Rp1918
g30
I1
ssg31
g30
sbsg32
(idecision_tree
continuous_decision_tree
p1919
(dp1920
g2
F6.875
sg3
I63
sg4
(idecision_tree
decision_tree_leaf
p1921
(dp1922
g25
g26
(g27
tp1923
Rp1924
g30
I1
ssg31
g30
sbsg32
(idecision_tree
continuous_decision_tree
p1925
(dp1926
g2
F0.7182545
sg3
I51
sg4
(idecision_tree
decision_tree_leaf
p1927
(dp1928
g25
g26
(g27
tp1929
Rp1930
g30
I1
ssg31
g30
sbsg32
(idecision_tree
continuous_decision_tree
p1931
(dp1932
g2
F3.46449
sg3
I39
sg4
(idecision_tree
decision_tree_leaf
p1933
(dp1934
g25
g26
(g27
tp1935
Rp1936
g30
I1
ssg31
g30
sbsg32
(idecision_tree
continuous_decision_tree
p1937
(dp1938
g2
F1.48122
sg3
I52
sg4
(idecision_tree
decision_tree_leaf
p1939
(dp1940
g25
g26
(g27
tp1941
Rp1942
g30
I2
ssg31
g30
sbsg32
(idecision_tree
continuous_decision_tree
p1943
(dp1944
g2
F0.666667
sg3
I8
sg4
(idecision_tree
continuous_decision_tree
p1945
(dp1946
g2
F0.7645875
sg3
I49
sg4
(idecision_tree
decision_tree_leaf
p1947
(dp1948
g25
g26
(g27
tp1949
Rp1950
g30
I1
ssg31
g30
sbsg32
(idecision_tree
continuous_decision_tree
p1951
(dp1952
g2
F0.4739155
sg3
I48
sg4
(idecision_tree
decision_tree_leaf
p1953
(dp1954
g25
g26
(g27
tp1955
Rp1956
g30
I1
ssg31
g30
sbsg32
(idecision_tree
decision_tree_leaf
p1957
(dp1958
g25
g26
(g27
tp1959
Rp1960
g30
I2
sS'Sn'
p1961
I1
ssg31
g30
sbsbsbsg32
(idecision_tree
decision_tree_leaf
p1962
(dp1963
g25
g26
(g27
tp1964
Rp1965
g30
I2
ssg31
g30
sbsbsbsbsbsbsbsbsg32
(idecision_tree
continuous_decision_tree
p1966
(dp1967
g2
F0.6663805
sg3
I48
sg4
(idecision_tree
continuous_decision_tree
p1968
(dp1969
g2
F3.4661049999999998
sg3
I48
sg4
(idecision_tree
continuous_decision_tree
p1970
(dp1971
g2
F0.14247949999999998
sg3
I52
sg4
(idecision_tree
continuous_decision_tree
p1972
(dp1973
g2
F8.239535
sg3
I48
sg4
(idecision_tree
decision_tree_leaf
p1974
(dp1975
g25
g26
(g27
tp1976
Rp1977
g30
I1
ssg31
g30
sbsg32
(idecision_tree
decision_tree_leaf
p1978
(dp1979
g25
g26
(g27
tp1980
Rp1981
g30
I11
sS'PKP'
p1982
I1
ssg31
g30
sbsbsg32
(idecision_tree
decision_tree_leaf
p1983
(dp1984
g25
g26
(g27
tp1985
Rp1986
g30
I1
ssg31
g30
sbsbsg32
(idecision_tree
continuous_decision_tree
p1987
(dp1988
g2
F1.142715
sg3
I49
sg4
(idecision_tree
continuous_decision_tree
p1989
(dp1990
g2
F0.5
sg3
I67
sg4
(idecision_tree
decision_tree_leaf
p1991
(dp1992
g25
g26
(g27
tp1993
Rp1994
g30
I1
ssg31
g30
sbsg32
(idecision_tree
continuous_decision_tree
p1995
(dp1996
g2
F0.5246200000000001
sg3
I51
sg4
(idecision_tree
decision_tree_leaf
p1997
(dp1998
g25
g26
(g27
tp1999
Rp2000
g30
I1
ssg31
g30
sbsg32
(idecision_tree
continuous_decision_tree
p2001
(dp2002
g2
F1.726305
sg3
I48
sg4
(idecision_tree
decision_tree_leaf
p2003
(dp2004
g25
g26
(g27
tp2005
Rp2006
g30
I1
ssg31
g30
sbsg32
(idecision_tree
continuous_decision_tree
p2007
(dp2008
g2
F0.856508
sg3
I34
sg4
(idecision_tree
continuous_decision_tree
p2009
(dp2010
g2
F1.435215
sg3
I39
sg4
(idecision_tree
continuous_decision_tree
p2011
(dp2012
g2
F0.360009
sg3
I50
sg4
(idecision_tree
continuous_decision_tree
p2013
(dp2014
g2
F73.36735
sg3
I40
sg4
(idecision_tree
decision_tree_leaf
p2015
(dp2016
g25
g26
(g27
tp2017
Rp2018
g30
I1
ssg31
g30
sbsg32
(idecision_tree
continuous_decision_tree
p2019
(dp2020
g2
F-11.0
sg3
I67
sg4
(idecision_tree
decision_tree_leaf
p2021
(dp2022
g25
g26
(g27
tp2023
Rp2024
g30
I2
sS'Pn'
p2025
I1
ssg31
g30
sbsg32
(idecision_tree
decision_tree_leaf
p2026
(dp2027
g25
g26
(g27
tp2028
Rp2029
g30
I1
ssg31
g30
sbsbsbsg32
(idecision_tree
decision_tree_leaf
p2030
(dp2031
g25
g26
(g27
tp2032
Rp2033
g30
I4
ssg31
g30
sbsbsg32
(idecision_tree
decision_tree_leaf
p2034
(dp2035
g25
g26
(g27
tp2036
Rp2037
g30
I1
ssg31
g30
sbsbsg32
(idecision_tree
decision_tree_leaf
p2038
(dp2039
g25
g26
(g27
tp2040
Rp2041
g30
I1
ssg31
g30
sbsbsbsbsbsg32
(idecision_tree
continuous_decision_tree
p2042
(dp2043
g2
F0.452861
sg3
I50
sg4
(idecision_tree
continuous_decision_tree
p2044
(dp2045
g2
F15.45
sg3
I63
sg4
(idecision_tree
decision_tree_leaf
p2046
(dp2047
g25
g26
(g27
tp2048
Rp2049
g30
I1
ssg31
g30
sbsg32
(idecision_tree
continuous_decision_tree
p2050
(dp2051
g2
F0.5781905
sg3
I52
sg4
(idecision_tree
decision_tree_leaf
p2052
(dp2053
g25
g26
(g27
tp2054
Rp2055
g30
I1
ssg31
g30
sbsg32
(idecision_tree
continuous_decision_tree
p2056
(dp2057
g2
F0.6970974999999999
sg3
I48
sg4
(idecision_tree
continuous_decision_tree
p2058
(dp2059
g2
F43.29315
sg3
I40
sg4
(idecision_tree
continuous_decision_tree
p2060
(dp2061
g2
F43.23965
sg3
I44
sg4
(idecision_tree
decision_tree_leaf
p2062
(dp2063
g25
g26
(g27
tp2064
Rp2065
g30
I1
ssg31
g30
sbsg32
(idecision_tree
continuous_decision_tree
p2066
(dp2067
g2
F2.8924149999999997
sg3
I39
sg4
(idecision_tree
decision_tree_leaf
p2068
(dp2069
g25
g26
(g27
tp2070
Rp2071
g30
I2
ssg31
g30
sbsg32
(idecision_tree
continuous_decision_tree
p2072
(dp2073
g2
F0.8768825
sg3
I34
sg4
(idecision_tree
decision_tree_leaf
p2074
(dp2075
g25
g26
(g27
tp2076
Rp2077
g30
I4
sS'Pn'
p2078
I1
ssg31
g30
sbsg32
(idecision_tree
decision_tree_leaf
p2079
(dp2080
g25
g26
(g27
tp2081
Rp2082
g30
I2
ssg31
g30
sbsbsbsbsg32
(idecision_tree
decision_tree_leaf
p2083
(dp2084
g25
g26
(g27
tp2085
Rp2086
g30
I1
ssg31
g30
sbsbsg32
(idecision_tree
decision_tree_leaf
p2087
(dp2088
g25
g26
(g27
tp2089
Rp2090
g30
I1
ssg31
g30
sbsbsbsbsg32
(idecision_tree
continuous_decision_tree
p2091
(dp2092
g2
F0.9620415
sg3
I35
sg4
(idecision_tree
continuous_decision_tree
p2093
(dp2094
g2
F0.23117749999999998
sg3
I52
sg4
(idecision_tree
continuous_decision_tree
p2095
(dp2096
g2
F0.0
sg3
I67
sg4
(idecision_tree
decision_tree_leaf
p2097
(dp2098
g25
g26
(g27
tp2099
Rp2100
g30
I30
sS'PKP'
p2101
I2
sS'Pn'
p2102
I1
ssg31
g30
sbsg32
(idecision_tree
decision_tree_leaf
p2103
(dp2104
g25
g26
(g27
tp2105
Rp2106
g30
I8
ssg31
g30
sbsbsg32
(idecision_tree
continuous_decision_tree
p2107
(dp2108
g2
F28.79165
sg3
I63
sg4
(idecision_tree
decision_tree_leaf
p2109
(dp2110
g25
g26
(g27
tp2111
Rp2112
g30
I1
ssg31
g30
sbsg32
(idecision_tree
continuous_decision_tree
p2113
(dp2114
g2
F82.062
sg3
I40
sg4
(idecision_tree
decision_tree_leaf
p2115
(dp2116
g25
g26
(g27
tp2117
Rp2118
g30
I2
ssg31
g30
sbsg32
(idecision_tree
continuous_decision_tree
p2119
(dp2120
g2
F0.666667
sg3
I8
sg4
(idecision_tree
continuous_decision_tree
p2121
(dp2122
g2
F2.39628
sg3
I48
sg4
(idecision_tree
decision_tree_leaf
p2123
(dp2124
g25
g26
(g27
tp2125
Rp2126
g30
I1
ssg31
g30
sbsg32
(idecision_tree
continuous_decision_tree
p2127
(dp2128
g2
F0.4555405
sg3
I49
sg4
(idecision_tree
decision_tree_leaf
p2129
(dp2130
g25
g26
(g27
tp2131
Rp2132
g30
I1
ssg31
g30
sbsg32
(idecision_tree
continuous_decision_tree
p2133
(dp2134
g2
F-59.375
sg3
I67
sg4
(idecision_tree
decision_tree_leaf
p2135
(dp2136
g25
g26
(g27
tp2137
Rp2138
g30
I2
ssg31
g30
sbsg32
(idecision_tree
decision_tree_leaf
p2139
(dp2140
g25
g26
(g27
tp2141
Rp2142
S'PKP'
p2143
I1
ssg31
g2143
sbsbsbsbsg32
(idecision_tree
decision_tree_leaf
p2144
(dp2145
g25
g26
(g27
tp2146
Rp2147
g30
I6
ssg31
g30
sbsbsbsbsbsg32
(idecision_tree
continuous_decision_tree
p2148
(dp2149
g2
F1.31031
sg3
I48
sg4
(idecision_tree
continuous_decision_tree
p2150
(dp2151
g2
F0.13308350000000002
sg3
I51
sg4
(idecision_tree
continuous_decision_tree
p2152
(dp2153
g2
F0.5720265
sg3
I52
sg4
(idecision_tree
decision_tree_leaf
p2154
(dp2155
g25
g26
(g27
tp2156
Rp2157
g30
I1
ssg31
g30
sbsg32
(idecision_tree
continuous_decision_tree
p2158
(dp2159
g2
F0.1948095
sg3
I50
sg4
(idecision_tree
continuous_decision_tree
p2160
(dp2161
g2
F0.2645105
sg3
I49
sg4
(idecision_tree
continuous_decision_tree
p2162
(dp2163
g2
F84.19785
sg3
I40
sg4
(idecision_tree
decision_tree_leaf
p2164
(dp2165
g25
g26
(g27
tp2166
Rp2167
g30
I2
ssg31
g30
sbsg32
(idecision_tree
continuous_decision_tree
p2168
(dp2169
g2
F0.8852405
sg3
I34
sg4
(idecision_tree
decision_tree_leaf
p2170
(dp2171
g25
g26
(g27
tp2172
Rp2173
g30
I5
sS'PKP'
p2174
I1
ssg31
g30
sbsg32
(idecision_tree
decision_tree_leaf
p2175
(dp2176
g25
g26
(g27
tp2177
Rp2178
g30
I1
ssg31
g30
sbsbsbsg32
(idecision_tree
decision_tree_leaf
p2179
(dp2180
g25
g26
(g27
tp2181
Rp2182
g30
I2
ssg31
g30
sbsbsg32
(idecision_tree
decision_tree_leaf
p2183
(dp2184
g25
g26
(g27
tp2185
Rp2186
g30
I1
ssg31
g30
sbsbsbsg32
(idecision_tree
decision_tree_leaf
p2187
(dp2188
g25
g26
(g27
tp2189
Rp2190
g30
I1
ssg31
g30
sbsbsg32
(idecision_tree
continuous_decision_tree
p2191
(dp2192
g2
F0.29409050000000003
sg3
I50
sg4
(idecision_tree
continuous_decision_tree
p2193
(dp2194
g2
F1.0
sg3
I66
sg4
(idecision_tree
continuous_decision_tree
p2195
(dp2196
g2
F-35.5
sg3
I67
sg4
(idecision_tree
decision_tree_leaf
p2197
(dp2198
g25
g26
(g27
tp2199
Rp2200
S'Pn'
p2201
I1
ssg31
g2201
sbsg32
(idecision_tree
decision_tree_leaf
p2202
(dp2203
g25
g26
(g27
tp2204
Rp2205
g30
I1
ssg31
g30
sbsbsg32
(idecision_tree
decision_tree_leaf
p2206
(dp2207
g25
g26
(g27
tp2208
Rp2209
g30
I12
ssg31
g30
sbsbsg32
(idecision_tree
continuous_decision_tree
p2210
(dp2211
g2
F0.866362
sg3
I38
sg4
(idecision_tree
decision_tree_leaf
p2212
(dp2213
g25
g26
(g27
tp2214
Rp2215
g30
I1
ssg31
g30
sbsg32
(idecision_tree
continuous_decision_tree
p2216
(dp2217
g2
F0.6586235
sg3
I51
sg4
(idecision_tree
decision_tree_leaf
p2218
(dp2219
g25
g26
(g27
tp2220
Rp2221
g30
I1
ssg31
g30
sbsg32
(idecision_tree
continuous_decision_tree
p2222
(dp2223
g2
F0.841415
sg3
I34
sg4
(idecision_tree
continuous_decision_tree
p2224
(dp2225
g2
F0.775392
sg3
I49
sg4
(idecision_tree
decision_tree_leaf
p2226
(dp2227
g25
g26
(g27
tp2228
Rp2229
g30
I1
ssg31
g30
sbsg32
(idecision_tree
continuous_decision_tree
p2230
(dp2231
g2
F0.8194405
sg3
I48
sg4
(idecision_tree
continuous_decision_tree
p2232
(dp2233
g2
F46.30165
sg3
I44
sg4
(idecision_tree
decision_tree_leaf
p2234
(dp2235
g25
g26
(g27
tp2236
Rp2237
g30
I1
ssg31
g30
sbsg32
(idecision_tree
continuous_decision_tree
p2238
(dp2239
g2
F0.201642
sg3
I52
sg4
(idecision_tree
continuous_decision_tree
p2240
(dp2241
g2
F0.2544615
sg3
I50
sg4
(idecision_tree
decision_tree_leaf
p2242
(dp2243
g25
g26
(g27
tp2244
Rp2245
g30
I1
ssg31
g30
sbsg32
(idecision_tree
continuous_decision_tree
p2246
(dp2247
g2
F0.5555555
sg3
I8
sg4
(idecision_tree
decision_tree_leaf
p2248
(dp2249
g25
g26
(g27
tp2250
Rp2251
g30
I2
sS'Pn'
p2252
I1
ssg31
g30
sbsg32
(idecision_tree
decision_tree_leaf
p2253
(dp2254
g25
g26
(g27
tp2255
Rp2256
g30
I1
ssg31
g30
sbsbsbsg32
(idecision_tree
decision_tree_leaf
p2257
(dp2258
g25
g26
(g27
tp2259
Rp2260
g30
I1
ssg31
g30
sbsbsbsg32
(idecision_tree
decision_tree_leaf
p2261
(dp2262
g25
g26
(g27
tp2263
Rp2264
g30
I2
ssg31
g30
sbsbsbsg32
(idecision_tree
decision_tree_leaf
p2265
(dp2266
g25
g26
(g27
tp2267
Rp2268
g30
I1
ssg31
g30
sbsbsbsbsbsbsbsbsbsbsg32
(idecision_tree
decision_tree_leaf
p2269
(dp2270
g25
g26
(g27
tp2271
Rp2272
g30
I153
sS'PKP'
p2273
I7
sS'Pn'
p2274
I5
ssg31
g30
sbsbsbsg32
(idecision_tree
continuous_decision_tree
p2275
(dp2276
g2
F0.666667
sg3
I8
sg4
(idecision_tree
continuous_decision_tree
p2277
(dp2278
g2
F2.0
sg3
I62
sg4
(idecision_tree
continuous_decision_tree
p2279
(dp2280
g2
F-166.08350000000002
sg3
I67
sg4
(idecision_tree
continuous_decision_tree
p2281
(dp2282
g2
F0.1183215
sg3
I52
sg4
(idecision_tree
continuous_decision_tree
p2283
(dp2284
g2
F34.39245
sg3
I40
sg4
(idecision_tree
continuous_decision_tree
p2285
(dp2286
g2
F4.0
sg3
I62
sg4
(idecision_tree
continuous_decision_tree
p2287
(dp2288
g2
F-150.75
sg3
I67
sg4
(idecision_tree
decision_tree_leaf
p2289
(dp2290
g25
g26
(g27
tp2291
Rp2292
S'Pn'
p2293
I1
ssg31
g2293
sbsg32
(idecision_tree
decision_tree_leaf
p2294
(dp2295
g25
g26
(g27
tp2296
Rp2297
g30
I1
ssg31
g30
sbsbsg32
(idecision_tree
decision_tree_leaf
p2298
(dp2299
g25
g26
(g27
tp2300
Rp2301
g30
I8
ssg31
g30
sbsbsg32
(idecision_tree
decision_tree_leaf
p2302
(dp2303
g25
g26
(g27
tp2304
Rp2305
g30
I1
ssg31
g30
sbsbsg32
(idecision_tree
decision_tree_leaf
p2306
(dp2307
g25
g26
(g27
tp2308
Rp2309
g30
I1
ssg31
g30
sbsbsg32
(idecision_tree
continuous_decision_tree
p2310
(dp2311
g2
F0.192896
sg3
I48
sg4
(idecision_tree
continuous_decision_tree
p2312
(dp2313
g2
F0.994753
sg3
I35
sg4
(idecision_tree
decision_tree_leaf
p2314
(dp2315
g25
g26
(g27
tp2316
Rp2317
g30
I1
ssg31
g30
sbsg32
(idecision_tree
continuous_decision_tree
p2318
(dp2319
g2
F3.52505
sg3
I39
sg4
(idecision_tree
decision_tree_leaf
p2320
(dp2321
g25
g26
(g27
tp2322
Rp2323
g30
I2
ssg31
g30
sbsg32
(idecision_tree
decision_tree_leaf
p2324
(dp2325
g25
g26
(g27
tp2326
Rp2327
g30
I5
sS'PKP'
p2328
I1
ssg31
g30
sbsbsbsg32
(idecision_tree
decision_tree_leaf
p2329
(dp2330
g25
g26
(g27
tp2331
Rp2332
g30
I1
ssg31
g30
sbsbsbsg32
(idecision_tree
decision_tree_leaf
p2333
(dp2334
g25
g26
(g27
tp2335
Rp2336
g30
I9
ssg31
g30
sbsbsg32
(idecision_tree
decision_tree_leaf
p2337
(dp2338
g25
g26
(g27
tp2339
Rp2340
g30
I11
ssg31
g30
sbsbsbsbsg32
(idecision_tree
continuous_decision_tree
p2341
(dp2342
g2
F-74.43334999999999
sg3
I67
sg4
(idecision_tree
continuous_decision_tree
p2343
(dp2344
g2
F1.0
sg3
I66
sg4
(idecision_tree
continuous_decision_tree
p2345
(dp2346
g2
F0.3026585
sg3
I52
sg4
(idecision_tree
continuous_decision_tree
p2347
(dp2348
g2
F-3.2083500000000003
sg3
I67
sg4
(idecision_tree
decision_tree_leaf
p2349
(dp2350
g25
g26
(g27
tp2351
Rp2352
g30
I1
ssg31
g30
sbsg32
(idecision_tree
continuous_decision_tree
p2353
(dp2354
g2
F-45.15
sg3
I67
sg4
(idecision_tree
continuous_decision_tree
p2355
(dp2356
g2
F-26.625
sg3
I67
sg4
(idecision_tree
continuous_decision_tree
p2357
(dp2358
g2
F-18.75
sg3
I67
sg4
(idecision_tree
continuous_decision_tree
p2359
(dp2360
g2
F-13.58335
sg3
I67
sg4
(idecision_tree
decision_tree_leaf
p2361
(dp2362
g25
g26
(g27
tp2363
Rp2364
S'PKP'
p2365
I1
ssg31
g2365
sbsg32
(idecision_tree
decision_tree_leaf
p2366
(dp2367
g25
g26
(g27
tp2368
Rp2369
g30
I1
ssg31
g30
sbsbsg32
(idecision_tree
decision_tree_leaf
p2370
(dp2371
g25
g26
(g27
tp2372
Rp2373
g30
I1
ssg31
g30
sbsbsg32
(idecision_tree
decision_tree_leaf
p2374
(dp2375
g25
g26
(g27
tp2376
Rp2377
g30
I1
ssg31
g30
sbsbsg32
(idecision_tree
decision_tree_leaf
p2378
(dp2379
g25
g26
(g27
tp2380
Rp2381
g30
I1
ssg31
g30
sbsbsbsg32
(idecision_tree
continuous_decision_tree
p2382
(dp2383
g2
F0.6361924999999999
sg3
I51
sg4
(idecision_tree
decision_tree_leaf
p2384
(dp2385
g25
g26
(g27
tp2386
Rp2387
g30
I1
ssg31
g30
sbsg32
(idecision_tree
continuous_decision_tree
p2388
(dp2389
g2
F0.2722445
sg3
I52
sg4
(idecision_tree
decision_tree_leaf
p2390
(dp2391
g25
g26
(g27
tp2392
Rp2393
g30
I1
ssg31
g30
sbsg32
(idecision_tree
continuous_decision_tree
p2394
(dp2395
g2
F1.038016
sg3
I49
sg4
(idecision_tree
decision_tree_leaf
p2396
(dp2397
g25
g26
(g27
tp2398
Rp2399
g30
I1
ssg31
g30
sbsg32
(idecision_tree
continuous_decision_tree
p2400
(dp2401
g2
F1.5
sg3
I66
sg4
(idecision_tree
decision_tree_leaf
p2402
(dp2403
g25
g26
(g27
tp2404
Rp2405
g30
I1
ssg31
g30
sbsg32
(idecision_tree
continuous_decision_tree
p2406
(dp2407
g2
F1.187272
sg3
I48
sg4
(idecision_tree
continuous_decision_tree
p2408
(dp2409
g2
F-47.0469
sg3
I67
sg4
(idecision_tree
decision_tree_leaf
p2410
(dp2411
g25
g26
(g27
tp2412
Rp2413
g30
I1
ssg31
g30
sbsg32
(idecision_tree
decision_tree_leaf
p2414
(dp2415
g25
g26
(g27
tp2416
Rp2417
g131
I1
ssg31
g131
sbsbsg32
(idecision_tree
decision_tree_leaf
p2418
(dp2419
g25
g26
(g27
tp2420
Rp2421
g30
I1
ssg31
g30
sbsbsbsbsbsbsbsg32
(idecision_tree
decision_tree_leaf
p2422
(dp2423
g25
g26
(g27
tp2424
Rp2425
g30
I5
ssg31
g30
sbsbsg32
(idecision_tree
continuous_decision_tree
p2426
(dp2427
g2
F-6.39585
sg3
I63
sg4
(idecision_tree
decision_tree_leaf
p2428
(dp2429
g25
g26
(g27
tp2430
Rp2431
g30
I1
ssg31
g30
sbsg32
(idecision_tree
continuous_decision_tree
p2432
(dp2433
g2
F3.0
sg3
I66
sg4
(idecision_tree
continuous_decision_tree
p2434
(dp2435
g2
F0.37075050000000004
sg3
I48
sg4
(idecision_tree
continuous_decision_tree
p2436
(dp2437
g2
F-95.18985
sg3
I67
sg4
(idecision_tree
decision_tree_leaf
p2438
(dp2439
g25
g26
(g27
tp2440
Rp2441
g30
I1
ssg31
g30
sbsg32
(idecision_tree
decision_tree_leaf
p2442
(dp2443
g25
g26
(g27
tp2444
Rp2445
S'Lg'
p2446
I1
ssg31
g2446
sbsbsg32
(idecision_tree
decision_tree_leaf
p2447
(dp2448
g25
g26
(g27
tp2449
Rp2450
g30
I1
ssg31
g30
sbsbsg32
(idecision_tree
decision_tree_leaf
p2451
(dp2452
g25
g26
(g27
tp2453
Rp2454
g30
I5
ssg31
g30
sbsbsbsbsbsbsg32
(idecision_tree
decision_tree_leaf
p2455
(dp2456
g25
g26
(g27
tp2457
Rp2458
g30
I13
sS'PKP'
p2459
I1
ssg31
g30
sbsbsg32
(idecision_tree
continuous_decision_tree
p2460
(dp2461
g2
F6.063079999999999
sg3
I39
sg4
(idecision_tree
continuous_decision_tree
p2462
(dp2463
g2
F0.865654
sg3
I50
sg4
(idecision_tree
decision_tree_leaf
p2464
(dp2465
g25
g26
(g27
tp2466
Rp2467
g30
I1
ssg31
g30
sbsg32
(idecision_tree
continuous_decision_tree
p2468
(dp2469
g2
F-43.25
sg3
I67
sg4
(idecision_tree
continuous_decision_tree
p2470
(dp2471
g2
F6.758345
sg3
I39
sg4
(idecision_tree
continuous_decision_tree
p2472
(dp2473
g2
F-4.75
sg3
I67
sg4
(idecision_tree
decision_tree_leaf
p2474
(dp2475
g25
g26
(g27
tp2476
Rp2477
g30
I2
ssg31
g30
sbsg32
(idecision_tree
decision_tree_leaf
p2478
(dp2479
g25
g26
(g27
tp2480
Rp2481
S'Lg'
p2482
I1
ssg31
g2482
sbsbsg32
(idecision_tree
decision_tree_leaf
p2483
(dp2484
g25
g26
(g27
tp2485
Rp2486
g30
I1
ssg31
g30
sbsbsg32
(idecision_tree
decision_tree_leaf
p2487
(dp2488
g25
g26
(g27
tp2489
Rp2490
g30
I1
ssg31
g30
sbsbsbsg32
(idecision_tree
continuous_decision_tree
p2491
(dp2492
g2
F0.5734144999999999
sg3
I50
sg4
(idecision_tree
continuous_decision_tree
p2493
(dp2494
g2
F0.5766344999999999
sg3
I49
sg4
(idecision_tree
continuous_decision_tree
p2495
(dp2496
g2
F-36.958349999999996
sg3
I67
sg4
(idecision_tree
continuous_decision_tree
p2497
(dp2498
g2
F3.54324
sg3
I39
sg4
(idecision_tree
decision_tree_leaf
p2499
(dp2500
g25
g26
(g27
tp2501
Rp2502
g30
I1
ssg31
g30
sbsg32
(idecision_tree
continuous_decision_tree
p2503
(dp2504
g2
F1.5
sg3
I66
sg4
(idecision_tree
decision_tree_leaf
p2505
(dp2506
g25
g26
(g27
tp2507
Rp2508
g30
I1
ssg31
g30
sbsg32
(idecision_tree
continuous_decision_tree
p2509
(dp2510
g2
F-7.625
sg3
I67
sg4
(idecision_tree
decision_tree_leaf
p2511
(dp2512
g25
g26
(g27
tp2513
Rp2514
g30
I2
ssg31
g30
sbsg32
(idecision_tree
decision_tree_leaf
p2515
(dp2516
g25
g26
(g27
tp2517
Rp2518
S'Lg'
p2519
I1
ssg31
g2519
sbsbsbsbsg32
(idecision_tree
decision_tree_leaf
p2520
(dp2521
g25
g26
(g27
tp2522
Rp2523
g30
I1
ssg31
g30
sbsbsg32
(idecision_tree
continuous_decision_tree
p2524
(dp2525
g2
F-2.5
sg3
I67
sg4
(idecision_tree
decision_tree_leaf
p2526
(dp2527
g25
g26
(g27
tp2528
Rp2529
g30
I1
ssg31
g30
sbsg32
(idecision_tree
continuous_decision_tree
p2530
(dp2531
g2
F0.2185985
sg3
I52
sg4
(idecision_tree
continuous_decision_tree
p2532
(dp2533
g2
F0.47919
sg3
I51
sg4
(idecision_tree
continuous_decision_tree
p2534
(dp2535
g2
F0.5503225
sg3
I48
sg4
(idecision_tree
continuous_decision_tree
p2536
(dp2537
g2
F-3.5
sg3
I67
sg4
(idecision_tree
decision_tree_leaf
p2538
(dp2539
g25
g26
(g27
tp2540
Rp2541
S'Pn'
p2542
I1
ssg31
g2542
sbsg32
(idecision_tree
decision_tree_leaf
p2543
(dp2544
g25
g26
(g27
tp2545
Rp2546
g30
I1
ssg31
g30
sbsbsg32
(idecision_tree
decision_tree_leaf
p2547
(dp2548
g25
g26
(g27
tp2549
Rp2550
g30
I1
ssg31
g30
sbsbsg32
(idecision_tree
decision_tree_leaf
p2551
(dp2552
g25
g26
(g27
tp2553
Rp2554
g30
I1
ssg31
g30
sbsbsg32
(idecision_tree
decision_tree_leaf
p2555
(dp2556
g25
g26
(g27
tp2557
Rp2558
g30
I1
ssg31
g30
sbsbsbsbsg32
(idecision_tree
continuous_decision_tree
p2559
(dp2560
g2
F-11.125
sg3
I67
sg4
(idecision_tree
continuous_decision_tree
p2561
(dp2562
g2
F38.2425
sg3
I44
sg4
(idecision_tree
continuous_decision_tree
p2563
(dp2564
g2
F-5.75
sg3
I67
sg4
(idecision_tree
continuous_decision_tree
p2565
(dp2566
g2
F3.83831
sg3
I39
sg4
(idecision_tree
decision_tree_leaf
p2567
(dp2568
g25
g26
(g27
tp2569
Rp2570
g30
I1
ssg31
g30
sbsg32
(idecision_tree
continuous_decision_tree
p2571
(dp2572
g2
F0.280549
sg3
I49
sg4
(idecision_tree
continuous_decision_tree
p2573
(dp2574
g2
F0.7249479999999999
sg3
I48
sg4
(idecision_tree
continuous_decision_tree
p2575
(dp2576
g2
F-4.25
sg3
I67
sg4
(idecision_tree
decision_tree_leaf
p2577
(dp2578
g25
g26
(g27
tp2579
Rp2580
g30
I2
ssg31
g30
sbsg32
(idecision_tree
decision_tree_leaf
p2581
(dp2582
g25
g26
(g27
tp2583
Rp2584
S'Pg'
p2585
I1
ssg31
g2585
sbsbsg32
(idecision_tree
decision_tree_leaf
p2586
(dp2587
g25
g26
(g27
tp2588
Rp2589
g30
I1
ssg31
g30
sbsbsg32
(idecision_tree
decision_tree_leaf
p2590
(dp2591
g25
g26
(g27
tp2592
Rp2593
g30
I1
ssg31
g30
sbsbsbsg32
(idecision_tree
continuous_decision_tree
p2594
(dp2595
g2
F2.0
sg3
I66
sg4
(idecision_tree
continuous_decision_tree
p2596
(dp2597
g2
F-7.0
sg3
I67
sg4
(idecision_tree
decision_tree_leaf
p2598
(dp2599
g25
g26
(g27
tp2600
Rp2601
g30
I1
ssg31
g30
sbsg32
(idecision_tree
decision_tree_leaf
p2602
(dp2603
g25
g26
(g27
tp2604
Rp2605
S'Pn'
p2606
I1
ssg31
g2606
sbsbsg32
(idecision_tree
decision_tree_leaf
p2607
(dp2608
g25
g26
(g27
tp2609
Rp2610
g30
I3
ssg31
g30
sbsbsbsg32
(idecision_tree
continuous_decision_tree
p2611
(dp2612
g2
F3.5
sg3
I66
sg4
(idecision_tree
decision_tree_leaf
p2613
(dp2614
g25
g26
(g27
tp2615
Rp2616
g30
I1
ssg31
g30
sbsg32
(idecision_tree
continuous_decision_tree
p2617
(dp2618
g2
F-7.5
sg3
I67
sg4
(idecision_tree
decision_tree_leaf
p2619
(dp2620
g25
g26
(g27
tp2621
Rp2622
g30
I3
sS'Sn'
p2623
I1
ssg31
g30
sbsg32
(idecision_tree
decision_tree_leaf
p2624
(dp2625
g25
g26
(g27
tp2626
Rp2627
g30
I1
ssg31
g30
sbsbsbsbsg32
(idecision_tree
continuous_decision_tree
p2628
(dp2629
g2
F-21.3125
sg3
I63
sg4
(idecision_tree
decision_tree_leaf
p2630
(dp2631
g25
g26
(g27
tp2632
Rp2633
g30
I4
sS'Sn'
p2634
I1
ssg31
g30
sbsg32
(idecision_tree
decision_tree_leaf
p2635
(dp2636
g25
g26
(g27
tp2637
Rp2638
g30
I1
ssg31
g30
sbsbsbsbsbsbsbsbsg32
(idecision_tree
continuous_decision_tree
p2639
(dp2640
g2
F-11.75
sg3
I59
sg4
(idecision_tree
decision_tree_leaf
p2641
(dp2642
g25
g26
(g27
tp2643
Rp2644
g30
I1
ssg31
g30
sbsg32
(idecision_tree
continuous_decision_tree
p2645
(dp2646
g2
F2.5
sg3
I63
sg4
(idecision_tree
decision_tree_leaf
p2647
(dp2648
g25
g26
(g27
tp2649
Rp2650
g30
I1
ssg31
g30
sbsg32
(idecision_tree
continuous_decision_tree
p2651
(dp2652
g2
F0.7638435
sg3
I52
sg4
(idecision_tree
decision_tree_leaf
p2653
(dp2654
g25
g26
(g27
tp2655
Rp2656
g30
I1
ssg31
g30
sbsg32
(idecision_tree
continuous_decision_tree
p2657
(dp2658
g2
F0.9328225000000001
sg3
I50
sg4
(idecision_tree
decision_tree_leaf
p2659
(dp2660
g25
g26
(g27
tp2661
Rp2662
g30
I1
ssg31
g30
sbsg32
(idecision_tree
continuous_decision_tree
p2663
(dp2664
g2
F0.8465265
sg3
I35
sg4
(idecision_tree
continuous_decision_tree
p2665
(dp2666
g2
F0.8747739999999999
sg3
I34
sg4
(idecision_tree
continuous_decision_tree
p2667
(dp2668
g2
F52.47655
sg3
I44
sg4
(idecision_tree
decision_tree_leaf
p2669
(dp2670
g25
g26
(g27
tp2671
Rp2672
g30
I2
ssg31
g30
sbsg32
(idecision_tree
continuous_decision_tree
p2673
(dp2674
g2
F0.8769285
sg3
I38
sg4
(idecision_tree
decision_tree_leaf
p2675
(dp2676
g25
g26
(g27
tp2677
Rp2678
g30
I1
ssg31
g30
sbsg32
(idecision_tree
continuous_decision_tree
p2679
(dp2680
g2
F1.43834
sg3
I39
sg4
(idecision_tree
decision_tree_leaf
p2681
(dp2682
g25
g26
(g27
tp2683
Rp2684
g30
I13
sS'Lg'
p2685
I1
ssg31
g30
sbsg32
(idecision_tree
decision_tree_leaf
p2686
(dp2687
g25
g26
(g27
tp2688
Rp2689
g30
I2
ssg31
g30
sbsbsbsbsg32
(idecision_tree
decision_tree_leaf
p2690
(dp2691
g25
g26
(g27
tp2692
Rp2693
g30
I1
ssg31
g30
sbsbsg32
(idecision_tree
decision_tree_leaf
p2694
(dp2695
g25
g26
(g27
tp2696
Rp2697
g30
I1
ssg31
g30
sbsbsbsbsbsbsbsg32
(idecision_tree
continuous_decision_tree
p2698
(dp2699
g2
F2.5
sg3
I66
sg4
(idecision_tree
decision_tree_leaf
p2700
(dp2701
g25
g26
(g27
tp2702
Rp2703
g30
I1
ssg31
g30
sbsg32
(idecision_tree
continuous_decision_tree
p2704
(dp2705
g2
F0.8409225
sg3
I50
sg4
(idecision_tree
decision_tree_leaf
p2706
(dp2707
g25
g26
(g27
tp2708
Rp2709
g30
I1
ssg31
g30
sbsg32
(idecision_tree
continuous_decision_tree
p2710
(dp2711
g2
F0.750642
sg3
I35
sg4
(idecision_tree
continuous_decision_tree
p2712
(dp2713
g2
F0.216679
sg3
I52
sg4
(idecision_tree
continuous_decision_tree
p2714
(dp2715
g2
F81.89574999999999
sg3
I40
sg4
(idecision_tree
decision_tree_leaf
p2716
(dp2717
g25
g26
(g27
tp2718
Rp2719
g30
I1
ssg31
g30
sbsg32
(idecision_tree
continuous_decision_tree
p2720
(dp2721
g2
F1.44483
sg3
I39
sg4
(idecision_tree
continuous_decision_tree
p2722
(dp2723
g2
F-31.0
sg3
I67
sg4
(idecision_tree
continuous_decision_tree
p2724
(dp2725
g2
F2.4738865
sg3
I48
sg4
(idecision_tree
decision_tree_leaf
p2726
(dp2727
g25
g26
(g27
tp2728
Rp2729
g30
I1
ssg31
g30
sbsg32
(idecision_tree
decision_tree_leaf
p2730
(dp2731
g25
g26
(g27
tp2732
Rp2733
g30
I2
sS'Lg'
p2734
I1
ssg31
g30
sbsbsg32
(idecision_tree
decision_tree_leaf
p2735
(dp2736
g25
g26
(g27
tp2737
Rp2738
g30
I2
ssg31
g30
sbsbsg32
(idecision_tree
decision_tree_leaf
p2739
(dp2740
g25
g26
(g27
tp2741
Rp2742
g30
I1
ssg31
g30
sbsbsbsg32
(idecision_tree
decision_tree_leaf
p2743
(dp2744
g25
g26
(g27
tp2745
Rp2746
g30
I2
ssg31
g30
sbsbsg32
(idecision_tree
decision_tree_leaf
p2747
(dp2748
g25
g26
(g27
tp2749
Rp2750
g30
I1
ssg31
g30
sbsbsbsbsbsbsg32
(idecision_tree
continuous_decision_tree
p2751
(dp2752
g2
F50.666650000000004
sg3
I67
sg4
(idecision_tree
continuous_decision_tree
p2753
(dp2754
g2
F-72.75
sg3
I63
sg4
(idecision_tree
continuous_decision_tree
p2755
(dp2756
g2
F-1.0
sg3
I58
sg4
(idecision_tree
continuous_decision_tree
p2757
(dp2758
g2
F225.85
sg3
I67
sg4
(idecision_tree
decision_tree_leaf
p2759
(dp2760
g25
g26
(g27
tp2761
Rp2762
g30
I11
sg131
I1
sS'Sn'
p2763
I1
ssg31
g30
sbsg32
(idecision_tree
continuous_decision_tree
p2764
(dp2765
g2
F-10.25
sg3
I63
sg4
(idecision_tree
continuous_decision_tree
p2766
(dp2767
g2
F-4.125
sg3
I63
sg4
(idecision_tree
continuous_decision_tree
p2768
(dp2769
g2
F5.5
sg3
I59
sg4
(idecision_tree
decision_tree_leaf
p2770
(dp2771
g25
g26
(g27
tp2772
Rp2773
g30
I1
ssg31
g30
sbsg32
(idecision_tree
continuous_decision_tree
p2774
(dp2775
g2
F-0.5
sg3
I58
sg4
(idecision_tree
decision_tree_leaf
p2776
(dp2777
g25
g26
(g27
tp2778
Rp2779
g30
I1
ssg31
g30
sbsg32
(idecision_tree
continuous_decision_tree
p2780
(dp2781
g2
F12.0
sg3
I63
sg4
(idecision_tree
decision_tree_leaf
p2782
(dp2783
g25
g26
(g27
tp2784
Rp2785
g30
I1
ssg31
g30
sbsg32
(idecision_tree
continuous_decision_tree
p2786
(dp2787
g2
F0.4358525
sg3
I51
sg4
(idecision_tree
decision_tree_leaf
p2788
(dp2789
g25
g26
(g27
tp2790
Rp2791
g30
I1
ssg31
g30
sbsg32
(idecision_tree
continuous_decision_tree
p2792
(dp2793
g2
F154.0
sg3
I67
sg4
(idecision_tree
continuous_decision_tree
p2794
(dp2795
g2
F200.5
sg3
I67
sg4
(idecision_tree
decision_tree_leaf
p2796
(dp2797
g25
g26
(g27
tp2798
Rp2799
S'Pn'
p2800
I1
ssg31
g2800
sbsg32
(idecision_tree
decision_tree_leaf
p2801
(dp2802
g25
g26
(g27
tp2803
Rp2804
g30
I1
ssg31
g30
sbsbsg32
(idecision_tree
decision_tree_leaf
p2805
(dp2806
g25
g26
(g27
tp2807
Rp2808
g30
I1
ssg31
g30
sbsbsbsbsbsbsg32
(idecision_tree
continuous_decision_tree
p2809
(dp2810
g2
F129.125
sg3
I67
sg4
(idecision_tree
continuous_decision_tree
p2811
(dp2812
g2
F135.6875
sg3
I67
sg4
(idecision_tree
continuous_decision_tree
p2813
(dp2814
g2
F0.974052
sg3
I50
sg4
(idecision_tree
decision_tree_leaf
p2815
(dp2816
g25
g26
(g27
tp2817
Rp2818
g30
I1
ssg31
g30
sbsg32
(idecision_tree
continuous_decision_tree
p2819
(dp2820
g2
F2.59437
sg3
I48
sg4
(idecision_tree
decision_tree_leaf
p2821
(dp2822
g25
g26
(g27
tp2823
Rp2824
g30
I1
ssg31
g30
sbsg32
(idecision_tree
continuous_decision_tree
p2825
(dp2826
g2
F48.04315
sg3
I40
sg4
(idecision_tree
continuous_decision_tree
p2827
(dp2828
g2
F180.4375
sg3
I67
sg4
(idecision_tree
decision_tree_leaf
p2829
(dp2830
g25
g26
(g27
tp2831
Rp2832
g30
I1
ssg31
g30
sbsg32
(idecision_tree
decision_tree_leaf
p2833
(dp2834
g25
g26
(g27
tp2835
Rp2836
g131
I1
ssg31
g131
sbsbsg32
(idecision_tree
decision_tree_leaf
p2837
(dp2838
g25
g26
(g27
tp2839
Rp2840
g30
I1
ssg31
g30
sbsbsbsbsg32
(idecision_tree
decision_tree_leaf
p2841
(dp2842
g25
g26
(g27
tp2843
Rp2844
g30
I1
ssg31
g30
sbsbsg32
(idecision_tree
continuous_decision_tree
p2845
(dp2846
g2
F0.921406
sg3
I50
sg4
(idecision_tree
decision_tree_leaf
p2847
(dp2848
g25
g26
(g27
tp2849
Rp2850
g30
I1
ssg31
g30
sbsg32
(idecision_tree
continuous_decision_tree
p2851
(dp2852
g2
F0.2964515
sg3
I49
sg4
(idecision_tree
continuous_decision_tree
p2853
(dp2854
g2
F0.5720799999999999
sg3
I52
sg4
(idecision_tree
decision_tree_leaf
p2855
(dp2856
g25
g26
(g27
tp2857
Rp2858
g30
I1
ssg31
g30
sbsg32
(idecision_tree
continuous_decision_tree
p2859
(dp2860
g2
F-7.5
sg3
I63
sg4
(idecision_tree
decision_tree_leaf
p2861
(dp2862
g25
g26
(g27
tp2863
Rp2864
g30
I1
ssg31
g30
sbsg32
(idecision_tree
continuous_decision_tree
p2865
(dp2866
g2
F51.432950000000005
sg3
I40
sg4
(idecision_tree
continuous_decision_tree
p2867
(dp2868
g2
F123.375
sg3
I67
sg4
(idecision_tree
decision_tree_leaf
p2869
(dp2870
g25
g26
(g27
tp2871
Rp2872
S'Pn'
p2873
I1
ssg31
g2873
sbsg32
(idecision_tree
decision_tree_leaf
p2874
(dp2875
g25
g26
(g27
tp2876
Rp2877
g30
I1
ssg31
g30
sbsbsg32
(idecision_tree
decision_tree_leaf
p2878
(dp2879
g25
g26
(g27
tp2880
Rp2881
g30
I1
ssg31
g30
sbsbsbsbsg32
(idecision_tree
decision_tree_leaf
p2882
(dp2883
g25
g26
(g27
tp2884
Rp2885
g30
I1
ssg31
g30
sbsbsbsbsbsg32
(idecision_tree
continuous_decision_tree
p2886
(dp2887
g2
F-1.0
sg3
I62
sg4
(idecision_tree
decision_tree_leaf
p2888
(dp2889
g25
g26
(g27
tp2890
Rp2891
g30
I32
sg131
I2
sS'Pn'
p2892
I3
ssg31
g30
sbsg32
(idecision_tree
decision_tree_leaf
p2893
(dp2894
g25
g26
(g27
tp2895
Rp2896
g30
I2
sg131
I1
ssg31
g30
sbsbsbsbsg32
(idecision_tree
continuous_decision_tree
p2897
(dp2898
g2
F197.80849999999998
sg3
I67
sg4
(idecision_tree
continuous_decision_tree
p2899
(dp2900
g2
F-18.9
sg3
I63
sg4
(idecision_tree
continuous_decision_tree
p2901
(dp2902
g2
F4.5
sg3
I66
sg4
(idecision_tree
decision_tree_leaf
p2903
(dp2904
g25
g26
(g27
tp2905
Rp2906
g30
I1
ssg31
g30
sbsg32
(idecision_tree
continuous_decision_tree
p2907
(dp2908
g2
F0.3539875
sg3
I49
sg4
(idecision_tree
continuous_decision_tree
p2909
(dp2910
g2
F238.8915
sg3
I67
sg4
(idecision_tree
decision_tree_leaf
p2911
(dp2912
g25
g26
(g27
tp2913
Rp2914
g30
I1
ssg31
g30
sbsg32
(idecision_tree
decision_tree_leaf
p2915
(dp2916
g25
g26
(g27
tp2917
Rp2918
g131
I1
ssg31
g131
sbsbsg32
(idecision_tree
decision_tree_leaf
p2919
(dp2920
g25
g26
(g27
tp2921
Rp2922
g30
I1
ssg31
g30
sbsbsbsg32
(idecision_tree
decision_tree_leaf
p2923
(dp2924
g25
g26
(g27
tp2925
Rp2926
g30
I1
ssg31
g30
sbsbsg32
(idecision_tree
continuous_decision_tree
p2927
(dp2928
g2
F2.0
sg3
I66
sg4
(idecision_tree
continuous_decision_tree
p2929
(dp2930
g2
F-4.0
sg3
I62
sg4
(idecision_tree
continuous_decision_tree
p2931
(dp2932
g2
F162.0615
sg3
I67
sg4
(idecision_tree
decision_tree_leaf
p2933
(dp2934
g25
g26
(g27
tp2935
Rp2936
g30
I1
ssg31
g30
sbsg32
(idecision_tree
decision_tree_leaf
p2937
(dp2938
g25
g26
(g27
tp2939
Rp2940
g131
I1
ssg31
g131
sbsbsg32
(idecision_tree
decision_tree_leaf
p2941
(dp2942
g25
g26
(g27
tp2943
Rp2944
g30
I1
ssg31
g30
sbsbsg32
(idecision_tree
decision_tree_leaf
p2945
(dp2946
g25
g26
(g27
tp2947
Rp2948
g30
I3
ssg31
g30
sbsbsbsbsg32
(idecision_tree
continuous_decision_tree
p2949
(dp2950
g2
F-1.0
sg3
I62
sg4
(idecision_tree
continuous_decision_tree
p2951
(dp2952
g2
F88.70295
sg3
I40
sg4
(idecision_tree
decision_tree_leaf
p2953
(dp2954
g25
g26
(g27
tp2955
Rp2956
g30
I1
ssg31
g30
sbsg32
(idecision_tree
continuous_decision_tree
p2957
(dp2958
g2
F0.8930695
sg3
I35
sg4
(idecision_tree
continuous_decision_tree
p2959
(dp2960
g2
F0.205106
sg3
I52
sg4
(idecision_tree
continuous_decision_tree
p2961
(dp2962
g2
F0.666667
sg3
I8
sg4
(idecision_tree
decision_tree_leaf
p2963
(dp2964
g25
g26
(g27
tp2965
Rp2966
g30
I4
sS'PKP'
p2967
I1
ssg31
g30
sbsg32
(idecision_tree
decision_tree_leaf
p2968
(dp2969
g25
g26
(g27
tp2970
Rp2971
g30
I4
ssg31
g30
sbsbsg32
(idecision_tree
decision_tree_leaf
p2972
(dp2973
g25
g26
(g27
tp2974
Rp2975
g30
I1
ssg31
g30
sbsbsg32
(idecision_tree
decision_tree_leaf
p2976
(dp2977
g25
g26
(g27
tp2978
Rp2979
g30
I1
ssg31
g30
sbsbsbsg32
(idecision_tree
decision_tree_leaf
p2980
(dp2981
g25
g26
(g27
tp2982
Rp2983
S'PKP'
p2984
I1
ssg31
g2984
sbsbsbsg32
(idecision_tree
decision_tree_leaf
p2985
(dp2986
g25
g26
(g27
tp2987
Rp2988
g30
I11
sS'PKP'
p2989
I1
sg131
I1
ssg31
g30
sbsbsbsg32
(idecision_tree
continuous_decision_tree
p2990
(dp2991
g2
F73.8507
sg3
I40
sg4
(idecision_tree
continuous_decision_tree
p2992
(dp2993
g2
F-19.5
sg3
I63
sg4
(idecision_tree
continuous_decision_tree
p2994
(dp2995
g2
F0.0
sg3
I62
sg4
(idecision_tree
continuous_decision_tree
p2996
(dp2997
g2
F-191.5625
sg3
I67
sg4
(idecision_tree
continuous_decision_tree
p2998
(dp2999
g2
F0.0
sg3
I58
sg4
(idecision_tree
continuous_decision_tree
p3000
(dp3001
g2
F77.83475
sg3
I40
sg4
(idecision_tree
decision_tree_leaf
p3002
(dp3003
g25
g26
(g27
tp3004
Rp3005
g30
I38
sS'PKP'
p3006
I1
sS'Pn'
p3007
I2
ssg31
g30
sbsg32
(idecision_tree
continuous_decision_tree
p3008
(dp3009
g2
F-7.0
sg3
I63
sg4
(idecision_tree
continuous_decision_tree
p3010
(dp3011
g2
F1.0735700000000001
sg3
I50
sg4
(idecision_tree
decision_tree_leaf
p3012
(dp3013
g25
g26
(g27
tp3014
Rp3015
g30
I1
ssg31
g30
sbsg32
(idecision_tree
continuous_decision_tree
p3016
(dp3017
g2
F0.247717
sg3
I48
sg4
(idecision_tree
continuous_decision_tree
p3018
(dp3019
g2
F77.48339999999999
sg3
I40
sg4
(idecision_tree
decision_tree_leaf
p3020
(dp3021
g25
g26
(g27
tp3022
Rp3023
g30
I2
ssg31
g30
sbsg32
(idecision_tree
continuous_decision_tree
p3024
(dp3025
g2
F-66.5
sg3
I67
sg4
(idecision_tree
decision_tree_leaf
p3026
(dp3027
g25
g26
(g27
tp3028
Rp3029
g30
I2
ssg31
g30
sbsg32
(idecision_tree
continuous_decision_tree
p3030
(dp3031
g2
F0.5635815
sg3
I52
sg4
(idecision_tree
decision_tree_leaf
p3032
(dp3033
g25
g26
(g27
tp3034
Rp3035
g30
I1
ssg31
g30
sbsg32
(idecision_tree
continuous_decision_tree
p3036
(dp3037
g2
F2.5924199999999997
sg3
I39
sg4
(idecision_tree
decision_tree_leaf
p3038
(dp3039
g25
g26
(g27
tp3040
Rp3041
g30
I3
sS'Pn'
p3042
I1
ssg31
g30
sbsg32
(idecision_tree
decision_tree_leaf
p3043
(dp3044
g25
g26
(g27
tp3045
Rp3046
g30
I1
ssg31
g30
sbsbsbsbsbsg32
(idecision_tree
decision_tree_leaf
p3047
(dp3048
g25
g26
(g27
tp3049
Rp3050
g30
I2
ssg31
g30
sbsbsbsg32
(idecision_tree
decision_tree_leaf
p3051
(dp3052
g25
g26
(g27
tp3053
Rp3054
g30
I1
ssg31
g30
sbsbsbsg32
(idecision_tree
decision_tree_leaf
p3055
(dp3056
g25
g26
(g27
tp3057
Rp3058
g30
I1
ssg31
g30
sbsbsg32
(idecision_tree
continuous_decision_tree
p3059
(dp3060
g2
F78.7976
sg3
I40
sg4
(idecision_tree
continuous_decision_tree
p3061
(dp3062
g2
F-231.5
sg3
I67
sg4
(idecision_tree
continuous_decision_tree
p3063
(dp3064
g2
F80.5216
sg3
I40
sg4
(idecision_tree
continuous_decision_tree
p3065
(dp3066
g2
F0.863962
sg3
I34
sg4
(idecision_tree
continuous_decision_tree
p3067
(dp3068
g2
F0.975679
sg3
I35
sg4
(idecision_tree
decision_tree_leaf
p3069
(dp3070
g25
g26
(g27
tp3071
Rp3072
g30
I3
ssg31
g30
sbsg32
(idecision_tree
continuous_decision_tree
p3073
(dp3074
g2
F-229.5
sg3
I67
sg4
(idecision_tree
continuous_decision_tree
p3075
(dp3076
g2
F-228.0
sg3
I67
sg4
(idecision_tree
continuous_decision_tree
p3077
(dp3078
g2
F-217.25
sg3
I67
sg4
(idecision_tree
continuous_decision_tree
p3079
(dp3080
g2
F-201.75
sg3
I67
sg4
(idecision_tree
continuous_decision_tree
p3081
(dp3082
g2
F-195.25
sg3
I67
sg4
(idecision_tree
continuous_decision_tree
p3083
(dp3084
g2
F-193.0625
sg3
I67
sg4
(idecision_tree
decision_tree_leaf
p3085
(dp3086
g25
g26
(g27
tp3087
Rp3088
g131
I1
ssg31
g131
sbsg32
(idecision_tree
decision_tree_leaf
p3089
(dp3090
g25
g26
(g27
tp3091
Rp3092
g30
I1
ssg31
g30
sbsbsg32
(idecision_tree
decision_tree_leaf
p3093
(dp3094
g25
g26
(g27
tp3095
Rp3096
g30
I1
ssg31
g30
sbsbsg32
(idecision_tree
decision_tree_leaf
p3097
(dp3098
g25
g26
(g27
tp3099
Rp3100
g30
I1
ssg31
g30
sbsbsg32
(idecision_tree
decision_tree_leaf
p3101
(dp3102
g25
g26
(g27
tp3103
Rp3104
g30
I1
ssg31
g30
sbsbsg32
(idecision_tree
decision_tree_leaf
p3105
(dp3106
g25
g26
(g27
tp3107
Rp3108
g30
I1
ssg31
g30
sbsbsg32
(idecision_tree
decision_tree_leaf
p3109
(dp3110
g25
g26
(g27
tp3111
Rp3112
g30
I1
ssg31
g30
sbsbsbsg32
(idecision_tree
decision_tree_leaf
p3113
(dp3114
g25
g26
(g27
tp3115
Rp3116
g30
I1
ssg31
g30
sbsbsg32
(idecision_tree
decision_tree_leaf
p3117
(dp3118
g25
g26
(g27
tp3119
Rp3120
g30
I1
ssg31
g30
sbsbsg32
(idecision_tree
continuous_decision_tree
p3121
(dp3122
g2
F0.2088835
sg3
I50
sg4
(idecision_tree
decision_tree_leaf
p3123
(dp3124
g25
g26
(g27
tp3125
Rp3126
g30
I15
sS'Pn'
p3127
I1
ssg31
g30
sbsg32
(idecision_tree
decision_tree_leaf
p3128
(dp3129
g25
g26
(g27
tp3130
Rp3131
g30
I1
ssg31
g30
sbsbsbsg32
(idecision_tree
continuous_decision_tree
p3132
(dp3133
g2
F0.0712482
sg3
I51
sg4
(idecision_tree
continuous_decision_tree
p3134
(dp3135
g2
F0.214978
sg3
I38
sg4
(idecision_tree
continuous_decision_tree
p3136
(dp3137
g2
F-215.75
sg3
I67
sg4
(idecision_tree
decision_tree_leaf
p3138
(dp3139
g25
g26
(g27
tp3140
Rp3141
g30
I2
ssg31
g30
sbsg32
(idecision_tree
continuous_decision_tree
p3142
(dp3143
g2
F-1.5
sg3
I66
sg4
(idecision_tree
continuous_decision_tree
p3144
(dp3145
g2
F0.8834385
sg3
I35
sg4
(idecision_tree
continuous_decision_tree
p3146
(dp3147
g2
F0.9164715
sg3
I34
sg4
(idecision_tree
continuous_decision_tree
p3148
(dp3149
g2
F1.2593685
sg3
I48
sg4
(idecision_tree
decision_tree_leaf
p3150
(dp3151
g25
g26
(g27
tp3152
Rp3153
g30
I1
ssg31
g30
sbsg32
(idecision_tree
continuous_decision_tree
p3154
(dp3155
g2
F0.3308215
sg3
I52
sg4
(idecision_tree
decision_tree_leaf
p3156
(dp3157
g25
g26
(g27
tp3158
Rp3159
g30
I1
ssg31
g30
sbsg32
(idecision_tree
continuous_decision_tree
p3160
(dp3161
g2
F1.6140889999999999
sg3
I49
sg4
(idecision_tree
decision_tree_leaf
p3162
(dp3163
g25
g26
(g27
tp3164
Rp3165
g30
I1
ssg31
g30
sbsg32
(idecision_tree
continuous_decision_tree
p3166
(dp3167
g2
F1.8452250000000001
sg3
I39
sg4
(idecision_tree
continuous_decision_tree
p3168
(dp3169
g2
F-222.0
sg3
I67
sg4
(idecision_tree
decision_tree_leaf
p3170
(dp3171
g25
g26
(g27
tp3172
Rp3173
S'PKP'
p3174
I1
ssg31
g3174
sbsg32
(idecision_tree
decision_tree_leaf
p3175
(dp3176
g25
g26
(g27
tp3177
Rp3178
g30
I1
ssg31
g30
sbsbsg32
(idecision_tree
decision_tree_leaf
p3179
(dp3180
g25
g26
(g27
tp3181
Rp3182
g30
I1
ssg31
g30
sbsbsbsbsbsg32
(idecision_tree
decision_tree_leaf
p3183
(dp3184
g25
g26
(g27
tp3185
Rp3186
g30
I1
ssg31
g30
sbsbsg32
(idecision_tree
decision_tree_leaf
p3187
(dp3188
g25
g26
(g27
tp3189
Rp3190
g30
I1
ssg31
g30
sbsbsg32
(idecision_tree
decision_tree_leaf
p3191
(dp3192
g25
g26
(g27
tp3193
Rp3194
g30
I1
ssg31
g30
sbsbsbsg32
(idecision_tree
decision_tree_leaf
p3195
(dp3196
g25
g26
(g27
tp3197
Rp3198
g30
I1
ssg31
g30
sbsbsg32
(idecision_tree
decision_tree_leaf
p3199
(dp3200
g25
g26
(g27
tp3201
Rp3202
g30
I1
ssg31
g30
sbsbsbsbsg32
(idecision_tree
continuous_decision_tree
p3203
(dp3204
g2
F-1.0
sg3
I62
sg4
(idecision_tree
continuous_decision_tree
p3205
(dp3206
g2
F-1.0
sg3
I66
sg4
(idecision_tree
continuous_decision_tree
p3207
(dp3208
g2
F-6.0
sg3
I63
sg4
(idecision_tree
continuous_decision_tree
p3209
(dp3210
g2
F56.70835
sg3
I67
sg4
(idecision_tree
decision_tree_leaf
p3211
(dp3212
g25
g26
(g27
tp3213
Rp3214
g30
I1
ssg31
g30
sbsg32
(idecision_tree
continuous_decision_tree
p3215
(dp3216
g2
F0.6031555
sg3
I52
sg4
(idecision_tree
decision_tree_leaf
p3217
(dp3218
g25
g26
(g27
tp3219
Rp3220
g30
I1
ssg31
g30
sbsg32
(idecision_tree
continuous_decision_tree
p3221
(dp3222
g2
F1.0535465
sg3
I50
sg4
(idecision_tree
decision_tree_leaf
p3223
(dp3224
g25
g26
(g27
tp3225
Rp3226
g30
I1
ssg31
g30
sbsg32
(idecision_tree
continuous_decision_tree
p3227
(dp3228
g2
F14.746400000000001
sg3
I44
sg4
(idecision_tree
continuous_decision_tree
p3229
(dp3230
g2
F1.6247250000000002
sg3
I39
sg4
(idecision_tree
decision_tree_leaf
p3231
(dp3232
g25
g26
(g27
tp3233
Rp3234
g30
I7
sS'PKP'
p3235
I1
ssg31
g30
sbsg32
(idecision_tree
decision_tree_leaf
p3236
(dp3237
g25
g26
(g27
tp3238
Rp3239
g30
I1
ssg31
g30
sbsbsg32
(idecision_tree
decision_tree_leaf
p3240
(dp3241
g25
g26
(g27
tp3242
Rp3243
g30
I1
ssg31
g30
sbsbsbsbsbsg32
(idecision_tree
decision_tree_leaf
p3244
(dp3245
g25
g26
(g27
tp3246
Rp3247
g30
I17
sS'PKP'
p3248
I1
sS'Pn'
p3249
I1
ssg31
g30
sbsbsg32
(idecision_tree
continuous_decision_tree
p3250
(dp3251
g2
F0.9600005
sg3
I35
sg4
(idecision_tree
continuous_decision_tree
p3252
(dp3253
g2
F0.9470695
sg3
I52
sg4
(idecision_tree
decision_tree_leaf
p3254
(dp3255
g25
g26
(g27
tp3256
Rp3257
g30
I1
ssg31
g30
sbsg32
(idecision_tree
continuous_decision_tree
p3258
(dp3259
g2
F51.72005
sg3
I67
sg4
(idecision_tree
decision_tree_leaf
p3260
(dp3261
g25
g26
(g27
tp3262
Rp3263
g30
I1
ssg31
g30
sbsg32
(idecision_tree
continuous_decision_tree
p3264
(dp3265
g2
F-7.75
sg3
I63
sg4
(idecision_tree
decision_tree_leaf
p3266
(dp3267
g25
g26
(g27
tp3268
Rp3269
g30
I1
ssg31
g30
sbsg32
(idecision_tree
continuous_decision_tree
p3270
(dp3271
g2
F0.43743350000000003
sg3
I50
sg4
(idecision_tree
decision_tree_leaf
p3272
(dp3273
g25
g26
(g27
tp3274
Rp3275
g30
I1
ssg31
g30
sbsg32
(idecision_tree
continuous_decision_tree
p3276
(dp3277
g2
F0.35512
sg3
I49
sg4
(idecision_tree
continuous_decision_tree
p3278
(dp3279
g2
F-119.25
sg3
I67
sg4
(idecision_tree
continuous_decision_tree
p3280
(dp3281
g2
F-59.69645
sg3
I67
sg4
(idecision_tree
decision_tree_leaf
p3282
(dp3283
g25
g26
(g27
tp3284
Rp3285
S'Pn'
p3286
I1
ssg31
g3286
sbsg32
(idecision_tree
decision_tree_leaf
p3287
(dp3288
g25
g26
(g27
tp3289
Rp3290
g30
I1
ssg31
g30
sbsbsg32
(idecision_tree
decision_tree_leaf
p3291
(dp3292
g25
g26
(g27
tp3293
Rp3294
g30
I1
ssg31
g30
sbsbsg32
(idecision_tree
decision_tree_leaf
p3295
(dp3296
g25
g26
(g27
tp3297
Rp3298
g30
I1
ssg31
g30
sbsbsbsbsbsbsg32
(idecision_tree
decision_tree_leaf
p3299
(dp3300
g25
g26
(g27
tp3301
Rp3302
g30
I7
sS'Lg'
p3303
I1
ssg31
g30
sbsbsbsg32
(idecision_tree
continuous_decision_tree
p3304
(dp3305
g2
F0.975738
sg3
I35
sg4
(idecision_tree
continuous_decision_tree
p3306
(dp3307
g2
F-2.5
sg3
I66
sg4
(idecision_tree
decision_tree_leaf
p3308
(dp3309
g25
g26
(g27
tp3310
Rp3311
g30
I1
ssg31
g30
sbsg32
(idecision_tree
continuous_decision_tree
p3312
(dp3313
g2
F20.588865
sg3
I39
sg4
(idecision_tree
decision_tree_leaf
p3314
(dp3315
g25
g26
(g27
tp3316
Rp3317
g30
I1
ssg31
g30
sbsg32
(idecision_tree
continuous_decision_tree
p3318
(dp3319
g2
F-85.33335
sg3
I67
sg4
(idecision_tree
continuous_decision_tree
p3320
(dp3321
g2
F-17.6333
sg3
I63
sg4
(idecision_tree
continuous_decision_tree
p3322
(dp3323
g2
F0.570863
sg3
I48
sg4
(idecision_tree
continuous_decision_tree
p3324
(dp3325
g2
F-35.6667
sg3
I67
sg4
(idecision_tree
decision_tree_leaf
p3326
(dp3327
g25
g26
(g27
tp3328
Rp3329
g30
I1
ssg31
g30
sbsg32
(idecision_tree
decision_tree_leaf
p3330
(dp3331
g25
g26
(g27
tp3332
Rp3333
S'Lg'
p3334
I1
ssg31
g3334
sbsbsg32
(idecision_tree
decision_tree_leaf
p3335
(dp3336
g25
g26
(g27
tp3337
Rp3338
g30
I1
ssg31
g30
sbsbsg32
(idecision_tree
decision_tree_leaf
p3339
(dp3340
g25
g26
(g27
tp3341
Rp3342
g30
I1
ssg31
g30
sbsbsg32
(idecision_tree
decision_tree_leaf
p3343
(dp3344
g25
g26
(g27
tp3345
Rp3346
g30
I1
ssg31
g30
sbsbsbsbsg32
(idecision_tree
continuous_decision_tree
p3347
(dp3348
g2
F0.9350735
sg3
I34
sg4
(idecision_tree
continuous_decision_tree
p3349
(dp3350
g2
F-2.0
sg3
I66
sg4
(idecision_tree
decision_tree_leaf
p3351
(dp3352
g25
g26
(g27
tp3353
Rp3354
g30
I4
sS'Lg'
p3355
I1
ssg31
g30
sbsg32
(idecision_tree
decision_tree_leaf
p3356
(dp3357
g25
g26
(g27
tp3358
Rp3359
g30
I3
ssg31
g30
sbsbsg32
(idecision_tree
continuous_decision_tree
p3360
(dp3361
g2
F-15.678550000000001
sg3
I63
sg4
(idecision_tree
decision_tree_leaf
p3362
(dp3363
g25
g26
(g27
tp3364
Rp3365
g30
I4
sS'Lg'
p3366
I1
ssg31
g30
sbsg32
(idecision_tree
decision_tree_leaf
p3367
(dp3368
g25
g26
(g27
tp3369
Rp3370
g30
I1
ssg31
g30
sbsbsbsbsbsbsg32
(idecision_tree
continuous_decision_tree
p3371
(dp3372
g2
F-3.5
sg3
I58
sg4
(idecision_tree
continuous_decision_tree
p3373
(dp3374
g2
F-20.0
sg3
I67
sg4
(idecision_tree
decision_tree_leaf
p3375
(dp3376
g25
g26
(g27
tp3377
Rp3378
g30
I11
sS'Pn'
p3379
I1
ssg31
g30
sbsg32
(idecision_tree
continuous_decision_tree
p3380
(dp3381
g2
F0.8249299999999999
sg3
I50
sg4
(idecision_tree
continuous_decision_tree
p3382
(dp3383
g2
F-5.0
sg3
I66
sg4
(idecision_tree
continuous_decision_tree
p3384
(dp3385
g2
F0.0
sg3
I58
sg4
(idecision_tree
decision_tree_leaf
p3386
(dp3387
g25
g26
(g27
tp3388
Rp3389
g30
I5
sS'Pn'
p3390
I1
ssg31
g30
sbsg32
(idecision_tree
decision_tree_leaf
p3391
(dp3392
g25
g26
(g27
tp3393
Rp3394
g30
I4
ssg31
g30
sbsbsg32
(idecision_tree
decision_tree_leaf
p3395
(dp3396
g25
g26
(g27
tp3397
Rp3398
g30
I1
ssg31
g30
sbsbsg32
(idecision_tree
continuous_decision_tree
p3399
(dp3400
g2
F-16.9
sg3
I59
sg4
(idecision_tree
continuous_decision_tree
p3401
(dp3402
g2
F0.4545885
sg3
I52
sg4
(idecision_tree
continuous_decision_tree
p3403
(dp3404
g2
F1.1017365
sg3
I52
sg4
(idecision_tree
decision_tree_leaf
p3405
(dp3406
g25
g26
(g27
tp3407
Rp3408
g30
I1
ssg31
g30
sbsg32
(idecision_tree
continuous_decision_tree
p3409
(dp3410
g2
F0.788498
sg3
I51
sg4
(idecision_tree
decision_tree_leaf
p3411
(dp3412
g25
g26
(g27
tp3413
Rp3414
g30
I1
ssg31
g30
sbsg32
(idecision_tree
continuous_decision_tree
p3415
(dp3416
g2
F1.0
sg3
I8
sg4
(idecision_tree
continuous_decision_tree
p3417
(dp3418
g2
F-129.4
sg3
I67
sg4
(idecision_tree
decision_tree_leaf
p3419
(dp3420
g25
g26
(g27
tp3421
Rp3422
g30
I1
ssg31
g30
sbsg32
(idecision_tree
decision_tree_leaf
p3423
(dp3424
g25
g26
(g27
tp3425
Rp3426
S'Lg'
p3427
I1
ssg31
g3427
sbsbsg32
(idecision_tree
decision_tree_leaf
p3428
(dp3429
g25
g26
(g27
tp3430
Rp3431
g30
I6
ssg31
g30
sbsbsbsbsg32
(idecision_tree
continuous_decision_tree
p3432
(dp3433
g2
F-52.75
sg3
I67
sg4
(idecision_tree
decision_tree_leaf
p3434
(dp3435
g25
g26
(g27
tp3436
Rp3437
g30
I1
ssg31
g30
sbsg32
(idecision_tree
decision_tree_leaf
p3438
(dp3439
g25
g26
(g27
tp3440
Rp3441
g30
I9
sS'Pn'
p3442
I1
ssg31
g30
sbsbsbsg32
(idecision_tree
continuous_decision_tree
p3443
(dp3444
g2
F-28.4375
sg3
I59
sg4
(idecision_tree
continuous_decision_tree
p3445
(dp3446
g2
F0.12873345
sg3
I49
sg4
(idecision_tree
continuous_decision_tree
p3447
(dp3448
g2
F-4.5
sg3
I66
sg4
(idecision_tree
continuous_decision_tree
p3449
(dp3450
g2
F0.8269905
sg3
I35
sg4
(idecision_tree
continuous_decision_tree
p3451
(dp3452
g2
F0.666667
sg3
I8
sg4
(idecision_tree
continuous_decision_tree
p3453
(dp3454
g2
F0.37996850000000004
sg3
I50
sg4
(idecision_tree
continuous_decision_tree
p3455
(dp3456
g2
F-84.9
sg3
I67
sg4
(idecision_tree
decision_tree_leaf
p3457
(dp3458
g25
g26
(g27
tp3459
Rp3460
S'Sn'
p3461
I1
ssg31
g3461
sbsg32
(idecision_tree
decision_tree_leaf
p3462
(dp3463
g25
g26
(g27
tp3464
Rp3465
g30
I1
ssg31
g30
sbsbsg32
(idecision_tree
decision_tree_leaf
p3466
(dp3467
g25
g26
(g27
tp3468
Rp3469
g30
I1
ssg31
g30
sbsbsg32
(idecision_tree
decision_tree_leaf
p3470
(dp3471
g25
g26
(g27
tp3472
Rp3473
g30
I7
ssg31
g30
sbsbsg32
(idecision_tree
decision_tree_leaf
p3474
(dp3475
g25
g26
(g27
tp3476
Rp3477
g30
I1
ssg31
g30
sbsbsg32
(idecision_tree
decision_tree_leaf
p3478
(dp3479
g25
g26
(g27
tp3480
Rp3481
g30
I1
ssg31
g30
sbsbsg32
(idecision_tree
decision_tree_leaf
p3482
(dp3483
g25
g26
(g27
tp3484
Rp3485
g30
I1
ssg31
g30
sbsbsg32
(idecision_tree
continuous_decision_tree
p3486
(dp3487
g2
F-2.5
sg3
I58
sg4
(idecision_tree
continuous_decision_tree
p3488
(dp3489
g2
F0.774548
sg3
I52
sg4
(idecision_tree
decision_tree_leaf
p3490
(dp3491
g25
g26
(g27
tp3492
Rp3493
g30
I1
ssg31
g30
sbsg32
(idecision_tree
continuous_decision_tree
p3494
(dp3495
g2
F8.14249
sg3
I39
sg4
(idecision_tree
decision_tree_leaf
p3496
(dp3497
g25
g26
(g27
tp3498
Rp3499
g30
I1
ssg31
g30
sbsg32
(idecision_tree
continuous_decision_tree
p3500
(dp3501
g2
F0.666667
sg3
I8
sg4
(idecision_tree
continuous_decision_tree
p3502
(dp3503
g2
F0.22604760000000002
sg3
I51
sg4
(idecision_tree
decision_tree_leaf
p3504
(dp3505
g25
g26
(g27
tp3506
Rp3507
g30
I2
sS'Pn'
p3508
I1
ssg31
g30
sbsg32
(idecision_tree
decision_tree_leaf
p3509
(dp3510
g25
g26
(g27
tp3511
Rp3512
g30
I1
ssg31
g30
sbsbsg32
(idecision_tree
decision_tree_leaf
p3513
(dp3514
g25
g26
(g27
tp3515
Rp3516
g30
I3
ssg31
g30
sbsbsbsbsg32
(idecision_tree
decision_tree_leaf
p3517
(dp3518
g25
g26
(g27
tp3519
Rp3520
g30
I1
ssg31
g30
sbsbsbsbsbsbsg32
(idecision_tree
continuous_decision_tree
p3521
(dp3522
g2
F-20.75525
sg3
I63
sg4
(idecision_tree
decision_tree_leaf
p3523
(dp3524
g25
g26
(g27
tp3525
Rp3526
g30
I1
ssg31
g30
sbsg32
(idecision_tree
continuous_decision_tree
p3527
(dp3528
g2
F-18.9048
sg3
I59
sg4
(idecision_tree
decision_tree_leaf
p3529
(dp3530
g25
g26
(g27
tp3531
Rp3532
g30
I1
ssg31
g30
sbsg32
(idecision_tree
continuous_decision_tree
p3533
(dp3534
g2
F91.14165
sg3
I67
sg4
(idecision_tree
decision_tree_leaf
p3535
(dp3536
g25
g26
(g27
tp3537
Rp3538
g30
I2
ssg31
g30
sbsg32
(idecision_tree
continuous_decision_tree
p3539
(dp3540
g2
F-4.0
sg3
I66
sg4
(idecision_tree
continuous_decision_tree
p3541
(dp3542
g2
F-21.83335
sg3
I67
sg4
(idecision_tree
decision_tree_leaf
p3543
(dp3544
g25
g26
(g27
tp3545
Rp3546
S'Lg'
p3547
I1
ssg31
g3547
sbsg32
(idecision_tree
decision_tree_leaf
p3548
(dp3549
g25
g26
(g27
tp3550
Rp3551
g30
I1
ssg31
g30
sbsbsg32
(idecision_tree
decision_tree_leaf
p3552
(dp3553
g25
g26
(g27
tp3554
Rp3555
g30
I5
ssg31
g30
sbsbsbsbsbsbsbsg32
(idecision_tree
continuous_decision_tree
p3556
(dp3557
g2
F0.0
sg3
I62
sg4
(idecision_tree
continuous_decision_tree
p3558
(dp3559
g2
F0.0
sg3
I59
sg4
(idecision_tree
continuous_decision_tree
p3560
(dp3561
g2
F0.9332054999999999
sg3
I34
sg4
(idecision_tree
continuous_decision_tree
p3562
(dp3563
g2
F-68.5
sg3
I67
sg4
(idecision_tree
continuous_decision_tree
p3564
(dp3565
g2
F-1.0
sg3
I66
sg4
(idecision_tree
decision_tree_leaf
p3566
(dp3567
g25
g26
(g27
tp3568
Rp3569
g30
I17
sS'Pn'
p3570
I1
ssg31
g30
sbsg32
(idecision_tree
decision_tree_leaf
p3571
(dp3572
g25
g26
(g27
tp3573
Rp3574
g30
I1
ssg31
g30
sbsbsg32
(idecision_tree
continuous_decision_tree
p3575
(dp3576
g2
F0.9783515
sg3
I35
sg4
(idecision_tree
decision_tree_leaf
p3577
(dp3578
g25
g26
(g27
tp3579
Rp3580
g30
I53
sg131
I1
sS'Pn'
p3581
I2
ssg31
g30
sbsg32
(idecision_tree
continuous_decision_tree
p3582
(dp3583
g2
F-166.75
sg3
I67
sg4
(idecision_tree
continuous_decision_tree
p3584
(dp3585
g2
F8.75
sg3
I63
sg4
(idecision_tree
decision_tree_leaf
p3586
(dp3587
g25
g26
(g27
tp3588
Rp3589
g30
I1
ssg31
g30
sbsg32
(idecision_tree
continuous_decision_tree
p3590
(dp3591
g2
F0.152997
sg3
I52
sg4
(idecision_tree
continuous_decision_tree
p3592
(dp3593
g2
F0.927274
sg3
I35
sg4
(idecision_tree
continuous_decision_tree
p3594
(dp3595
g2
F0.42807700000000004
sg3
I51
sg4
(idecision_tree
decision_tree_leaf
p3596
(dp3597
g25
g26
(g27
tp3598
Rp3599
g30
I3
ssg31
g30
sbsg32
(idecision_tree
continuous_decision_tree
p3600
(dp3601
g2
F1.6242299999999998
sg3
I39
sg4
(idecision_tree
continuous_decision_tree
p3602
(dp3603
g2
F0.666667
sg3
I8
sg4
(idecision_tree
continuous_decision_tree
p3604
(dp3605
g2
F-79.0
sg3
I67
sg4
(idecision_tree
decision_tree_leaf
p3606
(dp3607
g25
g26
(g27
tp3608
Rp3609
S'Pn'
p3610
I1
ssg31
g3610
sbsg32
(idecision_tree
decision_tree_leaf
p3611
(dp3612
g25
g26
(g27
tp3613
Rp3614
g30
I1
ssg31
g30
sbsbsg32
(idecision_tree
decision_tree_leaf
p3615
(dp3616
g25
g26
(g27
tp3617
Rp3618
g30
I9
ssg31
g30
sbsbsg32
(idecision_tree
decision_tree_leaf
p3619
(dp3620
g25
g26
(g27
tp3621
Rp3622
g30
I2
ssg31
g30
sbsbsbsg32
(idecision_tree
decision_tree_leaf
p3623
(dp3624
g25
g26
(g27
tp3625
Rp3626
g30
I2
ssg31
g30
sbsbsg32
(idecision_tree
decision_tree_leaf
p3627
(dp3628
g25
g26
(g27
tp3629
Rp3630
g30
I1
ssg31
g30
sbsbsbsg32
(idecision_tree
continuous_decision_tree
p3631
(dp3632
g2
F0.5684545000000001
sg3
I50
sg4
(idecision_tree
decision_tree_leaf
p3633
(dp3634
g25
g26
(g27
tp3635
Rp3636
g30
I14
sg131
I1
ssg31
g30
sbsg32
(idecision_tree
continuous_decision_tree
p3637
(dp3638
g2
F0.980657
sg3
I34
sg4
(idecision_tree
decision_tree_leaf
p3639
(dp3640
g25
g26
(g27
tp3641
Rp3642
g30
I1
ssg31
g30
sbsg32
(idecision_tree
continuous_decision_tree
p3643
(dp3644
g2
F24.0
sg3
I63
sg4
(idecision_tree
decision_tree_leaf
p3645
(dp3646
g25
g26
(g27
tp3647
Rp3648
g30
I2
ssg31
g30
sbsg32
(idecision_tree
continuous_decision_tree
p3649
(dp3650
g2
F-2.5
sg3
I66
sg4
(idecision_tree
continuous_decision_tree
p3651
(dp3652
g2
F65.84305
sg3
I40
sg4
(idecision_tree
decision_tree_leaf
p3653
(dp3654
g25
g26
(g27
tp3655
Rp3656
g30
I2
ssg31
g30
sbsg32
(idecision_tree
continuous_decision_tree
p3657
(dp3658
g2
F3.6443399999999997
sg3
I39
sg4
(idecision_tree
decision_tree_leaf
p3659
(dp3660
g25
g26
(g27
tp3661
Rp3662
g30
I2
ssg31
g30
sbsg32
(idecision_tree
continuous_decision_tree
p3663
(dp3664
g2
F0.16629549999999998
sg3
I52
sg4
(idecision_tree
continuous_decision_tree
p3665
(dp3666
g2
F1.053925
sg3
I49
sg4
(idecision_tree
decision_tree_leaf
p3667
(dp3668
g25
g26
(g27
tp3669
Rp3670
g30
I3
ssg31
g30
sbsg32
(idecision_tree
continuous_decision_tree
p3671
(dp3672
g2
F-242.0
sg3
I67
sg4
(idecision_tree
continuous_decision_tree
p3673
(dp3674
g2
F-226.125
sg3
I67
sg4
(idecision_tree
continuous_decision_tree
p3675
(dp3676
g2
F-210.625
sg3
I67
sg4
(idecision_tree
continuous_decision_tree
p3677
(dp3678
g2
F-191.75
sg3
I67
sg4
(idecision_tree
continuous_decision_tree
p3679
(dp3680
g2
F-172.0
sg3
I67
sg4
(idecision_tree
decision_tree_leaf
p3681
(dp3682
g25
g26
(g27
tp3683
Rp3684
S'Pn'
p3685
I1
ssg31
g3685
sbsg32
(idecision_tree
decision_tree_leaf
p3686
(dp3687
g25
g26
(g27
tp3688
Rp3689
g30
I1
ssg31
g30
sbsbsg32
(idecision_tree
decision_tree_leaf
p3690
(dp3691
g25
g26
(g27
tp3692
Rp3693
g30
I1
ssg31
g30
sbsbsg32
(idecision_tree
decision_tree_leaf
p3694
(dp3695
g25
g26
(g27
tp3696
Rp3697
g30
I1
ssg31
g30
sbsbsg32
(idecision_tree
decision_tree_leaf
p3698
(dp3699
g25
g26
(g27
tp3700
Rp3701
g30
I1
ssg31
g30
sbsbsg32
(idecision_tree
decision_tree_leaf
p3702
(dp3703
g25
g26
(g27
tp3704
Rp3705
g30
I1
ssg31
g30
sbsbsbsg32
(idecision_tree
decision_tree_leaf
p3706
(dp3707
g25
g26
(g27
tp3708
Rp3709
g30
I2
ssg31
g30
sbsbsbsbsg32
(idecision_tree
decision_tree_leaf
p3710
(dp3711
g25
g26
(g27
tp3712
Rp3713
g30
I3
ssg31
g30
sbsbsbsbsbsbsbsbsg32
(idecision_tree
continuous_decision_tree
p3714
(dp3715
g2
F0.0
sg3
I63
sg4
(idecision_tree
decision_tree_leaf
p3716
(dp3717
g25
g26
(g27
tp3718
Rp3719
g30
I53
sg131
I2
sS'Pn'
p3720
I1
ssg31
g30
sbsg32
(idecision_tree
decision_tree_leaf
p3721
(dp3722
g25
g26
(g27
tp3723
Rp3724
g30
I1
ssg31
g30
sbsbsbsg32
(idecision_tree
continuous_decision_tree
p3725
(dp3726
g2
F-112.25
sg3
I67
sg4
(idecision_tree
continuous_decision_tree
p3727
(dp3728
g2
F-1.0
sg3
I66
sg4
(idecision_tree
decision_tree_leaf
p3729
(dp3730
g25
g26
(g27
tp3731
Rp3732
g30
I5
sS'Pn'
p3733
I1
sS'Lg'
p3734
I1
ssg31
g30
sbsg32
(idecision_tree
decision_tree_leaf
p3735
(dp3736
g25
g26
(g27
tp3737
Rp3738
g30
I1
ssg31
g30
sbsbsg32
(idecision_tree
decision_tree_leaf
p3739
(dp3740
g25
g26
(g27
tp3741
Rp3742
g30
I3
sg131
I1
ssg31
g30
sbsbsbsg32
(idecision_tree
continuous_decision_tree
p3743
(dp3744
g2
F-18.58335
sg3
I63
sg4
(idecision_tree
continuous_decision_tree
p3745
(dp3746
g2
F0.444444
sg3
I8
sg4
(idecision_tree
continuous_decision_tree
p3747
(dp3748
g2
F0.1919475
sg3
I52
sg4
(idecision_tree
continuous_decision_tree
p3749
(dp3750
g2
F-7.625
sg3
I67
sg4
(idecision_tree
continuous_decision_tree
p3751
(dp3752
g2
F-7.25
sg3
I63
sg4
(idecision_tree
continuous_decision_tree
p3753
(dp3754
g2
F0.666667
sg3
I8
sg4
(idecision_tree
continuous_decision_tree
p3755
(dp3756
g2
F-4.5
sg3
I66
sg4
(idecision_tree
continuous_decision_tree
p3757
(dp3758
g2
F11.666665
sg3
I63
sg4
(idecision_tree
decision_tree_leaf
p3759
(dp3760
g25
g26
(g27
tp3761
Rp3762
g30
I1
ssg31
g30
sbsg32
(idecision_tree
continuous_decision_tree
p3763
(dp3764
g2
F16.072915000000002
sg3
I59
sg4
(idecision_tree
decision_tree_leaf
p3765
(dp3766
g25
g26
(g27
tp3767
Rp3768
g30
I1
ssg31
g30
sbsg32
(idecision_tree
continuous_decision_tree
p3769
(dp3770
g2
F36.598965
sg3
I67
sg4
(idecision_tree
decision_tree_leaf
p3771
(dp3772
g25
g26
(g27
tp3773
Rp3774
g30
I1
ssg31
g30
sbsg32
(idecision_tree
continuous_decision_tree
p3775
(dp3776
g2
F72.96565000000001
sg3
I40
sg4
(idecision_tree
decision_tree_leaf
p3777
(dp3778
g25
g26
(g27
tp3779
Rp3780
g30
I1
ssg31
g30
sbsg32
(idecision_tree
continuous_decision_tree
p3781
(dp3782
g2
F5.09244
sg3
I39
sg4
(idecision_tree
decision_tree_leaf
p3783
(dp3784
g25
g26
(g27
tp3785
Rp3786
g30
I1
ssg31
g30
sbsg32
(idecision_tree
continuous_decision_tree
p3787
(dp3788
g2
F0.851082
sg3
I35
sg4
(idecision_tree
continuous_decision_tree
p3789
(dp3790
g2
F0.9189130000000001
sg3
I34
sg4
(idecision_tree
decision_tree_leaf
p3791
(dp3792
g25
g26
(g27
tp3793
Rp3794
g30
I5
sS'Lg'
p3795
I1
ssg31
g30
sbsg32
(idecision_tree
decision_tree_leaf
p3796
(dp3797
g25
g26
(g27
tp3798
Rp3799
g30
I1
ssg31
g30
sbsbsg32
(idecision_tree
decision_tree_leaf
p3800
(dp3801
g25
g26
(g27
tp3802
Rp3803
g30
I1
ssg31
g30
sbsbsbsbsbsbsbsg32
(idecision_tree
decision_tree_leaf
p3804
(dp3805
g25
g26
(g27
tp3806
Rp3807
g30
I1
ssg31
g30
sbsbsg32
(idecision_tree
continuous_decision_tree
p3808
(dp3809
g2
F1.1383595
sg3
I49
sg4
(idecision_tree
decision_tree_leaf
p3810
(dp3811
g25
g26
(g27
tp3812
Rp3813
g30
I1
ssg31
g30
sbsg32
(idecision_tree
continuous_decision_tree
p3814
(dp3815
g2
F6.92005
sg3
I39
sg4
(idecision_tree
decision_tree_leaf
p3816
(dp3817
g25
g26
(g27
tp3818
Rp3819
g30
I1
ssg31
g30
sbsg32
(idecision_tree
continuous_decision_tree
p3820
(dp3821
g2
F0.8368765
sg3
I48
sg4
(idecision_tree
decision_tree_leaf
p3822
(dp3823
g25
g26
(g27
tp3824
Rp3825
g30
I2
ssg31
g30
sbsg32
(idecision_tree
continuous_decision_tree
p3826
(dp3827
g2
F-6.275
sg3
I67
sg4
(idecision_tree
decision_tree_leaf
p3828
(dp3829
g25
g26
(g27
tp3830
Rp3831
g30
I3
ssg31
g30
sbsg32
(idecision_tree
decision_tree_leaf
p3832
(dp3833
g25
g26
(g27
tp3834
Rp3835
S'Lg'
p3836
I1
ssg31
g3836
sbsbsbsbsbsbsg32
(idecision_tree
continuous_decision_tree
p3837
(dp3838
g2
F5.486255
sg3
I39
sg4
(idecision_tree
decision_tree_leaf
p3839
(dp3840
g25
g26
(g27
tp3841
Rp3842
g30
I1
ssg31
g30
sbsg32
(idecision_tree
continuous_decision_tree
p3843
(dp3844
g2
F1.0
sg3
I8
sg4
(idecision_tree
continuous_decision_tree
p3845
(dp3846
g2
F62.55
sg3
I67
sg4
(idecision_tree
decision_tree_leaf
p3847
(dp3848
g25
g26
(g27
tp3849
Rp3850
g30
I1
ssg31
g30
sbsg32
(idecision_tree
decision_tree_leaf
p3851
(dp3852
g25
g26
(g27
tp3853
Rp3854
g131
I1
ssg31
g131
sbsbsg32
(idecision_tree
decision_tree_leaf
p3855
(dp3856
g25
g26
(g27
tp3857
Rp3858
g30
I8
ssg31
g30
sbsbsbsbsg32
(idecision_tree
continuous_decision_tree
p3859
(dp3860
g2
F-9.833335
sg3
I59
sg4
(idecision_tree
continuous_decision_tree
p3861
(dp3862
g2
F-94.45835
sg3
I67
sg4
(idecision_tree
continuous_decision_tree
p3863
(dp3864
g2
F-9.66667
sg3
I67
sg4
(idecision_tree
continuous_decision_tree
p3865
(dp3866
g2
F0.550726
sg3
I50
sg4
(idecision_tree
continuous_decision_tree
p3867
(dp3868
g2
F1.6785800000000002
sg3
I48
sg4
(idecision_tree
decision_tree_leaf
p3869
(dp3870
g25
g26
(g27
tp3871
Rp3872
g30
I1
ssg31
g30
sbsg32
(idecision_tree
continuous_decision_tree
p3873
(dp3874
g2
F71.9405
sg3
I40
sg4
(idecision_tree
decision_tree_leaf
p3875
(dp3876
g25
g26
(g27
tp3877
Rp3878
g30
I1
ssg31
g30
sbsg32
(idecision_tree
continuous_decision_tree
p3879
(dp3880
g2
F-9.083335
sg3
I67
sg4
(idecision_tree
decision_tree_leaf
p3881
(dp3882
g25
g26
(g27
tp3883
Rp3884
g30
I2
ssg31
g30
sbsg32
(idecision_tree
decision_tree_leaf
p3885
(dp3886
g25
g26
(g27
tp3887
Rp3888
S'Lg'
p3889
I1
ssg31
g3889
sbsbsbsbsg32
(idecision_tree
continuous_decision_tree
p3890
(dp3891
g2
F1.0328045000000001
sg3
I52
sg4
(idecision_tree
decision_tree_leaf
p3892
(dp3893
g25
g26
(g27
tp3894
Rp3895
g30
I1
ssg31
g30
sbsg32
(idecision_tree
continuous_decision_tree
p3896
(dp3897
g2
F1.497415
sg3
I39
sg4
(idecision_tree
continuous_decision_tree
p3898
(dp3899
g2
F-9.333335
sg3
I67
sg4
(idecision_tree
decision_tree_leaf
p3900
(dp3901
g25
g26
(g27
tp3902
Rp3903
g30
I6
ssg31
g30
sbsg32
(idecision_tree
decision_tree_leaf
p3904
(dp3905
g25
g26
(g27
tp3906
Rp3907
S'Sn'
p3908
I1
ssg31
g3908
sbsbsg32
(idecision_tree
decision_tree_leaf
p3909
(dp3910
g25
g26
(g27
tp3911
Rp3912
g30
I1
ssg31
g30
sbsbsbsbsg32
(idecision_tree
decision_tree_leaf
p3913
(dp3914
g25
g26
(g27
tp3915
Rp3916
g30
I8
ssg31
g30
sbsbsg32
(idecision_tree
continuous_decision_tree
p3917
(dp3918
g2
F-8.75
sg3
I63
sg4
(idecision_tree
continuous_decision_tree
p3919
(dp3920
g2
F0.3237085
sg3
I50
sg4
(idecision_tree
continuous_decision_tree
p3921
(dp3922
g2
F1.346417
sg3
I49
sg4
(idecision_tree
decision_tree_leaf
p3923
(dp3924
g25
g26
(g27
tp3925
Rp3926
g30
I1
ssg31
g30
sbsg32
(idecision_tree
continuous_decision_tree
p3927
(dp3928
g2
F43.37225
sg3
I40
sg4
(idecision_tree
continuous_decision_tree
p3929
(dp3930
g2
F1.9857735
sg3
I48
sg4
(idecision_tree
decision_tree_leaf
p3931
(dp3932
g25
g26
(g27
tp3933
Rp3934
g30
I1
ssg31
g30
sbsg32
(idecision_tree
continuous_decision_tree
p3935
(dp3936
g2
F-1.0
sg3
I62
sg4
(idecision_tree
decision_tree_leaf
p3937
(dp3938
g25
g26
(g27
tp3939
Rp3940
g30
I4
sS'Pn'
p3941
I1
ssg31
g30
sbsg32
(idecision_tree
decision_tree_leaf
p3942
(dp3943
g25
g26
(g27
tp3944
Rp3945
g30
I1
ssg31
g30
sbsbsbsg32
(idecision_tree
decision_tree_leaf
p3946
(dp3947
g25
g26
(g27
tp3948
Rp3949
g30
I1
ssg31
g30
sbsbsbsg32
(idecision_tree
decision_tree_leaf
p3950
(dp3951
g25
g26
(g27
tp3952
Rp3953
g30
I1
ssg31
g30
sbsbsg32
(idecision_tree
decision_tree_leaf
p3954
(dp3955
g25
g26
(g27
tp3956
Rp3957
g30
I1
ssg31
g30
sbsbsbsg32
(idecision_tree
continuous_decision_tree
p3958
(dp3959
g2
F-1.0
sg3
I66
sg4
(idecision_tree
continuous_decision_tree
p3960
(dp3961
g2
F-17.0
sg3
I67
sg4
(idecision_tree
continuous_decision_tree
p3962
(dp3963
g2
F72.06264999999999
sg3
I40
sg4
(idecision_tree
decision_tree_leaf
p3964
(dp3965
g25
g26
(g27
tp3966
Rp3967
g30
I2
ssg31
g30
sbsg32
(idecision_tree
continuous_decision_tree
p3968
(dp3969
g2
F3.67264
sg3
I39
sg4
(idecision_tree
decision_tree_leaf
p3970
(dp3971
g25
g26
(g27
tp3972
Rp3973
g30
I2
ssg31
g30
sbsg32
(idecision_tree
continuous_decision_tree
p3974
(dp3975
g2
F0.4474095
sg3
I38
sg4
(idecision_tree
decision_tree_leaf
p3976
(dp3977
g25
g26
(g27
tp3978
Rp3979
g30
I2
ssg31
g30
sbsg32
(idecision_tree
continuous_decision_tree
p3980
(dp3981
g2
F42.90205
sg3
I44
sg4
(idecision_tree
decision_tree_leaf
p3982
(dp3983
g25
g26
(g27
tp3984
Rp3985
g30
I2
ssg31
g30
sbsg32
(idecision_tree
continuous_decision_tree
p3986
(dp3987
g2
F0.4731455
sg3
I50
sg4
(idecision_tree
decision_tree_leaf
p3988
(dp3989
g25
g26
(g27
tp3990
Rp3991
g30
I1
ssg31
g30
sbsg32
(idecision_tree
continuous_decision_tree
p3992
(dp3993
g2
F0.666667
sg3
I8
sg4
(idecision_tree
decision_tree_leaf
p3994
(dp3995
g25
g26
(g27
tp3996
Rp3997
g30
I5
sS'Pn'
p3998
I1
ssg31
g30
sbsg32
(idecision_tree
decision_tree_leaf
p3999
(dp4000
g25
g26
(g27
tp4001
Rp4002
g30
I3
ssg31
g30
sbsbsbsbsbsbsbsg32
(idecision_tree
decision_tree_leaf
p4003
(dp4004
g25
g26
(g27
tp4005
Rp4006
g30
I1
ssg31
g30
sbsbsg32
(idecision_tree
continuous_decision_tree
p4007
(dp4008
g2
F-14.25
sg3
I67
sg4
(idecision_tree
continuous_decision_tree
p4009
(dp4010
g2
F0.7542125
sg3
I51
sg4
(idecision_tree
decision_tree_leaf
p4011
(dp4012
g25
g26
(g27
tp4013
Rp4014
g30
I1
ssg31
g30
sbsg32
(idecision_tree
continuous_decision_tree
p4015
(dp4016
g2
F-13.0
sg3
I67
sg4
(idecision_tree
continuous_decision_tree
p4017
(dp4018
g2
F0.8468715
sg3
I50
sg4
(idecision_tree
decision_tree_leaf
p4019
(dp4020
g25
g26
(g27
tp4021
Rp4022
g30
I1
ssg31
g30
sbsg32
(idecision_tree
continuous_decision_tree
p4023
(dp4024
g2
F-2.0
sg3
I66
sg4
(idecision_tree
continuous_decision_tree
p4025
(dp4026
g2
F0.4785155
sg3
I38
sg4
(idecision_tree
decision_tree_leaf
p4027
(dp4028
g25
g26
(g27
tp4029
Rp4030
g30
I1
ssg31
g30
sbsg32
(idecision_tree
decision_tree_leaf
p4031
(dp4032
g25
g26
(g27
tp4033
Rp4034
g30
I3
sS'Lg'
p4035
I1
ssg31
g30
sbsbsg32
(idecision_tree
decision_tree_leaf
p4036
(dp4037
g25
g26
(g27
tp4038
Rp4039
g30
I1
ssg31
g30
sbsbsbsg32
(idecision_tree
decision_tree_leaf
p4040
(dp4041
g25
g26
(g27
tp4042
Rp4043
g30
I1
ssg31
g30
sbsbsbsg32
(idecision_tree
continuous_decision_tree
p4044
(dp4045
g2
F-65.2
sg3
I67
sg4
(idecision_tree
continuous_decision_tree
p4046
(dp4047
g2
F3.72269
sg3
I39
sg4
(idecision_tree
decision_tree_leaf
p4048
(dp4049
g25
g26
(g27
tp4050
Rp4051
g30
I1
ssg31
g30
sbsg32
(idecision_tree
continuous_decision_tree
p4052
(dp4053
g2
F0.8660615
sg3
I34
sg4
(idecision_tree
continuous_decision_tree
p4054
(dp4055
g2
F1.0
sg3
I8
sg4
(idecision_tree
continuous_decision_tree
p4056
(dp4057
g2
F-16.5
sg3
I67
sg4
(idecision_tree
decision_tree_leaf
p4058
(dp4059
g25
g26
(g27
tp4060
Rp4061
g131
I1
ssg31
g131
sbsg32
(idecision_tree
decision_tree_leaf
p4062
(dp4063
g25
g26
(g27
tp4064
Rp4065
g30
I1
ssg31
g30
sbsbsg32
(idecision_tree
decision_tree_leaf
p4066
(dp4067
g25
g26
(g27
tp4068
Rp4069
g30
I5
ssg31
g30
sbsbsg32
(idecision_tree
decision_tree_leaf
p4070
(dp4071
g25
g26
(g27
tp4072
Rp4073
g30
I1
ssg31
g30
sbsbsbsg32
(idecision_tree
continuous_decision_tree
p4074
(dp4075
g2
F-7.0
sg3
I66
sg4
(idecision_tree
continuous_decision_tree
p4076
(dp4077
g2
F0.26097400000000004
sg3
I52
sg4
(idecision_tree
continuous_decision_tree
p4078
(dp4079
g2
F0.651662
sg3
I50
sg4
(idecision_tree
decision_tree_leaf
p4080
(dp4081
g25
g26
(g27
tp4082
Rp4083
g30
I1
ssg31
g30
sbsg32
(idecision_tree
continuous_decision_tree
p4084
(dp4085
g2
F0.5372455
sg3
I51
sg4
(idecision_tree
decision_tree_leaf
p4086
(dp4087
g25
g26
(g27
tp4088
Rp4089
g30
I1
ssg31
g30
sbsg32
(idecision_tree
continuous_decision_tree
p4090
(dp4091
g2
F0.6544515
sg3
I48
sg4
(idecision_tree
continuous_decision_tree
p4092
(dp4093
g2
F-76.97915
sg3
I67
sg4
(idecision_tree
continuous_decision_tree
p4094
(dp4095
g2
F-70.95
sg3
I67
sg4
(idecision_tree
decision_tree_leaf
p4096
(dp4097
g25
g26
(g27
tp4098
Rp4099
S'Pn'
p4100
I1
ssg31
g4100
sbsg32
(idecision_tree
decision_tree_leaf
p4101
(dp4102
g25
g26
(g27
tp4103
Rp4104
g30
I1
ssg31
g30
sbsbsg32
(idecision_tree
decision_tree_leaf
p4105
(dp4106
g25
g26
(g27
tp4107
Rp4108
g30
I1
ssg31
g30
sbsbsg32
(idecision_tree
decision_tree_leaf
p4109
(dp4110
g25
g26
(g27
tp4111
Rp4112
g30
I1
ssg31
g30
sbsbsbsbsg32
(idecision_tree
decision_tree_leaf
p4113
(dp4114
g25
g26
(g27
tp4115
Rp4116
g30
I1
ssg31
g30
sbsbsg32
(idecision_tree
decision_tree_leaf
p4117
(dp4118
g25
g26
(g27
tp4119
Rp4120
g30
I1
ssg31
g30
sbsbsbsbsbsbsbsg32
(idecision_tree
continuous_decision_tree
p4121
(dp4122
g2
F-1.0
sg3
I66
sg4
(idecision_tree
decision_tree_leaf
p4123
(dp4124
g25
g26
(g27
tp4125
Rp4126
g30
I4
sS'Pn'
p4127
I1
ssg31
g30
sbsg32
(idecision_tree
decision_tree_leaf
p4128
(dp4129
g25
g26
(g27
tp4130
Rp4131
g30
I7
ssg31
g30
sbsbsbsg32
(idecision_tree
continuous_decision_tree
p4132
(dp4133
g2
F-54.66665
sg3
I67
sg4
(idecision_tree
continuous_decision_tree
p4134
(dp4135
g2
F-7.33333
sg3
I59
sg4
(idecision_tree
continuous_decision_tree
p4136
(dp4137
g2
F3.3967850000000004
sg3
I39
sg4
(idecision_tree
continuous_decision_tree
p4138
(dp4139
g2
F10.353100000000001
sg3
I67
sg4
(idecision_tree
decision_tree_leaf
p4140
(dp4141
g25
g26
(g27
tp4142
Rp4143
g30
I1
ssg31
g30
sbsg32
(idecision_tree
decision_tree_leaf
p4144
(dp4145
g25
g26
(g27
tp4146
Rp4147
S'Lg'
p4148
I1
ssg31
g4148
sbsbsg32
(idecision_tree
continuous_decision_tree
p4149
(dp4150
g2
F-6.375
sg3
I67
sg4
(idecision_tree
decision_tree_leaf
p4151
(dp4152
g25
g26
(g27
tp4153
Rp4154
g30
I1
ssg31
g30
sbsg32
(idecision_tree
decision_tree_leaf
p4155
(dp4156
g25
g26
(g27
tp4157
Rp4158
S'Sn'
p4159
I1
ssg31
g4159
sbsbsbsg32
(idecision_tree
decision_tree_leaf
p4160
(dp4161
g25
g26
(g27
tp4162
Rp4163
g30
I1
ssg31
g30
sbsbsg32
(idecision_tree
decision_tree_leaf
p4164
(dp4165
g25
g26
(g27
tp4166
Rp4167
g30
I2
sS'Pn'
p4168
I1
ssg31
g30
sbsbsbsg32
(idecision_tree
continuous_decision_tree
p4169
(dp4170
g2
F68.06845
sg3
I40
sg4
(idecision_tree
continuous_decision_tree
p4171
(dp4172
g2
F-50.0
sg3
I63
sg4
(idecision_tree
continuous_decision_tree
p4173
(dp4174
g2
F-30.82145
sg3
I63
sg4
(idecision_tree
continuous_decision_tree
p4175
(dp4176
g2
F91.625
sg3
I67
sg4
(idecision_tree
decision_tree_leaf
p4177
(dp4178
g25
g26
(g27
tp4179
Rp4180
g30
I1
ssg31
g30
sbsg32
(idecision_tree
continuous_decision_tree
p4181
(dp4182
g2
F-19.75
sg3
I63
sg4
(idecision_tree
decision_tree_leaf
p4183
(dp4184
g25
g26
(g27
tp4185
Rp4186
g30
I1
ssg31
g30
sbsg32
(idecision_tree
continuous_decision_tree
p4187
(dp4188
g2
F-7.25
sg3
I59
sg4
(idecision_tree
decision_tree_leaf
p4189
(dp4190
g25
g26
(g27
tp4191
Rp4192
g30
I1
ssg31
g30
sbsg32
(idecision_tree
continuous_decision_tree
p4193
(dp4194
g2
F85.48564999999999
sg3
I44
sg4
(idecision_tree
decision_tree_leaf
p4195
(dp4196
g25
g26
(g27
tp4197
Rp4198
g30
I1
ssg31
g30
sbsg32
(idecision_tree
continuous_decision_tree
p4199
(dp4200
g2
F0.617985
sg3
I48
sg4
(idecision_tree
decision_tree_leaf
p4201
(dp4202
g25
g26
(g27
tp4203
Rp4204
g30
I1
ssg31
g30
sbsg32
(idecision_tree
continuous_decision_tree
p4205
(dp4206
g2
F5.00802
sg3
I39
sg4
(idecision_tree
decision_tree_leaf
p4207
(dp4208
g25
g26
(g27
tp4209
Rp4210
g30
I1
ssg31
g30
sbsg32
(idecision_tree
continuous_decision_tree
p4211
(dp4212
g2
F-64.5
sg3
I67
sg4
(idecision_tree
continuous_decision_tree
p4213
(dp4214
g2
F-21.66665
sg3
I67
sg4
(idecision_tree
continuous_decision_tree
p4215
(dp4216
g2
F-20.91665
sg3
I67
sg4
(idecision_tree
decision_tree_leaf
p4217
(dp4218
g25
g26
(g27
tp4219
Rp4220
S'Lg'
p4221
I1
ssg31
g4221
sbsg32
(idecision_tree
decision_tree_leaf
p4222
(dp4223
g25
g26
(g27
tp4224
Rp4225
g30
I1
ssg31
g30
sbsbsg32
(idecision_tree
decision_tree_leaf
p4226
(dp4227
g25
g26
(g27
tp4228
Rp4229
g30
I1
ssg31
g30
sbsbsg32
(idecision_tree
decision_tree_leaf
p4230
(dp4231
g25
g26
(g27
tp4232
Rp4233
g30
I1
ssg31
g30
sbsbsbsbsbsbsbsbsg32
(idecision_tree
continuous_decision_tree
p4234
(dp4235
g2
F-7.5
sg3
I66
sg4
(idecision_tree
continuous_decision_tree
p4236
(dp4237
g2
F-92.125
sg3
I67
sg4
(idecision_tree
continuous_decision_tree
p4238
(dp4239
g2
F-6.5
sg3
I62
sg4
(idecision_tree
continuous_decision_tree
p4240
(dp4241
g2
F-20.0
sg3
I59
sg4
(idecision_tree
decision_tree_leaf
p4242
(dp4243
g25
g26
(g27
tp4244
Rp4245
g30
I1
ssg31
g30
sbsg32
(idecision_tree
continuous_decision_tree
p4246
(dp4247
g2
F0.28273499999999996
sg3
I50
sg4
(idecision_tree
continuous_decision_tree
p4248
(dp4249
g2
F0.278145
sg3
I51
sg4
(idecision_tree
continuous_decision_tree
p4250
(dp4251
g2
F0.2038215
sg3
I38
sg4
(idecision_tree
continuous_decision_tree
p4252
(dp4253
g2
F29.5415
sg3
I67
sg4
(idecision_tree
decision_tree_leaf
p4254
(dp4255
g25
g26
(g27
tp4256
Rp4257
g30
I1
ssg31
g30
sbsg32
(idecision_tree
decision_tree_leaf
p4258
(dp4259
g25
g26
(g27
tp4260
Rp4261
S'PKP'
p4262
I1
ssg31
g4262
sbsbsg32
(idecision_tree
decision_tree_leaf
p4263
(dp4264
g25
g26
(g27
tp4265
Rp4266
g30
I1
ssg31
g30
sbsbsg32
(idecision_tree
decision_tree_leaf
p4267
(dp4268
g25
g26
(g27
tp4269
Rp4270
g30
I1
ssg31
g30
sbsbsg32
(idecision_tree
decision_tree_leaf
p4271
(dp4272
g25
g26
(g27
tp4273
Rp4274
g30
I1
ssg31
g30
sbsbsbsg32
(idecision_tree
decision_tree_leaf
p4275
(dp4276
g25
g26
(g27
tp4277
Rp4278
g30
I1
ssg31
g30
sbsbsg32
(idecision_tree
decision_tree_leaf
p4279
(dp4280
g25
g26
(g27
tp4281
Rp4282
g30
I1
ssg31
g30
sbsbsg32
(idecision_tree
decision_tree_leaf
p4283
(dp4284
g25
g26
(g27
tp4285
Rp4286
g30
I1
ssg31
g30
sbsbsbsg32
(idecision_tree
decision_tree_leaf
p4287
(dp4288
g25
g26
(g27
tp4289
Rp4290
g30
I8
sS'Pn'
p4291
I1
ssg31
g30
sbsbsg32
(idecision_tree
continuous_decision_tree
p4292
(dp4293
g2
F-20.33335
sg3
I63
sg4
(idecision_tree
continuous_decision_tree
p4294
(dp4295
g2
F-1.0
sg3
I58
sg4
(idecision_tree
decision_tree_leaf
p4296
(dp4297
g25
g26
(g27
tp4298
Rp4299
g30
I2
sS'Lg'
p4300
I1
ssg31
g30
sbsg32
(idecision_tree
decision_tree_leaf
p4301
(dp4302
g25
g26
(g27
tp4303
Rp4304
g30
I6
ssg31
g30
sbsbsg32
(idecision_tree
continuous_decision_tree
p4305
(dp4306
g2
F0.9850540000000001
sg3
I34
sg4
(idecision_tree
continuous_decision_tree
p4307
(dp4308
g2
F-36.333349999999996
sg3
I59
sg4
(idecision_tree
continuous_decision_tree
p4309
(dp4310
g2
F-2.0
sg3
I66
sg4
(idecision_tree
continuous_decision_tree
p4311
(dp4312
g2
F1.072185
sg3
I48
sg4
(idecision_tree
continuous_decision_tree
p4313
(dp4314
g2
F-26.75
sg3
I63
sg4
(idecision_tree
decision_tree_leaf
p4315
(dp4316
g25
g26
(g27
tp4317
Rp4318
g30
I1
ssg31
g30
sbsg32
(idecision_tree
continuous_decision_tree
p4319
(dp4320
g2
F0.8979725000000001
sg3
I52
sg4
(idecision_tree
decision_tree_leaf
p4321
(dp4322
g25
g26
(g27
tp4323
Rp4324
g30
I1
ssg31
g30
sbsg32
(idecision_tree
continuous_decision_tree
p4325
(dp4326
g2
F15.625
sg3
I67
sg4
(idecision_tree
continuous_decision_tree
p4327
(dp4328
g2
F138.8125
sg3
I67
sg4
(idecision_tree
decision_tree_leaf
p4329
(dp4330
g25
g26
(g27
tp4331
Rp4332
g131
I1
ssg31
g131
sbsg32
(idecision_tree
decision_tree_leaf
p4333
(dp4334
g25
g26
(g27
tp4335
Rp4336
g30
I1
ssg31
g30
sbsbsg32
(idecision_tree
decision_tree_leaf
p4337
(dp4338
g25
g26
(g27
tp4339
Rp4340
g30
I1
ssg31
g30
sbsbsbsbsg32
(idecision_tree
continuous_decision_tree
p4341
(dp4342
g2
F0.7701884999999999
sg3
I51
sg4
(idecision_tree
decision_tree_leaf
p4343
(dp4344
g25
g26
(g27
tp4345
Rp4346
g30
I1
ssg31
g30
sbsg32
(idecision_tree
continuous_decision_tree
p4347
(dp4348
g2
F1.0355745
sg3
I50
sg4
(idecision_tree
decision_tree_leaf
p4349
(dp4350
g25
g26
(g27
tp4351
Rp4352
g30
I1
ssg31
g30
sbsg32
(idecision_tree
continuous_decision_tree
p4353
(dp4354
g2
F-89.5
sg3
I63
sg4
(idecision_tree
continuous_decision_tree
p4355
(dp4356
g2
F0.45665849999999997
sg3
I48
sg4
(idecision_tree
continuous_decision_tree
p4357
(dp4358
g2
F-32.083335
sg3
I67
sg4
(idecision_tree
decision_tree_leaf
p4359
(dp4360
g25
g26
(g27
tp4361
Rp4362
S'Pn'
p4363
I1
ssg31
g4363
sbsg32
(idecision_tree
decision_tree_leaf
p4364
(dp4365
g25
g26
(g27
tp4366
Rp4367
g30
I1
ssg31
g30
sbsbsg32
(idecision_tree
decision_tree_leaf
p4368
(dp4369
g25
g26
(g27
tp4370
Rp4371
g30
I1
ssg31
g30
sbsbsg32
(idecision_tree
decision_tree_leaf
p4372
(dp4373
g25
g26
(g27
tp4374
Rp4375
g30
I1
ssg31
g30
sbsbsbsbsbsg32
(idecision_tree
decision_tree_leaf
p4376
(dp4377
g25
g26
(g27
tp4378
Rp4379
g30
I8
ssg31
g30
sbsbsg32
(idecision_tree
continuous_decision_tree
p4380
(dp4381
g2
F1.52718
sg3
I39
sg4
(idecision_tree
continuous_decision_tree
p4382
(dp4383
g2
F0.9864675
sg3
I35
sg4
(idecision_tree
continuous_decision_tree
p4384
(dp4385
g2
F-45.25
sg3
I67
sg4
(idecision_tree
decision_tree_leaf
p4386
(dp4387
g25
g26
(g27
tp4388
Rp4389
g30
I2
ssg31
g30
sbsg32
(idecision_tree
continuous_decision_tree
p4390
(dp4391
g2
F2.1658049999999998
sg3
I48
sg4
(idecision_tree
decision_tree_leaf
p4392
(dp4393
g25
g26
(g27
tp4394
Rp4395
g30
I1
ssg31
g30
sbsg32
(idecision_tree
continuous_decision_tree
p4396
(dp4397
g2
F-78.33335
sg3
I67
sg4
(idecision_tree
continuous_decision_tree
p4398
(dp4399
g2
F-52.25
sg3
I67
sg4
(idecision_tree
continuous_decision_tree
p4400
(dp4401
g2
F-46.0
sg3
I67
sg4
(idecision_tree
decision_tree_leaf
p4402
(dp4403
g25
g26
(g27
tp4404
Rp4405
S'Pn'
p4406
I1
ssg31
g4406
sbsg32
(idecision_tree
decision_tree_leaf
p4407
(dp4408
g25
g26
(g27
tp4409
Rp4410
g30
I1
ssg31
g30
sbsbsg32
(idecision_tree
decision_tree_leaf
p4411
(dp4412
g25
g26
(g27
tp4413
Rp4414
g30
I1
ssg31
g30
sbsbsg32
(idecision_tree
decision_tree_leaf
p4415
(dp4416
g25
g26
(g27
tp4417
Rp4418
g30
I1
ssg31
g30
sbsbsbsbsg32
(idecision_tree
decision_tree_leaf
p4419
(dp4420
g25
g26
(g27
tp4421
Rp4422
g30
I1
ssg31
g30
sbsbsg32
(idecision_tree
decision_tree_leaf
p4423
(dp4424
g25
g26
(g27
tp4425
Rp4426
g30
I1
ssg31
g30
sbsbsbsg32
(idecision_tree
continuous_decision_tree
p4427
(dp4428
g2
F-2.0
sg3
I66
sg4
(idecision_tree
continuous_decision_tree
p4429
(dp4430
g2
F57.316050000000004
sg3
I40
sg4
(idecision_tree
continuous_decision_tree
p4431
(dp4432
g2
F-28.625
sg3
I67
sg4
(idecision_tree
continuous_decision_tree
p4433
(dp4434
g2
F0.7045195
sg3
I51
sg4
(idecision_tree
decision_tree_leaf
p4435
(dp4436
g25
g26
(g27
tp4437
Rp4438
g30
I1
ssg31
g30
sbsg32
(idecision_tree
continuous_decision_tree
p4439
(dp4440
g2
F-15.5
sg3
I67
sg4
(idecision_tree
continuous_decision_tree
p4441
(dp4442
g2
F59.3183
sg3
I40
sg4
(idecision_tree
continuous_decision_tree
p4443
(dp4444
g2
F0.9768975
sg3
I34
sg4
(idecision_tree
decision_tree_leaf
p4445
(dp4446
g25
g26
(g27
tp4447
Rp4448
g30
I1
ssg31
g30
sbsg32
(idecision_tree
continuous_decision_tree
p4449
(dp4450
g2
F-66.75
sg3
I63
sg4
(idecision_tree
continuous_decision_tree
p4451
(dp4452
g2
F0.3951095
sg3
I52
sg4
(idecision_tree
continuous_decision_tree
p4453
(dp4454
g2
F0.943649
sg3
I35
sg4
(idecision_tree
continuous_decision_tree
p4455
(dp4456
g2
F26.375
sg3
I67
sg4
(idecision_tree
decision_tree_leaf
p4457
(dp4458
g25
g26
(g27
tp4459
Rp4460
g30
I1
ssg31
g30
sbsg32
(idecision_tree
decision_tree_leaf
p4461
(dp4462
g25
g26
(g27
tp4463
Rp4464
g131
I1
ssg31
g131
sbsbsg32
(idecision_tree
decision_tree_leaf
p4465
(dp4466
g25
g26
(g27
tp4467
Rp4468
g30
I1
ssg31
g30
sbsbsg32
(idecision_tree
decision_tree_leaf
p4469
(dp4470
g25
g26
(g27
tp4471
Rp4472
g30
I1
ssg31
g30
sbsbsg32
(idecision_tree
decision_tree_leaf
p4473
(dp4474
g25
g26
(g27
tp4475
Rp4476
g30
I2
ssg31
g30
sbsbsbsg32
(idecision_tree
decision_tree_leaf
p4477
(dp4478
g25
g26
(g27
tp4479
Rp4480
g30
I1
ssg31
g30
sbsbsg32
(idecision_tree
decision_tree_leaf
p4481
(dp4482
g25
g26
(g27
tp4483
Rp4484
g30
I1
ssg31
g30
sbsbsbsg32
(idecision_tree
continuous_decision_tree
p4485
(dp4486
g2
F-1.0
sg3
I66
sg4
(idecision_tree
continuous_decision_tree
p4487
(dp4488
g2
F-23.625
sg3
I59
sg4
(idecision_tree
decision_tree_leaf
p4489
(dp4490
g25
g26
(g27
tp4491
Rp4492
g30
I6
sS'Pn'
p4493
I1
ssg31
g30
sbsg32
(idecision_tree
continuous_decision_tree
p4494
(dp4495
g2
F0.2285395
sg3
I38
sg4
(idecision_tree
continuous_decision_tree
p4496
(dp4497
g2
F0.2165955
sg3
I50
sg4
(idecision_tree
decision_tree_leaf
p4498
(dp4499
g25
g26
(g27
tp4500
Rp4501
g30
I4
sS'Pn'
p4502
I1
ssg31
g30
sbsg32
(idecision_tree
decision_tree_leaf
p4503
(dp4504
g25
g26
(g27
tp4505
Rp4506
g30
I1
ssg31
g30
sbsbsg32
(idecision_tree
decision_tree_leaf
p4507
(dp4508
g25
g26
(g27
tp4509
Rp4510
g30
I1
ssg31
g30
sbsbsbsg32
(idecision_tree
decision_tree_leaf
p4511
(dp4512
g25
g26
(g27
tp4513
Rp4514
g30
I7
ssg31
g30
sbsbsbsg32
(idecision_tree
continuous_decision_tree
p4515
(dp4516
g2
F-75.08335
sg3
I63
sg4
(idecision_tree
continuous_decision_tree
p4517
(dp4518
g2
F0.436365
sg3
I51
sg4
(idecision_tree
continuous_decision_tree
p4519
(dp4520
g2
F180.625
sg3
I67
sg4
(idecision_tree
decision_tree_leaf
p4521
(dp4522
g25
g26
(g27
tp4523
Rp4524
g30
I1
ssg31
g30
sbsg32
(idecision_tree
decision_tree_leaf
p4525
(dp4526
g25
g26
(g27
tp4527
Rp4528
g30
I9
sg131
I1
ssg31
g30
sbsbsg32
(idecision_tree
continuous_decision_tree
p4529
(dp4530
g2
F-72.75
sg3
I63
sg4
(idecision_tree
continuous_decision_tree
p4531
(dp4532
g2
F-94.4585
sg3
I67
sg4
(idecision_tree
continuous_decision_tree
p4533
(dp4534
g2
F0.459418
sg3
I52
sg4
(idecision_tree
decision_tree_leaf
p4535
(dp4536
g25
g26
(g27
tp4537
Rp4538
g30
I1
ssg31
g30
sbsg32
(idecision_tree
continuous_decision_tree
p4539
(dp4540
g2
F0.9017364999999999
sg3
I35
sg4
(idecision_tree
continuous_decision_tree
p4541
(dp4542
g2
F0.9313365
sg3
I34
sg4
(idecision_tree
continuous_decision_tree
p4543
(dp4544
g2
F-66.5
sg3
I67
sg4
(idecision_tree
decision_tree_leaf
p4545
(dp4546
g25
g26
(g27
tp4547
Rp4548
g30
I4
ssg31
g30
sbsg32
(idecision_tree
decision_tree_leaf
p4549
(dp4550
g25
g26
(g27
tp4551
Rp4552
g131
I1
ssg31
g131
sbsbsg32
(idecision_tree
decision_tree_leaf
p4553
(dp4554
g25
g26
(g27
tp4555
Rp4556
g30
I1
ssg31
g30
sbsbsg32
(idecision_tree
decision_tree_leaf
p4557
(dp4558
g25
g26
(g27
tp4559
Rp4560
g30
I1
ssg31
g30
sbsbsbsg32
(idecision_tree
decision_tree_leaf
p4561
(dp4562
g25
g26
(g27
tp4563
Rp4564
g30
I1
ssg31
g30
sbsbsg32
(idecision_tree
decision_tree_leaf
p4565
(dp4566
g25
g26
(g27
tp4567
Rp4568
g30
I1
ssg31
g30
sbsbsbsg32
(idecision_tree
continuous_decision_tree
p4569
(dp4570
g2
F0.572073
sg3
I51
sg4
(idecision_tree
decision_tree_leaf
p4571
(dp4572
g25
g26
(g27
tp4573
Rp4574
g30
I1
ssg31
g30
sbsg32
(idecision_tree
decision_tree_leaf
p4575
(dp4576
g25
g26
(g27
tp4577
Rp4578
g30
I8
sg131
I1
ssg31
g30
sbsbsbsbsg32
(idecision_tree
continuous_decision_tree
p4579
(dp4580
g2
F-21.33335
sg3
I67
sg4
(idecision_tree
continuous_decision_tree
p4581
(dp4582
g2
F-70.975
sg3
I63
sg4
(idecision_tree
continuous_decision_tree
p4583
(dp4584
g2
F143.75
sg3
I67
sg4
(idecision_tree
decision_tree_leaf
p4585
(dp4586
g25
g26
(g27
tp4587
Rp4588
g30
I1
ssg31
g30
sbsg32
(idecision_tree
continuous_decision_tree
p4589
(dp4590
g2
F-4.5
sg3
I62
sg4
(idecision_tree
continuous_decision_tree
p4591
(dp4592
g2
F0.378369
sg3
I52
sg4
(idecision_tree
decision_tree_leaf
p4593
(dp4594
g25
g26
(g27
tp4595
Rp4596
g30
I1
ssg31
g30
sbsg32
(idecision_tree
continuous_decision_tree
p4597
(dp4598
g2
F-5.0
sg3
I66
sg4
(idecision_tree
continuous_decision_tree
p4599
(dp4600
g2
F0.9539285000000001
sg3
I50
sg4
(idecision_tree
continuous_decision_tree
p4601
(dp4602
g2
F46.11665000000001
sg3
I67
sg4
(idecision_tree
decision_tree_leaf
p4603
(dp4604
g25
g26
(g27
tp4605
Rp4606
g131
I1
ssg31
g131
sbsg32
(idecision_tree
decision_tree_leaf
p4607
(dp4608
g25
g26
(g27
tp4609
Rp4610
g30
I1
ssg31
g30
sbsbsg32
(idecision_tree
decision_tree_leaf
p4611
(dp4612
g25
g26
(g27
tp4613
Rp4614
g30
I1
ssg31
g30
sbsbsg32
(idecision_tree
decision_tree_leaf
p4615
(dp4616
g25
g26
(g27
tp4617
Rp4618
g30
I1
ssg31
g30
sbsbsbsg32
(idecision_tree
decision_tree_leaf
p4619
(dp4620
g25
g26
(g27
tp4621
Rp4622
g30
I1
ssg31
g30
sbsbsbsg32
(idecision_tree
decision_tree_leaf
p4623
(dp4624
g25
g26
(g27
tp4625
Rp4626
g30
I1
ssg31
g30
sbsbsg32
(idecision_tree
continuous_decision_tree
p4627
(dp4628
g2
F0.3290655
sg3
I52
sg4
(idecision_tree
continuous_decision_tree
p4629
(dp4630
g2
F-72.46430000000001
sg3
I67
sg4
(idecision_tree
decision_tree_leaf
p4631
(dp4632
g25
g26
(g27
tp4633
Rp4634
g30
I6
sS'Lg'
p4635
I1
ssg31
g30
sbsg32
(idecision_tree
continuous_decision_tree
p4636
(dp4637
g2
F44.70635
sg3
I40
sg4
(idecision_tree
continuous_decision_tree
p4638
(dp4639
g2
F-183.66649999999998
sg3
I67
sg4
(idecision_tree
continuous_decision_tree
p4640
(dp4641
g2
F-0.5
sg3
I58
sg4
(idecision_tree
decision_tree_leaf
p4642
(dp4643
g25
g26
(g27
tp4644
Rp4645
g30
I1
ssg31
g30
sbsg32
(idecision_tree
continuous_decision_tree
p4646
(dp4647
g2
F1.9795325000000001
sg3
I48
sg4
(idecision_tree
decision_tree_leaf
p4648
(dp4649
g25
g26
(g27
tp4650
Rp4651
g30
I1
ssg31
g30
sbsg32
(idecision_tree
continuous_decision_tree
p4652
(dp4653
g2
F0.878711
sg3
I52
sg4
(idecision_tree
decision_tree_leaf
p4654
(dp4655
g25
g26
(g27
tp4656
Rp4657
g30
I1
ssg31
g30
sbsg32
(idecision_tree
continuous_decision_tree
p4658
(dp4659
g2
F-16.0
sg3
I59
sg4
(idecision_tree
decision_tree_leaf
p4660
(dp4661
g25
g26
(g27
tp4662
Rp4663
g30
I1
ssg31
g30
sbsg32
(idecision_tree
continuous_decision_tree
p4664
(dp4665
g2
F0.4584475
sg3
I50
sg4
(idecision_tree
continuous_decision_tree
p4666
(dp4667
g2
F-155.03
sg3
I67
sg4
(idecision_tree
decision_tree_leaf
p4668
(dp4669
g25
g26
(g27
tp4670
Rp4671
g30
I1
ssg31
g30
sbsg32
(idecision_tree
decision_tree_leaf
p4672
(dp4673
g25
g26
(g27
tp4674
Rp4675
S'Pn'
p4676
I1
ssg31
g4676
sbsbsg32
(idecision_tree
decision_tree_leaf
p4677
(dp4678
g25
g26
(g27
tp4679
Rp4680
g30
I1
ssg31
g30
sbsbsbsbsbsbsg32
(idecision_tree
decision_tree_leaf
p4681
(dp4682
g25
g26
(g27
tp4683
Rp4684
g30
I1
ssg31
g30
sbsbsg32
(idecision_tree
decision_tree_leaf
p4685
(dp4686
g25
g26
(g27
tp4687
Rp4688
g30
I1
ssg31
g30
sbsbsbsg32
(idecision_tree
continuous_decision_tree
p4689
(dp4690
g2
F0.9790460000000001
sg3
I34
sg4
(idecision_tree
decision_tree_leaf
p4691
(dp4692
g25
g26
(g27
tp4693
Rp4694
g30
I1
ssg31
g30
sbsg32
(idecision_tree
continuous_decision_tree
p4695
(dp4696
g2
F1.0
sg3
I8
sg4
(idecision_tree
continuous_decision_tree
p4697
(dp4698
g2
F-23.5
sg3
I67
sg4
(idecision_tree
decision_tree_leaf
p4699
(dp4700
g25
g26
(g27
tp4701
Rp4702
g131
I1
ssg31
g131
sbsg32
(idecision_tree
decision_tree_leaf
p4703
(dp4704
g25
g26
(g27
tp4705
Rp4706
g30
I1
ssg31
g30
sbsbsg32
(idecision_tree
decision_tree_leaf
p4707
(dp4708
g25
g26
(g27
tp4709
Rp4710
g30
I5
ssg31
g30
sbsbsbsbsbsbsbsbsbsbsbsbsb.