(idecision_tree
continuous_decision_tree
p0
(dp1
S'split_point'
p2
F82.0
sS'attribute'
p3
I67
sS'gt_subtree'
p4
(idecision_tree
decision_tree_leaf
p5
(dp6
S'counts'
p7
ccollections
defaultdict
p8
(c__builtin__
int
p9
tp10
Rp11
S'P'
p12
I1015
sS'S'
p13
I119
sS'Pn'
p14
I182
sS'PKP'
p15
I12
sS'Sn'
p16
I83
ssS'value'
p17
g12
sbsS'lt_subtree'
p18
(idecision_tree
continuous_decision_tree
p19
(dp20
g2
F0.6970525000000001
sg3
I33
sg4
(idecision_tree
continuous_decision_tree
p21
(dp22
g2
F1.906675
sg3
I39
sg4
(idecision_tree
continuous_decision_tree
p23
(dp24
g2
F0.36137050000000004
sg3
I48
sg4
(idecision_tree
continuous_decision_tree
p25
(dp26
g2
F1.92057
sg3
I39
sg4
(idecision_tree
decision_tree_leaf
p27
(dp28
g7
g8
(g9
tp29
Rp30
S'Lg'
p31
I4
sS'PKP'
p32
I21
sg12
I1515
sg13
I203
sS'Sn'
p33
I126
sS'Pn'
p34
I235
ssg17
g12
sbsg18
(idecision_tree
continuous_decision_tree
p35
(dp36
g2
F0.0
sg3
I63
sg4
(idecision_tree
decision_tree_leaf
p37
(dp38
g7
g8
(g9
tp39
Rp40
g12
I15
sg13
I1
sS'Pn'
p41
I1
ssg17
g12
sbsg18
(idecision_tree
continuous_decision_tree
p42
(dp43
g2
F-64.76665
sg3
I67
sg4
(idecision_tree
continuous_decision_tree
p44
(dp45
g2
F-22.25
sg3
I67
sg4
(idecision_tree
decision_tree
p46
(dp47
g3
I47
sS'value_to_tree'
p48
(dp49
S'15-OCT-2009'
p50
(idecision_tree
decision_tree_leaf
p51
(dp52
g7
g8
(g9
tp53
Rp54
g12
I1
ssg17
g12
sbsS'20-FEB-2009'
p55
(idecision_tree
decision_tree_leaf
p56
(dp57
g7
g8
(g9
tp58
Rp59
S'Pn'
p60
I1
ssg17
g60
sbssbsg18
(idecision_tree
decision_tree
p61
(dp62
g3
I47
sg48
(dp63
S'22-MAR-2009'
p64
(idecision_tree
decision_tree_leaf
p65
(dp66
g7
g8
(g9
tp67
Rp68
g12
I1
ssg17
g12
sbsS'09-NOV-2009'
p69
(idecision_tree
decision_tree_leaf
p70
(dp71
g7
g8
(g9
tp72
Rp73
g13
I1
ssg17
g13
sbssbsbsg18
(idecision_tree
continuous_decision_tree
p74
(dp75
g2
F-4.5
sg3
I66
sg4
(idecision_tree
decision_tree
p76
(dp77
g3
I47
sg48
(dp78
S'09-JUN-2009'
p79
(idecision_tree
decision_tree_leaf
p80
(dp81
g7
g8
(g9
tp82
Rp83
g13
I1
ssg17
g13
sbsS'06-APR-2009'
p84
(idecision_tree
decision_tree_leaf
p85
(dp86
g7
g8
(g9
tp87
Rp88
g12
I1
ssg17
g12
sbssbsg18
(idecision_tree
decision_tree
p89
(dp90
g3
I47
sg48
(dp91
S'11-FEB-2009'
p92
(idecision_tree
decision_tree_leaf
p93
(dp94
g7
g8
(g9
tp95
Rp96
g13
I1
ssg17
g13
sbsS'02-AUG-2009'
p97
(idecision_tree
decision_tree_leaf
p98
(dp99
g7
g8
(g9
tp100
Rp101
S'Lg'
p102
I1
ssg17
g102
sbssbsbsbsbsbsg18
(idecision_tree
continuous_decision_tree
p103
(dp104
g2
F-2.0
sg3
I62
sg4
(idecision_tree
continuous_decision_tree
p105
(dp106
g2
F0.9662605
sg3
I49
sg4
(idecision_tree
continuous_decision_tree
p107
(dp108
g2
F-165.0
sg3
I67
sg4
(idecision_tree
continuous_decision_tree
p109
(dp110
g2
F2.0
sg3
I62
sg4
(idecision_tree
decision_tree_leaf
p111
(dp112
g7
g8
(g9
tp113
Rp114
g12
I16
sg13
I1
sS'Pn'
p115
I4
sS'Sn'
p116
I2
ssg17
g12
sbsg18
(idecision_tree
continuous_decision_tree
p117
(dp118
g2
F8.48243
sg3
I41
sg4
(idecision_tree
continuous_decision_tree
p119
(dp120
g2
F334.723
sg3
I41
sg4
(idecision_tree
continuous_decision_tree
p121
(dp122
g2
F0.5215719999999999
sg3
I50
sg4
(idecision_tree
decision_tree
p123
(dp124
g3
I47
sg48
(dp125
S'28-MAR-2009'
p126
(idecision_tree
decision_tree_leaf
p127
(dp128
g7
g8
(g9
tp129
Rp130
g13
I1
ssg17
g13
sbsS'30-SEP-2009'
p131
(idecision_tree
decision_tree_leaf
p132
(dp133
g7
g8
(g9
tp134
Rp135
g12
I1
ssg17
g12
sbsS'06-SEP-2009'
p136
(idecision_tree
decision_tree_leaf
p137
(dp138
g7
g8
(g9
tp139
Rp140
g12
I1
ssg17
g12
sbsS'20-APR-2009'
p141
(idecision_tree
decision_tree_leaf
p142
(dp143
g7
g8
(g9
tp144
Rp145
g12
I1
ssg17
g12
sbssbsg18
(idecision_tree
continuous_decision_tree
p146
(dp147
g2
F0.0
sg3
I59
sg4
(idecision_tree
continuous_decision_tree
p148
(dp149
g2
F37.9162
sg3
I44
sg4
(idecision_tree
decision_tree_leaf
p150
(dp151
g7
g8
(g9
tp152
Rp153
g12
I2
sS'Sn'
p154
I1
ssg17
g12
sbsg18
(idecision_tree
decision_tree_leaf
p155
(dp156
g7
g8
(g9
tp157
Rp158
g12
I2
sS'Pn'
p159
I1
ssg17
g12
sbsbsg18
(idecision_tree
decision_tree_leaf
p160
(dp161
g7
g8
(g9
tp162
Rp163
g12
I1
ssg17
g12
sbsbsbsg18
(idecision_tree
continuous_decision_tree
p164
(dp165
g2
F0.345777
sg3
I48
sg4
(idecision_tree
continuous_decision_tree
p166
(dp167
g2
F0.352838
sg3
I48
sg4
(idecision_tree
decision_tree
p168
(dp169
g3
I47
sg48
(dp170
S'22-JUN-2009'
p171
(idecision_tree
decision_tree_leaf
p172
(dp173
g7
g8
(g9
tp174
Rp175
S'Pn'
p176
I1
ssg17
g176
sbsS'01-NOV-2009'
p177
(idecision_tree
decision_tree_leaf
p178
(dp179
g7
g8
(g9
tp180
Rp181
g12
I1
ssg17
g12
sbsS'21-FEB-2009'
p182
(idecision_tree
decision_tree_leaf
p183
(dp184
g7
g8
(g9
tp185
Rp186
g12
I1
ssg17
g12
sbsS'02-MAR-2009'
p187
(idecision_tree
decision_tree_leaf
p188
(dp189
g7
g8
(g9
tp190
Rp191
g12
I1
ssg17
g12
sbssbsg18
(idecision_tree
continuous_decision_tree
p192
(dp193
g2
F0.7484489999999999
sg3
I50
sg4
(idecision_tree
decision_tree
p194
(dp195
g3
I47
sg48
(dp196
S'29-JAN-2009'
p197
(idecision_tree
decision_tree_leaf
p198
(dp199
g7
g8
(g9
tp200
Rp201
g13
I1
ssg17
g13
sbsS'29-MAY-2009'
p202
(idecision_tree
decision_tree_leaf
p203
(dp204
g7
g8
(g9
tp205
Rp206
g12
I1
ssg17
g12
sbsS'09-APR-2009'
p207
(idecision_tree
decision_tree_leaf
p208
(dp209
g7
g8
(g9
tp210
Rp211
g12
I1
ssg17
g12
sbsS'24-FEB-2009'
p212
(idecision_tree
decision_tree_leaf
p213
(dp214
g7
g8
(g9
tp215
Rp216
g12
I1
ssg17
g12
sbssbsg18
(idecision_tree
decision_tree_leaf
p217
(dp218
g7
g8
(g9
tp219
Rp220
g12
I2
sS'Sn'
p221
I1
ssg17
g12
sbsbsbsg18
(idecision_tree
continuous_decision_tree
p222
(dp223
g2
F9.332329999999999
sg3
I30
sg4
(idecision_tree
continuous_decision_tree
p224
(dp225
g2
F0.0
sg3
I62
sg4
(idecision_tree
continuous_decision_tree
p226
(dp227
g2
F4.333335
sg3
I59
sg4
(idecision_tree
continuous_decision_tree
p228
(dp229
g2
F-77.25
sg3
I67
sg4
(idecision_tree
decision_tree
p230
(dp231
g3
I47
sg48
(dp232
S'27-AUG-2009'
p233
(idecision_tree
decision_tree_leaf
p234
(dp235
g7
g8
(g9
tp236
Rp237
g12
I1
ssg17
g12
sbsS'20-MAR-2009'
p238
(idecision_tree
decision_tree_leaf
p239
(dp240
g7
g8
(g9
tp241
Rp242
S'Sn'
p243
I1
ssg17
g243
sbssbsg18
(idecision_tree
decision_tree_leaf
p244
(dp245
g7
g8
(g9
tp246
Rp247
g12
I1
ssg17
g12
sbsbsg18
(idecision_tree
decision_tree_leaf
p248
(dp249
g7
g8
(g9
tp250
Rp251
g12
I2
sS'Pn'
p252
I1
ssg17
g12
sbsbsg18
(idecision_tree
decision_tree
p253
(dp254
g3
I47
sg48
(dp255
S'17-OCT-2009'
p256
(idecision_tree
decision_tree_leaf
p257
(dp258
g7
g8
(g9
tp259
Rp260
g12
I1
ssg17
g12
sbsS'13-NOV-2009'
p261
(idecision_tree
decision_tree_leaf
p262
(dp263
g7
g8
(g9
tp264
Rp265
g12
I1
ssg17
g12
sbsS'22-OCT-2009'
p266
(idecision_tree
decision_tree_leaf
p267
(dp268
g7
g8
(g9
tp269
Rp270
g12
I1
ssg17
g12
sbsS'06-JAN-2009'
p271
(idecision_tree
decision_tree_leaf
p272
(dp273
g7
g8
(g9
tp274
Rp275
S'Sn'
p276
I1
ssg17
g276
sbsS'28-JUN-2009'
p277
(idecision_tree
decision_tree_leaf
p278
(dp279
g7
g8
(g9
tp280
Rp281
g12
I1
ssg17
g12
sbssbsbsg18
(idecision_tree
continuous_decision_tree
p282
(dp283
g2
F-33.75
sg3
I63
sg4
(idecision_tree
continuous_decision_tree
p284
(dp285
g2
F-10.0
sg3
I63
sg4
(idecision_tree
decision_tree_leaf
p286
(dp287
g7
g8
(g9
tp288
Rp289
g12
I45
sg13
I6
sS'Pn'
p290
I6
sS'Sn'
p291
I5
sS'PKP'
p292
I1
ssg17
g12
sbsg18
(idecision_tree
decision_tree
p293
(dp294
g3
I47
sg48
(dp295
S'31-JUL-2009'
p296
(idecision_tree
decision_tree_leaf
p297
(dp298
g7
g8
(g9
tp299
Rp300
S'Pn'
p301
I1
ssg17
g301
sbsS'19-JUL-2009'
p302
(idecision_tree
decision_tree_leaf
p303
(dp304
g7
g8
(g9
tp305
Rp306
g12
I1
ssg17
g12
sbsS'26-JUN-2009'
p307
(idecision_tree
decision_tree_leaf
p308
(dp309
g7
g8
(g9
tp310
Rp311
g12
I1
ssg17
g12
sbsS'20-JAN-2009'
p312
(idecision_tree
decision_tree_leaf
p313
(dp314
g7
g8
(g9
tp315
Rp316
g12
I1
ssg17
g12
sbsS'17-APR-2009'
p317
(idecision_tree
decision_tree_leaf
p318
(dp319
g7
g8
(g9
tp320
Rp321
g12
I1
ssg17
g12
sbsS'17-OCT-2009'
p322
(idecision_tree
decision_tree_leaf
p323
(dp324
g7
g8
(g9
tp325
Rp326
S'Sn'
p327
I1
ssg17
g327
sbsS'30-SEP-2009'
p328
(idecision_tree
decision_tree_leaf
p329
(dp330
g7
g8
(g9
tp331
Rp332
g12
I1
ssg17
g12
sbsS'14-JUN-2009'
p333
(idecision_tree
decision_tree_leaf
p334
(dp335
g7
g8
(g9
tp336
Rp337
g12
I1
ssg17
g12
sbsS'17-MAY-2009'
p338
(idecision_tree
decision_tree_leaf
p339
(dp340
g7
g8
(g9
tp341
Rp342
g12
I1
ssg17
g12
sbsS'17-AUG-2009'
p343
(idecision_tree
decision_tree_leaf
p344
(dp345
g7
g8
(g9
tp346
Rp347
g12
I1
ssg17
g12
sbssbsbsg18
(idecision_tree
continuous_decision_tree
p348
(dp349
g2
F-2.0
sg3
I66
sg4
(idecision_tree
continuous_decision_tree
p350
(dp351
g2
F-45.0
sg3
I63
sg4
(idecision_tree
decision_tree
p352
(dp353
g3
I47
sg48
(dp354
S'14-JAN-2009'
p355
(idecision_tree
decision_tree_leaf
p356
(dp357
g7
g8
(g9
tp358
Rp359
g12
I1
ssg17
g12
sbsS'30-JUL-2009'
p360
(idecision_tree
decision_tree_leaf
p361
(dp362
g7
g8
(g9
tp363
Rp364
g13
I1
ssg17
g13
sbsS'12-JUN-2009'
p365
(idecision_tree
decision_tree_leaf
p366
(dp367
g7
g8
(g9
tp368
Rp369
g12
I1
ssg17
g12
sbsS'15-AUG-2009'
p370
(idecision_tree
decision_tree_leaf
p371
(dp372
g7
g8
(g9
tp373
Rp374
g12
I1
ssg17
g12
sbssbsg18
(idecision_tree
decision_tree
p375
(dp376
g3
I47
sg48
(dp377
S'06-AUG-2009'
p378
(idecision_tree
decision_tree_leaf
p379
(dp380
g7
g8
(g9
tp381
Rp382
g13
I1
ssg17
g13
sbsS'24-JUL-2009'
p383
(idecision_tree
decision_tree_leaf
p384
(dp385
g7
g8
(g9
tp386
Rp387
g12
I1
ssg17
g12
sbsS'27-MAY-2009'
p388
(idecision_tree
decision_tree_leaf
p389
(dp390
g7
g8
(g9
tp391
Rp392
g12
I1
ssg17
g12
sbsS'23-OCT-2009'
p393
(idecision_tree
decision_tree_leaf
p394
(dp395
g7
g8
(g9
tp396
Rp397
g12
I1
ssg17
g12
sbssbsbsg18
(idecision_tree
continuous_decision_tree
p398
(dp399
g2
F2.5
sg3
I59
sg4
(idecision_tree
decision_tree
p400
(dp401
g3
I47
sg48
(dp402
S'13-APR-2009'
p403
(idecision_tree
decision_tree_leaf
p404
(dp405
g7
g8
(g9
tp406
Rp407
g12
I1
ssg17
g12
sbsS'04-MAY-2009'
p408
(idecision_tree
decision_tree_leaf
p409
(dp410
g7
g8
(g9
tp411
Rp412
g13
I1
ssg17
g13
sbssbsg18
(idecision_tree
decision_tree_leaf
p413
(dp414
g7
g8
(g9
tp415
Rp416
g12
I1
ssg17
g12
sbsbsbsbsbsbsbsg18
(idecision_tree
continuous_decision_tree
p417
(dp418
g2
F-7.333335
sg3
I67
sg4
(idecision_tree
decision_tree_leaf
p419
(dp420
g7
g8
(g9
tp421
Rp422
g12
I5
sS'Pn'
p423
I2
ssg17
g12
sbsg18
(idecision_tree
decision_tree
p424
(dp425
g3
I47
sg48
(dp426
S'10-JUL-2009'
p427
(idecision_tree
decision_tree_leaf
p428
(dp429
g7
g8
(g9
tp430
Rp431
g12
I1
ssg17
g12
sbsS'24-FEB-2009'
p432
(idecision_tree
decision_tree_leaf
p433
(dp434
g7
g8
(g9
tp435
Rp436
g12
I1
ssg17
g12
sbsS'05-APR-2009'
p437
(idecision_tree
decision_tree_leaf
p438
(dp439
g7
g8
(g9
tp440
Rp441
g12
I1
ssg17
g12
sbsS'18-NOV-2009'
p442
(idecision_tree
decision_tree_leaf
p443
(dp444
g7
g8
(g9
tp445
Rp446
S'Pn'
p447
I1
ssg17
g447
sbssbsbsbsbsg18
(idecision_tree
continuous_decision_tree
p448
(dp449
g2
F-220.91649999999998
sg3
I67
sg4
(idecision_tree
continuous_decision_tree
p450
(dp451
g2
F1.0
sg3
I62
sg4
(idecision_tree
continuous_decision_tree
p452
(dp453
g2
F-196.04149999999998
sg3
I67
sg4
(idecision_tree
continuous_decision_tree
p454
(dp455
g2
F-184.5
sg3
I67
sg4
(idecision_tree
decision_tree
p456
(dp457
g3
I47
sg48
(dp458
S'31-JUL-2009'
p459
(idecision_tree
decision_tree_leaf
p460
(dp461
g7
g8
(g9
tp462
Rp463
S'Pn'
p464
I1
ssg17
g464
sbsS'24-AUG-2009'
p465
(idecision_tree
decision_tree_leaf
p466
(dp467
g7
g8
(g9
tp468
Rp469
g12
I1
ssg17
g12
sbssbsg18
(idecision_tree
decision_tree_leaf
p470
(dp471
g7
g8
(g9
tp472
Rp473
g12
I1
ssg17
g12
sbsbsg18
(idecision_tree
decision_tree
p474
(dp475
g3
I47
sg48
(dp476
S'14-FEB-2009'
p477
(idecision_tree
decision_tree_leaf
p478
(dp479
g7
g8
(g9
tp480
Rp481
g13
I1
ssg17
g13
sbsS'09-MAR-2009'
p482
(idecision_tree
decision_tree_leaf
p483
(dp484
g7
g8
(g9
tp485
Rp486
g12
I1
ssg17
g12
sbssbsbsg18
(idecision_tree
decision_tree
p487
(dp488
g3
I47
sg48
(dp489
S'29-MAY-2009'
p490
(idecision_tree
decision_tree_leaf
p491
(dp492
g7
g8
(g9
tp493
Rp494
g12
I1
ssg17
g12
sbsS'10-DEC-2009'
p495
(idecision_tree
decision_tree_leaf
p496
(dp497
g7
g8
(g9
tp498
Rp499
g12
I1
ssg17
g12
sbsS'04-NOV-2009'
p500
(idecision_tree
decision_tree_leaf
p501
(dp502
g7
g8
(g9
tp503
Rp504
g12
I1
ssg17
g12
sbsS'13-SEP-2009'
p505
(idecision_tree
decision_tree_leaf
p506
(dp507
g7
g8
(g9
tp508
Rp509
g12
I1
ssg17
g12
sbsS'23-OCT-2009'
p510
(idecision_tree
decision_tree_leaf
p511
(dp512
g7
g8
(g9
tp513
Rp514
g12
I1
ssg17
g12
sbsS'20-MAY-2009'
p515
(idecision_tree
decision_tree_leaf
p516
(dp517
g7
g8
(g9
tp518
Rp519
g13
I1
ssg17
g13
sbssbsbsg18
(idecision_tree
continuous_decision_tree
p520
(dp521
g2
F-1.0
sg3
I66
sg4
(idecision_tree
decision_tree
p522
(dp523
g3
I47
sg48
(dp524
S'27-FEB-2009'
p525
(idecision_tree
decision_tree_leaf
p526
(dp527
g7
g8
(g9
tp528
Rp529
g12
I1
ssg17
g12
sbsS'05-DEC-2009'
p530
(idecision_tree
decision_tree_leaf
p531
(dp532
g7
g8
(g9
tp533
Rp534
g12
I1
ssg17
g12
sbsS'09-JUN-2009'
p535
(idecision_tree
decision_tree_leaf
p536
(dp537
g7
g8
(g9
tp538
Rp539
g12
I1
ssg17
g12
sbsS'23-JUN-2009'
p540
(idecision_tree
decision_tree_leaf
p541
(dp542
g7
g8
(g9
tp543
Rp544
g12
I1
ssg17
g12
sbsS'22-MAY-2009'
p545
(idecision_tree
decision_tree_leaf
p546
(dp547
g7
g8
(g9
tp548
Rp549
S'Sn'
p550
I1
ssg17
g550
sbssbsg18
(idecision_tree
decision_tree
p551
(dp552
g3
I47
sg48
(dp553
S'25-FEB-2009'
p554
(idecision_tree
decision_tree_leaf
p555
(dp556
g7
g8
(g9
tp557
Rp558
S'Sn'
p559
I1
ssg17
g559
sbsS'11-MAR-2009'
p560
(idecision_tree
decision_tree_leaf
p561
(dp562
g7
g8
(g9
tp563
Rp564
g12
I1
ssg17
g12
sbssbsbsbsbsg18
(idecision_tree
continuous_decision_tree
p565
(dp566
g2
F209.1
sg3
I43
sg4
(idecision_tree
continuous_decision_tree
p567
(dp568
g2
F3.168375
sg3
I33
sg4
(idecision_tree
continuous_decision_tree
p569
(dp570
g2
F37.925
sg3
I63
sg4
(idecision_tree
continuous_decision_tree
p571
(dp572
g2
F1.255555
sg3
I67
sg4
(idecision_tree
continuous_decision_tree
p573
(dp574
g2
F0.0
sg3
I66
sg4
(idecision_tree
continuous_decision_tree
p575
(dp576
g2
F63.75
sg3
I67
sg4
(idecision_tree
continuous_decision_tree
p577
(dp578
g2
F69.8
sg3
I67
sg4
(idecision_tree
decision_tree
p579
(dp580
g3
I47
sg48
(dp581
S'28-NOV-2009'
p582
(idecision_tree
decision_tree_leaf
p583
(dp584
g7
g8
(g9
tp585
Rp586
S'Sn'
p587
I1
ssg17
g587
sbsS'14-AUG-2009'
p588
(idecision_tree
decision_tree_leaf
p589
(dp590
g7
g8
(g9
tp591
Rp592
g12
I1
ssg17
g12
sbssbsg18
(idecision_tree
decision_tree_leaf
p593
(dp594
g7
g8
(g9
tp595
Rp596
g12
I1
ssg17
g12
sbsbsg18
(idecision_tree
decision_tree_leaf
p597
(dp598
g7
g8
(g9
tp599
Rp600
g12
I4
sg13
I1
sS'Sn'
p601
I1
ssg17
g12
sbsbsg18
(idecision_tree
decision_tree_leaf
p602
(dp603
g7
g8
(g9
tp604
Rp605
g12
I2
ssg17
g12
sbsbsg18
(idecision_tree
continuous_decision_tree
p606
(dp607
g2
F-49.4948
sg3
I67
sg4
(idecision_tree
decision_tree_leaf
p608
(dp609
g7
g8
(g9
tp610
Rp611
g12
I2
sS'Sn'
p612
I1
ssg17
g12
sbsg18
(idecision_tree
decision_tree
p613
(dp614
g3
I47
sg48
(dp615
S'17-MAR-2009'
p616
(idecision_tree
decision_tree_leaf
p617
(dp618
g7
g8
(g9
tp619
Rp620
g12
I1
ssg17
g12
sbsS'13-JAN-2009'
p621
(idecision_tree
decision_tree_leaf
p622
(dp623
g7
g8
(g9
tp624
Rp625
S'Pn'
p626
I1
ssg17
g626
sbsS'29-NOV-2009'
p627
(idecision_tree
decision_tree_leaf
p628
(dp629
g7
g8
(g9
tp630
Rp631
g12
I1
ssg17
g12
sbsS'19-AUG-2009'
p632
(idecision_tree
decision_tree_leaf
p633
(dp634
g7
g8
(g9
tp635
Rp636
g12
I1
ssg17
g12
sbssbsbsbsg18
(idecision_tree
continuous_decision_tree
p637
(dp638
g2
F-153.15
sg3
I67
sg4
(idecision_tree
continuous_decision_tree
p639
(dp640
g2
F20.0
sg3
I63
sg4
(idecision_tree
continuous_decision_tree
p641
(dp642
g2
F3.5
sg3
I66
sg4
(idecision_tree
continuous_decision_tree
p643
(dp644
g2
F14.3
sg3
I67
sg4
(idecision_tree
decision_tree_leaf
p645
(dp646
g7
g8
(g9
tp647
Rp648
g12
I5
sS'Pn'
p649
I2
ssg17
g12
sbsg18
(idecision_tree
decision_tree
p650
(dp651
g3
I47
sg48
(dp652
S'29-APR-2009'
p653
(idecision_tree
decision_tree_leaf
p654
(dp655
g7
g8
(g9
tp656
Rp657
S'Pn'
p658
I1
ssg17
g658
sbsS'12-FEB-2009'
p659
(idecision_tree
decision_tree_leaf
p660
(dp661
g7
g8
(g9
tp662
Rp663
g12
I1
ssg17
g12
sbsS'03-JUL-2009'
p664
(idecision_tree
decision_tree_leaf
p665
(dp666
g7
g8
(g9
tp667
Rp668
g12
I1
ssg17
g12
sbsS'08-OCT-2009'
p669
(idecision_tree
decision_tree_leaf
p670
(dp671
g7
g8
(g9
tp672
Rp673
g12
I1
ssg17
g12
sbssbsbsg18
(idecision_tree
decision_tree_leaf
p674
(dp675
g7
g8
(g9
tp676
Rp677
g12
I5
sS'Pn'
p678
I1
sS'Sn'
p679
I1
ssg17
g12
sbsbsg18
(idecision_tree
continuous_decision_tree
p680
(dp681
g2
F3.327225
sg3
I30
sg4
(idecision_tree
continuous_decision_tree
p682
(dp683
g2
F-15.25
sg3
I59
sg4
(idecision_tree
continuous_decision_tree
p684
(dp685
g2
F0.1438285
sg3
I48
sg4
(idecision_tree
continuous_decision_tree
p686
(dp687
g2
F3.568575
sg3
I22
sg4
(idecision_tree
continuous_decision_tree
p688
(dp689
g2
F0.0
sg3
I67
sg4
(idecision_tree
decision_tree_leaf
p690
(dp691
g7
g8
(g9
tp692
Rp693
g13
I1
sg12
I19
sS'PKP'
p694
I1
sS'Pn'
p695
I2
sS'Sn'
p696
I1
ssg17
g12
sbsg18
(idecision_tree
decision_tree_leaf
p697
(dp698
g7
g8
(g9
tp699
Rp700
g12
I25
sg13
I3
sS'Pn'
p701
I4
sS'Sn'
p702
I5
ssg17
g12
sbsbsg18
(idecision_tree
continuous_decision_tree
p703
(dp704
g2
F0.278014
sg3
I50
sg4
(idecision_tree
continuous_decision_tree
p705
(dp706
g2
F0.32610249999999996
sg3
I50
sg4
(idecision_tree
continuous_decision_tree
p707
(dp708
g2
F2.598985
sg3
I39
sg4
(idecision_tree
decision_tree
p709
(dp710
g3
I47
sg48
(dp711
S'17-MAR-2009'
p712
(idecision_tree
decision_tree_leaf
p713
(dp714
g7
g8
(g9
tp715
Rp716
g12
I1
ssg17
g12
sbsS'27-SEP-2009'
p717
(idecision_tree
decision_tree_leaf
p718
(dp719
g7
g8
(g9
tp720
Rp721
g12
I1
ssg17
g12
sbsS'25-JAN-2009'
p722
(idecision_tree
decision_tree_leaf
p723
(dp724
g7
g8
(g9
tp725
Rp726
S'Sn'
p727
I1
ssg17
g727
sbsS'19-JUL-2009'
p728
(idecision_tree
decision_tree_leaf
p729
(dp730
g7
g8
(g9
tp731
Rp732
g12
I1
ssg17
g12
sbssbsg18
(idecision_tree
decision_tree_leaf
p733
(dp734
g7
g8
(g9
tp735
Rp736
g12
I2
sS'Sn'
p737
I1
ssg17
g12
sbsbsg18
(idecision_tree
decision_tree
p738
(dp739
g3
I47
sg48
(dp740
S'21-MAY-2009'
p741
(idecision_tree
decision_tree_leaf
p742
(dp743
g7
g8
(g9
tp744
Rp745
g12
I1
ssg17
g12
sbsS'03-DEC-2009'
p746
(idecision_tree
decision_tree_leaf
p747
(dp748
g7
g8
(g9
tp749
Rp750
g12
I1
ssg17
g12
sbsS'24-SEP-2009'
p751
(idecision_tree
decision_tree_leaf
p752
(dp753
g7
g8
(g9
tp754
Rp755
S'Pn'
p756
I1
ssg17
g756
sbsS'09-SEP-2009'
p757
(idecision_tree
decision_tree_leaf
p758
(dp759
g7
g8
(g9
tp760
Rp761
g12
I1
ssg17
g12
sbssbsbsg18
(idecision_tree
continuous_decision_tree
p762
(dp763
g2
F-10.875
sg3
I67
sg4
(idecision_tree
decision_tree
p764
(dp765
g3
I47
sg48
(dp766
S'25-JUL-2009'
p767
(idecision_tree
decision_tree_leaf
p768
(dp769
g7
g8
(g9
tp770
Rp771
S'Sn'
p772
I1
ssg17
g772
sbsS'26-AUG-2009'
p773
(idecision_tree
decision_tree_leaf
p774
(dp775
g7
g8
(g9
tp776
Rp777
g12
I1
ssg17
g12
sbsS'21-FEB-2009'
p778
(idecision_tree
decision_tree_leaf
p779
(dp780
g7
g8
(g9
tp781
Rp782
g12
I1
ssg17
g12
sbsS'22-AUG-2009'
p783
(idecision_tree
decision_tree_leaf
p784
(dp785
g7
g8
(g9
tp786
Rp787
g12
I1
ssg17
g12
sbssbsg18
(idecision_tree
continuous_decision_tree
p788
(dp789
g2
F-8.5
sg3
I59
sg4
(idecision_tree
decision_tree
p790
(dp791
g3
I47
sg48
(dp792
S'13-APR-2009'
p793
(idecision_tree
decision_tree_leaf
p794
(dp795
g7
g8
(g9
tp796
Rp797
g12
I1
ssg17
g12
sbsS'28-NOV-2009'
p798
(idecision_tree
decision_tree_leaf
p799
(dp800
g7
g8
(g9
tp801
Rp802
S'Pn'
p803
I1
ssg17
g803
sbssbsg18
(idecision_tree
decision_tree_leaf
p804
(dp805
g7
g8
(g9
tp806
Rp807
g12
I1
ssg17
g12
sbsbsbsbsbsg18
(idecision_tree
continuous_decision_tree
p808
(dp809
g2
F0.5
sg3
I66
sg4
(idecision_tree
continuous_decision_tree
p810
(dp811
g2
F11.375
sg3
I67
sg4
(idecision_tree
decision_tree
p812
(dp813
g3
I47
sg48
(dp814
S'01-AUG-2009'
p815
(idecision_tree
decision_tree_leaf
p816
(dp817
g7
g8
(g9
tp818
Rp819
g12
I1
ssg17
g12
sbsS'22-FEB-2009'
p820
(idecision_tree
decision_tree_leaf
p821
(dp822
g7
g8
(g9
tp823
Rp824
g12
I1
ssg17
g12
sbsS'23-JUN-2009'
p825
(idecision_tree
decision_tree_leaf
p826
(dp827
g7
g8
(g9
tp828
Rp829
g12
I1
ssg17
g12
sbsS'26-MAY-2009'
p830
(idecision_tree
decision_tree_leaf
p831
(dp832
g7
g8
(g9
tp833
Rp834
S'Pn'
p835
I1
ssg17
g835
sbssbsg18
(idecision_tree
continuous_decision_tree
p836
(dp837
g2
F4.5
sg3
I59
sg4
(idecision_tree
decision_tree
p838
(dp839
g3
I47
sg48
(dp840
S'16-JUL-2009'
p841
(idecision_tree
decision_tree_leaf
p842
(dp843
g7
g8
(g9
tp844
Rp845
g12
I1
ssg17
g12
sbsS'22-JAN-2009'
p846
(idecision_tree
decision_tree_leaf
p847
(dp848
g7
g8
(g9
tp849
Rp850
S'PKP'
p851
I1
ssg17
g851
sbssbsg18
(idecision_tree
decision_tree_leaf
p852
(dp853
g7
g8
(g9
tp854
Rp855
g12
I1
ssg17
g12
sbsbsbsg18
(idecision_tree
continuous_decision_tree
p856
(dp857
g2
F0.5
sg3
I53
sg4
(idecision_tree
continuous_decision_tree
p858
(dp859
g2
F0.260931
sg3
I49
sg4
(idecision_tree
decision_tree
p860
(dp861
g3
I47
sg48
(dp862
S'18-FEB-2009'
p863
(idecision_tree
decision_tree_leaf
p864
(dp865
g7
g8
(g9
tp866
Rp867
g12
I1
ssg17
g12
sbsS'08-APR-2009'
p868
(idecision_tree
decision_tree_leaf
p869
(dp870
g7
g8
(g9
tp871
Rp872
S'Pn'
p873
I1
ssg17
g873
sbsS'31-MAR-2009'
p874
(idecision_tree
decision_tree_leaf
p875
(dp876
g7
g8
(g9
tp877
Rp878
g12
I1
ssg17
g12
sbsS'05-FEB-2009'
p879
(idecision_tree
decision_tree_leaf
p880
(dp881
g7
g8
(g9
tp882
Rp883
g12
I1
ssg17
g12
sbssbsg18
(idecision_tree
continuous_decision_tree
p884
(dp885
g2
F0.14450564999999999
sg3
I49
sg4
(idecision_tree
decision_tree
p886
(dp887
g3
I47
sg48
(dp888
S'14-NOV-2009'
p889
(idecision_tree
decision_tree_leaf
p890
(dp891
g7
g8
(g9
tp892
Rp893
S'PKP'
p894
I1
ssg17
g894
sbsS'11-FEB-2009'
p895
(idecision_tree
decision_tree_leaf
p896
(dp897
g7
g8
(g9
tp898
Rp899
g12
I1
ssg17
g12
sbssbsg18
(idecision_tree
decision_tree_leaf
p900
(dp901
g7
g8
(g9
tp902
Rp903
g12
I1
ssg17
g12
sbsbsbsg18
(idecision_tree
decision_tree
p904
(dp905
g3
I47
sg48
(dp906
S'12-JUN-2009'
p907
(idecision_tree
decision_tree_leaf
p908
(dp909
g7
g8
(g9
tp910
Rp911
S'Sn'
p912
I1
ssg17
g912
sbsS'18-MAY-2009'
p913
(idecision_tree
decision_tree_leaf
p914
(dp915
g7
g8
(g9
tp916
Rp917
g12
I1
ssg17
g12
sbsS'30-MAY-2009'
p918
(idecision_tree
decision_tree_leaf
p919
(dp920
g7
g8
(g9
tp921
Rp922
g12
I1
ssg17
g12
sbsS'01-MAR-2009'
p923
(idecision_tree
decision_tree_leaf
p924
(dp925
g7
g8
(g9
tp926
Rp927
g12
I1
ssg17
g12
sbssbsbsbsbsg18
(idecision_tree
continuous_decision_tree
p928
(dp929
g2
F-55.5
sg3
I67
sg4
(idecision_tree
continuous_decision_tree
p930
(dp931
g2
F0.5
sg3
I53
sg4
(idecision_tree
decision_tree
p932
(dp933
g3
I47
sg48
(dp934
S'25-AUG-2009'
p935
(idecision_tree
decision_tree_leaf
p936
(dp937
g7
g8
(g9
tp938
Rp939
g12
I1
ssg17
g12
sbsS'19-MAY-2009'
p940
(idecision_tree
decision_tree_leaf
p941
(dp942
g7
g8
(g9
tp943
Rp944
g12
I1
ssg17
g12
sbsS'03-SEP-2009'
p945
(idecision_tree
decision_tree_leaf
p946
(dp947
g7
g8
(g9
tp948
Rp949
g12
I1
ssg17
g12
sbsS'04-JAN-2009'
p950
(idecision_tree
decision_tree_leaf
p951
(dp952
g7
g8
(g9
tp953
Rp954
S'PKP'
p955
I1
ssg17
g955
sbssbsg18
(idecision_tree
continuous_decision_tree
p956
(dp957
g2
F-29.875
sg3
I63
sg4
(idecision_tree
decision_tree
p958
(dp959
g3
I47
sg48
(dp960
S'04-MAR-2009'
p961
(idecision_tree
decision_tree_leaf
p962
(dp963
g7
g8
(g9
tp964
Rp965
g12
I1
ssg17
g12
sbsS'10-DEC-2009'
p966
(idecision_tree
decision_tree_leaf
p967
(dp968
g7
g8
(g9
tp969
Rp970
g12
I1
ssg17
g12
sbsS'21-FEB-2009'
p971
(idecision_tree
decision_tree_leaf
p972
(dp973
g7
g8
(g9
tp974
Rp975
g13
I1
ssg17
g13
sbsS'27-MAR-2009'
p976
(idecision_tree
decision_tree_leaf
p977
(dp978
g7
g8
(g9
tp979
Rp980
g12
I1
ssg17
g12
sbssbsg18
(idecision_tree
continuous_decision_tree
p981
(dp982
g2
F-45.5
sg3
I63
sg4
(idecision_tree
decision_tree
p983
(dp984
g3
I47
sg48
(dp985
S'25-FEB-2009'
p986
(idecision_tree
decision_tree_leaf
p987
(dp988
g7
g8
(g9
tp989
Rp990
g12
I1
ssg17
g12
sbsS'02-DEC-2009'
p991
(idecision_tree
decision_tree_leaf
p992
(dp993
g7
g8
(g9
tp994
Rp995
S'Pn'
p996
I1
ssg17
g996
sbssbsg18
(idecision_tree
decision_tree_leaf
p997
(dp998
g7
g8
(g9
tp999
Rp1000
g12
I1
ssg17
g12
sbsbsbsbsg18
(idecision_tree
continuous_decision_tree
p1001
(dp1002
g2
F-113.38550000000001
sg3
I67
sg4
(idecision_tree
decision_tree
p1003
(dp1004
g3
I47
sg48
(dp1005
S'18-FEB-2009'
p1006
(idecision_tree
decision_tree_leaf
p1007
(dp1008
g7
g8
(g9
tp1009
Rp1010
g12
I1
ssg17
g12
sbsS'03-JUN-2009'
p1011
(idecision_tree
decision_tree_leaf
p1012
(dp1013
g7
g8
(g9
tp1014
Rp1015
g12
I1
ssg17
g12
sbsS'05-DEC-2009'
p1016
(idecision_tree
decision_tree_leaf
p1017
(dp1018
g7
g8
(g9
tp1019
Rp1020
S'Pn'
p1021
I1
ssg17
g1021
sbsS'15-AUG-2009'
p1022
(idecision_tree
decision_tree_leaf
p1023
(dp1024
g7
g8
(g9
tp1025
Rp1026
g12
I1
ssg17
g12
sbssbsg18
(idecision_tree
continuous_decision_tree
p1027
(dp1028
g2
F0.5
sg3
I53
sg4
(idecision_tree
decision_tree
p1029
(dp1030
g3
I47
sg48
(dp1031
S'22-FEB-2009'
p1032
(idecision_tree
decision_tree_leaf
p1033
(dp1034
g7
g8
(g9
tp1035
Rp1036
g12
I1
ssg17
g12
sbsS'01-JAN-2009'
p1037
(idecision_tree
decision_tree_leaf
p1038
(dp1039
g7
g8
(g9
tp1040
Rp1041
S'Pn'
p1042
I1
ssg17
g1042
sbssbsg18
(idecision_tree
decision_tree_leaf
p1043
(dp1044
g7
g8
(g9
tp1045
Rp1046
g12
I1
ssg17
g12
sbsbsbsbsbsg18
(idecision_tree
decision_tree_leaf
p1047
(dp1048
g7
g8
(g9
tp1049
Rp1050
g12
I13
sS'Sn'
p1051
I4
sS'Lg'
p1052
I1
ssg17
g12
sbsbsbsg18
(idecision_tree
continuous_decision_tree
p1053
(dp1054
g2
F12.0
sg3
I63
sg4
(idecision_tree
continuous_decision_tree
p1055
(dp1056
g2
F-0.5
sg3
I66
sg4
(idecision_tree
continuous_decision_tree
p1057
(dp1058
g2
F12.72915
sg3
I63
sg4
(idecision_tree
continuous_decision_tree
p1059
(dp1060
g2
F2.0
sg3
I62
sg4
(idecision_tree
decision_tree
p1061
(dp1062
g3
I47
sg48
(dp1063
S'05-JAN-2009'
p1064
(idecision_tree
decision_tree_leaf
p1065
(dp1066
g7
g8
(g9
tp1067
Rp1068
g13
I1
ssg17
g13
sbsS'06-DEC-2009'
p1069
(idecision_tree
decision_tree_leaf
p1070
(dp1071
g7
g8
(g9
tp1072
Rp1073
g12
I1
ssg17
g12
sbssbsg18
(idecision_tree
decision_tree_leaf
p1074
(dp1075
g7
g8
(g9
tp1076
Rp1077
g12
I1
ssg17
g12
sbsbsg18
(idecision_tree
decision_tree
p1078
(dp1079
g3
I47
sg48
(dp1080
S'11-AUG-2009'
p1081
(idecision_tree
decision_tree_leaf
p1082
(dp1083
g7
g8
(g9
tp1084
Rp1085
g12
I1
ssg17
g12
sbsS'11-JAN-2009'
p1086
(idecision_tree
decision_tree_leaf
p1087
(dp1088
g7
g8
(g9
tp1089
Rp1090
g13
I1
ssg17
g13
sbssbsbsg18
(idecision_tree
continuous_decision_tree
p1091
(dp1092
g2
F-2.5
sg3
I66
sg4
(idecision_tree
decision_tree
p1093
(dp1094
g3
I47
sg48
(dp1095
S'13-FEB-2009'
p1096
(idecision_tree
decision_tree_leaf
p1097
(dp1098
g7
g8
(g9
tp1099
Rp1100
g12
I1
ssg17
g12
sbsS'03-SEP-2009'
p1101
(idecision_tree
decision_tree_leaf
p1102
(dp1103
g7
g8
(g9
tp1104
Rp1105
g13
I1
ssg17
g13
sbssbsg18
(idecision_tree
decision_tree_leaf
p1106
(dp1107
g7
g8
(g9
tp1108
Rp1109
g12
I1
ssg17
g12
sbsbsbsg18
(idecision_tree
decision_tree
p1110
(dp1111
g3
I47
sg48
(dp1112
S'11-FEB-2009'
p1113
(idecision_tree
decision_tree_leaf
p1114
(dp1115
g7
g8
(g9
tp1116
Rp1117
g13
I1
ssg17
g13
sbsS'01-NOV-2009'
p1118
(idecision_tree
decision_tree_leaf
p1119
(dp1120
g7
g8
(g9
tp1121
Rp1122
g13
I1
ssg17
g13
sbsS'16-JUN-2009'
p1123
(idecision_tree
decision_tree_leaf
p1124
(dp1125
g7
g8
(g9
tp1126
Rp1127
g12
I1
ssg17
g12
sbsS'06-NOV-2009'
p1128
(idecision_tree
decision_tree_leaf
p1129
(dp1130
g7
g8
(g9
tp1131
Rp1132
g12
I1
ssg17
g12
sbsS'11-AUG-2009'
p1133
(idecision_tree
decision_tree_leaf
p1134
(dp1135
g7
g8
(g9
tp1136
Rp1137
g12
I1
ssg17
g12
sbsS'24-OCT-2009'
p1138
(idecision_tree
decision_tree_leaf
p1139
(dp1140
g7
g8
(g9
tp1141
Rp1142
g12
I1
ssg17
g12
sbsS'18-SEP-2009'
p1143
(idecision_tree
decision_tree_leaf
p1144
(dp1145
g7
g8
(g9
tp1146
Rp1147
g12
I1
ssg17
g12
sbsS'15-NOV-2009'
p1148
(idecision_tree
decision_tree_leaf
p1149
(dp1150
g7
g8
(g9
tp1151
Rp1152
g12
I1
ssg17
g12
sbsS'14-NOV-2009'
p1153
(idecision_tree
decision_tree_leaf
p1154
(dp1155
g7
g8
(g9
tp1156
Rp1157
g12
I1
ssg17
g12
sbsS'12-FEB-2009'
p1158
(idecision_tree
decision_tree_leaf
p1159
(dp1160
g7
g8
(g9
tp1161
Rp1162
g12
I1
ssg17
g12
sbssbsbsbsbsg18
(idecision_tree
continuous_decision_tree
p1163
(dp1164
g2
F-12.0
sg3
I59
sg4
(idecision_tree
continuous_decision_tree
p1165
(dp1166
g2
F-1.0
sg3
I66
sg4
(idecision_tree
continuous_decision_tree
p1167
(dp1168
g2
F0.0
sg3
I67
sg4
(idecision_tree
continuous_decision_tree
p1169
(dp1170
g2
F0.0
sg3
I62
sg4
(idecision_tree
decision_tree_leaf
p1171
(dp1172
g7
g8
(g9
tp1173
Rp1174
g12
I45
sS'Pn'
p1175
I15
sS'Sn'
p1176
I1
ssg17
g12
sbsg18
(idecision_tree
decision_tree_leaf
p1177
(dp1178
g7
g8
(g9
tp1179
Rp1180
S'Pn'
p1181
I2
ssg17
g1181
sbsbsg18
(idecision_tree
continuous_decision_tree
p1182
(dp1183
g2
F0.0
sg3
I63
sg4
(idecision_tree
continuous_decision_tree
p1184
(dp1185
g2
F-185.66649999999998
sg3
I67
sg4
(idecision_tree
continuous_decision_tree
p1186
(dp1187
g2
F-78.0
sg3
I67
sg4
(idecision_tree
continuous_decision_tree
p1188
(dp1189
g2
F0.5
sg3
I66
sg4
(idecision_tree
continuous_decision_tree
p1190
(dp1191
g2
F-36.5857
sg3
I67
sg4
(idecision_tree
decision_tree
p1192
(dp1193
g3
I47
sg48
(dp1194
S'11-NOV-2009'
p1195
(idecision_tree
decision_tree_leaf
p1196
(dp1197
g7
g8
(g9
tp1198
Rp1199
S'Pn'
p1200
I1
ssg17
g1200
sbsS'10-AUG-2009'
p1201
(idecision_tree
decision_tree_leaf
p1202
(dp1203
g7
g8
(g9
tp1204
Rp1205
g12
I1
ssg17
g12
sbsS'21-DEC-2009'
p1206
(idecision_tree
decision_tree_leaf
p1207
(dp1208
g7
g8
(g9
tp1209
Rp1210
g12
I1
ssg17
g12
sbsS'18-AUG-2009'
p1211
(idecision_tree
decision_tree_leaf
p1212
(dp1213
g7
g8
(g9
tp1214
Rp1215
g12
I1
ssg17
g12
sbssbsg18
(idecision_tree
decision_tree_leaf
p1216
(dp1217
g7
g8
(g9
tp1218
Rp1219
g12
I2
sS'Pn'
p1220
I1
ssg17
g12
sbsbsg18
(idecision_tree
decision_tree
p1221
(dp1222
g3
I47
sg48
(dp1223
S'14-MAY-2009'
p1224
(idecision_tree
decision_tree_leaf
p1225
(dp1226
g7
g8
(g9
tp1227
Rp1228
g12
I1
ssg17
g12
sbsS'26-APR-2009'
p1229
(idecision_tree
decision_tree_leaf
p1230
(dp1231
g7
g8
(g9
tp1232
Rp1233
g12
I1
ssg17
g12
sbsS'23-JAN-2009'
p1234
(idecision_tree
decision_tree_leaf
p1235
(dp1236
g7
g8
(g9
tp1237
Rp1238
S'Pn'
p1239
I1
ssg17
g1239
sbsS'28-MAY-2009'
p1240
(idecision_tree
decision_tree_leaf
p1241
(dp1242
g7
g8
(g9
tp1243
Rp1244
g12
I1
ssg17
g12
sbssbsbsg18
(idecision_tree
continuous_decision_tree
p1245
(dp1246
g2
F1.5
sg3
I66
sg4
(idecision_tree
decision_tree_leaf
p1247
(dp1248
g7
g8
(g9
tp1249
Rp1250
g12
I8
sg13
I1
sS'Pn'
p1251
I2
ssg17
g12
sbsg18
(idecision_tree
continuous_decision_tree
p1252
(dp1253
g2
F-0.5
sg3
I66
sg4
(idecision_tree
continuous_decision_tree
p1254
(dp1255
g2
F0.21252700000000002
sg3
I52
sg4
(idecision_tree
decision_tree
p1256
(dp1257
g3
I47
sg48
(dp1258
S'22-DEC-2009'
p1259
(idecision_tree
decision_tree_leaf
p1260
(dp1261
g7
g8
(g9
tp1262
Rp1263
S'Pn'
p1264
I1
ssg17
g1264
sbsS'01-MAY-2009'
p1265
(idecision_tree
decision_tree_leaf
p1266
(dp1267
g7
g8
(g9
tp1268
Rp1269
g12
I1
ssg17
g12
sbssbsg18
(idecision_tree
decision_tree_leaf
p1270
(dp1271
g7
g8
(g9
tp1272
Rp1273
g12
I1
ssg17
g12
sbsbsg18
(idecision_tree
decision_tree
p1274
(dp1275
g3
I47
sg48
(dp1276
S'01-JUL-2009'
p1277
(idecision_tree
decision_tree_leaf
p1278
(dp1279
g7
g8
(g9
tp1280
Rp1281
g12
I1
ssg17
g12
sbsS'03-AUG-2009'
p1282
(idecision_tree
decision_tree_leaf
p1283
(dp1284
g7
g8
(g9
tp1285
Rp1286
g12
I1
ssg17
g12
sbsS'05-AUG-2009'
p1287
(idecision_tree
decision_tree_leaf
p1288
(dp1289
g7
g8
(g9
tp1290
Rp1291
S'Pn'
p1292
I1
ssg17
g1292
sbsS'04-AUG-2009'
p1293
(idecision_tree
decision_tree_leaf
p1294
(dp1295
g7
g8
(g9
tp1296
Rp1297
g12
I1
ssg17
g12
sbssbsbsbsbsg18
(idecision_tree
decision_tree_leaf
p1298
(dp1299
g7
g8
(g9
tp1300
Rp1301
g12
I8
sS'Pn'
p1302
I3
ssg17
g12
sbsbsg18
(idecision_tree
continuous_decision_tree
p1303
(dp1304
g2
F-9.75
sg3
I63
sg4
(idecision_tree
continuous_decision_tree
p1305
(dp1306
g2
F-24.0
sg3
I67
sg4
(idecision_tree
continuous_decision_tree
p1307
(dp1308
g2
F1.0
sg3
I53
sg4
(idecision_tree
continuous_decision_tree
p1309
(dp1310
g2
F0.237796
sg3
I51
sg4
(idecision_tree
decision_tree
p1311
(dp1312
g3
I47
sg48
(dp1313
S'15-JAN-2009'
p1314
(idecision_tree
decision_tree_leaf
p1315
(dp1316
g7
g8
(g9
tp1317
Rp1318
S'Pn'
p1319
I1
ssg17
g1319
sbsS'17-APR-2009'
p1320
(idecision_tree
decision_tree_leaf
p1321
(dp1322
g7
g8
(g9
tp1323
Rp1324
g12
I1
ssg17
g12
sbssbsg18
(idecision_tree
continuous_decision_tree
p1325
(dp1326
g2
F0.24968400000000002
sg3
I50
sg4
(idecision_tree
decision_tree
p1327
(dp1328
g3
I47
sg48
(dp1329
S'30-NOV-2009'
p1330
(idecision_tree
decision_tree_leaf
p1331
(dp1332
g7
g8
(g9
tp1333
Rp1334
g12
I1
ssg17
g12
sbsS'24-MAR-2009'
p1335
(idecision_tree
decision_tree_leaf
p1336
(dp1337
g7
g8
(g9
tp1338
Rp1339
S'PKP'
p1340
I1
ssg17
g1340
sbssbsg18
(idecision_tree
decision_tree_leaf
p1341
(dp1342
g7
g8
(g9
tp1343
Rp1344
g12
I1
ssg17
g12
sbsbsbsg18
(idecision_tree
decision_tree_leaf
p1345
(dp1346
g7
g8
(g9
tp1347
Rp1348
g12
I2
ssg17
g12
sbsbsg18
(idecision_tree
continuous_decision_tree
p1349
(dp1350
g2
F-79.3889
sg3
I67
sg4
(idecision_tree
decision_tree
p1351
(dp1352
g3
I47
sg48
(dp1353
S'29-NOV-2009'
p1354
(idecision_tree
decision_tree_leaf
p1355
(dp1356
g7
g8
(g9
tp1357
Rp1358
S'Pn'
p1359
I1
ssg17
g1359
sbsS'04-SEP-2009'
p1360
(idecision_tree
decision_tree_leaf
p1361
(dp1362
g7
g8
(g9
tp1363
Rp1364
g12
I1
ssg17
g12
sbssbsg18
(idecision_tree
decision_tree_leaf
p1365
(dp1366
g7
g8
(g9
tp1367
Rp1368
g12
I1
ssg17
g12
sbsbsbsg18
(idecision_tree
continuous_decision_tree
p1369
(dp1370
g2
F-43.5
sg3
I67
sg4
(idecision_tree
decision_tree_leaf
p1371
(dp1372
g7
g8
(g9
tp1373
Rp1374
g12
I2
sS'Pn'
p1375
I1
ssg17
g12
sbsg18
(idecision_tree
decision_tree
p1376
(dp1377
g3
I47
sg48
(dp1378
S'07-JAN-2009'
p1379
(idecision_tree
decision_tree_leaf
p1380
(dp1381
g7
g8
(g9
tp1382
Rp1383
g12
I1
ssg17
g12
sbsS'21-APR-2009'
p1384
(idecision_tree
decision_tree_leaf
p1385
(dp1386
g7
g8
(g9
tp1387
Rp1388
S'Pn'
p1389
I1
ssg17
g1389
sbsS'11-DEC-2009'
p1390
(idecision_tree
decision_tree_leaf
p1391
(dp1392
g7
g8
(g9
tp1393
Rp1394
g12
I1
ssg17
g12
sbsS'11-MAY-2009'
p1395
(idecision_tree
decision_tree_leaf
p1396
(dp1397
g7
g8
(g9
tp1398
Rp1399
g12
I1
ssg17
g12
sbssbsbsbsbsbsg18
(idecision_tree
decision_tree_leaf
p1400
(dp1401
g7
g8
(g9
tp1402
Rp1403
g12
I11
sg13
I1
sS'Pn'
p1404
I2
ssg17
g12
sbsbsg18
(idecision_tree
continuous_decision_tree
p1405
(dp1406
g2
F-55.25
sg3
I67
sg4
(idecision_tree
continuous_decision_tree
p1407
(dp1408
g2
F-29.0
sg3
I67
sg4
(idecision_tree
continuous_decision_tree
p1409
(dp1410
g2
F51.166650000000004
sg3
I67
sg4
(idecision_tree
decision_tree
p1411
(dp1412
g3
I47
sg48
(dp1413
S'13-APR-2009'
p1414
(idecision_tree
decision_tree_leaf
p1415
(dp1416
g7
g8
(g9
tp1417
Rp1418
S'Sn'
p1419
I1
ssg17
g1419
sbsS'18-AUG-2009'
p1420
(idecision_tree
decision_tree_leaf
p1421
(dp1422
g7
g8
(g9
tp1423
Rp1424
g12
I1
ssg17
g12
sbsS'30-SEP-2009'
p1425
(idecision_tree
decision_tree_leaf
p1426
(dp1427
g7
g8
(g9
tp1428
Rp1429
g12
I1
ssg17
g12
sbsS'07-JUL-2009'
p1430
(idecision_tree
decision_tree_leaf
p1431
(dp1432
g7
g8
(g9
tp1433
Rp1434
g12
I1
ssg17
g12
sbssbsg18
(idecision_tree
continuous_decision_tree
p1435
(dp1436
g2
F-1.5
sg3
I58
sg4
(idecision_tree
decision_tree
p1437
(dp1438
g3
I47
sg48
(dp1439
S'26-JAN-2009'
p1440
(idecision_tree
decision_tree_leaf
p1441
(dp1442
g7
g8
(g9
tp1443
Rp1444
g13
I1
ssg17
g13
sbsS'15-JUN-2009'
p1445
(idecision_tree
decision_tree_leaf
p1446
(dp1447
g7
g8
(g9
tp1448
Rp1449
g12
I1
ssg17
g12
sbssbsg18
(idecision_tree
decision_tree_leaf
p1450
(dp1451
g7
g8
(g9
tp1452
Rp1453
g12
I1
ssg17
g12
sbsbsbsg18
(idecision_tree
decision_tree_leaf
p1454
(dp1455
g7
g8
(g9
tp1456
Rp1457
g12
I2
sS'Pn'
p1458
I1
ssg17
g12
sbsbsg18
(idecision_tree
decision_tree_leaf
p1459
(dp1460
g7
g8
(g9
tp1461
Rp1462
g12
I5
sS'Pn'
p1463
I2
ssg17
g12
sbsbsbsbsg18
(idecision_tree
continuous_decision_tree
p1464
(dp1465
g2
F0.132201
sg3
I48
sg4
(idecision_tree
continuous_decision_tree
p1466
(dp1467
g2
F23.53425
sg3
I42
sg4
(idecision_tree
continuous_decision_tree
p1468
(dp1469
g2
F0.17002899999999999
sg3
I48
sg4
(idecision_tree
continuous_decision_tree
p1470
(dp1471
g2
F0.331689
sg3
I48
sg4
(idecision_tree
continuous_decision_tree
p1472
(dp1473
g2
F-1.0
sg3
I66
sg4
(idecision_tree
decision_tree_leaf
p1474
(dp1475
g7
g8
(g9
tp1476
Rp1477
g12
I9
sg13
I2
sS'Sn'
p1478
I1
ssg17
g12
sbsg18
(idecision_tree
continuous_decision_tree
p1479
(dp1480
g2
F-86.16665
sg3
I67
sg4
(idecision_tree
continuous_decision_tree
p1481
(dp1482
g2
F0.3469415
sg3
I48
sg4
(idecision_tree
decision_tree
p1483
(dp1484
g3
I47
sg48
(dp1485
S'29-JUL-2009'
p1486
(idecision_tree
decision_tree_leaf
p1487
(dp1488
g7
g8
(g9
tp1489
Rp1490
g13
I1
ssg17
g13
sbsS'19-JAN-2009'
p1491
(idecision_tree
decision_tree_leaf
p1492
(dp1493
g7
g8
(g9
tp1494
Rp1495
g12
I1
ssg17
g12
sbssbsg18
(idecision_tree
decision_tree_leaf
p1496
(dp1497
g7
g8
(g9
tp1498
Rp1499
g12
I1
ssg17
g12
sbsbsg18
(idecision_tree
continuous_decision_tree
p1500
(dp1501
g2
F-4.0
sg3
I66
sg4
(idecision_tree
decision_tree
p1502
(dp1503
g3
I47
sg48
(dp1504
S'06-DEC-2009'
p1505
(idecision_tree
decision_tree_leaf
p1506
(dp1507
g7
g8
(g9
tp1508
Rp1509
S'Sn'
p1510
I1
ssg17
g1510
sbsS'29-AUG-2009'
p1511
(idecision_tree
decision_tree_leaf
p1512
(dp1513
g7
g8
(g9
tp1514
Rp1515
g12
I1
ssg17
g12
sbssbsg18
(idecision_tree
decision_tree_leaf
p1516
(dp1517
g7
g8
(g9
tp1518
Rp1519
g12
I1
ssg17
g12
sbsbsbsbsg18
(idecision_tree
continuous_decision_tree
p1520
(dp1521
g2
F-2.0
sg3
I66
sg4
(idecision_tree
continuous_decision_tree
p1522
(dp1523
g2
F249.595
sg3
I42
sg4
(idecision_tree
continuous_decision_tree
p1524
(dp1525
g2
F-6.5
sg3
I63
sg4
(idecision_tree
continuous_decision_tree
p1526
(dp1527
g2
F176.853
sg3
I43
sg4
(idecision_tree
continuous_decision_tree
p1528
(dp1529
g2
F0.0
sg3
I67
sg4
(idecision_tree
decision_tree_leaf
p1530
(dp1531
g7
g8
(g9
tp1532
Rp1533
g12
I13
sg13
I1
sS'Pn'
p1534
I1
sS'Sn'
p1535
I1
ssg17
g12
sbsg18
(idecision_tree
continuous_decision_tree
p1536
(dp1537
g2
F1.0
sg3
I66
sg4
(idecision_tree
continuous_decision_tree
p1538
(dp1539
g2
F1.5
sg3
I66
sg4
(idecision_tree
continuous_decision_tree
p1540
(dp1541
g2
F3.0
sg3
I66
sg4
(idecision_tree
decision_tree
p1542
(dp1543
g3
I47
sg48
(dp1544
S'28-MAR-2009'
p1545
(idecision_tree
decision_tree_leaf
p1546
(dp1547
g7
g8
(g9
tp1548
Rp1549
g12
I1
ssg17
g12
sbsS'07-JUL-2009'
p1550
(idecision_tree
decision_tree_leaf
p1551
(dp1552
g7
g8
(g9
tp1553
Rp1554
S'Pn'
p1555
I1
ssg17
g1555
sbssbsg18
(idecision_tree
decision_tree
p1556
(dp1557
g3
I47
sg48
(dp1558
S'09-SEP-2009'
p1559
(idecision_tree
decision_tree_leaf
p1560
(dp1561
g7
g8
(g9
tp1562
Rp1563
g12
I1
ssg17
g12
sbsS'10-APR-2009'
p1564
(idecision_tree
decision_tree_leaf
p1565
(dp1566
g7
g8
(g9
tp1567
Rp1568
g13
I1
ssg17
g13
sbssbsbsg18
(idecision_tree
decision_tree
p1569
(dp1570
g3
I47
sg48
(dp1571
S'28-SEP-2009'
p1572
(idecision_tree
decision_tree_leaf
p1573
(dp1574
g7
g8
(g9
tp1575
Rp1576
g12
I1
ssg17
g12
sbsS'12-MAR-2009'
p1577
(idecision_tree
decision_tree_leaf
p1578
(dp1579
g7
g8
(g9
tp1580
Rp1581
S'Sn'
p1582
I1
ssg17
g1582
sbssbsbsg18
(idecision_tree
decision_tree
p1583
(dp1584
g3
I47
sg48
(dp1585
S'23-OCT-2009'
p1586
(idecision_tree
decision_tree_leaf
p1587
(dp1588
g7
g8
(g9
tp1589
Rp1590
g12
I1
ssg17
g12
sbsS'03-JAN-2009'
p1591
(idecision_tree
decision_tree_leaf
p1592
(dp1593
g7
g8
(g9
tp1594
Rp1595
g12
I1
ssg17
g12
sbsS'23-JUN-2009'
p1596
(idecision_tree
decision_tree_leaf
p1597
(dp1598
g7
g8
(g9
tp1599
Rp1600
S'Sn'
p1601
I1
ssg17
g1601
sbsS'08-OCT-2009'
p1602
(idecision_tree
decision_tree_leaf
p1603
(dp1604
g7
g8
(g9
tp1605
Rp1606
g12
I1
ssg17
g12
sbssbsbsbsg18
(idecision_tree
continuous_decision_tree
p1607
(dp1608
g2
F15.0
sg3
I63
sg4
(idecision_tree
continuous_decision_tree
p1609
(dp1610
g2
F2.0
sg3
I66
sg4
(idecision_tree
decision_tree
p1611
(dp1612
g3
I47
sg48
(dp1613
S'17-FEB-2009'
p1614
(idecision_tree
decision_tree_leaf
p1615
(dp1616
g7
g8
(g9
tp1617
Rp1618
g12
I1
ssg17
g12
sbsS'10-OCT-2009'
p1619
(idecision_tree
decision_tree_leaf
p1620
(dp1621
g7
g8
(g9
tp1622
Rp1623
g12
I1
ssg17
g12
sbsS'29-AUG-2009'
p1624
(idecision_tree
decision_tree_leaf
p1625
(dp1626
g7
g8
(g9
tp1627
Rp1628
g13
I1
ssg17
g13
sbsS'03-DEC-2009'
p1629
(idecision_tree
decision_tree_leaf
p1630
(dp1631
g7
g8
(g9
tp1632
Rp1633
g12
I1
ssg17
g12
sbssbsg18
(idecision_tree
decision_tree_leaf
p1634
(dp1635
g7
g8
(g9
tp1636
Rp1637
g13
I1
ssg17
g13
sbsbsg18
(idecision_tree
decision_tree
p1638
(dp1639
g3
I47
sg48
(dp1640
S'08-APR-2009'
p1641
(idecision_tree
decision_tree_leaf
p1642
(dp1643
g7
g8
(g9
tp1644
Rp1645
g12
I2
ssg17
g12
sbsS'28-MAR-2009'
p1646
(idecision_tree
decision_tree_leaf
p1647
(dp1648
g7
g8
(g9
tp1649
Rp1650
S'Sn'
p1651
I1
ssg17
g1651
sbsS'26-AUG-2009'
p1652
(idecision_tree
decision_tree_leaf
p1653
(dp1654
g7
g8
(g9
tp1655
Rp1656
g12
I1
ssg17
g12
sbsS'30-JAN-2009'
p1657
(idecision_tree
decision_tree_leaf
p1658
(dp1659
g7
g8
(g9
tp1660
Rp1661
g12
I1
ssg17
g12
sbsS'11-APR-2009'
p1662
(idecision_tree
decision_tree_leaf
p1663
(dp1664
g7
g8
(g9
tp1665
Rp1666
g12
I1
ssg17
g12
sbsS'24-NOV-2009'
p1667
(idecision_tree
decision_tree_leaf
p1668
(dp1669
g7
g8
(g9
tp1670
Rp1671
g12
I1
ssg17
g12
sbsS'19-JUN-2009'
p1672
(idecision_tree
decision_tree_leaf
p1673
(dp1674
g7
g8
(g9
tp1675
Rp1676
g12
I1
ssg17
g12
sbsS'25-JAN-2009'
p1677
(idecision_tree
decision_tree_leaf
p1678
(dp1679
g7
g8
(g9
tp1680
Rp1681
S'Pn'
p1682
I1
ssg17
g1682
sbsS'09-OCT-2009'
p1683
(idecision_tree
decision_tree_leaf
p1684
(dp1685
g7
g8
(g9
tp1686
Rp1687
g12
I1
ssg17
g12
sbssbsbsbsg18
(idecision_tree
continuous_decision_tree
p1688
(dp1689
g2
F-1.0
sg3
I62
sg4
(idecision_tree
continuous_decision_tree
p1690
(dp1691
g2
F-0.5
sg3
I66
sg4
(idecision_tree
continuous_decision_tree
p1692
(dp1693
g2
F-44.166650000000004
sg3
I63
sg4
(idecision_tree
decision_tree
p1694
(dp1695
g3
I47
sg48
(dp1696
S'08-OCT-2009'
p1697
(idecision_tree
decision_tree_leaf
p1698
(dp1699
g7
g8
(g9
tp1700
Rp1701
g12
I2
ssg17
g12
sbsS'04-AUG-2009'
p1702
(idecision_tree
decision_tree_leaf
p1703
(dp1704
g7
g8
(g9
tp1705
Rp1706
g13
I1
ssg17
g13
sbssbsg18
(idecision_tree
continuous_decision_tree
p1707
(dp1708
g2
F-0.5
sg3
I62
sg4
(idecision_tree
decision_tree
p1709
(dp1710
g3
I47
sg48
(dp1711
S'16-MAY-2009'
p1712
(idecision_tree
decision_tree_leaf
p1713
(dp1714
g7
g8
(g9
tp1715
Rp1716
g12
I1
ssg17
g12
sbsS'24-JAN-2009'
p1717
(idecision_tree
decision_tree_leaf
p1718
(dp1719
g7
g8
(g9
tp1720
Rp1721
g13
I1
ssg17
g13
sbssbsg18
(idecision_tree
decision_tree_leaf
p1722
(dp1723
g7
g8
(g9
tp1724
Rp1725
g12
I1
ssg17
g12
sbsbsbsg18
(idecision_tree
continuous_decision_tree
p1726
(dp1727
g2
F-120.91665
sg3
I67
sg4
(idecision_tree
decision_tree
p1728
(dp1729
g3
I47
sg48
(dp1730
S'09-MAY-2009'
p1731
(idecision_tree
decision_tree_leaf
p1732
(dp1733
g7
g8
(g9
tp1734
Rp1735
S'Sn'
p1736
I1
ssg17
g1736
sbsS'19-JAN-2009'
p1737
(idecision_tree
decision_tree_leaf
p1738
(dp1739
g7
g8
(g9
tp1740
Rp1741
g12
I1
ssg17
g12
sbssbsg18
(idecision_tree
decision_tree_leaf
p1742
(dp1743
g7
g8
(g9
tp1744
Rp1745
g12
I1
ssg17
g12
sbsbsbsg18
(idecision_tree
decision_tree_leaf
p1746
(dp1747
g7
g8
(g9
tp1748
Rp1749
g12
I1
ssg17
g12
sbsbsbsg18
(idecision_tree
continuous_decision_tree
p1750
(dp1751
g2
F-112.1405
sg3
I67
sg4
(idecision_tree
continuous_decision_tree
p1752
(dp1753
g2
F0.309287
sg3
I49
sg4
(idecision_tree
continuous_decision_tree
p1754
(dp1755
g2
F0.5
sg3
I62
sg4
(idecision_tree
continuous_decision_tree
p1756
(dp1757
g2
F2.0
sg3
I62
sg4
(idecision_tree
decision_tree_leaf
p1758
(dp1759
g7
g8
(g9
tp1760
Rp1761
g12
I4
sS'Sn'
p1762
I2
ssg17
g12
sbsg18
(idecision_tree
decision_tree
p1763
(dp1764
g3
I47
sg48
(dp1765
S'13-APR-2009'
p1766
(idecision_tree
decision_tree_leaf
p1767
(dp1768
g7
g8
(g9
tp1769
Rp1770
g12
I1
ssg17
g12
sbsS'22-OCT-2009'
p1771
(idecision_tree
decision_tree_leaf
p1772
(dp1773
g7
g8
(g9
tp1774
Rp1775
g12
I1
ssg17
g12
sbsS'06-JAN-2009'
p1776
(idecision_tree
decision_tree_leaf
p1777
(dp1778
g7
g8
(g9
tp1779
Rp1780
g12
I1
ssg17
g12
sbsS'02-NOV-2009'
p1781
(idecision_tree
decision_tree_leaf
p1782
(dp1783
g7
g8
(g9
tp1784
Rp1785
S'Pn'
p1786
I1
ssg17
g1786
sbsS'16-APR-2009'
p1787
(idecision_tree
decision_tree_leaf
p1788
(dp1789
g7
g8
(g9
tp1790
Rp1791
g12
I1
ssg17
g12
sbssbsbsg18
(idecision_tree
continuous_decision_tree
p1792
(dp1793
g2
F0.0
sg3
I66
sg4
(idecision_tree
decision_tree_leaf
p1794
(dp1795
g7
g8
(g9
tp1796
Rp1797
g12
I9
sg13
I1
sS'Pn'
p1798
I2
sS'Sn'
p1799
I1
ssg17
g12
sbsg18
(idecision_tree
decision_tree
p1800
(dp1801
g3
I47
sg48
(dp1802
S'06-AUG-2009'
p1803
(idecision_tree
decision_tree_leaf
p1804
(dp1805
g7
g8
(g9
tp1806
Rp1807
S'Sn'
p1808
I1
ssg17
g1808
sbsS'23-AUG-2009'
p1809
(idecision_tree
decision_tree_leaf
p1810
(dp1811
g7
g8
(g9
tp1812
Rp1813
g12
I1
ssg17
g12
sbsS'29-JUL-2009'
p1814
(idecision_tree
decision_tree_leaf
p1815
(dp1816
g7
g8
(g9
tp1817
Rp1818
g12
I1
ssg17
g12
sbsS'18-MAY-2009'
p1819
(idecision_tree
decision_tree_leaf
p1820
(dp1821
g7
g8
(g9
tp1822
Rp1823
g12
I1
ssg17
g12
sbsS'06-APR-2009'
p1824
(idecision_tree
decision_tree_leaf
p1825
(dp1826
g7
g8
(g9
tp1827
Rp1828
g12
I1
ssg17
g12
sbssbsbsbsg18
(idecision_tree
continuous_decision_tree
p1829
(dp1830
g2
F180.612
sg3
I43
sg4
(idecision_tree
decision_tree
p1831
(dp1832
g3
I47
sg48
(dp1833
S'20-JAN-2009'
p1834
(idecision_tree
decision_tree_leaf
p1835
(dp1836
g7
g8
(g9
tp1837
Rp1838
g12
I1
ssg17
g12
sbsS'12-SEP-2009'
p1839
(idecision_tree
decision_tree_leaf
p1840
(dp1841
g7
g8
(g9
tp1842
Rp1843
S'PKP'
p1844
I1
ssg17
g1844
sbsS'23-MAR-2009'
p1845
(idecision_tree
decision_tree_leaf
p1846
(dp1847
g7
g8
(g9
tp1848
Rp1849
g12
I1
ssg17
g12
sbsS'08-DEC-2009'
p1850
(idecision_tree
decision_tree_leaf
p1851
(dp1852
g7
g8
(g9
tp1853
Rp1854
g12
I1
ssg17
g12
sbssbsg18
(idecision_tree
decision_tree_leaf
p1855
(dp1856
g7
g8
(g9
tp1857
Rp1858
g12
I5
sg13
I1
sS'Pn'
p1859
I1
ssg17
g12
sbsbsbsg18
(idecision_tree
continuous_decision_tree
p1860
(dp1861
g2
F0.0
sg3
I59
sg4
(idecision_tree
decision_tree_leaf
p1862
(dp1863
g7
g8
(g9
tp1864
Rp1865
g12
I7
sS'PKP'
p1866
I1
sS'Pn'
p1867
I1
sg13
I1
ssg17
g12
sbsg18
(idecision_tree
decision_tree_leaf
p1868
(dp1869
g7
g8
(g9
tp1870
Rp1871
g12
I1
ssg17
g12
sbsbsbsbsg18
(idecision_tree
continuous_decision_tree
p1872
(dp1873
g2
F-198.75
sg3
I67
sg4
(idecision_tree
continuous_decision_tree
p1874
(dp1875
g2
F-5.0
sg3
I66
sg4
(idecision_tree
continuous_decision_tree
p1876
(dp1877
g2
F-98.35415
sg3
I67
sg4
(idecision_tree
continuous_decision_tree
p1878
(dp1879
g2
F-64.41665
sg3
I67
sg4
(idecision_tree
decision_tree
p1880
(dp1881
g3
I47
sg48
(dp1882
S'25-APR-2009'
p1883
(idecision_tree
decision_tree_leaf
p1884
(dp1885
g7
g8
(g9
tp1886
Rp1887
g12
I1
ssg17
g12
sbsS'23-JUN-2009'
p1888
(idecision_tree
decision_tree_leaf
p1889
(dp1890
g7
g8
(g9
tp1891
Rp1892
S'Sn'
p1893
I1
ssg17
g1893
sbssbsg18
(idecision_tree
decision_tree_leaf
p1894
(dp1895
g7
g8
(g9
tp1896
Rp1897
g12
I1
ssg17
g12
sbsbsg18
(idecision_tree
decision_tree
p1898
(dp1899
g3
I47
sg48
(dp1900
S'15-OCT-2009'
p1901
(idecision_tree
decision_tree_leaf
p1902
(dp1903
g7
g8
(g9
tp1904
Rp1905
g12
I1
ssg17
g12
sbsS'05-MAR-2009'
p1906
(idecision_tree
decision_tree_leaf
p1907
(dp1908
g7
g8
(g9
tp1909
Rp1910
g12
I1
ssg17
g12
sbsS'04-JAN-2009'
p1911
(idecision_tree
decision_tree_leaf
p1912
(dp1913
g7
g8
(g9
tp1914
Rp1915
g13
I1
ssg17
g13
sbsS'19-MAR-2009'
p1916
(idecision_tree
decision_tree_leaf
p1917
(dp1918
g7
g8
(g9
tp1919
Rp1920
g12
I1
ssg17
g12
sbssbsbsg18
(idecision_tree
decision_tree_leaf
p1921
(dp1922
g7
g8
(g9
tp1923
Rp1924
g12
I2
sS'Sn'
p1925
I1
ssg17
g12
sbsbsg18
(idecision_tree
continuous_decision_tree
p1926
(dp1927
g2
F-4.0
sg3
I66
sg4
(idecision_tree
decision_tree
p1928
(dp1929
g3
I47
sg48
(dp1930
S'23-OCT-2009'
p1931
(idecision_tree
decision_tree_leaf
p1932
(dp1933
g7
g8
(g9
tp1934
Rp1935
g12
I1
ssg17
g12
sbsS'22-JAN-2009'
p1936
(idecision_tree
decision_tree_leaf
p1937
(dp1938
g7
g8
(g9
tp1939
Rp1940
S'Sn'
p1941
I1
ssg17
g1941
sbssbsg18
(idecision_tree
decision_tree_leaf
p1942
(dp1943
g7
g8
(g9
tp1944
Rp1945
g12
I1
ssg17
g12
sbsbsbsbsbsg18
(idecision_tree
continuous_decision_tree
p1946
(dp1947
g2
F0.30365
sg3
I49
sg4
(idecision_tree
continuous_decision_tree
p1948
(dp1949
g2
F-11.5
sg3
I59
sg4
(idecision_tree
continuous_decision_tree
p1950
(dp1951
g2
F0.506502
sg3
I49
sg4
(idecision_tree
decision_tree
p1952
(dp1953
g3
I47
sg48
(dp1954
S'13-MAR-2009'
p1955
(idecision_tree
decision_tree_leaf
p1956
(dp1957
g7
g8
(g9
tp1958
Rp1959
g13
I1
ssg17
g13
sbsS'22-APR-2009'
p1960
(idecision_tree
decision_tree_leaf
p1961
(dp1962
g7
g8
(g9
tp1963
Rp1964
g12
I1
ssg17
g12
sbsS'29-JUL-2009'
p1965
(idecision_tree
decision_tree_leaf
p1966
(dp1967
g7
g8
(g9
tp1968
Rp1969
g12
I1
ssg17
g12
sbsS'25-NOV-2009'
p1970
(idecision_tree
decision_tree_leaf
p1971
(dp1972
g7
g8
(g9
tp1973
Rp1974
g12
I1
ssg17
g12
sbssbsg18
(idecision_tree
decision_tree_leaf
p1975
(dp1976
g7
g8
(g9
tp1977
Rp1978
g12
I2
sS'Sn'
p1979
I1
ssg17
g12
sbsbsg18
(idecision_tree
decision_tree
p1980
(dp1981
g3
I47
sg48
(dp1982
S'28-MAR-2009'
p1983
(idecision_tree
decision_tree_leaf
p1984
(dp1985
g7
g8
(g9
tp1986
Rp1987
g12
I1
ssg17
g12
sbsS'07-JUN-2009'
p1988
(idecision_tree
decision_tree_leaf
p1989
(dp1990
g7
g8
(g9
tp1991
Rp1992
g12
I1
ssg17
g12
sbsS'08-JUN-2009'
p1993
(idecision_tree
decision_tree_leaf
p1994
(dp1995
g7
g8
(g9
tp1996
Rp1997
S'Pn'
p1998
I1
ssg17
g1998
sbsS'14-JUL-2009'
p1999
(idecision_tree
decision_tree_leaf
p2000
(dp2001
g7
g8
(g9
tp2002
Rp2003
g12
I1
ssg17
g12
sbssbsbsg18
(idecision_tree
continuous_decision_tree
p2004
(dp2005
g2
F0.0
sg3
I62
sg4
(idecision_tree
continuous_decision_tree
p2006
(dp2007
g2
F2.5
sg3
I66
sg4
(idecision_tree
decision_tree
p2008
(dp2009
g3
I47
sg48
(dp2010
S'03-JAN-2009'
p2011
(idecision_tree
decision_tree_leaf
p2012
(dp2013
g7
g8
(g9
tp2014
Rp2015
g13
I1
ssg17
g13
sbsS'31-OCT-2009'
p2016
(idecision_tree
decision_tree_leaf
p2017
(dp2018
g7
g8
(g9
tp2019
Rp2020
g12
I1
ssg17
g12
sbssbsg18
(idecision_tree
decision_tree_leaf
p2021
(dp2022
g7
g8
(g9
tp2023
Rp2024
g12
I2
sS'Sn'
p2025
I1
ssg17
g12
sbsbsg18
(idecision_tree
decision_tree_leaf
p2026
(dp2027
g7
g8
(g9
tp2028
Rp2029
g12
I2
ssg17
g12
sbsbsbsbsg18
(idecision_tree
continuous_decision_tree
p2030
(dp2031
g2
F18.62455
sg3
I32
sg4
(idecision_tree
continuous_decision_tree
p2032
(dp2033
g2
F0.0
sg3
I66
sg4
(idecision_tree
decision_tree_leaf
p2034
(dp2035
g7
g8
(g9
tp2036
Rp2037
g12
I4
sg13
I1
sS'Sn'
p2038
I1
ssg17
g12
sbsg18
(idecision_tree
decision_tree_leaf
p2039
(dp2040
g7
g8
(g9
tp2041
Rp2042
g12
I1
ssg17
g12
sbsbsg18
(idecision_tree
continuous_decision_tree
p2043
(dp2044
g2
F2.4536249999999997
sg3
I30
sg4
(idecision_tree
continuous_decision_tree
p2045
(dp2046
g2
F1.0
sg3
I62
sg4
(idecision_tree
continuous_decision_tree
p2047
(dp2048
g2
F25.5
sg3
I63
sg4
(idecision_tree
decision_tree
p2049
(dp2050
g3
I47
sg48
(dp2051
S'03-JUN-2009'
p2052
(idecision_tree
decision_tree_leaf
p2053
(dp2054
g7
g8
(g9
tp2055
Rp2056
g13
I1
ssg17
g13
sbsS'18-JUL-2009'
p2057
(idecision_tree
decision_tree_leaf
p2058
(dp2059
g7
g8
(g9
tp2060
Rp2061
g12
I1
ssg17
g12
sbssbsg18
(idecision_tree
decision_tree
p2062
(dp2063
g3
I47
sg48
(dp2064
S'05-NOV-2009'
p2065
(idecision_tree
decision_tree_leaf
p2066
(dp2067
g7
g8
(g9
tp2068
Rp2069
g13
I1
ssg17
g13
sbsS'18-AUG-2009'
p2070
(idecision_tree
decision_tree_leaf
p2071
(dp2072
g7
g8
(g9
tp2073
Rp2074
g12
I1
ssg17
g12
sbssbsbsg18
(idecision_tree
decision_tree_leaf
p2075
(dp2076
g7
g8
(g9
tp2077
Rp2078
g12
I3
ssg17
g12
sbsbsg18
(idecision_tree
decision_tree
p2079
(dp2080
g3
I47
sg48
(dp2081
S'01-AUG-2009'
p2082
(idecision_tree
decision_tree_leaf
p2083
(dp2084
g7
g8
(g9
tp2085
Rp2086
g12
I1
ssg17
g12
sbsS'23-MAR-2009'
p2087
(idecision_tree
decision_tree_leaf
p2088
(dp2089
g7
g8
(g9
tp2090
Rp2091
g12
I1
ssg17
g12
sbsS'04-JAN-2009'
p2092
(idecision_tree
decision_tree_leaf
p2093
(dp2094
g7
g8
(g9
tp2095
Rp2096
g13
I1
ssg17
g13
sbsS'08-OCT-2009'
p2097
(idecision_tree
decision_tree_leaf
p2098
(dp2099
g7
g8
(g9
tp2100
Rp2101
g12
I1
ssg17
g12
sbssbsbsbsbsg18
(idecision_tree
decision_tree_leaf
p2102
(dp2103
g7
g8
(g9
tp2104
Rp2105
g12
I13
sg13
I2
sS'Pn'
p2106
I1
sS'Sn'
p2107
I2
ssg17
g12
sbsbsbsbsg18
(idecision_tree
continuous_decision_tree
p2108
(dp2109
g2
F-103.75
sg3
I67
sg4
(idecision_tree
continuous_decision_tree
p2110
(dp2111
g2
F-5.0
sg3
I66
sg4
(idecision_tree
continuous_decision_tree
p2112
(dp2113
g2
F0.551346
sg3
I49
sg4
(idecision_tree
decision_tree_leaf
p2114
(dp2115
g7
g8
(g9
tp2116
Rp2117
g12
I5
sg13
I1
sS'Sn'
p2118
I2
ssg17
g12
sbsg18
(idecision_tree
continuous_decision_tree
p2119
(dp2120
g2
F-34.125
sg3
I67
sg4
(idecision_tree
continuous_decision_tree
p2121
(dp2122
g2
F-17.7857
sg3
I67
sg4
(idecision_tree
decision_tree_leaf
p2123
(dp2124
g7
g8
(g9
tp2125
Rp2126
g12
I2
sS'Sn'
p2127
I1
ssg17
g12
sbsg18
(idecision_tree
decision_tree
p2128
(dp2129
g3
I47
sg48
(dp2130
S'29-APR-2009'
p2131
(idecision_tree
decision_tree_leaf
p2132
(dp2133
g7
g8
(g9
tp2134
Rp2135
g12
I1
ssg17
g12
sbsS'26-JUL-2009'
p2136
(idecision_tree
decision_tree_leaf
p2137
(dp2138
g7
g8
(g9
tp2139
Rp2140
S'Sn'
p2141
I1
ssg17
g2141
sbssbsbsg18
(idecision_tree
continuous_decision_tree
p2142
(dp2143
g2
F-2.0
sg3
I58
sg4
(idecision_tree
decision_tree
p2144
(dp2145
g3
I47
sg48
(dp2146
S'08-OCT-2009'
p2147
(idecision_tree
decision_tree_leaf
p2148
(dp2149
g7
g8
(g9
tp2150
Rp2151
g12
I1
ssg17
g12
sbsS'20-FEB-2009'
p2152
(idecision_tree
decision_tree_leaf
p2153
(dp2154
g7
g8
(g9
tp2155
Rp2156
g13
I1
ssg17
g13
sbssbsg18
(idecision_tree
decision_tree_leaf
p2157
(dp2158
g7
g8
(g9
tp2159
Rp2160
g12
I1
ssg17
g12
sbsbsbsbsg18
(idecision_tree
decision_tree
p2161
(dp2162
g3
I47
sg48
(dp2163
S'29-SEP-2009'
p2164
(idecision_tree
decision_tree_leaf
p2165
(dp2166
g7
g8
(g9
tp2167
Rp2168
g12
I1
ssg17
g12
sbsS'30-SEP-2009'
p2169
(idecision_tree
decision_tree_leaf
p2170
(dp2171
g7
g8
(g9
tp2172
Rp2173
g13
I1
ssg17
g13
sbsS'04-JUL-2009'
p2174
(idecision_tree
decision_tree_leaf
p2175
(dp2176
g7
g8
(g9
tp2177
Rp2178
g12
I1
ssg17
g12
sbsS'15-APR-2009'
p2179
(idecision_tree
decision_tree_leaf
p2180
(dp2181
g7
g8
(g9
tp2182
Rp2183
g12
I1
ssg17
g12
sbsS'20-APR-2009'
p2184
(idecision_tree
decision_tree_leaf
p2185
(dp2186
g7
g8
(g9
tp2187
Rp2188
g12
I1
ssg17
g12
sbssbsbsg18
(idecision_tree
continuous_decision_tree
p2189
(dp2190
g2
F-9.5
sg3
I66
sg4
(idecision_tree
decision_tree
p2191
(dp2192
g3
I47
sg48
(dp2193
S'16-OCT-2009'
p2194
(idecision_tree
decision_tree_leaf
p2195
(dp2196
g7
g8
(g9
tp2197
Rp2198
g13
I1
ssg17
g13
sbsS'11-FEB-2009'
p2199
(idecision_tree
decision_tree_leaf
p2200
(dp2201
g7
g8
(g9
tp2202
Rp2203
g12
I1
ssg17
g12
sbssbsg18
(idecision_tree
decision_tree_leaf
p2204
(dp2205
g7
g8
(g9
tp2206
Rp2207
g12
I1
ssg17
g12
sbsbsbsbsbsg18
(idecision_tree
continuous_decision_tree
p2208
(dp2209
g2
F245.1025
sg3
I42
sg4
(idecision_tree
continuous_decision_tree
p2210
(dp2211
g2
F2.63545
sg3
I49
sg4
(idecision_tree
continuous_decision_tree
p2212
(dp2213
g2
F-5.5
sg3
I59
sg4
(idecision_tree
continuous_decision_tree
p2214
(dp2215
g2
F-27.70835
sg3
I67
sg4
(idecision_tree
decision_tree_leaf
p2216
(dp2217
g7
g8
(g9
tp2218
Rp2219
g12
I8
sg13
I1
sS'Pn'
p2220
I1
sS'Sn'
p2221
I1
ssg17
g12
sbsg18
(idecision_tree
continuous_decision_tree
p2222
(dp2223
g2
F-99.525
sg3
I67
sg4
(idecision_tree
continuous_decision_tree
p2224
(dp2225
g2
F1.0
sg3
I62
sg4
(idecision_tree
decision_tree
p2226
(dp2227
g3
I47
sg48
(dp2228
S'28-JUL-2009'
p2229
(idecision_tree
decision_tree_leaf
p2230
(dp2231
g7
g8
(g9
tp2232
Rp2233
S'Sn'
p2234
I1
ssg17
g2234
sbsS'16-APR-2009'
p2235
(idecision_tree
decision_tree_leaf
p2236
(dp2237
g7
g8
(g9
tp2238
Rp2239
g12
I1
ssg17
g12
sbssbsg18
(idecision_tree
decision_tree_leaf
p2240
(dp2241
g7
g8
(g9
tp2242
Rp2243
g12
I1
ssg17
g12
sbsbsg18
(idecision_tree
decision_tree
p2244
(dp2245
g3
I47
sg48
(dp2246
S'10-FEB-2009'
p2247
(idecision_tree
decision_tree_leaf
p2248
(dp2249
g7
g8
(g9
tp2250
Rp2251
g13
I1
ssg17
g13
sbsS'14-FEB-2009'
p2252
(idecision_tree
decision_tree_leaf
p2253
(dp2254
g7
g8
(g9
tp2255
Rp2256
g12
I1
ssg17
g12
sbsS'14-JUN-2009'
p2257
(idecision_tree
decision_tree_leaf
p2258
(dp2259
g7
g8
(g9
tp2260
Rp2261
g12
I1
ssg17
g12
sbsS'13-FEB-2009'
p2262
(idecision_tree
decision_tree_leaf
p2263
(dp2264
g7
g8
(g9
tp2265
Rp2266
g12
I1
ssg17
g12
sbssbsbsbsg18
(idecision_tree
continuous_decision_tree
p2267
(dp2268
g2
F-2.0
sg3
I66
sg4
(idecision_tree
decision_tree
p2269
(dp2270
g3
I47
sg48
(dp2271
S'21-JUL-2009'
p2272
(idecision_tree
decision_tree_leaf
p2273
(dp2274
g7
g8
(g9
tp2275
Rp2276
g12
I1
ssg17
g12
sbsS'17-JUN-2009'
p2277
(idecision_tree
decision_tree_leaf
p2278
(dp2279
g7
g8
(g9
tp2280
Rp2281
g12
I1
ssg17
g12
sbsS'22-OCT-2009'
p2282
(idecision_tree
decision_tree_leaf
p2283
(dp2284
g7
g8
(g9
tp2285
Rp2286
g12
I1
ssg17
g12
sbsS'03-SEP-2009'
p2287
(idecision_tree
decision_tree_leaf
p2288
(dp2289
g7
g8
(g9
tp2290
Rp2291
S'Pn'
p2292
I1
ssg17
g2292
sbsS'08-OCT-2009'
p2293
(idecision_tree
decision_tree_leaf
p2294
(dp2295
g7
g8
(g9
tp2296
Rp2297
g12
I1
ssg17
g12
sbssbsg18
(idecision_tree
decision_tree
p2298
(dp2299
g3
I47
sg48
(dp2300
S'21-MAY-2009'
p2301
(idecision_tree
decision_tree_leaf
p2302
(dp2303
g7
g8
(g9
tp2304
Rp2305
g12
I1
ssg17
g12
sbsS'03-JAN-2009'
p2306
(idecision_tree
decision_tree_leaf
p2307
(dp2308
g7
g8
(g9
tp2309
Rp2310
g13
I1
ssg17
g13
sbssbsbsbsg18
(idecision_tree
decision_tree_leaf
p2311
(dp2312
g7
g8
(g9
tp2313
Rp2314
S'Lg'
p2315
I1
sS'PKP'
p2316
I9
sg12
I481
sg13
I72
sS'Sn'
p2317
I53
sS'Pn'
p2318
I52
ssg17
g12
sbsbsg18
(idecision_tree
decision_tree_leaf
p2319
(dp2320
g7
g8
(g9
tp2321
Rp2322
S'Lg'
p2323
I4
sS'PKP'
p2324
I8
sg12
I589
sg13
I68
sS'Sn'
p2325
I64
sS'Pn'
p2326
I85
ssg17
g12
sbsbsbsg18
(idecision_tree
continuous_decision_tree
p2327
(dp2328
g2
F1.0
sg3
I62
sg4
(idecision_tree
continuous_decision_tree
p2329
(dp2330
g2
F18.5
sg3
I63
sg4
(idecision_tree
continuous_decision_tree
p2331
(dp2332
g2
F55.8
sg3
I67
sg4
(idecision_tree
decision_tree
p2333
(dp2334
g3
I47
sg48
(dp2335
S'18-OCT-2009'
p2336
(idecision_tree
decision_tree_leaf
p2337
(dp2338
g7
g8
(g9
tp2339
Rp2340
S'Pn'
p2341
I1
ssg17
g2341
sbsS'15-APR-2009'
p2342
(idecision_tree
decision_tree_leaf
p2343
(dp2344
g7
g8
(g9
tp2345
Rp2346
g12
I1
ssg17
g12
sbssbsg18
(idecision_tree
decision_tree_leaf
p2347
(dp2348
g7
g8
(g9
tp2349
Rp2350
g12
I1
ssg17
g12
sbsbsg18
(idecision_tree
decision_tree_leaf
p2351
(dp2352
g7
g8
(g9
tp2353
Rp2354
g12
I5
sS'Pn'
p2355
I3
ssg17
g12
sbsbsg18
(idecision_tree
decision_tree_leaf
p2356
(dp2357
g7
g8
(g9
tp2358
Rp2359
g12
I11
sS'Pn'
p2360
I3
ssg17
g12
sbsbsbsb.