(idecision_tree
continuous_decision_tree
p0
(dp1
S'split_point'
p2
F212.6775
sS'attribute'
p3
I42
sS'gt_subtree'
p4
(idecision_tree
continuous_decision_tree
p5
(dp6
g2
F-54.0
sg3
I63
sg4
(idecision_tree
decision_tree_leaf
p7
(dp8
S'counts'
p9
ccollections
defaultdict
p10
(c__builtin__
int
p11
tp12
Rp13
S'Lg'
p14
I4
sS'PKP'
p15
I5
sS'P'
p16
I564
sS'S'
p17
I165
sS'Sn'
p18
I90
sS'Pn'
p19
I116
sS'Pg'
p20
I6
ssS'value'
p21
g16
sbsS'lt_subtree'
p22
(idecision_tree
continuous_decision_tree
p23
(dp24
g2
F245.284
sg3
I43
sg4
(idecision_tree
continuous_decision_tree
p25
(dp26
g2
F-75.5
sg3
I67
sg4
(idecision_tree
continuous_decision_tree
p27
(dp28
g2
F-59.46875
sg3
I67
sg4
(idecision_tree
continuous_decision_tree
p29
(dp30
g2
F32.5357
sg3
I67
sg4
(idecision_tree
continuous_decision_tree
p31
(dp32
g2
F-1.5
sg3
I66
sg4
(idecision_tree
continuous_decision_tree
p33
(dp34
g2
F69.08335
sg3
I67
sg4
(idecision_tree
continuous_decision_tree
p35
(dp36
g2
F-79.875
sg3
I63
sg4
(idecision_tree
decision_tree
p37
(dp38
g3
I47
sS'value_to_tree'
p39
(dp40
S'13-FEB-2009'
p41
(idecision_tree
decision_tree_leaf
p42
(dp43
g9
g10
(g11
tp44
Rp45
g17
I1
ssg21
g17
sbsS'13-OCT-2009'
p46
(idecision_tree
decision_tree_leaf
p47
(dp48
g9
g10
(g11
tp49
Rp50
g16
I1
ssg21
g16
sbssbsg22
(idecision_tree
decision_tree_leaf
p51
(dp52
g9
g10
(g11
tp53
Rp54
g16
I1
ssg21
g16
sbsbsg22
(idecision_tree
decision_tree
p55
(dp56
g3
I47
sg39
(dp57
S'13-SEP-2009'
p58
(idecision_tree
decision_tree_leaf
p59
(dp60
g9
g10
(g11
tp61
Rp62
g16
I1
ssg21
g16
sbsS'12-JUN-2009'
p63
(idecision_tree
decision_tree_leaf
p64
(dp65
g9
g10
(g11
tp66
Rp67
S'Pn'
p68
I1
ssg21
g68
sbssbsbsg22
(idecision_tree
decision_tree
p69
(dp70
g3
I47
sg39
(dp71
S'06-AUG-2009'
p72
(idecision_tree
decision_tree_leaf
p73
(dp74
g9
g10
(g11
tp75
Rp76
g16
I1
ssg21
g16
sbsS'26-JUL-2009'
p77
(idecision_tree
decision_tree_leaf
p78
(dp79
g9
g10
(g11
tp80
Rp81
S'Sn'
p82
I1
ssg21
g82
sbssbsbsg22
(idecision_tree
continuous_decision_tree
p83
(dp84
g2
F-35.43335
sg3
I67
sg4
(idecision_tree
decision_tree_leaf
p85
(dp86
g9
g10
(g11
tp87
Rp88
g16
I2
sg17
I1
ssg21
g16
sbsg22
(idecision_tree
decision_tree
p89
(dp90
g3
I47
sg39
(dp91
S'23-MAY-2009'
p92
(idecision_tree
decision_tree_leaf
p93
(dp94
g9
g10
(g11
tp95
Rp96
g16
I1
ssg21
g16
sbsS'13-DEC-2009'
p97
(idecision_tree
decision_tree_leaf
p98
(dp99
g9
g10
(g11
tp100
Rp101
S'Sn'
p102
I1
ssg21
g102
sbssbsbsbsg22
(idecision_tree
continuous_decision_tree
p103
(dp104
g2
F-63.333349999999996
sg3
I67
sg4
(idecision_tree
decision_tree
p105
(dp106
g3
I47
sg39
(dp107
S'10-AUG-2009'
p108
(idecision_tree
decision_tree_leaf
p109
(dp110
g9
g10
(g11
tp111
Rp112
g16
I1
ssg21
g16
sbsS'04-JAN-2009'
p113
(idecision_tree
decision_tree_leaf
p114
(dp115
g9
g10
(g11
tp116
Rp117
S'PKP'
p118
I1
ssg21
g118
sbssbsg22
(idecision_tree
decision_tree_leaf
p119
(dp120
g9
g10
(g11
tp121
Rp122
g16
I2
sS'Sn'
p123
I1
ssg21
g16
sbsbsbsg22
(idecision_tree
continuous_decision_tree
p124
(dp125
g2
F-2.0
sg3
I66
sg4
(idecision_tree
continuous_decision_tree
p126
(dp127
g2
F-102.1665
sg3
I67
sg4
(idecision_tree
decision_tree_leaf
p128
(dp129
g9
g10
(g11
tp130
Rp131
g16
I3
sg17
I1
sS'Pn'
p132
I2
ssg21
g16
sbsg22
(idecision_tree
decision_tree
p133
(dp134
g3
I47
sg39
(dp135
S'13-MAY-2009'
p136
(idecision_tree
decision_tree_leaf
p137
(dp138
g9
g10
(g11
tp139
Rp140
g17
I1
ssg21
g17
sbsS'09-NOV-2009'
p141
(idecision_tree
decision_tree_leaf
p142
(dp143
g9
g10
(g11
tp144
Rp145
g16
I1
ssg21
g16
sbssbsbsg22
(idecision_tree
decision_tree
p146
(dp147
g3
I47
sg39
(dp148
S'03-JUN-2009'
p149
(idecision_tree
decision_tree_leaf
p150
(dp151
g9
g10
(g11
tp152
Rp153
g16
I1
ssg21
g16
sbsS'25-APR-2009'
p154
(idecision_tree
decision_tree_leaf
p155
(dp156
g9
g10
(g11
tp157
Rp158
g16
I1
ssg21
g16
sbsS'07-JUL-2009'
p159
(idecision_tree
decision_tree_leaf
p160
(dp161
g9
g10
(g11
tp162
Rp163
g16
I1
ssg21
g16
sbsS'02-DEC-2009'
p164
(idecision_tree
decision_tree_leaf
p165
(dp166
g9
g10
(g11
tp167
Rp168
g17
I1
ssg21
g17
sbssbsbsbsg22
(idecision_tree
continuous_decision_tree
p169
(dp170
g2
F0.6606655
sg3
I52
sg4
(idecision_tree
continuous_decision_tree
p171
(dp172
g2
F-51.3
sg3
I67
sg4
(idecision_tree
continuous_decision_tree
p173
(dp174
g2
F144.0
sg3
I67
sg4
(idecision_tree
decision_tree
p175
(dp176
g3
I47
sg39
(dp177
S'11-OCT-2009'
p178
(idecision_tree
decision_tree_leaf
p179
(dp180
g9
g10
(g11
tp181
Rp182
g17
I1
ssg21
g17
sbsS'19-MAY-2009'
p183
(idecision_tree
decision_tree_leaf
p184
(dp185
g9
g10
(g11
tp186
Rp187
g16
I1
ssg21
g16
sbssbsg22
(idecision_tree
decision_tree_leaf
p188
(dp189
g9
g10
(g11
tp190
Rp191
g16
I2
sg17
I1
ssg21
g16
sbsbsg22
(idecision_tree
decision_tree_leaf
p192
(dp193
g9
g10
(g11
tp194
Rp195
g16
I7
sg17
I3
sS'Pn'
p196
I1
sS'Sn'
p197
I1
ssg21
g16
sbsbsg22
(idecision_tree
continuous_decision_tree
p198
(dp199
g2
F-87.33335
sg3
I67
sg4
(idecision_tree
continuous_decision_tree
p200
(dp201
g2
F72.3335
sg3
I67
sg4
(idecision_tree
decision_tree
p202
(dp203
g3
I47
sg39
(dp204
S'26-SEP-2009'
p205
(idecision_tree
decision_tree_leaf
p206
(dp207
g9
g10
(g11
tp208
Rp209
S'Pn'
p210
I1
ssg21
g210
sbsS'04-OCT-2009'
p211
(idecision_tree
decision_tree_leaf
p212
(dp213
g9
g10
(g11
tp214
Rp215
g16
I1
ssg21
g16
sbssbsg22
(idecision_tree
continuous_decision_tree
p216
(dp217
g2
F-29.25
sg3
I67
sg4
(idecision_tree
decision_tree
p218
(dp219
g3
I47
sg39
(dp220
S'26-NOV-2009'
p221
(idecision_tree
decision_tree_leaf
p222
(dp223
g9
g10
(g11
tp224
Rp225
S'Pn'
p226
I1
ssg21
g226
sbsS'21-JUL-2009'
p227
(idecision_tree
decision_tree_leaf
p228
(dp229
g9
g10
(g11
tp230
Rp231
g16
I1
ssg21
g16
sbssbsg22
(idecision_tree
continuous_decision_tree
p232
(dp233
g2
F0.5
sg3
I53
sg4
(idecision_tree
decision_tree
p234
(dp235
g3
I47
sg39
(dp236
S'25-FEB-2009'
p237
(idecision_tree
decision_tree_leaf
p238
(dp239
g9
g10
(g11
tp240
Rp241
g16
I1
ssg21
g16
sbsS'24-JAN-2009'
p242
(idecision_tree
decision_tree_leaf
p243
(dp244
g9
g10
(g11
tp245
Rp246
S'Pn'
p247
I1
ssg21
g247
sbssbsg22
(idecision_tree
decision_tree_leaf
p248
(dp249
g9
g10
(g11
tp250
Rp251
g16
I1
ssg21
g16
sbsbsbsbsg22
(idecision_tree
decision_tree_leaf
p252
(dp253
g9
g10
(g11
tp254
Rp255
g16
I3
sg17
I2
ssg21
g16
sbsbsbsbsbsg22
(idecision_tree
continuous_decision_tree
p256
(dp257
g2
F5.0
sg3
I66
sg4
(idecision_tree
continuous_decision_tree
p258
(dp259
g2
F0.3481575
sg3
I49
sg4
(idecision_tree
continuous_decision_tree
p260
(dp261
g2
F0.19103550000000002
sg3
I51
sg4
(idecision_tree
continuous_decision_tree
p262
(dp263
g2
F0.429421
sg3
I48
sg4
(idecision_tree
continuous_decision_tree
p264
(dp265
g2
F0.5953885
sg3
I49
sg4
(idecision_tree
continuous_decision_tree
p266
(dp267
g2
F6.0
sg3
I66
sg4
(idecision_tree
decision_tree_leaf
p268
(dp269
g9
g10
(g11
tp270
Rp271
g16
I14
sg17
I3
sS'Pn'
p272
I3
sS'Sn'
p273
I1
ssg21
g16
sbsg22
(idecision_tree
continuous_decision_tree
p274
(dp275
g2
F7.79165
sg3
I67
sg4
(idecision_tree
continuous_decision_tree
p276
(dp277
g2
F50.8
sg3
I67
sg4
(idecision_tree
decision_tree
p278
(dp279
g3
I47
sg39
(dp280
S'23-OCT-2009'
p281
(idecision_tree
decision_tree_leaf
p282
(dp283
g9
g10
(g11
tp284
Rp285
S'Pn'
p286
I1
ssg21
g286
sbsS'07-FEB-2009'
p287
(idecision_tree
decision_tree_leaf
p288
(dp289
g9
g10
(g11
tp290
Rp291
g16
I1
ssg21
g16
sbssbsg22
(idecision_tree
continuous_decision_tree
p292
(dp293
g2
F3.0
sg3
I58
sg4
(idecision_tree
decision_tree
p294
(dp295
g3
I47
sg39
(dp296
S'06-MAR-2009'
p297
(idecision_tree
decision_tree_leaf
p298
(dp299
g9
g10
(g11
tp300
Rp301
g16
I1
ssg21
g16
sbsS'07-AUG-2009'
p302
(idecision_tree
decision_tree_leaf
p303
(dp304
g9
g10
(g11
tp305
Rp306
S'Sn'
p307
I1
ssg21
g307
sbssbsg22
(idecision_tree
decision_tree_leaf
p308
(dp309
g9
g10
(g11
tp310
Rp311
g16
I1
ssg21
g16
sbsbsbsg22
(idecision_tree
continuous_decision_tree
p312
(dp313
g2
F5.0
sg3
I58
sg4
(idecision_tree
decision_tree_leaf
p314
(dp315
g9
g10
(g11
tp316
Rp317
g16
I2
sS'Sn'
p318
I1
ssg21
g16
sbsg22
(idecision_tree
decision_tree
p319
(dp320
g3
I47
sg39
(dp321
S'15-NOV-2009'
p322
(idecision_tree
decision_tree_leaf
p323
(dp324
g9
g10
(g11
tp325
Rp326
g16
I1
ssg21
g16
sbsS'02-OCT-2009'
p327
(idecision_tree
decision_tree_leaf
p328
(dp329
g9
g10
(g11
tp330
Rp331
S'Sn'
p332
I1
ssg21
g332
sbssbsbsbsbsg22
(idecision_tree
continuous_decision_tree
p333
(dp334
g2
F-101.69645
sg3
I67
sg4
(idecision_tree
continuous_decision_tree
p335
(dp336
g2
F8.0
sg3
I66
sg4
(idecision_tree
continuous_decision_tree
p337
(dp338
g2
F0.8302405
sg3
I48
sg4
(idecision_tree
continuous_decision_tree
p339
(dp340
g2
F2.806799999999999
sg3
I67
sg4
(idecision_tree
decision_tree
p341
(dp342
g3
I47
sg39
(dp343
S'08-NOV-2009'
p344
(idecision_tree
decision_tree_leaf
p345
(dp346
g9
g10
(g11
tp347
Rp348
g16
I1
ssg21
g16
sbsS'28-APR-2009'
p349
(idecision_tree
decision_tree_leaf
p350
(dp351
g9
g10
(g11
tp352
Rp353
S'Pn'
p354
I1
ssg21
g354
sbssbsg22
(idecision_tree
decision_tree_leaf
p355
(dp356
g9
g10
(g11
tp357
Rp358
S'Pn'
p359
I1
ssg21
g359
sbsbsg22
(idecision_tree
decision_tree
p360
(dp361
g3
I47
sg39
(dp362
S'02-APR-2009'
p363
(idecision_tree
decision_tree_leaf
p364
(dp365
g9
g10
(g11
tp366
Rp367
S'Pn'
p368
I1
ssg21
g368
sbsS'18-NOV-2009'
p369
(idecision_tree
decision_tree_leaf
p370
(dp371
g9
g10
(g11
tp372
Rp373
g16
I1
ssg21
g16
sbssbsbsg22
(idecision_tree
decision_tree
p374
(dp375
g3
I47
sg39
(dp376
S'18-AUG-2009'
p377
(idecision_tree
decision_tree_leaf
p378
(dp379
g9
g10
(g11
tp380
Rp381
S'Pn'
p382
I1
ssg21
g382
sbsS'28-JAN-2009'
p383
(idecision_tree
decision_tree_leaf
p384
(dp385
g9
g10
(g11
tp386
Rp387
g16
I1
ssg21
g16
sbsS'16-JUL-2009'
p388
(idecision_tree
decision_tree_leaf
p389
(dp390
g9
g10
(g11
tp391
Rp392
g16
I1
ssg21
g16
sbsS'02-MAR-2009'
p393
(idecision_tree
decision_tree_leaf
p394
(dp395
g9
g10
(g11
tp396
Rp397
g16
I1
ssg21
g16
sbsS'27-SEP-2009'
p398
(idecision_tree
decision_tree_leaf
p399
(dp400
g9
g10
(g11
tp401
Rp402
g16
I1
ssg21
g16
sbsS'24-NOV-2009'
p403
(idecision_tree
decision_tree_leaf
p404
(dp405
g9
g10
(g11
tp406
Rp407
S'Pn'
p408
I1
ssg21
g408
sbsS'03-MAY-2009'
p409
(idecision_tree
decision_tree_leaf
p410
(dp411
g9
g10
(g11
tp412
Rp413
g16
I1
ssg21
g16
sbsS'12-FEB-2009'
p414
(idecision_tree
decision_tree_leaf
p415
(dp416
g9
g10
(g11
tp417
Rp418
g16
I1
ssg21
g16
sbsS'20-MAY-2009'
p419
(idecision_tree
decision_tree_leaf
p420
(dp421
g9
g10
(g11
tp422
Rp423
g16
I1
ssg21
g16
sbssbsbsg22
(idecision_tree
continuous_decision_tree
p424
(dp425
g2
F-167.6605
sg3
I67
sg4
(idecision_tree
decision_tree
p426
(dp427
g3
I47
sg39
(dp428
S'22-MAR-2009'
p429
(idecision_tree
decision_tree_leaf
p430
(dp431
g9
g10
(g11
tp432
Rp433
S'Pn'
p434
I1
ssg21
g434
sbsS'11-FEB-2009'
p435
(idecision_tree
decision_tree_leaf
p436
(dp437
g9
g10
(g11
tp438
Rp439
g16
I1
ssg21
g16
sbssbsg22
(idecision_tree
decision_tree_leaf
p440
(dp441
g9
g10
(g11
tp442
Rp443
g16
I1
ssg21
g16
sbsbsbsbsg22
(idecision_tree
continuous_decision_tree
p444
(dp445
g2
F32.15625
sg3
I67
sg4
(idecision_tree
decision_tree_leaf
p446
(dp447
g9
g10
(g11
tp448
Rp449
g16
I11
sS'Pn'
p450
I6
ssg21
g16
sbsg22
(idecision_tree
continuous_decision_tree
p451
(dp452
g2
F-70.63095
sg3
I67
sg4
(idecision_tree
continuous_decision_tree
p453
(dp454
g2
F7.0
sg3
I66
sg4
(idecision_tree
continuous_decision_tree
p455
(dp456
g2
F8.0
sg3
I62
sg4
(idecision_tree
decision_tree
p457
(dp458
g3
I47
sg39
(dp459
S'10-DEC-2009'
p460
(idecision_tree
decision_tree_leaf
p461
(dp462
g9
g10
(g11
tp463
Rp464
S'Pn'
p465
I1
ssg21
g465
sbsS'25-NOV-2009'
p466
(idecision_tree
decision_tree_leaf
p467
(dp468
g9
g10
(g11
tp469
Rp470
g16
I1
ssg21
g16
sbssbsg22
(idecision_tree
decision_tree
p471
(dp472
g3
I47
sg39
(dp473
S'25-MAR-2009'
p474
(idecision_tree
decision_tree_leaf
p475
(dp476
g9
g10
(g11
tp477
Rp478
g16
I1
ssg21
g16
sbsS'11-FEB-2009'
p479
(idecision_tree
decision_tree_leaf
p480
(dp481
g9
g10
(g11
tp482
Rp483
S'Pn'
p484
I1
ssg21
g484
sbssbsbsg22
(idecision_tree
decision_tree_leaf
p485
(dp486
g9
g10
(g11
tp487
Rp488
g16
I5
sS'Pn'
p489
I2
ssg21
g16
sbsbsg22
(idecision_tree
continuous_decision_tree
p490
(dp491
g2
F5.5
sg3
I66
sg4
(idecision_tree
decision_tree
p492
(dp493
g3
I47
sg39
(dp494
S'12-FEB-2009'
p495
(idecision_tree
decision_tree_leaf
p496
(dp497
g9
g10
(g11
tp498
Rp499
S'Pn'
p500
I1
ssg21
g500
sbsS'04-APR-2009'
p501
(idecision_tree
decision_tree_leaf
p502
(dp503
g9
g10
(g11
tp504
Rp505
g16
I1
ssg21
g16
sbssbsg22
(idecision_tree
decision_tree_leaf
p506
(dp507
g9
g10
(g11
tp508
Rp509
g16
I1
ssg21
g16
sbsbsbsbsbsg22
(idecision_tree
continuous_decision_tree
p510
(dp511
g2
F32.46665
sg3
I67
sg4
(idecision_tree
continuous_decision_tree
p512
(dp513
g2
F0.1817275
sg3
I52
sg4
(idecision_tree
continuous_decision_tree
p514
(dp515
g2
F0.562918
sg3
I52
sg4
(idecision_tree
decision_tree_leaf
p516
(dp517
g9
g10
(g11
tp518
Rp519
g16
I2
sS'Pn'
p520
I1
ssg21
g16
sbsg22
(idecision_tree
continuous_decision_tree
p521
(dp522
g2
F5.5
sg3
I66
sg4
(idecision_tree
continuous_decision_tree
p523
(dp524
g2
F66.75
sg3
I67
sg4
(idecision_tree
continuous_decision_tree
p525
(dp526
g2
F8.5
sg3
I66
sg4
(idecision_tree
continuous_decision_tree
p527
(dp528
g2
F-37.25
sg3
I63
sg4
(idecision_tree
decision_tree
p529
(dp530
g3
I47
sg39
(dp531
S'07-SEP-2009'
p532
(idecision_tree
decision_tree_leaf
p533
(dp534
g9
g10
(g11
tp535
Rp536
S'Pn'
p537
I1
ssg21
g537
sbsS'02-JUN-2009'
p538
(idecision_tree
decision_tree_leaf
p539
(dp540
g9
g10
(g11
tp541
Rp542
g16
I1
ssg21
g16
sbssbsg22
(idecision_tree
decision_tree_leaf
p543
(dp544
g9
g10
(g11
tp545
Rp546
g16
I1
ssg21
g16
sbsbsg22
(idecision_tree
decision_tree
p547
(dp548
g3
I47
sg39
(dp549
S'18-AUG-2009'
p550
(idecision_tree
decision_tree_leaf
p551
(dp552
g9
g10
(g11
tp553
Rp554
S'Pn'
p555
I1
ssg21
g555
sbsS'06-APR-2009'
p556
(idecision_tree
decision_tree_leaf
p557
(dp558
g9
g10
(g11
tp559
Rp560
g16
I1
ssg21
g16
sbssbsbsg22
(idecision_tree
decision_tree_leaf
p561
(dp562
g9
g10
(g11
tp563
Rp564
g16
I2
sS'Pn'
p565
I1
ssg21
g16
sbsbsg22
(idecision_tree
continuous_decision_tree
p566
(dp567
g2
F0.189135
sg3
I52
sg4
(idecision_tree
decision_tree
p568
(dp569
g3
I47
sg39
(dp570
S'17-SEP-2009'
p571
(idecision_tree
decision_tree_leaf
p572
(dp573
g9
g10
(g11
tp574
Rp575
S'Pn'
p576
I1
ssg21
g576
sbsS'20-JUN-2009'
p577
(idecision_tree
decision_tree_leaf
p578
(dp579
g9
g10
(g11
tp580
Rp581
g16
I1
ssg21
g16
sbssbsg22
(idecision_tree
decision_tree_leaf
p582
(dp583
g9
g10
(g11
tp584
Rp585
g16
I1
ssg21
g16
sbsbsbsbsg22
(idecision_tree
decision_tree_leaf
p586
(dp587
g9
g10
(g11
tp588
Rp589
g16
I2
sS'Pn'
p590
I1
ssg21
g16
sbsbsg22
(idecision_tree
continuous_decision_tree
p591
(dp592
g2
F0.154962
sg3
I50
sg4
(idecision_tree
continuous_decision_tree
p593
(dp594
g2
F0.7989965
sg3
I49
sg4
(idecision_tree
continuous_decision_tree
p595
(dp596
g2
F-82.13335
sg3
I67
sg4
(idecision_tree
decision_tree
p597
(dp598
g3
I47
sg39
(dp599
S'13-MAY-2009'
p600
(idecision_tree
decision_tree_leaf
p601
(dp602
g9
g10
(g11
tp603
Rp604
g16
I1
ssg21
g16
sbsS'01-NOV-2009'
p605
(idecision_tree
decision_tree_leaf
p606
(dp607
g9
g10
(g11
tp608
Rp609
S'Pn'
p610
I1
ssg21
g610
sbssbsg22
(idecision_tree
decision_tree_leaf
p611
(dp612
g9
g10
(g11
tp613
Rp614
g16
I1
ssg21
g16
sbsbsg22
(idecision_tree
continuous_decision_tree
p615
(dp616
g2
F6.0
sg3
I66
sg4
(idecision_tree
decision_tree_leaf
p617
(dp618
g9
g10
(g11
tp619
Rp620
g16
I5
sS'Pn'
p621
I2
ssg21
g16
sbsg22
(idecision_tree
decision_tree_leaf
p622
(dp623
g9
g10
(g11
tp624
Rp625
S'Pn'
p626
I1
ssg21
g626
sbsbsbsg22
(idecision_tree
continuous_decision_tree
p627
(dp628
g2
F0.7386499999999998
sg3
I67
sg4
(idecision_tree
decision_tree
p629
(dp630
g3
I47
sg39
(dp631
S'10-SEP-2009'
p632
(idecision_tree
decision_tree_leaf
p633
(dp634
g9
g10
(g11
tp635
Rp636
S'Pn'
p637
I1
ssg21
g637
sbsS'24-JAN-2009'
p638
(idecision_tree
decision_tree_leaf
p639
(dp640
g9
g10
(g11
tp641
Rp642
g16
I1
ssg21
g16
sbssbsg22
(idecision_tree
decision_tree_leaf
p643
(dp644
g9
g10
(g11
tp645
Rp646
g16
I1
ssg21
g16
sbsbsbsbsbsg22
(idecision_tree
continuous_decision_tree
p647
(dp648
g2
F1.798235
sg3
I39
sg4
(idecision_tree
continuous_decision_tree
p649
(dp650
g2
F62.409099999999995
sg3
I63
sg4
(idecision_tree
continuous_decision_tree
p651
(dp652
g2
F69.5
sg3
I63
sg4
(idecision_tree
decision_tree
p653
(dp654
g3
I47
sg39
(dp655
S'14-FEB-2009'
p656
(idecision_tree
decision_tree_leaf
p657
(dp658
g9
g10
(g11
tp659
Rp660
S'Pn'
p661
I1
ssg21
g661
sbsS'16-JUN-2009'
p662
(idecision_tree
decision_tree_leaf
p663
(dp664
g9
g10
(g11
tp665
Rp666
g16
I1
ssg21
g16
sbssbsg22
(idecision_tree
decision_tree_leaf
p667
(dp668
g9
g10
(g11
tp669
Rp670
g16
I1
ssg21
g16
sbsbsg22
(idecision_tree
continuous_decision_tree
p671
(dp672
g2
F0.544714
sg3
I51
sg4
(idecision_tree
decision_tree_leaf
p673
(dp674
g9
g10
(g11
tp675
Rp676
g16
I2
sS'Pn'
p677
I1
ssg21
g16
sbsg22
(idecision_tree
decision_tree_leaf
p678
(dp679
g9
g10
(g11
tp680
Rp681
g16
I7
sS'Pn'
p682
I4
ssg21
g16
sbsbsbsg22
(idecision_tree
decision_tree_leaf
p683
(dp684
g9
g10
(g11
tp685
Rp686
g16
I9
sS'Pn'
p687
I5
ssg21
g16
sbsbsbsg22
(idecision_tree
continuous_decision_tree
p688
(dp689
g2
F5.653449999999999
sg3
I30
sg4
(idecision_tree
continuous_decision_tree
p690
(dp691
g2
F47.27055
sg3
I7
sg4
(idecision_tree
continuous_decision_tree
p692
(dp693
g2
F-36.55
sg3
I67
sg4
(idecision_tree
decision_tree_leaf
p694
(dp695
g9
g10
(g11
tp696
Rp697
g16
I64
sg17
I19
sS'Pn'
p698
I15
sS'Pg'
p699
I1
sS'Sn'
p700
I10
ssg21
g16
sbsg22
(idecision_tree
decision_tree_leaf
p701
(dp702
g9
g10
(g11
tp703
Rp704
S'Lg'
p705
I1
sg16
I37
sg17
I7
sS'Sn'
p706
I6
sS'Pn'
p707
I10
sS'Pg'
p708
I2
ssg21
g16
sbsbsg22
(idecision_tree
continuous_decision_tree
p709
(dp710
g2
F0.0
sg3
I59
sg4
(idecision_tree
decision_tree_leaf
p711
(dp712
g9
g10
(g11
tp713
Rp714
g16
I65
sg17
I11
sS'Pn'
p715
I28
sS'Sn'
p716
I7
ssg21
g16
sbsg22
(idecision_tree
decision_tree_leaf
p717
(dp718
g9
g10
(g11
tp719
Rp720
g16
I26
sg17
I11
sS'Pn'
p721
I2
sS'Sn'
p722
I5
ssg21
g16
sbsbsbsg22
(idecision_tree
continuous_decision_tree
p723
(dp724
g2
F10.6125
sg3
I59
sg4
(idecision_tree
continuous_decision_tree
p725
(dp726
g2
F1.6171250000000001
sg3
I24
sg4
(idecision_tree
continuous_decision_tree
p727
(dp728
g2
F25.08335
sg3
I67
sg4
(idecision_tree
continuous_decision_tree
p729
(dp730
g2
F82.21875
sg3
I67
sg4
(idecision_tree
continuous_decision_tree
p731
(dp732
g2
F108.0
sg3
I67
sg4
(idecision_tree
decision_tree_leaf
p733
(dp734
g9
g10
(g11
tp735
Rp736
g16
I2
sS'Pn'
p737
I1
ssg21
g16
sbsg22
(idecision_tree
decision_tree
p738
(dp739
g3
I47
sg39
(dp740
S'27-AUG-2009'
p741
(idecision_tree
decision_tree_leaf
p742
(dp743
g9
g10
(g11
tp744
Rp745
S'Sn'
p746
I1
ssg21
g746
sbsS'18-NOV-2009'
p747
(idecision_tree
decision_tree_leaf
p748
(dp749
g9
g10
(g11
tp750
Rp751
g16
I1
ssg21
g16
sbssbsbsg22
(idecision_tree
continuous_decision_tree
p752
(dp753
g2
F2.0
sg3
I62
sg4
(idecision_tree
continuous_decision_tree
p754
(dp755
g2
F59.270849999999996
sg3
I67
sg4
(idecision_tree
continuous_decision_tree
p756
(dp757
g2
F43.083349999999996
sg3
I63
sg4
(idecision_tree
decision_tree
p758
(dp759
g3
I47
sg39
(dp760
S'01-FEB-2009'
p761
(idecision_tree
decision_tree_leaf
p762
(dp763
g9
g10
(g11
tp764
Rp765
g16
I1
ssg21
g16
sbsS'02-DEC-2009'
p766
(idecision_tree
decision_tree_leaf
p767
(dp768
g9
g10
(g11
tp769
Rp770
g17
I1
ssg21
g17
sbssbsg22
(idecision_tree
decision_tree_leaf
p771
(dp772
g9
g10
(g11
tp773
Rp774
g16
I1
ssg21
g16
sbsbsg22
(idecision_tree
continuous_decision_tree
p775
(dp776
g2
F44.083349999999996
sg3
I67
sg4
(idecision_tree
decision_tree
p777
(dp778
g3
I47
sg39
(dp779
S'15-MAR-2009'
p780
(idecision_tree
decision_tree_leaf
p781
(dp782
g9
g10
(g11
tp783
Rp784
g16
I1
ssg21
g16
sbsS'30-NOV-2009'
p785
(idecision_tree
decision_tree_leaf
p786
(dp787
g9
g10
(g11
tp788
Rp789
S'Sn'
p790
I1
ssg21
g790
sbssbsg22
(idecision_tree
decision_tree_leaf
p791
(dp792
g9
g10
(g11
tp793
Rp794
g16
I1
ssg21
g16
sbsbsbsg22
(idecision_tree
continuous_decision_tree
p795
(dp796
g2
F0.922173
sg3
I52
sg4
(idecision_tree
continuous_decision_tree
p797
(dp798
g2
F1.395915
sg3
I52
sg4
(idecision_tree
decision_tree
p799
(dp800
g3
I47
sg39
(dp801
S'12-SEP-2009'
p802
(idecision_tree
decision_tree_leaf
p803
(dp804
g9
g10
(g11
tp805
Rp806
S'Lg'
p807
I1
ssg21
g807
sbsS'18-SEP-2009'
p808
(idecision_tree
decision_tree_leaf
p809
(dp810
g9
g10
(g11
tp811
Rp812
g16
I1
ssg21
g16
sbssbsg22
(idecision_tree
decision_tree
p813
(dp814
g3
I47
sg39
(dp815
S'22-JUN-2009'
p816
(idecision_tree
decision_tree_leaf
p817
(dp818
g9
g10
(g11
tp819
Rp820
g17
I1
ssg21
g17
sbsS'09-OCT-2009'
p821
(idecision_tree
decision_tree_leaf
p822
(dp823
g9
g10
(g11
tp824
Rp825
g16
I1
ssg21
g16
sbssbsbsg22
(idecision_tree
decision_tree
p826
(dp827
g3
I47
sg39
(dp828
S'03-JUL-2009'
p829
(idecision_tree
decision_tree_leaf
p830
(dp831
g9
g10
(g11
tp832
Rp833
g17
I1
ssg21
g17
sbsS'04-JUL-2009'
p834
(idecision_tree
decision_tree_leaf
p835
(dp836
g9
g10
(g11
tp837
Rp838
g16
I1
ssg21
g16
sbssbsbsbsbsg22
(idecision_tree
decision_tree_leaf
p839
(dp840
g9
g10
(g11
tp841
Rp842
g16
I17
sg17
I4
sS'Pn'
p843
I4
sS'Sn'
p844
I4
ssg21
g16
sbsbsg22
(idecision_tree
continuous_decision_tree
p845
(dp846
g2
F3.0
sg3
I66
sg4
(idecision_tree
decision_tree_leaf
p847
(dp848
g9
g10
(g11
tp849
Rp850
g16
I31
sg17
I8
sS'Pn'
p851
I12
sS'Sn'
p852
I2
sS'Pg'
p853
I1
ssg21
g16
sbsg22
(idecision_tree
continuous_decision_tree
p854
(dp855
g2
F14.79165
sg3
I63
sg4
(idecision_tree
continuous_decision_tree
p856
(dp857
g2
F-37.229150000000004
sg3
I67
sg4
(idecision_tree
decision_tree_leaf
p858
(dp859
g9
g10
(g11
tp860
Rp861
g16
I22
sg17
I4
sS'Pn'
p862
I6
sS'Sn'
p863
I5
ssg21
g16
sbsg22
(idecision_tree
continuous_decision_tree
p864
(dp865
g2
F18.575
sg3
I63
sg4
(idecision_tree
decision_tree_leaf
p866
(dp867
g9
g10
(g11
tp868
Rp869
g16
I16
sg17
I5
sS'Pn'
p870
I5
sS'Sn'
p871
I1
ssg21
g16
sbsg22
(idecision_tree
continuous_decision_tree
p872
(dp873
g2
F-78.65
sg3
I67
sg4
(idecision_tree
continuous_decision_tree
p874
(dp875
g2
F17.375
sg3
I63
sg4
(idecision_tree
decision_tree
p876
(dp877
g3
I47
sg39
(dp878
S'03-FEB-2009'
p879
(idecision_tree
decision_tree_leaf
p880
(dp881
g9
g10
(g11
tp882
Rp883
g17
I1
ssg21
g17
sbsS'11-FEB-2009'
p884
(idecision_tree
decision_tree_leaf
p885
(dp886
g9
g10
(g11
tp887
Rp888
g16
I1
ssg21
g16
sbssbsg22
(idecision_tree
decision_tree_leaf
p889
(dp890
g9
g10
(g11
tp891
Rp892
g16
I1
ssg21
g16
sbsbsg22
(idecision_tree
decision_tree
p893
(dp894
g3
I47
sg39
(dp895
S'10-APR-2009'
p896
(idecision_tree
decision_tree_leaf
p897
(dp898
g9
g10
(g11
tp899
Rp900
S'Pn'
p901
I1
ssg21
g901
sbsS'04-JUL-2009'
p902
(idecision_tree
decision_tree_leaf
p903
(dp904
g9
g10
(g11
tp905
Rp906
g16
I1
ssg21
g16
sbssbsbsbsbsg22
(idecision_tree
continuous_decision_tree
p907
(dp908
g2
F13.375
sg3
I67
sg4
(idecision_tree
continuous_decision_tree
p909
(dp910
g2
F14.47915
sg3
I67
sg4
(idecision_tree
decision_tree_leaf
p911
(dp912
g9
g10
(g11
tp913
Rp914
g16
I2
sS'Pn'
p915
I1
ssg21
g16
sbsg22
(idecision_tree
decision_tree
p916
(dp917
g3
I47
sg39
(dp918
S'25-JUL-2009'
p919
(idecision_tree
decision_tree_leaf
p920
(dp921
g9
g10
(g11
tp922
Rp923
g16
I1
ssg21
g16
sbsS'25-JAN-2009'
p924
(idecision_tree
decision_tree_leaf
p925
(dp926
g9
g10
(g11
tp927
Rp928
S'Sn'
p929
I1
ssg21
g929
sbssbsbsg22
(idecision_tree
continuous_decision_tree
p930
(dp931
g2
F-65.5625
sg3
I63
sg4
(idecision_tree
decision_tree_leaf
p932
(dp933
g9
g10
(g11
tp934
Rp935
g16
I13
sg17
I4
sS'Pn'
p936
I5
ssg21
g16
sbsg22
(idecision_tree
decision_tree_leaf
p937
(dp938
g9
g10
(g11
tp939
Rp940
g16
I3
sg17
I2
ssg21
g16
sbsbsbsbsbsbsg22
(idecision_tree
continuous_decision_tree
p941
(dp942
g2
F190.01350000000002
sg3
I41
sg4
(idecision_tree
decision_tree_leaf
p943
(dp944
g9
g10
(g11
tp945
Rp946
g16
I209
sg17
I54
sS'Pn'
p947
I57
sS'Sn'
p948
I35
sS'PKP'
p949
I1
ssg21
g16
sbsg22
(idecision_tree
continuous_decision_tree
p950
(dp951
g2
F0.0
sg3
I58
sg4
(idecision_tree
continuous_decision_tree
p952
(dp953
g2
F123.39150000000001
sg3
I42
sg4
(idecision_tree
continuous_decision_tree
p954
(dp955
g2
F1.5760399999999999
sg3
I48
sg4
(idecision_tree
continuous_decision_tree
p956
(dp957
g2
F-2.0
sg3
I66
sg4
(idecision_tree
continuous_decision_tree
p958
(dp959
g2
F1.0
sg3
I53
sg4
(idecision_tree
continuous_decision_tree
p960
(dp961
g2
F0.0
sg3
I66
sg4
(idecision_tree
decision_tree
p962
(dp963
g3
I47
sg39
(dp964
S'06-OCT-2009'
p965
(idecision_tree
decision_tree_leaf
p966
(dp967
g9
g10
(g11
tp968
Rp969
g16
I1
ssg21
g16
sbsS'22-JAN-2009'
p970
(idecision_tree
decision_tree_leaf
p971
(dp972
g9
g10
(g11
tp973
Rp974
g16
I1
ssg21
g16
sbsS'20-SEP-2009'
p975
(idecision_tree
decision_tree_leaf
p976
(dp977
g9
g10
(g11
tp978
Rp979
g16
I1
ssg21
g16
sbsS'31-MAY-2009'
p980
(idecision_tree
decision_tree_leaf
p981
(dp982
g9
g10
(g11
tp983
Rp984
g16
I1
ssg21
g16
sbsS'08-SEP-2009'
p985
(idecision_tree
decision_tree_leaf
p986
(dp987
g9
g10
(g11
tp988
Rp989
g16
I1
ssg21
g16
sbsS'05-MAY-2009'
p990
(idecision_tree
decision_tree_leaf
p991
(dp992
g9
g10
(g11
tp993
Rp994
S'Sn'
p995
I1
ssg21
g995
sbsS'23-OCT-2009'
p996
(idecision_tree
decision_tree_leaf
p997
(dp998
g9
g10
(g11
tp999
Rp1000
S'Sn'
p1001
I1
ssg21
g1001
sbsS'29-NOV-2009'
p1002
(idecision_tree
decision_tree_leaf
p1003
(dp1004
g9
g10
(g11
tp1005
Rp1006
g16
I1
ssg21
g16
sbsS'11-MAY-2009'
p1007
(idecision_tree
decision_tree_leaf
p1008
(dp1009
g9
g10
(g11
tp1010
Rp1011
g16
I1
ssg21
g16
sbsS'31-MAR-2009'
p1012
(idecision_tree
decision_tree_leaf
p1013
(dp1014
g9
g10
(g11
tp1015
Rp1016
g16
I1
ssg21
g16
sbssbsg22
(idecision_tree
decision_tree_leaf
p1017
(dp1018
g9
g10
(g11
tp1019
Rp1020
g16
I2
sS'Pn'
p1021
I1
ssg21
g16
sbsbsg22
(idecision_tree
continuous_decision_tree
p1022
(dp1023
g2
F77.23335
sg3
I67
sg4
(idecision_tree
decision_tree
p1024
(dp1025
g3
I47
sg39
(dp1026
S'07-JUN-2009'
p1027
(idecision_tree
decision_tree_leaf
p1028
(dp1029
g9
g10
(g11
tp1030
Rp1031
S'Sn'
p1032
I1
ssg21
g1032
sbsS'29-JUN-2009'
p1033
(idecision_tree
decision_tree_leaf
p1034
(dp1035
g9
g10
(g11
tp1036
Rp1037
g16
I1
ssg21
g16
sbssbsg22
(idecision_tree
continuous_decision_tree
p1038
(dp1039
g2
F11.8
sg3
I67
sg4
(idecision_tree
decision_tree
p1040
(dp1041
g3
I47
sg39
(dp1042
S'26-SEP-2009'
p1043
(idecision_tree
decision_tree_leaf
p1044
(dp1045
g9
g10
(g11
tp1046
Rp1047
g17
I1
ssg21
g17
sbsS'11-DEC-2009'
p1048
(idecision_tree
decision_tree_leaf
p1049
(dp1050
g9
g10
(g11
tp1051
Rp1052
g16
I1
ssg21
g16
sbssbsg22
(idecision_tree
decision_tree_leaf
p1053
(dp1054
g9
g10
(g11
tp1055
Rp1056
g16
I2
sg17
I1
ssg21
g16
sbsbsbsbsg22
(idecision_tree
decision_tree
p1057
(dp1058
g3
I47
sg39
(dp1059
S'05-DEC-2009'
p1060
(idecision_tree
decision_tree_leaf
p1061
(dp1062
g9
g10
(g11
tp1063
Rp1064
g16
I1
ssg21
g16
sbsS'17-AUG-2009'
p1065
(idecision_tree
decision_tree_leaf
p1066
(dp1067
g9
g10
(g11
tp1068
Rp1069
S'Sn'
p1070
I1
ssg21
g1070
sbssbsbsg22
(idecision_tree
continuous_decision_tree
p1071
(dp1072
g2
F-123.25
sg3
I67
sg4
(idecision_tree
continuous_decision_tree
p1073
(dp1074
g2
F1.0
sg3
I66
sg4
(idecision_tree
continuous_decision_tree
p1075
(dp1076
g2
F68.8
sg3
I67
sg4
(idecision_tree
decision_tree_leaf
p1077
(dp1078
g9
g10
(g11
tp1079
Rp1080
g16
I9
sg17
I3
sS'Pn'
p1081
I1
ssg21
g16
sbsg22
(idecision_tree
decision_tree_leaf
p1082
(dp1083
g9
g10
(g11
tp1084
Rp1085
g16
I11
sg17
I1
sS'Pn'
p1086
I3
sS'Sn'
p1087
I1
ssg21
g16
sbsbsg22
(idecision_tree
decision_tree_leaf
p1088
(dp1089
g9
g10
(g11
tp1090
Rp1091
g16
I27
sg17
I5
sS'Pn'
p1092
I7
sS'Sn'
p1093
I1
ssg21
g16
sbsbsg22
(idecision_tree
continuous_decision_tree
p1094
(dp1095
g2
F-232.0
sg3
I67
sg4
(idecision_tree
continuous_decision_tree
p1096
(dp1097
g2
F-125.6665
sg3
I67
sg4
(idecision_tree
decision_tree_leaf
p1098
(dp1099
g9
g10
(g11
tp1100
Rp1101
g16
I2
sg17
I1
ssg21
g16
sbsg22
(idecision_tree
continuous_decision_tree
p1102
(dp1103
g2
F-1.05
sg3
I59
sg4
(idecision_tree
decision_tree_leaf
p1104
(dp1105
g9
g10
(g11
tp1106
Rp1107
g16
I9
sS'Pn'
p1108
I4
ssg21
g16
sbsg22
(idecision_tree
decision_tree_leaf
p1109
(dp1110
g9
g10
(g11
tp1111
Rp1112
g16
I2
sS'Sn'
p1113
I1
ssg21
g16
sbsbsbsg22
(idecision_tree
decision_tree_leaf
p1114
(dp1115
g9
g10
(g11
tp1116
Rp1117
g16
I2
sg17
I1
ssg21
g16
sbsbsbsbsg22
(idecision_tree
continuous_decision_tree
p1118
(dp1119
g2
F0.0
sg3
I62
sg4
(idecision_tree
continuous_decision_tree
p1120
(dp1121
g2
F-5.333335
sg3
I67
sg4
(idecision_tree
continuous_decision_tree
p1122
(dp1123
g2
F16.75085
sg3
I7
sg4
(idecision_tree
continuous_decision_tree
p1124
(dp1125
g2
F0.0
sg3
I67
sg4
(idecision_tree
continuous_decision_tree
p1126
(dp1127
g2
F1.5299749999999999
sg3
I49
sg4
(idecision_tree
decision_tree
p1128
(dp1129
g3
I47
sg39
(dp1130
S'11-SEP-2009'
p1131
(idecision_tree
decision_tree_leaf
p1132
(dp1133
g9
g10
(g11
tp1134
Rp1135
g16
I1
ssg21
g16
sbsS'08-OCT-2009'
p1136
(idecision_tree
decision_tree_leaf
p1137
(dp1138
g9
g10
(g11
tp1139
Rp1140
g16
I1
ssg21
g16
sbsS'10-NOV-2009'
p1141
(idecision_tree
decision_tree_leaf
p1142
(dp1143
g9
g10
(g11
tp1144
Rp1145
g16
I1
ssg21
g16
sbsS'11-MAY-2009'
p1146
(idecision_tree
decision_tree_leaf
p1147
(dp1148
g9
g10
(g11
tp1149
Rp1150
g17
I1
ssg21
g17
sbssbsg22
(idecision_tree
continuous_decision_tree
p1151
(dp1152
g2
F0.255676
sg3
I51
sg4
(idecision_tree
decision_tree_leaf
p1153
(dp1154
g9
g10
(g11
tp1155
Rp1156
g16
I11
sg17
I3
sS'Sn'
p1157
I1
ssg21
g16
sbsg22
(idecision_tree
decision_tree
p1158
(dp1159
g3
I47
sg39
(dp1160
S'03-FEB-2009'
p1161
(idecision_tree
decision_tree_leaf
p1162
(dp1163
g9
g10
(g11
tp1164
Rp1165
g16
I1
ssg21
g16
sbsS'04-FEB-2009'
p1166
(idecision_tree
decision_tree_leaf
p1167
(dp1168
g9
g10
(g11
tp1169
Rp1170
g16
I1
ssg21
g16
sbsS'26-AUG-2009'
p1171
(idecision_tree
decision_tree_leaf
p1172
(dp1173
g9
g10
(g11
tp1174
Rp1175
S'Pn'
p1176
I1
ssg21
g1176
sbsS'29-OCT-2009'
p1177
(idecision_tree
decision_tree_leaf
p1178
(dp1179
g9
g10
(g11
tp1180
Rp1181
g16
I1
ssg21
g16
sbssbsbsbsg22
(idecision_tree
decision_tree
p1182
(dp1183
g3
I47
sg39
(dp1184
S'02-JUN-2009'
p1185
(idecision_tree
decision_tree_leaf
p1186
(dp1187
g9
g10
(g11
tp1188
Rp1189
g16
I1
ssg21
g16
sbsS'27-MAR-2009'
p1190
(idecision_tree
decision_tree_leaf
p1191
(dp1192
g9
g10
(g11
tp1193
Rp1194
g17
I1
ssg21
g17
sbssbsbsg22
(idecision_tree
continuous_decision_tree
p1195
(dp1196
g2
F8.270835
sg3
I67
sg4
(idecision_tree
decision_tree_leaf
p1197
(dp1198
g9
g10
(g11
tp1199
Rp1200
g16
I13
sg17
I2
sS'Pn'
p1201
I3
ssg21
g16
sbsg22
(idecision_tree
continuous_decision_tree
p1202
(dp1203
g2
F0.0
sg3
I67
sg4
(idecision_tree
continuous_decision_tree
p1204
(dp1205
g2
F1.304325
sg3
I52
sg4
(idecision_tree
continuous_decision_tree
p1206
(dp1207
g2
F2.4
sg3
I67
sg4
(idecision_tree
decision_tree
p1208
(dp1209
g3
I47
sg39
(dp1210
S'22-JUN-2009'
p1211
(idecision_tree
decision_tree_leaf
p1212
(dp1213
g9
g10
(g11
tp1214
Rp1215
g16
I1
ssg21
g16
sbsS'24-JAN-2009'
p1216
(idecision_tree
decision_tree_leaf
p1217
(dp1218
g9
g10
(g11
tp1219
Rp1220
g17
I1
ssg21
g17
sbssbsg22
(idecision_tree
decision_tree_leaf
p1221
(dp1222
g9
g10
(g11
tp1223
Rp1224
g16
I1
ssg21
g16
sbsbsg22
(idecision_tree
decision_tree_leaf
p1225
(dp1226
g9
g10
(g11
tp1227
Rp1228
g16
I9
sS'Pn'
p1229
I4
ssg21
g16
sbsbsg22
(idecision_tree
decision_tree_leaf
p1230
(dp1231
g9
g10
(g11
tp1232
Rp1233
g16
I2
ssg21
g16
sbsbsbsbsg22
(idecision_tree
continuous_decision_tree
p1234
(dp1235
g2
F-26.08335
sg3
I67
sg4
(idecision_tree
continuous_decision_tree
p1236
(dp1237
g2
F-13.69165
sg3
I67
sg4
(idecision_tree
decision_tree_leaf
p1238
(dp1239
g9
g10
(g11
tp1240
Rp1241
g16
I2
sg17
I1
ssg21
g16
sbsg22
(idecision_tree
decision_tree
p1242
(dp1243
g3
I47
sg39
(dp1244
S'09-FEB-2009'
p1245
(idecision_tree
decision_tree_leaf
p1246
(dp1247
g9
g10
(g11
tp1248
Rp1249
S'Sn'
p1250
I1
ssg21
g1250
sbsS'30-NOV-2009'
p1251
(idecision_tree
decision_tree_leaf
p1252
(dp1253
g9
g10
(g11
tp1254
Rp1255
g16
I1
ssg21
g16
sbsS'09-JUN-2009'
p1256
(idecision_tree
decision_tree_leaf
p1257
(dp1258
g9
g10
(g11
tp1259
Rp1260
g16
I1
ssg21
g16
sbsS'14-JUL-2009'
p1261
(idecision_tree
decision_tree_leaf
p1262
(dp1263
g9
g10
(g11
tp1264
Rp1265
g16
I1
ssg21
g16
sbssbsbsg22
(idecision_tree
continuous_decision_tree
p1266
(dp1267
g2
F0.0
sg3
I63
sg4
(idecision_tree
decision_tree_leaf
p1268
(dp1269
g9
g10
(g11
tp1270
Rp1271
g16
I12
sS'Sn'
p1272
I3
ssg21
g16
sbsg22
(idecision_tree
continuous_decision_tree
p1273
(dp1274
g2
F-87.0
sg3
I67
sg4
(idecision_tree
decision_tree
p1275
(dp1276
g3
I47
sg39
(dp1277
S'04-DEC-2009'
p1278
(idecision_tree
decision_tree_leaf
p1279
(dp1280
g9
g10
(g11
tp1281
Rp1282
S'Sn'
p1283
I1
ssg21
g1283
sbsS'29-MAR-2009'
p1284
(idecision_tree
decision_tree_leaf
p1285
(dp1286
g9
g10
(g11
tp1287
Rp1288
S'Pn'
p1289
I1
ssg21
g1289
sbssbsg22
(idecision_tree
decision_tree_leaf
p1290
(dp1291
g9
g10
(g11
tp1292
Rp1293
g16
I1
ssg21
g16
sbsbsbsbsbsg22
(idecision_tree
decision_tree
p1294
(dp1295
g3
I47
sg39
(dp1296
S'21-JUL-2009'
p1297
(idecision_tree
decision_tree_leaf
p1298
(dp1299
g9
g10
(g11
tp1300
Rp1301
g17
I1
ssg21
g17
sbsS'12-FEB-2009'
p1302
(idecision_tree
decision_tree_leaf
p1303
(dp1304
g9
g10
(g11
tp1305
Rp1306
S'Sn'
p1307
I1
ssg21
g1307
sbsS'25-JAN-2009'
p1308
(idecision_tree
decision_tree_leaf
p1309
(dp1310
g9
g10
(g11
tp1311
Rp1312
g17
I1
ssg21
g17
sbsS'26-JUN-2009'
p1313
(idecision_tree
decision_tree_leaf
p1314
(dp1315
g9
g10
(g11
tp1316
Rp1317
g17
I1
ssg21
g17
sbsS'02-DEC-2009'
p1318
(idecision_tree
decision_tree_leaf
p1319
(dp1320
g9
g10
(g11
tp1321
Rp1322
g17
I1
ssg21
g17
sbssbsbsbsg22
(idecision_tree
continuous_decision_tree
p1323
(dp1324
g2
F1.5448
sg3
I51
sg4
(idecision_tree
continuous_decision_tree
p1325
(dp1326
g2
F-19.66665
sg3
I67
sg4
(idecision_tree
decision_tree_leaf
p1327
(dp1328
g9
g10
(g11
tp1329
Rp1330
g17
I3
sS'Sn'
p1331
I3
ssg21
g17
sbsg22
(idecision_tree
continuous_decision_tree
p1332
(dp1333
g2
F-5.5
sg3
I66
sg4
(idecision_tree
decision_tree_leaf
p1334
(dp1335
g9
g10
(g11
tp1336
Rp1337
g17
I6
sS'Sn'
p1338
I6
ssg21
g17
sbsg22
(idecision_tree
decision_tree
p1339
(dp1340
g3
I47
sg39
(dp1341
S'18-OCT-2009'
p1342
(idecision_tree
decision_tree_leaf
p1343
(dp1344
g9
g10
(g11
tp1345
Rp1346
S'Sn'
p1347
I1
ssg21
g1347
sbsS'09-NOV-2009'
p1348
(idecision_tree
decision_tree_leaf
p1349
(dp1350
g9
g10
(g11
tp1351
Rp1352
S'Lg'
p1353
I1
ssg21
g1353
sbssbsbsbsg22
(idecision_tree
continuous_decision_tree
p1354
(dp1355
g2
F127.7
sg3
I67
sg4
(idecision_tree
continuous_decision_tree
p1356
(dp1357
g2
F163.1
sg3
I67
sg4
(idecision_tree
continuous_decision_tree
p1358
(dp1359
g2
F176.25
sg3
I67
sg4
(idecision_tree
continuous_decision_tree
p1360
(dp1361
g2
F0.0
sg3
I66
sg4
(idecision_tree
decision_tree_leaf
p1362
(dp1363
g9
g10
(g11
tp1364
Rp1365
g16
I2
sS'Pn'
p1366
I1
ssg21
g16
sbsg22
(idecision_tree
decision_tree_leaf
p1367
(dp1368
g9
g10
(g11
tp1369
Rp1370
g17
I1
ssg21
g17
sbsbsg22
(idecision_tree
decision_tree
p1371
(dp1372
g3
I47
sg39
(dp1373
S'18-DEC-2009'
p1374
(idecision_tree
decision_tree_leaf
p1375
(dp1376
g9
g10
(g11
tp1377
Rp1378
g17
I1
ssg21
g17
sbsS'19-DEC-2009'
p1379
(idecision_tree
decision_tree_leaf
p1380
(dp1381
g9
g10
(g11
tp1382
Rp1383
g16
I1
ssg21
g16
sbssbsbsg22
(idecision_tree
continuous_decision_tree
p1384
(dp1385
g2
F0.0
sg3
I66
sg4
(idecision_tree
decision_tree
p1386
(dp1387
g3
I47
sg39
(dp1388
S'13-DEC-2009'
p1389
(idecision_tree
decision_tree_leaf
p1390
(dp1391
g9
g10
(g11
tp1392
Rp1393
g16
I1
ssg21
g16
sbsS'25-SEP-2009'
p1394
(idecision_tree
decision_tree_leaf
p1395
(dp1396
g9
g10
(g11
tp1397
Rp1398
g17
I1
ssg21
g17
sbssbsg22
(idecision_tree
decision_tree
p1399
(dp1400
g3
I47
sg39
(dp1401
S'11-AUG-2009'
p1402
(idecision_tree
decision_tree_leaf
p1403
(dp1404
g9
g10
(g11
tp1405
Rp1406
S'Sn'
p1407
I1
ssg21
g1407
sbsS'21-DEC-2009'
p1408
(idecision_tree
decision_tree_leaf
p1409
(dp1410
g9
g10
(g11
tp1411
Rp1412
g16
I1
ssg21
g16
sbssbsbsbsg22
(idecision_tree
continuous_decision_tree
p1413
(dp1414
g2
F-9.0
sg3
I66
sg4
(idecision_tree
continuous_decision_tree
p1415
(dp1416
g2
F-162.33350000000002
sg3
I67
sg4
(idecision_tree
continuous_decision_tree
p1417
(dp1418
g2
F-6.5
sg3
I66
sg4
(idecision_tree
decision_tree_leaf
p1419
(dp1420
g9
g10
(g11
tp1421
Rp1422
g16
I35
sg17
I15
sS'Pn'
p1423
I10
sS'Sn'
p1424
I10
ssg21
g16
sbsg22
(idecision_tree
decision_tree
p1425
(dp1426
g3
I47
sg39
(dp1427
S'29-NOV-2009'
p1428
(idecision_tree
decision_tree_leaf
p1429
(dp1430
g9
g10
(g11
tp1431
Rp1432
S'Sn'
p1433
I1
ssg21
g1433
sbsS'24-MAY-2009'
p1434
(idecision_tree
decision_tree_leaf
p1435
(dp1436
g9
g10
(g11
tp1437
Rp1438
g16
I1
ssg21
g16
sbssbsbsg22
(idecision_tree
decision_tree
p1439
(dp1440
g3
I47
sg39
(dp1441
S'21-MAR-2009'
p1442
(idecision_tree
decision_tree_leaf
p1443
(dp1444
g9
g10
(g11
tp1445
Rp1446
g16
I1
ssg21
g16
sbsS'27-JAN-2009'
p1447
(idecision_tree
decision_tree_leaf
p1448
(dp1449
g9
g10
(g11
tp1450
Rp1451
g17
I1
ssg21
g17
sbssbsbsg22
(idecision_tree
decision_tree
p1452
(dp1453
g3
I47
sg39
(dp1454
S'11-FEB-2009'
p1455
(idecision_tree
decision_tree_leaf
p1456
(dp1457
g9
g10
(g11
tp1458
Rp1459
g17
I1
ssg21
g17
sbsS'16-JUL-2009'
p1460
(idecision_tree
decision_tree_leaf
p1461
(dp1462
g9
g10
(g11
tp1463
Rp1464
g16
I1
ssg21
g16
sbssbsbsbsbsbsbsbsbsbsb.