(idecision_tree
continuous_decision_tree
p0
(dp1
S'split_point'
p2
F0.8720465
sS'attribute'
p3
I36
sS'gt_subtree'
p4
(idecision_tree
continuous_decision_tree
p5
(dp6
g2
F1.85527
sg3
I33
sg4
(idecision_tree
continuous_decision_tree
p7
(dp8
g2
F2.7290400000000004
sg3
I33
sg4
(idecision_tree
continuous_decision_tree
p9
(dp10
g2
F7.68224
sg3
I32
sg4
(idecision_tree
continuous_decision_tree
p11
(dp12
g2
F25.2
sg3
I63
sg4
(idecision_tree
continuous_decision_tree
p13
(dp14
g2
F256.9445
sg3
I42
sg4
(idecision_tree
decision_tree_leaf
p15
(dp16
S'counts'
p17
ccollections
defaultdict
p18
(c__builtin__
int
p19
tp20
Rp21
S'P'
p22
I15
sS'Pn'
p23
I2
sS'Sn'
p24
I1
sS'Lg'
p25
I1
ssS'value'
p26
g22
sbsS'lt_subtree'
p27
(idecision_tree
continuous_decision_tree
p28
(dp29
g2
F3.0
sg3
I62
sg4
(idecision_tree
continuous_decision_tree
p30
(dp31
g2
F4.0
sg3
I66
sg4
(idecision_tree
continuous_decision_tree
p32
(dp33
g2
F5.0
sg3
I66
sg4
(idecision_tree
continuous_decision_tree
p34
(dp35
g2
F33.9
sg3
I67
sg4
(idecision_tree
continuous_decision_tree
p36
(dp37
g2
F6.0
sg3
I66
sg4
(idecision_tree
decision_tree
p38
(dp39
g3
I47
sS'value_to_tree'
p40
(dp41
S'07-SEP-2009'
p42
(idecision_tree
decision_tree_leaf
p43
(dp44
g17
g18
(g19
tp45
Rp46
g22
I1
ssg26
g22
sbsS'12-FEB-2009'
p47
(idecision_tree
decision_tree_leaf
p48
(dp49
g17
g18
(g19
tp50
Rp51
S'PKP'
p52
I1
ssg26
g52
sbssbsg27
(idecision_tree
decision_tree_leaf
p53
(dp54
g17
g18
(g19
tp55
Rp56
g22
I1
ssg26
g22
sbsbsg27
(idecision_tree
decision_tree
p57
(dp58
g3
I47
sg40
(dp59
S'07-SEP-2009'
p60
(idecision_tree
decision_tree_leaf
p61
(dp62
g17
g18
(g19
tp63
Rp64
g22
I1
ssg26
g22
sbsS'04-APR-2009'
p65
(idecision_tree
decision_tree_leaf
p66
(dp67
g17
g18
(g19
tp68
Rp69
S'S'
p70
I1
ssg26
g70
sbssbsbsg27
(idecision_tree
decision_tree
p71
(dp72
g3
I47
sg40
(dp73
S'04-JAN-2009'
p74
(idecision_tree
decision_tree_leaf
p75
(dp76
g17
g18
(g19
tp77
Rp78
g22
I1
ssg26
g22
sbsS'16-JUN-2009'
p79
(idecision_tree
decision_tree_leaf
p80
(dp81
g17
g18
(g19
tp82
Rp83
g22
I1
ssg26
g22
sbsS'07-APR-2009'
p84
(idecision_tree
decision_tree_leaf
p85
(dp86
g17
g18
(g19
tp87
Rp88
g22
I1
ssg26
g22
sbsS'01-MAR-2009'
p89
(idecision_tree
decision_tree_leaf
p90
(dp91
g17
g18
(g19
tp92
Rp93
S'Pn'
p94
I1
ssg26
g94
sbsS'18-JUN-2009'
p95
(idecision_tree
decision_tree_leaf
p96
(dp97
g17
g18
(g19
tp98
Rp99
g22
I1
ssg26
g22
sbsS'09-APR-2009'
p100
(idecision_tree
decision_tree_leaf
p101
(dp102
g17
g18
(g19
tp103
Rp104
g22
I1
ssg26
g22
sbsS'17-MAY-2009'
p105
(idecision_tree
decision_tree_leaf
p106
(dp107
g17
g18
(g19
tp108
Rp109
g22
I1
ssg26
g22
sbssbsbsg27
(idecision_tree
decision_tree
p110
(dp111
g3
I47
sg40
(dp112
S'25-FEB-2009'
p113
(idecision_tree
decision_tree_leaf
p114
(dp115
g17
g18
(g19
tp116
Rp117
g22
I1
ssg26
g22
sbsS'14-FEB-2009'
p118
(idecision_tree
decision_tree_leaf
p119
(dp120
g17
g18
(g19
tp121
Rp122
S'Lg'
p123
I1
ssg26
g123
sbsS'13-OCT-2009'
p124
(idecision_tree
decision_tree_leaf
p125
(dp126
g17
g18
(g19
tp127
Rp128
g22
I1
ssg26
g22
sbssbsbsg27
(idecision_tree
decision_tree
p129
(dp130
g3
I47
sg40
(dp131
S'29-MAY-2009'
p132
(idecision_tree
decision_tree_leaf
p133
(dp134
g17
g18
(g19
tp135
Rp136
S'Pn'
p137
I1
ssg26
g137
sbsS'11-FEB-2009'
p138
(idecision_tree
decision_tree_leaf
p139
(dp140
g17
g18
(g19
tp141
Rp142
g22
I1
ssg26
g22
sbsS'23-JUL-2009'
p143
(idecision_tree
decision_tree_leaf
p144
(dp145
g17
g18
(g19
tp146
Rp147
g22
I1
ssg26
g22
sbsS'29-JUL-2009'
p148
(idecision_tree
decision_tree_leaf
p149
(dp150
g17
g18
(g19
tp151
Rp152
g22
I1
ssg26
g22
sbsS'05-JUN-2009'
p153
(idecision_tree
decision_tree_leaf
p154
(dp155
g17
g18
(g19
tp156
Rp157
g22
I1
ssg26
g22
sbsS'28-AUG-2009'
p158
(idecision_tree
decision_tree_leaf
p159
(dp160
g17
g18
(g19
tp161
Rp162
g22
I2
ssg26
g22
sbsS'04-DEC-2009'
p163
(idecision_tree
decision_tree
p164
(dp165
g3
I1
sg40
(dp166
g22
(idecision_tree
decision_tree_leaf
p167
(dp168
g17
g18
(g19
tp169
Rp170
g70
I1
ssg26
g70
sbsS'Pg'
p171
(idecision_tree
decision_tree_leaf
p172
(dp173
g17
g18
(g19
tp174
Rp175
g22
I1
ssg26
g22
sbssbsS'19-NOV-2009'
p176
(idecision_tree
decision_tree_leaf
p177
(dp178
g17
g18
(g19
tp179
Rp180
g22
I1
ssg26
g22
sbsS'17-MAY-2009'
p181
(idecision_tree
decision_tree_leaf
p182
(dp183
g17
g18
(g19
tp184
Rp185
g22
I1
ssg26
g22
sbsS'08-SEP-2009'
p186
(idecision_tree
decision_tree_leaf
p187
(dp188
g17
g18
(g19
tp189
Rp190
g22
I1
ssg26
g22
sbsS'09-APR-2009'
p191
(idecision_tree
decision_tree_leaf
p192
(dp193
g17
g18
(g19
tp194
Rp195
g22
I1
ssg26
g22
sbsS'30-SEP-2009'
p196
(idecision_tree
decision_tree_leaf
p197
(dp198
g17
g18
(g19
tp199
Rp200
g22
I1
ssg26
g22
sbsS'07-AUG-2009'
p201
(idecision_tree
decision_tree_leaf
p202
(dp203
g17
g18
(g19
tp204
Rp205
g70
I1
ssg26
g70
sbsS'15-AUG-2009'
p206
(idecision_tree
decision_tree_leaf
p207
(dp208
g17
g18
(g19
tp209
Rp210
g22
I1
ssg26
g22
sbsS'25-SEP-2009'
p211
(idecision_tree
decision_tree_leaf
p212
(dp213
g17
g18
(g19
tp214
Rp215
g22
I1
ssg26
g22
sbsS'06-APR-2009'
p216
(idecision_tree
decision_tree_leaf
p217
(dp218
g17
g18
(g19
tp219
Rp220
g22
I1
ssg26
g22
sbssbsbsbsg27
(idecision_tree
continuous_decision_tree
p221
(dp222
g2
F20.767899999999997
sg3
I7
sg4
(idecision_tree
continuous_decision_tree
p223
(dp224
g2
F10.246895
sg3
I39
sg4
(idecision_tree
decision_tree_leaf
p225
(dp226
g17
g18
(g19
tp227
Rp228
g22
I15
sg70
I1
sS'Pn'
p229
I3
ssg26
g22
sbsg27
(idecision_tree
continuous_decision_tree
p230
(dp231
g2
F1.0
sg3
I66
sg4
(idecision_tree
decision_tree_leaf
p232
(dp233
g17
g18
(g19
tp234
Rp235
g22
I27
sg70
I3
sS'Pn'
p236
I2
sS'PKP'
p237
I3
ssg26
g22
sbsg27
(idecision_tree
continuous_decision_tree
p238
(dp239
g2
F-163.475
sg3
I67
sg4
(idecision_tree
continuous_decision_tree
p240
(dp241
g2
F0.08552779999999999
sg3
I50
sg4
(idecision_tree
continuous_decision_tree
p242
(dp243
g2
F-24.625
sg3
I59
sg4
(idecision_tree
continuous_decision_tree
p244
(dp245
g2
F-20.25525
sg3
I59
sg4
(idecision_tree
decision_tree
p246
(dp247
g3
I47
sg40
(dp248
S'20-OCT-2009'
p249
(idecision_tree
decision_tree_leaf
p250
(dp251
g17
g18
(g19
tp252
Rp253
g22
I1
ssg26
g22
sbsS'02-SEP-2009'
p254
(idecision_tree
decision_tree_leaf
p255
(dp256
g17
g18
(g19
tp257
Rp258
S'PKP'
p259
I1
ssg26
g259
sbsS'14-JUN-2009'
p260
(idecision_tree
decision_tree_leaf
p261
(dp262
g17
g18
(g19
tp263
Rp264
g22
I1
ssg26
g22
sbsS'03-JUL-2009'
p265
(idecision_tree
decision_tree_leaf
p266
(dp267
g17
g18
(g19
tp268
Rp269
g22
I1
ssg26
g22
sbsS'26-FEB-2009'
p270
(idecision_tree
decision_tree_leaf
p271
(dp272
g17
g18
(g19
tp273
Rp274
g70
I1
ssg26
g70
sbsS'01-FEB-2009'
p275
(idecision_tree
decision_tree_leaf
p276
(dp277
g17
g18
(g19
tp278
Rp279
S'Lg'
p280
I1
ssg26
g280
sbsS'13-JUN-2009'
p281
(idecision_tree
decision_tree_leaf
p282
(dp283
g17
g18
(g19
tp284
Rp285
S'Lg'
p286
I1
ssg26
g286
sbsS'17-AUG-2009'
p287
(idecision_tree
decision_tree_leaf
p288
(dp289
g17
g18
(g19
tp290
Rp291
g22
I1
ssg26
g22
sbsS'08-MAY-2009'
p292
(idecision_tree
decision_tree_leaf
p293
(dp294
g17
g18
(g19
tp295
Rp296
g22
I1
ssg26
g22
sbsS'16-JUN-2009'
p297
(idecision_tree
decision_tree_leaf
p298
(dp299
g17
g18
(g19
tp300
Rp301
g22
I1
ssg26
g22
sbsS'22-JUL-2009'
p302
(idecision_tree
decision_tree_leaf
p303
(dp304
g17
g18
(g19
tp305
Rp306
g22
I1
ssg26
g22
sbsS'14-MAY-2009'
p307
(idecision_tree
decision_tree_leaf
p308
(dp309
g17
g18
(g19
tp310
Rp311
g22
I1
ssg26
g22
sbsS'27-JUL-2009'
p312
(idecision_tree
decision_tree_leaf
p313
(dp314
g17
g18
(g19
tp315
Rp316
g22
I1
ssg26
g22
sbsS'18-APR-2009'
p317
(idecision_tree
decision_tree_leaf
p318
(dp319
g17
g18
(g19
tp320
Rp321
g22
I1
ssg26
g22
sbsS'17-APR-2009'
p322
(idecision_tree
decision_tree_leaf
p323
(dp324
g17
g18
(g19
tp325
Rp326
g22
I1
ssg26
g22
sbsS'12-FEB-2009'
p327
(idecision_tree
decision_tree_leaf
p328
(dp329
g17
g18
(g19
tp330
Rp331
g22
I3
ssg26
g22
sbsS'18-JAN-2009'
p332
(idecision_tree
decision_tree_leaf
p333
(dp334
g17
g18
(g19
tp335
Rp336
S'PKP'
p337
I1
ssg26
g337
sbsS'12-APR-2009'
p338
(idecision_tree
decision_tree_leaf
p339
(dp340
g17
g18
(g19
tp341
Rp342
g22
I1
ssg26
g22
sbsS'19-FEB-2009'
p343
(idecision_tree
decision_tree_leaf
p344
(dp345
g17
g18
(g19
tp346
Rp347
g22
I1
ssg26
g22
sbsS'25-APR-2009'
p348
(idecision_tree
decision_tree_leaf
p349
(dp350
g17
g18
(g19
tp351
Rp352
g22
I2
ssg26
g22
sbsS'04-MAY-2009'
p353
(idecision_tree
decision_tree_leaf
p354
(dp355
g17
g18
(g19
tp356
Rp357
g22
I1
ssg26
g22
sbsS'15-APR-2009'
p358
(idecision_tree
decision_tree_leaf
p359
(dp360
g17
g18
(g19
tp361
Rp362
g22
I1
ssg26
g22
sbsS'15-OCT-2009'
p363
(idecision_tree
decision_tree_leaf
p364
(dp365
g17
g18
(g19
tp366
Rp367
g22
I1
ssg26
g22
sbsS'23-NOV-2009'
p368
(idecision_tree
decision_tree_leaf
p369
(dp370
g17
g18
(g19
tp371
Rp372
S'PKP'
p373
I1
ssg26
g373
sbsS'03-MAR-2009'
p374
(idecision_tree
decision_tree_leaf
p375
(dp376
g17
g18
(g19
tp377
Rp378
S'Lg'
p379
I1
ssg26
g379
sbsS'10-AUG-2009'
p380
(idecision_tree
decision_tree_leaf
p381
(dp382
g17
g18
(g19
tp383
Rp384
g22
I1
ssg26
g22
sbsS'09-APR-2009'
p385
(idecision_tree
decision_tree
p386
(dp387
g3
I13
sg40
(dp388
S'Z1020'
p389
(idecision_tree
decision_tree_leaf
p390
(dp391
g17
g18
(g19
tp392
Rp393
g22
I1
ssg26
g22
sbsS'Z0515'
p394
(idecision_tree
decision_tree_leaf
p395
(dp396
g17
g18
(g19
tp397
Rp398
g70
I1
ssg26
g70
sbssbsS'16-MAR-2009'
p399
(idecision_tree
decision_tree_leaf
p400
(dp401
g17
g18
(g19
tp402
Rp403
g22
I1
ssg26
g22
sbsS'07-FEB-2009'
p404
(idecision_tree
decision_tree_leaf
p405
(dp406
g17
g18
(g19
tp407
Rp408
S'Lg'
p409
I1
ssg26
g409
sbsS'20-AUG-2009'
p410
(idecision_tree
decision_tree_leaf
p411
(dp412
g17
g18
(g19
tp413
Rp414
g22
I1
ssg26
g22
sbsS'06-MAR-2009'
p415
(idecision_tree
decision_tree_leaf
p416
(dp417
g17
g18
(g19
tp418
Rp419
g22
I1
ssg26
g22
sbsS'03-OCT-2009'
p420
(idecision_tree
decision_tree_leaf
p421
(dp422
g17
g18
(g19
tp423
Rp424
g22
I1
ssg26
g22
sbsS'19-SEP-2009'
p425
(idecision_tree
decision_tree_leaf
p426
(dp427
g17
g18
(g19
tp428
Rp429
g22
I1
ssg26
g22
sbsS'06-JUN-2009'
p430
(idecision_tree
decision_tree_leaf
p431
(dp432
g17
g18
(g19
tp433
Rp434
g22
I1
ssg26
g22
sbsS'19-JUN-2009'
p435
(idecision_tree
decision_tree_leaf
p436
(dp437
g17
g18
(g19
tp438
Rp439
g22
I1
ssg26
g22
sbsS'16-JUL-2009'
p440
(idecision_tree
decision_tree_leaf
p441
(dp442
g17
g18
(g19
tp443
Rp444
g22
I1
ssg26
g22
sbsS'03-APR-2009'
p445
(idecision_tree
decision_tree_leaf
p446
(dp447
g17
g18
(g19
tp448
Rp449
g22
I1
ssg26
g22
sbsS'16-AUG-2009'
p450
(idecision_tree
decision_tree_leaf
p451
(dp452
g17
g18
(g19
tp453
Rp454
g22
I2
ssg26
g22
sbsS'10-JUL-2009'
p455
(idecision_tree
decision_tree_leaf
p456
(dp457
g17
g18
(g19
tp458
Rp459
g70
I1
ssg26
g70
sbsS'23-OCT-2009'
p460
(idecision_tree
decision_tree_leaf
p461
(dp462
g17
g18
(g19
tp463
Rp464
g22
I1
ssg26
g22
sbsS'11-OCT-2009'
p465
(idecision_tree
decision_tree_leaf
p466
(dp467
g17
g18
(g19
tp468
Rp469
g22
I1
ssg26
g22
sbsS'04-AUG-2009'
p470
(idecision_tree
decision_tree_leaf
p471
(dp472
g17
g18
(g19
tp473
Rp474
g22
I1
ssg26
g22
sbsS'22-JUN-2009'
p475
(idecision_tree
decision_tree_leaf
p476
(dp477
g17
g18
(g19
tp478
Rp479
g22
I1
ssg26
g22
sbsS'19-OCT-2009'
p480
(idecision_tree
decision_tree_leaf
p481
(dp482
g17
g18
(g19
tp483
Rp484
g22
I1
ssg26
g22
sbssbsg27
(idecision_tree
decision_tree
p485
(dp486
g3
I47
sg40
(dp487
S'18-APR-2009'
p488
(idecision_tree
decision_tree_leaf
p489
(dp490
g17
g18
(g19
tp491
Rp492
g22
I1
ssg26
g22
sbsS'10-JUL-2009'
p493
(idecision_tree
decision_tree_leaf
p494
(dp495
g17
g18
(g19
tp496
Rp497
g22
I1
ssg26
g22
sbsS'29-JUN-2009'
p498
(idecision_tree
decision_tree_leaf
p499
(dp500
g17
g18
(g19
tp501
Rp502
S'Sn'
p503
I1
ssg26
g503
sbsS'04-JAN-2009'
p504
(idecision_tree
decision_tree_leaf
p505
(dp506
g17
g18
(g19
tp507
Rp508
g22
I1
ssg26
g22
sbsS'09-JAN-2009'
p509
(idecision_tree
decision_tree_leaf
p510
(dp511
g17
g18
(g19
tp512
Rp513
g22
I1
ssg26
g22
sbssbsbsg27
(idecision_tree
decision_tree
p514
(dp515
g3
I47
sg40
(dp516
S'21-MAY-2009'
p517
(idecision_tree
decision_tree_leaf
p518
(dp519
g17
g18
(g19
tp520
Rp521
g22
I1
ssg26
g22
sbsS'18-OCT-2009'
p522
(idecision_tree
decision_tree_leaf
p523
(dp524
g17
g18
(g19
tp525
Rp526
g22
I1
ssg26
g22
sbsS'10-AUG-2009'
p527
(idecision_tree
decision_tree_leaf
p528
(dp529
g17
g18
(g19
tp530
Rp531
g22
I1
ssg26
g22
sbsS'25-OCT-2009'
p532
(idecision_tree
decision_tree_leaf
p533
(dp534
g17
g18
(g19
tp535
Rp536
g22
I1
ssg26
g22
sbsS'29-JUN-2009'
p537
(idecision_tree
decision_tree_leaf
p538
(dp539
g17
g18
(g19
tp540
Rp541
S'Lg'
p542
I1
ssg26
g542
sbssbsbsg27
(idecision_tree
decision_tree
p543
(dp544
g3
I47
sg40
(dp545
S'13-APR-2009'
p546
(idecision_tree
decision_tree_leaf
p547
(dp548
g17
g18
(g19
tp549
Rp550
g22
I1
ssg26
g22
sbsS'13-NOV-2009'
p551
(idecision_tree
decision_tree_leaf
p552
(dp553
g17
g18
(g19
tp554
Rp555
S'PKP'
p556
I1
ssg26
g556
sbsS'13-JUL-2009'
p557
(idecision_tree
decision_tree_leaf
p558
(dp559
g17
g18
(g19
tp560
Rp561
g22
I1
ssg26
g22
sbsS'22-JAN-2009'
p562
(idecision_tree
decision_tree_leaf
p563
(dp564
g17
g18
(g19
tp565
Rp566
g22
I1
ssg26
g22
sbsS'06-FEB-2009'
p567
(idecision_tree
decision_tree_leaf
p568
(dp569
g17
g18
(g19
tp570
Rp571
g22
I1
ssg26
g22
sbssbsbsg27
(idecision_tree
decision_tree
p572
(dp573
g3
I47
sg40
(dp574
S'18-JUN-2009'
p575
(idecision_tree
decision_tree_leaf
p576
(dp577
g17
g18
(g19
tp578
Rp579
g22
I1
ssg26
g22
sbsS'17-DEC-2009'
p580
(idecision_tree
decision_tree_leaf
p581
(dp582
g17
g18
(g19
tp583
Rp584
g22
I1
ssg26
g22
sbsS'06-DEC-2009'
p585
(idecision_tree
decision_tree_leaf
p586
(dp587
g17
g18
(g19
tp588
Rp589
g22
I1
ssg26
g22
sbsS'18-OCT-2009'
p590
(idecision_tree
decision_tree_leaf
p591
(dp592
g17
g18
(g19
tp593
Rp594
g22
I1
ssg26
g22
sbsS'07-DEC-2009'
p595
(idecision_tree
decision_tree_leaf
p596
(dp597
g17
g18
(g19
tp598
Rp599
S'Lg'
p600
I1
ssg26
g600
sbssbsbsbsbsg27
(idecision_tree
continuous_decision_tree
p601
(dp602
g2
F0.0
sg3
I62
sg4
(idecision_tree
decision_tree
p603
(dp604
g3
I47
sg40
(dp605
S'06-DEC-2009'
p606
(idecision_tree
decision_tree_leaf
p607
(dp608
g17
g18
(g19
tp609
Rp610
g22
I1
ssg26
g22
sbsS'03-AUG-2009'
p611
(idecision_tree
decision_tree_leaf
p612
(dp613
g17
g18
(g19
tp614
Rp615
g70
I1
ssg26
g70
sbsS'19-MAR-2009'
p616
(idecision_tree
decision_tree_leaf
p617
(dp618
g17
g18
(g19
tp619
Rp620
g22
I2
ssg26
g22
sbsS'15-JUL-2009'
p621
(idecision_tree
decision_tree_leaf
p622
(dp623
g17
g18
(g19
tp624
Rp625
g22
I1
ssg26
g22
sbsS'25-JUL-2009'
p626
(idecision_tree
decision_tree_leaf
p627
(dp628
g17
g18
(g19
tp629
Rp630
g22
I1
ssg26
g22
sbsS'02-JUL-2009'
p631
(idecision_tree
decision_tree_leaf
p632
(dp633
g17
g18
(g19
tp634
Rp635
g22
I1
ssg26
g22
sbsS'27-JAN-2009'
p636
(idecision_tree
decision_tree_leaf
p637
(dp638
g17
g18
(g19
tp639
Rp640
g22
I1
ssg26
g22
sbsS'18-MAY-2009'
p641
(idecision_tree
decision_tree_leaf
p642
(dp643
g17
g18
(g19
tp644
Rp645
S'Sn'
p646
I1
ssg26
g646
sbsS'05-JUL-2009'
p647
(idecision_tree
decision_tree_leaf
p648
(dp649
g17
g18
(g19
tp650
Rp651
g22
I1
ssg26
g22
sbsS'09-MAY-2009'
p652
(idecision_tree
decision_tree_leaf
p653
(dp654
g17
g18
(g19
tp655
Rp656
g22
I1
ssg26
g22
sbsS'04-DEC-2009'
p657
(idecision_tree
decision_tree_leaf
p658
(dp659
g17
g18
(g19
tp660
Rp661
g22
I1
ssg26
g22
sbsS'19-APR-2009'
p662
(idecision_tree
continuous_decision_tree
p663
(dp664
g2
F0.5
sg3
I62
sg4
(idecision_tree
decision_tree
p665
(dp666
g3
I1
sg40
(dp667
g22
(idecision_tree
decision_tree_leaf
p668
(dp669
g17
g18
(g19
tp670
Rp671
g22
I1
ssg26
g22
sbsS'Pn'
p672
(idecision_tree
decision_tree_leaf
p673
(dp674
g17
g18
(g19
tp675
Rp676
S'Pn'
p677
I1
ssg26
g677
sbssbsg27
(idecision_tree
decision_tree_leaf
p678
(dp679
g17
g18
(g19
tp680
Rp681
g22
I1
ssg26
g22
sbsbsS'28-AUG-2009'
p682
(idecision_tree
decision_tree_leaf
p683
(dp684
g17
g18
(g19
tp685
Rp686
g22
I1
ssg26
g22
sbsS'16-MAY-2009'
p687
(idecision_tree
decision_tree_leaf
p688
(dp689
g17
g18
(g19
tp690
Rp691
g22
I1
ssg26
g22
sbsS'19-JUN-2009'
p692
(idecision_tree
decision_tree_leaf
p693
(dp694
g17
g18
(g19
tp695
Rp696
g22
I1
ssg26
g22
sbsS'18-FEB-2009'
p697
(idecision_tree
decision_tree_leaf
p698
(dp699
g17
g18
(g19
tp700
Rp701
g22
I1
ssg26
g22
sbsS'09-JUN-2009'
p702
(idecision_tree
decision_tree_leaf
p703
(dp704
g17
g18
(g19
tp705
Rp706
g22
I3
ssg26
g22
sbsS'11-FEB-2009'
p707
(idecision_tree
decision_tree_leaf
p708
(dp709
g17
g18
(g19
tp710
Rp711
g22
I1
ssg26
g22
sbsS'21-SEP-2009'
p712
(idecision_tree
decision_tree_leaf
p713
(dp714
g17
g18
(g19
tp715
Rp716
g22
I1
ssg26
g22
sbsS'27-JUN-2009'
p717
(idecision_tree
decision_tree_leaf
p718
(dp719
g17
g18
(g19
tp720
Rp721
g22
I1
ssg26
g22
sbsS'13-MAR-2009'
p722
(idecision_tree
decision_tree_leaf
p723
(dp724
g17
g18
(g19
tp725
Rp726
g22
I1
ssg26
g22
sbsS'20-MAR-2009'
p727
(idecision_tree
decision_tree_leaf
p728
(dp729
g17
g18
(g19
tp730
Rp731
g22
I1
ssg26
g22
sbsS'31-MAR-2009'
p732
(idecision_tree
decision_tree_leaf
p733
(dp734
g17
g18
(g19
tp735
Rp736
g22
I1
ssg26
g22
sbsS'07-JUL-2009'
p737
(idecision_tree
decision_tree_leaf
p738
(dp739
g17
g18
(g19
tp740
Rp741
g22
I1
ssg26
g22
sbsS'20-FEB-2009'
p742
(idecision_tree
decision_tree_leaf
p743
(dp744
g17
g18
(g19
tp745
Rp746
S'Pn'
p747
I1
ssg26
g747
sbsS'14-DEC-2009'
p748
(idecision_tree
decision_tree_leaf
p749
(dp750
g17
g18
(g19
tp751
Rp752
S'Sn'
p753
I1
ssg26
g753
sbsS'05-JUN-2009'
p754
(idecision_tree
decision_tree_leaf
p755
(dp756
g17
g18
(g19
tp757
Rp758
g22
I1
ssg26
g22
sbsS'07-MAY-2009'
p759
(idecision_tree
decision_tree_leaf
p760
(dp761
g17
g18
(g19
tp762
Rp763
g22
I1
ssg26
g22
sbsS'02-MAR-2009'
p764
(idecision_tree
decision_tree_leaf
p765
(dp766
g17
g18
(g19
tp767
Rp768
g22
I1
ssg26
g22
sbsS'17-FEB-2009'
p769
(idecision_tree
decision_tree_leaf
p770
(dp771
g17
g18
(g19
tp772
Rp773
S'Pn'
p774
I1
ssg26
g774
sbsS'05-JAN-2009'
p775
(idecision_tree
decision_tree_leaf
p776
(dp777
g17
g18
(g19
tp778
Rp779
g22
I2
ssg26
g22
sbsS'10-SEP-2009'
p780
(idecision_tree
decision_tree_leaf
p781
(dp782
g17
g18
(g19
tp783
Rp784
g22
I1
ssg26
g22
sbsS'30-JUN-2009'
p785
(idecision_tree
decision_tree_leaf
p786
(dp787
g17
g18
(g19
tp788
Rp789
g22
I1
ssg26
g22
sbsS'31-JUL-2009'
p790
(idecision_tree
decision_tree_leaf
p791
(dp792
g17
g18
(g19
tp793
Rp794
g22
I1
ssg26
g22
sbsS'25-AUG-2009'
p795
(idecision_tree
decision_tree_leaf
p796
(dp797
g17
g18
(g19
tp798
Rp799
S'Sn'
p800
I1
ssg26
g800
sbsS'01-SEP-2009'
p801
(idecision_tree
decision_tree_leaf
p802
(dp803
g17
g18
(g19
tp804
Rp805
g22
I2
ssg26
g22
sbsS'24-JUL-2009'
p806
(idecision_tree
decision_tree_leaf
p807
(dp808
g17
g18
(g19
tp809
Rp810
g22
I1
ssg26
g22
sbsS'01-FEB-2009'
p811
(idecision_tree
decision_tree_leaf
p812
(dp813
g17
g18
(g19
tp814
Rp815
g22
I1
ssg26
g22
sbsS'07-MAR-2009'
p816
(idecision_tree
decision_tree_leaf
p817
(dp818
g17
g18
(g19
tp819
Rp820
g22
I1
ssg26
g22
sbsS'05-MAR-2009'
p821
(idecision_tree
decision_tree_leaf
p822
(dp823
g17
g18
(g19
tp824
Rp825
g22
I1
ssg26
g22
sbsS'25-MAY-2009'
p826
(idecision_tree
decision_tree_leaf
p827
(dp828
g17
g18
(g19
tp829
Rp830
g22
I1
ssg26
g22
sbsS'05-APR-2009'
p831
(idecision_tree
decision_tree_leaf
p832
(dp833
g17
g18
(g19
tp834
Rp835
g22
I1
ssg26
g22
sbsS'26-APR-2009'
p836
(idecision_tree
decision_tree_leaf
p837
(dp838
g17
g18
(g19
tp839
Rp840
g22
I1
ssg26
g22
sbsS'13-DEC-2009'
p841
(idecision_tree
decision_tree_leaf
p842
(dp843
g17
g18
(g19
tp844
Rp845
g70
I1
ssg26
g70
sbsS'13-OCT-2009'
p846
(idecision_tree
decision_tree_leaf
p847
(dp848
g17
g18
(g19
tp849
Rp850
g22
I1
ssg26
g22
sbsS'12-DEC-2009'
p851
(idecision_tree
decision_tree_leaf
p852
(dp853
g17
g18
(g19
tp854
Rp855
g22
I1
ssg26
g22
sbsS'13-SEP-2009'
p856
(idecision_tree
decision_tree_leaf
p857
(dp858
g17
g18
(g19
tp859
Rp860
g22
I1
ssg26
g22
sbsS'26-JAN-2009'
p861
(idecision_tree
decision_tree_leaf
p862
(dp863
g17
g18
(g19
tp864
Rp865
S'PKP'
p866
I1
ssg26
g866
sbsS'17-OCT-2009'
p867
(idecision_tree
decision_tree_leaf
p868
(dp869
g17
g18
(g19
tp870
Rp871
g22
I1
ssg26
g22
sbsS'19-DEC-2009'
p872
(idecision_tree
decision_tree
p873
(dp874
g3
I14
sg40
(dp875
S'coh'
p876
(idecision_tree
decision_tree_leaf
p877
(dp878
g17
g18
(g19
tp879
Rp880
g22
I1
ssg26
g22
sbsS'inc'
p881
(idecision_tree
decision_tree_leaf
p882
(dp883
g17
g18
(g19
tp884
Rp885
g70
I1
ssg26
g70
sbssbsS'27-NOV-2009'
p886
(idecision_tree
decision_tree_leaf
p887
(dp888
g17
g18
(g19
tp889
Rp890
g22
I1
ssg26
g22
sbsS'17-MAR-2009'
p891
(idecision_tree
decision_tree_leaf
p892
(dp893
g17
g18
(g19
tp894
Rp895
g22
I1
ssg26
g22
sbsS'06-FEB-2009'
p896
(idecision_tree
decision_tree_leaf
p897
(dp898
g17
g18
(g19
tp899
Rp900
g22
I1
ssg26
g22
sbsS'12-MAR-2009'
p901
(idecision_tree
decision_tree_leaf
p902
(dp903
g17
g18
(g19
tp904
Rp905
g22
I2
ssg26
g22
sbsS'09-FEB-2009'
p906
(idecision_tree
decision_tree_leaf
p907
(dp908
g17
g18
(g19
tp909
Rp910
g22
I1
ssg26
g22
sbsS'13-FEB-2009'
p911
(idecision_tree
decision_tree_leaf
p912
(dp913
g17
g18
(g19
tp914
Rp915
g22
I1
ssg26
g22
sbsS'18-MAR-2009'
p916
(idecision_tree
decision_tree_leaf
p917
(dp918
g17
g18
(g19
tp919
Rp920
g22
I1
ssg26
g22
sbsS'24-MAR-2009'
p921
(idecision_tree
decision_tree_leaf
p922
(dp923
g17
g18
(g19
tp924
Rp925
g22
I1
ssg26
g22
sbsS'14-JUN-2009'
p926
(idecision_tree
decision_tree_leaf
p927
(dp928
g17
g18
(g19
tp929
Rp930
g22
I2
sS'Pn'
p931
I1
ssg26
g22
sbsS'16-AUG-2009'
p932
(idecision_tree
decision_tree_leaf
p933
(dp934
g17
g18
(g19
tp935
Rp936
S'PKP'
p937
I1
ssg26
g937
sbsS'09-APR-2009'
p938
(idecision_tree
decision_tree_leaf
p939
(dp940
g17
g18
(g19
tp941
Rp942
g22
I1
ssg26
g22
sbsS'08-JUN-2009'
p943
(idecision_tree
decision_tree_leaf
p944
(dp945
g17
g18
(g19
tp946
Rp947
S'PKP'
p948
I1
ssg26
g948
sbsS'03-NOV-2009'
p949
(idecision_tree
decision_tree_leaf
p950
(dp951
g17
g18
(g19
tp952
Rp953
g22
I1
ssg26
g22
sbsS'04-JUN-2009'
p954
(idecision_tree
decision_tree_leaf
p955
(dp956
g17
g18
(g19
tp957
Rp958
g22
I1
ssg26
g22
sbsS'23-JAN-2009'
p959
(idecision_tree
decision_tree_leaf
p960
(dp961
g17
g18
(g19
tp962
Rp963
g22
I1
ssg26
g22
sbsS'17-MAY-2009'
p964
(idecision_tree
decision_tree_leaf
p965
(dp966
g17
g18
(g19
tp967
Rp968
S'Pn'
p969
I1
ssg26
g969
sbsS'24-FEB-2009'
p970
(idecision_tree
decision_tree_leaf
p971
(dp972
g17
g18
(g19
tp973
Rp974
g22
I1
ssg26
g22
sbsS'20-DEC-2009'
p975
(idecision_tree
decision_tree_leaf
p976
(dp977
g17
g18
(g19
tp978
Rp979
g22
I1
ssg26
g22
sbsS'01-MAR-2009'
p980
(idecision_tree
decision_tree_leaf
p981
(dp982
g17
g18
(g19
tp983
Rp984
S'Pn'
p985
I1
ssg26
g985
sbsS'07-NOV-2009'
p986
(idecision_tree
decision_tree_leaf
p987
(dp988
g17
g18
(g19
tp989
Rp990
g22
I2
ssg26
g22
sbsS'26-NOV-2009'
p991
(idecision_tree
decision_tree_leaf
p992
(dp993
g17
g18
(g19
tp994
Rp995
g22
I1
ssg26
g22
sbsS'21-MAR-2009'
p996
(idecision_tree
decision_tree_leaf
p997
(dp998
g17
g18
(g19
tp999
Rp1000
g22
I1
ssg26
g22
sbsS'05-AUG-2009'
p1001
(idecision_tree
decision_tree_leaf
p1002
(dp1003
g17
g18
(g19
tp1004
Rp1005
g22
I3
ssg26
g22
sbsS'22-FEB-2009'
p1006
(idecision_tree
decision_tree_leaf
p1007
(dp1008
g17
g18
(g19
tp1009
Rp1010
g22
I1
ssg26
g22
sbsS'04-SEP-2009'
p1011
(idecision_tree
decision_tree_leaf
p1012
(dp1013
g17
g18
(g19
tp1014
Rp1015
g22
I1
ssg26
g22
sbsS'30-MAR-2009'
p1016
(idecision_tree
decision_tree_leaf
p1017
(dp1018
g17
g18
(g19
tp1019
Rp1020
g22
I1
ssg26
g22
sbsS'18-JAN-2009'
p1021
(idecision_tree
decision_tree_leaf
p1022
(dp1023
g17
g18
(g19
tp1024
Rp1025
g22
I1
ssg26
g22
sbsS'22-AUG-2009'
p1026
(idecision_tree
decision_tree_leaf
p1027
(dp1028
g17
g18
(g19
tp1029
Rp1030
g22
I1
ssg26
g22
sbsS'29-OCT-2009'
p1031
(idecision_tree
decision_tree_leaf
p1032
(dp1033
g17
g18
(g19
tp1034
Rp1035
g22
I1
ssg26
g22
sbsS'29-APR-2009'
p1036
(idecision_tree
decision_tree_leaf
p1037
(dp1038
g17
g18
(g19
tp1039
Rp1040
g22
I1
ssg26
g22
sbsS'11-SEP-2009'
p1041
(idecision_tree
decision_tree_leaf
p1042
(dp1043
g17
g18
(g19
tp1044
Rp1045
g22
I1
ssg26
g22
sbsS'04-JAN-2009'
p1046
(idecision_tree
decision_tree
p1047
(dp1048
g3
I14
sg40
(dp1049
S'coh'
p1050
(idecision_tree
decision_tree_leaf
p1051
(dp1052
g17
g18
(g19
tp1053
Rp1054
g22
I1
ssg26
g22
sbsS'inc'
p1055
(idecision_tree
decision_tree_leaf
p1056
(dp1057
g17
g18
(g19
tp1058
Rp1059
S'Sn'
p1060
I1
ssg26
g1060
sbssbsS'10-DEC-2009'
p1061
(idecision_tree
decision_tree_leaf
p1062
(dp1063
g17
g18
(g19
tp1064
Rp1065
g22
I1
ssg26
g22
sbsS'29-JUN-2009'
p1066
(idecision_tree
decision_tree_leaf
p1067
(dp1068
g17
g18
(g19
tp1069
Rp1070
g22
I1
ssg26
g22
sbsS'06-AUG-2009'
p1071
(idecision_tree
decision_tree_leaf
p1072
(dp1073
g17
g18
(g19
tp1074
Rp1075
g22
I1
ssg26
g22
sbsS'12-FEB-2009'
p1076
(idecision_tree
decision_tree_leaf
p1077
(dp1078
g17
g18
(g19
tp1079
Rp1080
g22
I3
ssg26
g22
sbsS'23-SEP-2009'
p1081
(idecision_tree
decision_tree
p1082
(dp1083
g3
I13
sg40
(dp1084
S'H1020'
p1085
(idecision_tree
decision_tree_leaf
p1086
(dp1087
g17
g18
(g19
tp1088
Rp1089
S'Pn'
p1090
I1
ssg26
g1090
sbsS'H2040'
p1091
(idecision_tree
decision_tree_leaf
p1092
(dp1093
g17
g18
(g19
tp1094
Rp1095
S'Sn'
p1096
I1
ssg26
g1096
sbssbsS'28-NOV-2009'
p1097
(idecision_tree
decision_tree_leaf
p1098
(dp1099
g17
g18
(g19
tp1100
Rp1101
g22
I1
ssg26
g22
sbsS'30-SEP-2009'
p1102
(idecision_tree
decision_tree_leaf
p1103
(dp1104
g17
g18
(g19
tp1105
Rp1106
g22
I2
ssg26
g22
sbsS'30-MAY-2009'
p1107
(idecision_tree
decision_tree_leaf
p1108
(dp1109
g17
g18
(g19
tp1110
Rp1111
g22
I1
ssg26
g22
sbsS'17-JUL-2009'
p1112
(idecision_tree
decision_tree_leaf
p1113
(dp1114
g17
g18
(g19
tp1115
Rp1116
g22
I1
ssg26
g22
sbsS'13-JUL-2009'
p1117
(idecision_tree
decision_tree_leaf
p1118
(dp1119
g17
g18
(g19
tp1120
Rp1121
g22
I1
ssg26
g22
sbsS'07-JAN-2009'
p1122
(idecision_tree
decision_tree_leaf
p1123
(dp1124
g17
g18
(g19
tp1125
Rp1126
S'PKP'
p1127
I1
ssg26
g1127
sbsS'01-APR-2009'
p1128
(idecision_tree
decision_tree_leaf
p1129
(dp1130
g17
g18
(g19
tp1131
Rp1132
g22
I1
ssg26
g22
sbsS'03-JAN-2009'
p1133
(idecision_tree
decision_tree_leaf
p1134
(dp1135
g17
g18
(g19
tp1136
Rp1137
g22
I1
ssg26
g22
sbsS'15-OCT-2009'
p1138
(idecision_tree
decision_tree_leaf
p1139
(dp1140
g17
g18
(g19
tp1141
Rp1142
g22
I1
ssg26
g22
sbsS'19-JAN-2009'
p1143
(idecision_tree
decision_tree_leaf
p1144
(dp1145
g17
g18
(g19
tp1146
Rp1147
g22
I1
ssg26
g22
sbsS'28-MAR-2009'
p1148
(idecision_tree
decision_tree_leaf
p1149
(dp1150
g17
g18
(g19
tp1151
Rp1152
g22
I1
ssg26
g22
sbsS'27-MAR-2009'
p1153
(idecision_tree
decision_tree_leaf
p1154
(dp1155
g17
g18
(g19
tp1156
Rp1157
g22
I1
ssg26
g22
sbsS'03-JUL-2009'
p1158
(idecision_tree
decision_tree_leaf
p1159
(dp1160
g17
g18
(g19
tp1161
Rp1162
g22
I1
ssg26
g22
sbsS'15-JAN-2009'
p1163
(idecision_tree
decision_tree_leaf
p1164
(dp1165
g17
g18
(g19
tp1166
Rp1167
S'PKP'
p1168
I1
ssg26
g1168
sbsS'29-SEP-2009'
p1169
(idecision_tree
decision_tree
p1170
(dp1171
g3
I1
sg40
(dp1172
g22
(idecision_tree
decision_tree_leaf
p1173
(dp1174
g17
g18
(g19
tp1175
Rp1176
g22
I1
ssg26
g22
sbsS'Pn'
p1177
(idecision_tree
decision_tree_leaf
p1178
(dp1179
g17
g18
(g19
tp1180
Rp1181
S'PKP'
p1182
I1
ssg26
g1182
sbssbsS'30-OCT-2009'
p1183
(idecision_tree
decision_tree_leaf
p1184
(dp1185
g17
g18
(g19
tp1186
Rp1187
g22
I1
ssg26
g22
sbsS'18-AUG-2009'
p1188
(idecision_tree
decision_tree
p1189
(dp1190
g3
I14
sg40
(dp1191
S'coh'
p1192
(idecision_tree
decision_tree_leaf
p1193
(dp1194
g17
g18
(g19
tp1195
Rp1196
S'PKP'
p1197
I1
ssg26
g1197
sbsS'inc'
p1198
(idecision_tree
decision_tree_leaf
p1199
(dp1200
g17
g18
(g19
tp1201
Rp1202
g22
I1
ssg26
g22
sbssbsS'11-JUN-2009'
p1203
(idecision_tree
decision_tree_leaf
p1204
(dp1205
g17
g18
(g19
tp1206
Rp1207
g22
I2
ssg26
g22
sbsS'07-DEC-2009'
p1208
(idecision_tree
decision_tree_leaf
p1209
(dp1210
g17
g18
(g19
tp1211
Rp1212
g22
I1
ssg26
g22
sbsS'14-FEB-2009'
p1213
(idecision_tree
decision_tree_leaf
p1214
(dp1215
g17
g18
(g19
tp1216
Rp1217
g22
I1
ssg26
g22
sbsS'07-APR-2009'
p1218
(idecision_tree
decision_tree
p1219
(dp1220
g3
I1
sg40
(dp1221
g22
(idecision_tree
decision_tree_leaf
p1222
(dp1223
g17
g18
(g19
tp1224
Rp1225
g22
I1
ssg26
g22
sbsS'Pg'
p1226
(idecision_tree
decision_tree_leaf
p1227
(dp1228
g17
g18
(g19
tp1229
Rp1230
S'Pn'
p1231
I1
ssg26
g1231
sbssbsS'28-JAN-2009'
p1232
(idecision_tree
decision_tree_leaf
p1233
(dp1234
g17
g18
(g19
tp1235
Rp1236
g22
I1
ssg26
g22
sbsS'04-NOV-2009'
p1237
(idecision_tree
decision_tree_leaf
p1238
(dp1239
g17
g18
(g19
tp1240
Rp1241
S'Pn'
p1242
I1
ssg26
g1242
sbsS'25-JUN-2009'
p1243
(idecision_tree
decision_tree_leaf
p1244
(dp1245
g17
g18
(g19
tp1246
Rp1247
g22
I1
ssg26
g22
sbsS'29-NOV-2009'
p1248
(idecision_tree
decision_tree_leaf
p1249
(dp1250
g17
g18
(g19
tp1251
Rp1252
g22
I1
ssg26
g22
sbsS'02-OCT-2009'
p1253
(idecision_tree
decision_tree_leaf
p1254
(dp1255
g17
g18
(g19
tp1256
Rp1257
g22
I1
ssg26
g22
sbsS'10-NOV-2009'
p1258
(idecision_tree
decision_tree_leaf
p1259
(dp1260
g17
g18
(g19
tp1261
Rp1262
g22
I1
ssg26
g22
sbsS'26-MAY-2009'
p1263
(idecision_tree
decision_tree_leaf
p1264
(dp1265
g17
g18
(g19
tp1266
Rp1267
g22
I2
ssg26
g22
sbsS'24-NOV-2009'
p1268
(idecision_tree
decision_tree_leaf
p1269
(dp1270
g17
g18
(g19
tp1271
Rp1272
g22
I1
ssg26
g22
sbsS'29-MAY-2009'
p1273
(idecision_tree
decision_tree_leaf
p1274
(dp1275
g17
g18
(g19
tp1276
Rp1277
g22
I1
ssg26
g22
sbsS'30-AUG-2009'
p1278
(idecision_tree
continuous_decision_tree
p1279
(dp1280
g2
F-21.5
sg3
I67
sg4
(idecision_tree
decision_tree_leaf
p1281
(dp1282
g17
g18
(g19
tp1283
Rp1284
S'PKP'
p1285
I1
ssg26
g1285
sbsg27
(idecision_tree
decision_tree_leaf
p1286
(dp1287
g17
g18
(g19
tp1288
Rp1289
g22
I1
ssg26
g22
sbsbsS'03-MAR-2009'
p1290
(idecision_tree
decision_tree_leaf
p1291
(dp1292
g17
g18
(g19
tp1293
Rp1294
S'Pn'
p1295
I1
ssg26
g1295
sbsS'26-JUL-2009'
p1296
(idecision_tree
decision_tree_leaf
p1297
(dp1298
g17
g18
(g19
tp1299
Rp1300
g22
I1
ssg26
g22
sbsS'19-AUG-2009'
p1301
(idecision_tree
decision_tree_leaf
p1302
(dp1303
g17
g18
(g19
tp1304
Rp1305
g22
I1
ssg26
g22
sbsS'07-AUG-2009'
p1306
(idecision_tree
decision_tree_leaf
p1307
(dp1308
g17
g18
(g19
tp1309
Rp1310
g22
I1
ssg26
g22
sbsS'20-AUG-2009'
p1311
(idecision_tree
decision_tree_leaf
p1312
(dp1313
g17
g18
(g19
tp1314
Rp1315
g22
I1
ssg26
g22
sbsS'14-NOV-2009'
p1316
(idecision_tree
decision_tree_leaf
p1317
(dp1318
g17
g18
(g19
tp1319
Rp1320
g22
I1
ssg26
g22
sbsS'06-JUN-2009'
p1321
(idecision_tree
decision_tree
p1322
(dp1323
g3
I14
sg40
(dp1324
S'coh'
p1325
(idecision_tree
decision_tree_leaf
p1326
(dp1327
g17
g18
(g19
tp1328
Rp1329
g22
I1
ssg26
g22
sbsS'inc'
p1330
(idecision_tree
decision_tree_leaf
p1331
(dp1332
g17
g18
(g19
tp1333
Rp1334
g70
I1
ssg26
g70
sbssbsS'02-JUN-2009'
p1335
(idecision_tree
decision_tree_leaf
p1336
(dp1337
g17
g18
(g19
tp1338
Rp1339
g22
I1
ssg26
g22
sbsS'06-SEP-2009'
p1340
(idecision_tree
decision_tree_leaf
p1341
(dp1342
g17
g18
(g19
tp1343
Rp1344
g22
I1
ssg26
g22
sbsS'04-JUL-2009'
p1345
(idecision_tree
decision_tree_leaf
p1346
(dp1347
g17
g18
(g19
tp1348
Rp1349
g22
I1
ssg26
g22
sbsS'23-OCT-2009'
p1350
(idecision_tree
decision_tree_leaf
p1351
(dp1352
g17
g18
(g19
tp1353
Rp1354
g22
I1
ssg26
g22
sbsS'17-SEP-2009'
p1355
(idecision_tree
decision_tree_leaf
p1356
(dp1357
g17
g18
(g19
tp1358
Rp1359
g22
I1
ssg26
g22
sbsS'25-JAN-2009'
p1360
(idecision_tree
decision_tree_leaf
p1361
(dp1362
g17
g18
(g19
tp1363
Rp1364
g22
I2
ssg26
g22
sbssbsg27
(idecision_tree
continuous_decision_tree
p1365
(dp1366
g2
F-5.0
sg3
I62
sg4
(idecision_tree
continuous_decision_tree
p1367
(dp1368
g2
F0.440563
sg3
I48
sg4
(idecision_tree
continuous_decision_tree
p1369
(dp1370
g2
F-23.5
sg3
I63
sg4
(idecision_tree
decision_tree_leaf
p1371
(dp1372
g17
g18
(g19
tp1373
Rp1374
S'Lg'
p1375
I1
sS'PKP'
p1376
I2
sg22
I34
sg70
I8
sS'Sn'
p1377
I1
sS'Pn'
p1378
I1
ssg26
g22
sbsg27
(idecision_tree
continuous_decision_tree
p1379
(dp1380
g2
F0.8142130000000001
sg3
I48
sg4
(idecision_tree
continuous_decision_tree
p1381
(dp1382
g2
F-47.566649999999996
sg3
I63
sg4
(idecision_tree
decision_tree_leaf
p1383
(dp1384
g17
g18
(g19
tp1385
Rp1386
g22
I5
sS'Pn'
p1387
I1
sS'Sn'
p1388
I1
ssg26
g22
sbsg27
(idecision_tree
decision_tree
p1389
(dp1390
g3
I47
sg40
(dp1391
S'17-DEC-2009'
p1392
(idecision_tree
decision_tree_leaf
p1393
(dp1394
g17
g18
(g19
tp1395
Rp1396
S'Sn'
p1397
I1
ssg26
g1397
sbsS'23-MAR-2009'
p1398
(idecision_tree
decision_tree_leaf
p1399
(dp1400
g17
g18
(g19
tp1401
Rp1402
g22
I1
ssg26
g22
sbsS'16-MAR-2009'
p1403
(idecision_tree
decision_tree_leaf
p1404
(dp1405
g17
g18
(g19
tp1406
Rp1407
g22
I1
ssg26
g22
sbsS'01-MAR-2009'
p1408
(idecision_tree
decision_tree_leaf
p1409
(dp1410
g17
g18
(g19
tp1411
Rp1412
g22
I1
ssg26
g22
sbssbsbsg27
(idecision_tree
continuous_decision_tree
p1413
(dp1414
g2
F-69.91665
sg3
I67
sg4
(idecision_tree
decision_tree
p1415
(dp1416
g3
I47
sg40
(dp1417
S'29-APR-2009'
p1418
(idecision_tree
decision_tree_leaf
p1419
(dp1420
g17
g18
(g19
tp1421
Rp1422
S'Sn'
p1423
I1
ssg26
g1423
sbsS'09-JUL-2009'
p1424
(idecision_tree
decision_tree_leaf
p1425
(dp1426
g17
g18
(g19
tp1427
Rp1428
g22
I1
ssg26
g22
sbsS'27-JUL-2009'
p1429
(idecision_tree
decision_tree_leaf
p1430
(dp1431
g17
g18
(g19
tp1432
Rp1433
g22
I1
ssg26
g22
sbsS'23-JUN-2009'
p1434
(idecision_tree
decision_tree_leaf
p1435
(dp1436
g17
g18
(g19
tp1437
Rp1438
g22
I1
ssg26
g22
sbssbsg27
(idecision_tree
continuous_decision_tree
p1439
(dp1440
g2
F-80.91665
sg3
I63
sg4
(idecision_tree
decision_tree
p1441
(dp1442
g3
I47
sg40
(dp1443
S'13-MAY-2009'
p1444
(idecision_tree
decision_tree_leaf
p1445
(dp1446
g17
g18
(g19
tp1447
Rp1448
S'Sn'
p1449
I1
ssg26
g1449
sbsS'03-OCT-2009'
p1450
(idecision_tree
decision_tree_leaf
p1451
(dp1452
g17
g18
(g19
tp1453
Rp1454
g22
I1
ssg26
g22
sbssbsg27
(idecision_tree
decision_tree_leaf
p1455
(dp1456
g17
g18
(g19
tp1457
Rp1458
g22
I1
ssg26
g22
sbsbsbsbsbsg27
(idecision_tree
continuous_decision_tree
p1459
(dp1460
g2
F-3.0
sg3
I66
sg4
(idecision_tree
continuous_decision_tree
p1461
(dp1462
g2
F-9.875
sg3
I59
sg4
(idecision_tree
continuous_decision_tree
p1463
(dp1464
g2
F-4.9583335
sg3
I67
sg4
(idecision_tree
decision_tree
p1465
(dp1466
g3
I47
sg40
(dp1467
S'26-MAY-2009'
p1468
(idecision_tree
decision_tree_leaf
p1469
(dp1470
g17
g18
(g19
tp1471
Rp1472
S'Pn'
p1473
I1
ssg26
g1473
sbsS'09-JUN-2009'
p1474
(idecision_tree
decision_tree_leaf
p1475
(dp1476
g17
g18
(g19
tp1477
Rp1478
g22
I1
ssg26
g22
sbsS'23-MAR-2009'
p1479
(idecision_tree
decision_tree_leaf
p1480
(dp1481
g17
g18
(g19
tp1482
Rp1483
g22
I1
ssg26
g22
sbsS'03-JUL-2009'
p1484
(idecision_tree
decision_tree_leaf
p1485
(dp1486
g17
g18
(g19
tp1487
Rp1488
g22
I1
ssg26
g22
sbssbsg27
(idecision_tree
continuous_decision_tree
p1489
(dp1490
g2
F0.5
sg3
I53
sg4
(idecision_tree
decision_tree
p1491
(dp1492
g3
I47
sg40
(dp1493
S'01-FEB-2009'
p1494
(idecision_tree
decision_tree_leaf
p1495
(dp1496
g17
g18
(g19
tp1497
Rp1498
S'Pn'
p1499
I1
ssg26
g1499
sbsS'10-JUL-2009'
p1500
(idecision_tree
decision_tree_leaf
p1501
(dp1502
g17
g18
(g19
tp1503
Rp1504
g22
I1
ssg26
g22
sbssbsg27
(idecision_tree
decision_tree_leaf
p1505
(dp1506
g17
g18
(g19
tp1507
Rp1508
g22
I1
ssg26
g22
sbsbsbsg27
(idecision_tree
decision_tree
p1509
(dp1510
g3
I47
sg40
(dp1511
S'28-JAN-2009'
p1512
(idecision_tree
decision_tree_leaf
p1513
(dp1514
g17
g18
(g19
tp1515
Rp1516
g22
I1
ssg26
g22
sbsS'14-JUN-2009'
p1517
(idecision_tree
decision_tree_leaf
p1518
(dp1519
g17
g18
(g19
tp1520
Rp1521
S'PKP'
p1522
I1
ssg26
g1522
sbsS'14-AUG-2009'
p1523
(idecision_tree
decision_tree_leaf
p1524
(dp1525
g17
g18
(g19
tp1526
Rp1527
g22
I1
ssg26
g22
sbsS'06-JUN-2009'
p1528
(idecision_tree
decision_tree_leaf
p1529
(dp1530
g17
g18
(g19
tp1531
Rp1532
g22
I1
ssg26
g22
sbssbsbsg27
(idecision_tree
decision_tree_leaf
p1533
(dp1534
g17
g18
(g19
tp1535
Rp1536
g22
I5
sS'Pn'
p1537
I2
ssg26
g22
sbsbsbsg27
(idecision_tree
continuous_decision_tree
p1538
(dp1539
g2
F-41.0625
sg3
I67
sg4
(idecision_tree
decision_tree
p1540
(dp1541
g3
I47
sg40
(dp1542
S'15-NOV-2009'
p1543
(idecision_tree
decision_tree_leaf
p1544
(dp1545
g17
g18
(g19
tp1546
Rp1547
S'Pn'
p1548
I1
ssg26
g1548
sbsS'24-JUN-2009'
p1549
(idecision_tree
decision_tree_leaf
p1550
(dp1551
g17
g18
(g19
tp1552
Rp1553
g22
I1
ssg26
g22
sbssbsg27
(idecision_tree
continuous_decision_tree
p1554
(dp1555
g2
F-8.5
sg3
I66
sg4
(idecision_tree
decision_tree
p1556
(dp1557
g3
I47
sg40
(dp1558
S'18-JUL-2009'
p1559
(idecision_tree
decision_tree_leaf
p1560
(dp1561
g17
g18
(g19
tp1562
Rp1563
g22
I1
ssg26
g22
sbsS'11-JUN-2009'
p1564
(idecision_tree
decision_tree_leaf
p1565
(dp1566
g17
g18
(g19
tp1567
Rp1568
S'Lg'
p1569
I1
ssg26
g1569
sbssbsg27
(idecision_tree
decision_tree_leaf
p1570
(dp1571
g17
g18
(g19
tp1572
Rp1573
g22
I1
ssg26
g22
sbsbsbsbsbsbsbsg27
(idecision_tree
decision_tree_leaf
p1574
(dp1575
g17
g18
(g19
tp1576
Rp1577
S'Lg'
p1578
I2
sS'PKP'
p1579
I31
sg22
I317
sg70
I12
sS'Sn'
p1580
I6
sS'Pn'
p1581
I34
ssg26
g22
sbsbsg27
(idecision_tree
continuous_decision_tree
p1582
(dp1583
g2
F2.3245750000000003
sg3
I7
sg4
(idecision_tree
continuous_decision_tree
p1584
(dp1585
g2
F1.5
sg3
I66
sg4
(idecision_tree
decision_tree_leaf
p1586
(dp1587
g17
g18
(g19
tp1588
Rp1589
g22
I41
sS'PKP'
p1590
I5
sS'Pn'
p1591
I3
sg70
I2
sS'Lg'
p1592
I1
ssg26
g22
sbsg27
(idecision_tree
continuous_decision_tree
p1593
(dp1594
g2
F0.0
sg3
I67
sg4
(idecision_tree
continuous_decision_tree
p1595
(dp1596
g2
F0.0
sg3
I66
sg4
(idecision_tree
decision_tree_leaf
p1597
(dp1598
g17
g18
(g19
tp1599
Rp1600
g22
I43
sS'PKP'
p1601
I9
sS'Pn'
p1602
I3
sg70
I1
ssg26
g22
sbsg27
(idecision_tree
decision_tree
p1603
(dp1604
g3
I47
sg40
(dp1605
S'18-DEC-2009'
p1606
(idecision_tree
decision_tree_leaf
p1607
(dp1608
g17
g18
(g19
tp1609
Rp1610
g22
I2
ssg26
g22
sbsS'19-APR-2009'
p1611
(idecision_tree
decision_tree_leaf
p1612
(dp1613
g17
g18
(g19
tp1614
Rp1615
g22
I1
ssg26
g22
sbsS'22-NOV-2009'
p1616
(idecision_tree
decision_tree_leaf
p1617
(dp1618
g17
g18
(g19
tp1619
Rp1620
S'PKP'
p1621
I1
ssg26
g1621
sbsS'20-JAN-2009'
p1622
(idecision_tree
decision_tree_leaf
p1623
(dp1624
g17
g18
(g19
tp1625
Rp1626
g22
I1
ssg26
g22
sbsS'02-OCT-2009'
p1627
(idecision_tree
decision_tree_leaf
p1628
(dp1629
g17
g18
(g19
tp1630
Rp1631
S'PKP'
p1632
I1
ssg26
g1632
sbsS'22-JUN-2009'
p1633
(idecision_tree
decision_tree_leaf
p1634
(dp1635
g17
g18
(g19
tp1636
Rp1637
g22
I1
ssg26
g22
sbsS'12-FEB-2009'
p1638
(idecision_tree
decision_tree_leaf
p1639
(dp1640
g17
g18
(g19
tp1641
Rp1642
g22
I1
ssg26
g22
sbsS'05-SEP-2009'
p1643
(idecision_tree
decision_tree_leaf
p1644
(dp1645
g17
g18
(g19
tp1646
Rp1647
g22
I1
ssg26
g22
sbssbsbsg27
(idecision_tree
decision_tree_leaf
p1648
(dp1649
g17
g18
(g19
tp1650
Rp1651
g70
I1
sg22
I47
sS'PKP'
p1652
I6
sS'Pn'
p1653
I3
sS'Sn'
p1654
I1
ssg26
g22
sbsbsbsg27
(idecision_tree
continuous_decision_tree
p1655
(dp1656
g2
F85.02735
sg3
I40
sg4
(idecision_tree
decision_tree_leaf
p1657
(dp1658
g17
g18
(g19
tp1659
Rp1660
g22
I41
sS'PKP'
p1661
I9
sS'Pn'
p1662
I2
ssg26
g22
sbsg27
(idecision_tree
continuous_decision_tree
p1663
(dp1664
g2
F0.8689965
sg3
I48
sg4
(idecision_tree
decision_tree_leaf
p1665
(dp1666
g17
g18
(g19
tp1667
Rp1668
S'Lg'
p1669
I1
sS'PKP'
p1670
I3
sg22
I41
sg70
I1
sS'Sn'
p1671
I1
sS'Pn'
p1672
I5
ssg26
g22
sbsg27
(idecision_tree
continuous_decision_tree
p1673
(dp1674
g2
F-20.75
sg3
I67
sg4
(idecision_tree
continuous_decision_tree
p1675
(dp1676
g2
F1.0
sg3
I53
sg4
(idecision_tree
decision_tree
p1677
(dp1678
g3
I47
sg40
(dp1679
S'08-AUG-2009'
p1680
(idecision_tree
decision_tree_leaf
p1681
(dp1682
g17
g18
(g19
tp1683
Rp1684
g22
I1
ssg26
g22
sbsS'22-MAR-2009'
p1685
(idecision_tree
decision_tree_leaf
p1686
(dp1687
g17
g18
(g19
tp1688
Rp1689
g22
I1
ssg26
g22
sbsS'12-MAY-2009'
p1690
(idecision_tree
decision_tree_leaf
p1691
(dp1692
g17
g18
(g19
tp1693
Rp1694
g22
I1
ssg26
g22
sbsS'11-JAN-2009'
p1695
(idecision_tree
decision_tree_leaf
p1696
(dp1697
g17
g18
(g19
tp1698
Rp1699
g22
I1
ssg26
g22
sbsS'08-NOV-2009'
p1700
(idecision_tree
decision_tree_leaf
p1701
(dp1702
g17
g18
(g19
tp1703
Rp1704
S'Pn'
p1705
I1
ssg26
g1705
sbsS'02-JUL-2009'
p1706
(idecision_tree
decision_tree_leaf
p1707
(dp1708
g17
g18
(g19
tp1709
Rp1710
g22
I1
ssg26
g22
sbsS'23-MAR-2009'
p1711
(idecision_tree
decision_tree_leaf
p1712
(dp1713
g17
g18
(g19
tp1714
Rp1715
g22
I1
ssg26
g22
sbsS'08-DEC-2009'
p1716
(idecision_tree
decision_tree_leaf
p1717
(dp1718
g17
g18
(g19
tp1719
Rp1720
S'PKP'
p1721
I1
ssg26
g1721
sbsS'06-SEP-2009'
p1722
(idecision_tree
decision_tree_leaf
p1723
(dp1724
g17
g18
(g19
tp1725
Rp1726
g22
I1
ssg26
g22
sbsS'22-JUL-2009'
p1727
(idecision_tree
decision_tree_leaf
p1728
(dp1729
g17
g18
(g19
tp1730
Rp1731
g22
I2
ssg26
g22
sbsS'16-NOV-2009'
p1732
(idecision_tree
decision_tree_leaf
p1733
(dp1734
g17
g18
(g19
tp1735
Rp1736
S'PKP'
p1737
I1
ssg26
g1737
sbsS'13-NOV-2009'
p1738
(idecision_tree
decision_tree
p1739
(dp1740
g3
I13
sg40
(dp1741
S'Z1530'
p1742
(idecision_tree
decision_tree_leaf
p1743
(dp1744
g17
g18
(g19
tp1745
Rp1746
g22
I1
ssg26
g22
sbsS'Z2040'
p1747
(idecision_tree
decision_tree_leaf
p1748
(dp1749
g17
g18
(g19
tp1750
Rp1751
S'Pn'
p1752
I1
ssg26
g1752
sbssbsS'18-JAN-2009'
p1753
(idecision_tree
decision_tree_leaf
p1754
(dp1755
g17
g18
(g19
tp1756
Rp1757
g22
I1
ssg26
g22
sbsS'17-OCT-2009'
p1758
(idecision_tree
decision_tree_leaf
p1759
(dp1760
g17
g18
(g19
tp1761
Rp1762
g22
I1
ssg26
g22
sbsS'21-JUN-2009'
p1763
(idecision_tree
decision_tree_leaf
p1764
(dp1765
g17
g18
(g19
tp1766
Rp1767
g22
I1
ssg26
g22
sbsS'11-AUG-2009'
p1768
(idecision_tree
decision_tree_leaf
p1769
(dp1770
g17
g18
(g19
tp1771
Rp1772
g22
I1
ssg26
g22
sbsS'18-FEB-2009'
p1773
(idecision_tree
decision_tree_leaf
p1774
(dp1775
g17
g18
(g19
tp1776
Rp1777
g22
I2
ssg26
g22
sbsS'11-FEB-2009'
p1778
(idecision_tree
decision_tree_leaf
p1779
(dp1780
g17
g18
(g19
tp1781
Rp1782
g22
I1
ssg26
g22
sbsS'04-JAN-2009'
p1783
(idecision_tree
decision_tree_leaf
p1784
(dp1785
g17
g18
(g19
tp1786
Rp1787
g22
I1
ssg26
g22
sbsS'10-DEC-2009'
p1788
(idecision_tree
decision_tree_leaf
p1789
(dp1790
g17
g18
(g19
tp1791
Rp1792
g22
I1
ssg26
g22
sbsS'30-JAN-2009'
p1793
(idecision_tree
decision_tree_leaf
p1794
(dp1795
g17
g18
(g19
tp1796
Rp1797
g22
I1
ssg26
g22
sbsS'19-MAR-2009'
p1798
(idecision_tree
decision_tree_leaf
p1799
(dp1800
g17
g18
(g19
tp1801
Rp1802
g22
I1
ssg26
g22
sbsS'25-OCT-2009'
p1803
(idecision_tree
decision_tree_leaf
p1804
(dp1805
g17
g18
(g19
tp1806
Rp1807
g22
I1
ssg26
g22
sbsS'20-SEP-2009'
p1808
(idecision_tree
decision_tree_leaf
p1809
(dp1810
g17
g18
(g19
tp1811
Rp1812
g22
I1
ssg26
g22
sbsS'29-AUG-2009'
p1813
(idecision_tree
decision_tree_leaf
p1814
(dp1815
g17
g18
(g19
tp1816
Rp1817
g22
I2
ssg26
g22
sbsS'26-SEP-2009'
p1818
(idecision_tree
decision_tree_leaf
p1819
(dp1820
g17
g18
(g19
tp1821
Rp1822
g22
I1
ssg26
g22
sbsS'29-JUN-2009'
p1823
(idecision_tree
decision_tree_leaf
p1824
(dp1825
g17
g18
(g19
tp1826
Rp1827
S'PKP'
p1828
I1
ssg26
g1828
sbsS'04-APR-2009'
p1829
(idecision_tree
decision_tree_leaf
p1830
(dp1831
g17
g18
(g19
tp1832
Rp1833
g22
I1
ssg26
g22
sbsS'25-NOV-2009'
p1834
(idecision_tree
decision_tree_leaf
p1835
(dp1836
g17
g18
(g19
tp1837
Rp1838
g22
I1
ssg26
g22
sbsS'25-JAN-2009'
p1839
(idecision_tree
decision_tree_leaf
p1840
(dp1841
g17
g18
(g19
tp1842
Rp1843
g22
I1
ssg26
g22
sbsS'26-FEB-2009'
p1844
(idecision_tree
decision_tree_leaf
p1845
(dp1846
g17
g18
(g19
tp1847
Rp1848
g22
I1
ssg26
g22
sbssbsg27
(idecision_tree
continuous_decision_tree
p1849
(dp1850
g2
F1.25
sg3
I67
sg4
(idecision_tree
continuous_decision_tree
p1851
(dp1852
g2
F10.33335
sg3
I67
sg4
(idecision_tree
continuous_decision_tree
p1853
(dp1854
g2
F1.0
sg3
I66
sg4
(idecision_tree
continuous_decision_tree
p1855
(dp1856
g2
F16.875
sg3
I63
sg4
(idecision_tree
decision_tree
p1857
(dp1858
g3
I47
sg40
(dp1859
S'11-APR-2009'
p1860
(idecision_tree
decision_tree_leaf
p1861
(dp1862
g17
g18
(g19
tp1863
Rp1864
g22
I1
ssg26
g22
sbsS'11-OCT-2009'
p1865
(idecision_tree
decision_tree_leaf
p1866
(dp1867
g17
g18
(g19
tp1868
Rp1869
S'Pn'
p1870
I1
ssg26
g1870
sbssbsg27
(idecision_tree
continuous_decision_tree
p1871
(dp1872
g2
F0.260106
sg3
I50
sg4
(idecision_tree
continuous_decision_tree
p1873
(dp1874
g2
F61.75
sg3
I67
sg4
(idecision_tree
continuous_decision_tree
p1875
(dp1876
g2
F114.9165
sg3
I67
sg4
(idecision_tree
decision_tree
p1877
(dp1878
g3
I47
sg40
(dp1879
S'10-SEP-2009'
p1880
(idecision_tree
decision_tree_leaf
p1881
(dp1882
g17
g18
(g19
tp1883
Rp1884
S'Pn'
p1885
I1
ssg26
g1885
sbsS'07-AUG-2009'
p1886
(idecision_tree
decision_tree_leaf
p1887
(dp1888
g17
g18
(g19
tp1889
Rp1890
g22
I1
ssg26
g22
sbssbsg27
(idecision_tree
decision_tree_leaf
p1891
(dp1892
g17
g18
(g19
tp1893
Rp1894
g22
I1
ssg26
g22
sbsbsg27
(idecision_tree
decision_tree
p1895
(dp1896
g3
I47
sg40
(dp1897
S'27-FEB-2009'
p1898
(idecision_tree
decision_tree_leaf
p1899
(dp1900
g17
g18
(g19
tp1901
Rp1902
S'Pn'
p1903
I1
ssg26
g1903
sbsS'15-FEB-2009'
p1904
(idecision_tree
decision_tree_leaf
p1905
(dp1906
g17
g18
(g19
tp1907
Rp1908
g22
I1
ssg26
g22
sbssbsbsg27
(idecision_tree
decision_tree
p1909
(dp1910
g3
I47
sg40
(dp1911
S'21-MAR-2009'
p1912
(idecision_tree
decision_tree_leaf
p1913
(dp1914
g17
g18
(g19
tp1915
Rp1916
S'Pn'
p1917
I1
ssg26
g1917
sbsS'27-JAN-2009'
p1918
(idecision_tree
decision_tree_leaf
p1919
(dp1920
g17
g18
(g19
tp1921
Rp1922
g22
I1
ssg26
g22
sbssbsbsbsg27
(idecision_tree
decision_tree_leaf
p1923
(dp1924
g17
g18
(g19
tp1925
Rp1926
g22
I2
ssg26
g22
sbsbsg27
(idecision_tree
decision_tree_leaf
p1927
(dp1928
g17
g18
(g19
tp1929
Rp1930
g22
I2
sS'Pn'
p1931
I1
ssg26
g22
sbsbsg27
(idecision_tree
continuous_decision_tree
p1932
(dp1933
g2
F0.189614
sg3
I48
sg4
(idecision_tree
decision_tree
p1934
(dp1935
g3
I47
sg40
(dp1936
S'09-SEP-2009'
p1937
(idecision_tree
decision_tree_leaf
p1938
(dp1939
g17
g18
(g19
tp1940
Rp1941
S'Pn'
p1942
I1
ssg26
g1942
sbsS'11-AUG-2009'
p1943
(idecision_tree
decision_tree_leaf
p1944
(dp1945
g17
g18
(g19
tp1946
Rp1947
g22
I1
ssg26
g22
sbssbsg27
(idecision_tree
decision_tree_leaf
p1948
(dp1949
g17
g18
(g19
tp1950
Rp1951
g22
I1
ssg26
g22
sbsbsbsbsg27
(idecision_tree
decision_tree_leaf
p1952
(dp1953
g17
g18
(g19
tp1954
Rp1955
g22
I15
sS'PKP'
p1956
I2
sS'Pn'
p1957
I1
sS'Lg'
p1958
I1
ssg26
g22
sbsbsbsbsbsbsg27
(idecision_tree
continuous_decision_tree
p1959
(dp1960
g2
F-6.9375
sg3
I63
sg4
(idecision_tree
continuous_decision_tree
p1961
(dp1962
g2
F1.0
sg3
I53
sg4
(idecision_tree
continuous_decision_tree
p1963
(dp1964
g2
F2.0
sg3
I59
sg4
(idecision_tree
decision_tree
p1965
(dp1966
g3
I47
sg40
(dp1967
S'17-JAN-2009'
p1968
(idecision_tree
continuous_decision_tree
p1969
(dp1970
g2
F-70.1875
sg3
I67
sg4
(idecision_tree
decision_tree_leaf
p1971
(dp1972
g17
g18
(g19
tp1973
Rp1974
g22
I1
ssg26
g22
sbsg27
(idecision_tree
decision_tree_leaf
p1975
(dp1976
g17
g18
(g19
tp1977
Rp1978
S'PKP'
p1979
I1
ssg26
g1979
sbsbsS'04-MAR-2009'
p1980
(idecision_tree
decision_tree_leaf
p1981
(dp1982
g17
g18
(g19
tp1983
Rp1984
S'Pn'
p1985
I1
ssg26
g1985
sbsS'03-AUG-2009'
p1986
(idecision_tree
decision_tree
p1987
(dp1988
g3
I1
sg40
(dp1989
g22
(idecision_tree
decision_tree_leaf
p1990
(dp1991
g17
g18
(g19
tp1992
Rp1993
g22
I1
ssg26
g22
sbsS'Pn'
p1994
(idecision_tree
decision_tree_leaf
p1995
(dp1996
g17
g18
(g19
tp1997
Rp1998
S'Pn'
p1999
I1
ssg26
g1999
sbssbsS'09-JAN-2009'
p2000
(idecision_tree
decision_tree_leaf
p2001
(dp2002
g17
g18
(g19
tp2003
Rp2004
g22
I1
ssg26
g22
sbsS'15-JUL-2009'
p2005
(idecision_tree
decision_tree_leaf
p2006
(dp2007
g17
g18
(g19
tp2008
Rp2009
S'PKP'
p2010
I1
ssg26
g2010
sbsS'30-APR-2009'
p2011
(idecision_tree
decision_tree_leaf
p2012
(dp2013
g17
g18
(g19
tp2014
Rp2015
g22
I1
ssg26
g22
sbsS'02-JUL-2009'
p2016
(idecision_tree
decision_tree_leaf
p2017
(dp2018
g17
g18
(g19
tp2019
Rp2020
g22
I2
ssg26
g22
sbsS'31-AUG-2009'
p2021
(idecision_tree
decision_tree_leaf
p2022
(dp2023
g17
g18
(g19
tp2024
Rp2025
g22
I1
ssg26
g22
sbsS'08-MAR-2009'
p2026
(idecision_tree
decision_tree_leaf
p2027
(dp2028
g17
g18
(g19
tp2029
Rp2030
g22
I2
ssg26
g22
sbsS'14-JUL-2009'
p2031
(idecision_tree
decision_tree_leaf
p2032
(dp2033
g17
g18
(g19
tp2034
Rp2035
g22
I2
ssg26
g22
sbsS'09-SEP-2009'
p2036
(idecision_tree
continuous_decision_tree
p2037
(dp2038
g2
F-174.0
sg3
I67
sg4
(idecision_tree
continuous_decision_tree
p2039
(dp2040
g2
F-82.0
sg3
I67
sg4
(idecision_tree
decision_tree_leaf
p2041
(dp2042
g17
g18
(g19
tp2043
Rp2044
g22
I1
ssg26
g22
sbsg27
(idecision_tree
decision_tree_leaf
p2045
(dp2046
g17
g18
(g19
tp2047
Rp2048
S'PKP'
p2049
I1
ssg26
g2049
sbsbsg27
(idecision_tree
decision_tree_leaf
p2050
(dp2051
g17
g18
(g19
tp2052
Rp2053
g22
I1
ssg26
g22
sbsbsS'22-JUL-2009'
p2054
(idecision_tree
decision_tree_leaf
p2055
(dp2056
g17
g18
(g19
tp2057
Rp2058
g22
I1
ssg26
g22
sbsS'19-APR-2009'
p2059
(idecision_tree
decision_tree_leaf
p2060
(dp2061
g17
g18
(g19
tp2062
Rp2063
g22
I1
ssg26
g22
sbsS'28-AUG-2009'
p2064
(idecision_tree
decision_tree_leaf
p2065
(dp2066
g17
g18
(g19
tp2067
Rp2068
g22
I2
ssg26
g22
sbsS'24-OCT-2009'
p2069
(idecision_tree
decision_tree_leaf
p2070
(dp2071
g17
g18
(g19
tp2072
Rp2073
g22
I1
ssg26
g22
sbsS'11-NOV-2009'
p2074
(idecision_tree
decision_tree_leaf
p2075
(dp2076
g17
g18
(g19
tp2077
Rp2078
g22
I1
ssg26
g22
sbsS'11-AUG-2009'
p2079
(idecision_tree
decision_tree_leaf
p2080
(dp2081
g17
g18
(g19
tp2082
Rp2083
g22
I1
ssg26
g22
sbsS'11-FEB-2009'
p2084
(idecision_tree
decision_tree_leaf
p2085
(dp2086
g17
g18
(g19
tp2087
Rp2088
g22
I1
ssg26
g22
sbsS'25-MAR-2009'
p2089
(idecision_tree
decision_tree_leaf
p2090
(dp2091
g17
g18
(g19
tp2092
Rp2093
g22
I2
ssg26
g22
sbsS'27-JUN-2009'
p2094
(idecision_tree
decision_tree
p2095
(dp2096
g3
I13
sg40
(dp2097
S'Z1020'
p2098
(idecision_tree
decision_tree_leaf
p2099
(dp2100
g17
g18
(g19
tp2101
Rp2102
S'PKP'
p2103
I1
ssg26
g2103
sbsS'Z1530'
p2104
(idecision_tree
decision_tree_leaf
p2105
(dp2106
g17
g18
(g19
tp2107
Rp2108
g22
I1
ssg26
g22
sbssbsS'19-MAY-2009'
p2109
(idecision_tree
decision_tree_leaf
p2110
(dp2111
g17
g18
(g19
tp2112
Rp2113
g22
I1
ssg26
g22
sbsS'10-JUL-2009'
p2114
(idecision_tree
decision_tree_leaf
p2115
(dp2116
g17
g18
(g19
tp2117
Rp2118
g22
I1
ssg26
g22
sbsS'19-MAR-2009'
p2119
(idecision_tree
decision_tree_leaf
p2120
(dp2121
g17
g18
(g19
tp2122
Rp2123
g22
I1
ssg26
g22
sbsS'20-MAR-2009'
p2124
(idecision_tree
decision_tree_leaf
p2125
(dp2126
g17
g18
(g19
tp2127
Rp2128
g22
I1
ssg26
g22
sbsS'15-MAY-2009'
p2129
(idecision_tree
decision_tree_leaf
p2130
(dp2131
g17
g18
(g19
tp2132
Rp2133
g22
I1
ssg26
g22
sbsS'20-FEB-2009'
p2134
(idecision_tree
decision_tree_leaf
p2135
(dp2136
g17
g18
(g19
tp2137
Rp2138
g22
I1
ssg26
g22
sbsS'14-DEC-2009'
p2139
(idecision_tree
decision_tree_leaf
p2140
(dp2141
g17
g18
(g19
tp2142
Rp2143
S'Pn'
p2144
I1
ssg26
g2144
sbsS'05-JUN-2009'
p2145
(idecision_tree
continuous_decision_tree
p2146
(dp2147
g2
F15.125
sg3
I67
sg4
(idecision_tree
decision_tree_leaf
p2148
(dp2149
g17
g18
(g19
tp2150
Rp2151
g22
I1
ssg26
g22
sbsg27
(idecision_tree
decision_tree_leaf
p2152
(dp2153
g17
g18
(g19
tp2154
Rp2155
S'PKP'
p2156
I1
ssg26
g2156
sbsbsS'02-MAR-2009'
p2157
(idecision_tree
decision_tree_leaf
p2158
(dp2159
g17
g18
(g19
tp2160
Rp2161
g22
I1
ssg26
g22
sbsS'17-NOV-2009'
p2162
(idecision_tree
decision_tree_leaf
p2163
(dp2164
g17
g18
(g19
tp2165
Rp2166
g22
I1
ssg26
g22
sbsS'17-FEB-2009'
p2167
(idecision_tree
decision_tree_leaf
p2168
(dp2169
g17
g18
(g19
tp2170
Rp2171
g22
I1
ssg26
g22
sbsS'10-SEP-2009'
p2172
(idecision_tree
decision_tree_leaf
p2173
(dp2174
g17
g18
(g19
tp2175
Rp2176
g22
I2
ssg26
g22
sbsS'31-JUL-2009'
p2177
(idecision_tree
decision_tree_leaf
p2178
(dp2179
g17
g18
(g19
tp2180
Rp2181
g22
I1
ssg26
g22
sbsS'22-MAR-2009'
p2182
(idecision_tree
decision_tree_leaf
p2183
(dp2184
g17
g18
(g19
tp2185
Rp2186
g22
I2
ssg26
g22
sbsS'11-JAN-2009'
p2187
(idecision_tree
decision_tree_leaf
p2188
(dp2189
g17
g18
(g19
tp2190
Rp2191
g22
I2
ssg26
g22
sbsS'26-FEB-2009'
p2192
(idecision_tree
continuous_decision_tree
p2193
(dp2194
g2
F24.14125
sg3
I44
sg4
(idecision_tree
continuous_decision_tree
p2195
(dp2196
g2
F22.66665
sg3
I67
sg4
(idecision_tree
decision_tree_leaf
p2197
(dp2198
g17
g18
(g19
tp2199
Rp2200
S'PKP'
p2201
I1
ssg26
g2201
sbsg27
(idecision_tree
decision_tree_leaf
p2202
(dp2203
g17
g18
(g19
tp2204
Rp2205
g22
I1
ssg26
g22
sbsbsg27
(idecision_tree
decision_tree_leaf
p2206
(dp2207
g17
g18
(g19
tp2208
Rp2209
g22
I1
ssg26
g22
sbsbsS'28-APR-2009'
p2210
(idecision_tree
decision_tree_leaf
p2211
(dp2212
g17
g18
(g19
tp2213
Rp2214
g22
I1
ssg26
g22
sbsS'06-MAY-2009'
p2215
(idecision_tree
decision_tree_leaf
p2216
(dp2217
g17
g18
(g19
tp2218
Rp2219
g22
I1
ssg26
g22
sbsS'07-MAR-2009'
p2220
(idecision_tree
decision_tree_leaf
p2221
(dp2222
g17
g18
(g19
tp2223
Rp2224
g22
I1
ssg26
g22
sbsS'15-JUN-2009'
p2225
(idecision_tree
decision_tree_leaf
p2226
(dp2227
g17
g18
(g19
tp2228
Rp2229
S'PKP'
p2230
I1
ssg26
g2230
sbsS'05-MAR-2009'
p2231
(idecision_tree
decision_tree_leaf
p2232
(dp2233
g17
g18
(g19
tp2234
Rp2235
g22
I1
ssg26
g22
sbsS'25-MAY-2009'
p2236
(idecision_tree
decision_tree_leaf
p2237
(dp2238
g17
g18
(g19
tp2239
Rp2240
g22
I1
ssg26
g22
sbsS'22-DEC-2009'
p2241
(idecision_tree
decision_tree_leaf
p2242
(dp2243
g17
g18
(g19
tp2244
Rp2245
g22
I1
ssg26
g22
sbsS'13-DEC-2009'
p2246
(idecision_tree
decision_tree_leaf
p2247
(dp2248
g17
g18
(g19
tp2249
Rp2250
g22
I1
ssg26
g22
sbsS'13-SEP-2009'
p2251
(idecision_tree
decision_tree_leaf
p2252
(dp2253
g17
g18
(g19
tp2254
Rp2255
g22
I1
ssg26
g22
sbsS'18-SEP-2009'
p2256
(idecision_tree
decision_tree_leaf
p2257
(dp2258
g17
g18
(g19
tp2259
Rp2260
g22
I1
ssg26
g22
sbsS'19-DEC-2009'
p2261
(idecision_tree
decision_tree_leaf
p2262
(dp2263
g17
g18
(g19
tp2264
Rp2265
g22
I1
ssg26
g22
sbsS'15-DEC-2009'
p2266
(idecision_tree
decision_tree_leaf
p2267
(dp2268
g17
g18
(g19
tp2269
Rp2270
g22
I1
ssg26
g22
sbsS'17-MAR-2009'
p2271
(idecision_tree
decision_tree_leaf
p2272
(dp2273
g17
g18
(g19
tp2274
Rp2275
g22
I1
ssg26
g22
sbsS'02-JAN-2009'
p2276
(idecision_tree
decision_tree_leaf
p2277
(dp2278
g17
g18
(g19
tp2279
Rp2280
g22
I2
ssg26
g22
sbsS'09-APR-2009'
p2281
(idecision_tree
decision_tree_leaf
p2282
(dp2283
g17
g18
(g19
tp2284
Rp2285
g22
I1
ssg26
g22
sbsS'13-NOV-2009'
p2286
(idecision_tree
decision_tree_leaf
p2287
(dp2288
g17
g18
(g19
tp2289
Rp2290
g22
I2
ssg26
g22
sbsS'13-FEB-2009'
p2291
(idecision_tree
decision_tree_leaf
p2292
(dp2293
g17
g18
(g19
tp2294
Rp2295
g22
I1
ssg26
g22
sbsS'08-AUG-2009'
p2296
(idecision_tree
decision_tree_leaf
p2297
(dp2298
g17
g18
(g19
tp2299
Rp2300
g22
I1
ssg26
g22
sbsS'05-SEP-2009'
p2301
(idecision_tree
decision_tree_leaf
p2302
(dp2303
g17
g18
(g19
tp2304
Rp2305
g22
I1
ssg26
g22
sbsS'07-SEP-2009'
p2306
(idecision_tree
decision_tree_leaf
p2307
(dp2308
g17
g18
(g19
tp2309
Rp2310
g22
I1
ssg26
g22
sbsS'16-JUL-2009'
p2311
(idecision_tree
decision_tree
p2312
(dp2313
g3
I13
sg40
(dp2314
S'Z1020'
p2315
(idecision_tree
decision_tree_leaf
p2316
(dp2317
g17
g18
(g19
tp2318
Rp2319
g22
I1
ssg26
g22
sbsS'Z1530'
p2320
(idecision_tree
decision_tree_leaf
p2321
(dp2322
g17
g18
(g19
tp2323
Rp2324
S'PKP'
p2325
I1
ssg26
g2325
sbssbsS'24-MAR-2009'
p2326
(idecision_tree
decision_tree
p2327
(dp2328
g3
I14
sg40
(dp2329
S'coh'
p2330
(idecision_tree
decision_tree_leaf
p2331
(dp2332
g17
g18
(g19
tp2333
Rp2334
g22
I1
ssg26
g22
sbsS'inc'
p2335
(idecision_tree
decision_tree_leaf
p2336
(dp2337
g17
g18
(g19
tp2338
Rp2339
S'Pn'
p2340
I1
ssg26
g2340
sbssbsS'20-JUL-2009'
p2341
(idecision_tree
decision_tree_leaf
p2342
(dp2343
g17
g18
(g19
tp2344
Rp2345
g22
I1
ssg26
g22
sbsS'13-APR-2009'
p2346
(idecision_tree
decision_tree_leaf
p2347
(dp2348
g17
g18
(g19
tp2349
Rp2350
g22
I1
ssg26
g22
sbsS'16-AUG-2009'
p2351
(idecision_tree
decision_tree_leaf
p2352
(dp2353
g17
g18
(g19
tp2354
Rp2355
g22
I1
ssg26
g22
sbsS'03-NOV-2009'
p2356
(idecision_tree
decision_tree_leaf
p2357
(dp2358
g17
g18
(g19
tp2359
Rp2360
S'PKP'
p2361
I1
ssg26
g2361
sbsS'23-JAN-2009'
p2362
(idecision_tree
decision_tree_leaf
p2363
(dp2364
g17
g18
(g19
tp2365
Rp2366
S'Pn'
p2367
I1
ssg26
g2367
sbsS'16-NOV-2009'
p2368
(idecision_tree
decision_tree_leaf
p2369
(dp2370
g17
g18
(g19
tp2371
Rp2372
S'Pn'
p2373
I1
ssg26
g2373
sbsS'11-JUL-2009'
p2374
(idecision_tree
decision_tree_leaf
p2375
(dp2376
g17
g18
(g19
tp2377
Rp2378
g22
I1
ssg26
g22
sbsS'24-FEB-2009'
p2379
(idecision_tree
decision_tree_leaf
p2380
(dp2381
g17
g18
(g19
tp2382
Rp2383
g22
I1
ssg26
g22
sbsS'08-SEP-2009'
p2384
(idecision_tree
decision_tree_leaf
p2385
(dp2386
g17
g18
(g19
tp2387
Rp2388
g22
I1
ssg26
g22
sbsS'01-MAR-2009'
p2389
(idecision_tree
decision_tree_leaf
p2390
(dp2391
g17
g18
(g19
tp2392
Rp2393
g22
I1
ssg26
g22
sbsS'12-AUG-2009'
p2394
(idecision_tree
decision_tree_leaf
p2395
(dp2396
g17
g18
(g19
tp2397
Rp2398
g22
I1
ssg26
g22
sbsS'07-NOV-2009'
p2399
(idecision_tree
decision_tree_leaf
p2400
(dp2401
g17
g18
(g19
tp2402
Rp2403
g22
I1
ssg26
g22
sbsS'20-MAY-2009'
p2404
(idecision_tree
decision_tree_leaf
p2405
(dp2406
g17
g18
(g19
tp2407
Rp2408
g22
I1
ssg26
g22
sbsS'18-OCT-2009'
p2409
(idecision_tree
decision_tree_leaf
p2410
(dp2411
g17
g18
(g19
tp2412
Rp2413
g22
I1
ssg26
g22
sbsS'16-OCT-2009'
p2414
(idecision_tree
decision_tree_leaf
p2415
(dp2416
g17
g18
(g19
tp2417
Rp2418
g22
I1
ssg26
g22
sbsS'14-MAY-2009'
p2419
(idecision_tree
decision_tree_leaf
p2420
(dp2421
g17
g18
(g19
tp2422
Rp2423
g22
I1
ssg26
g22
sbsS'18-NOV-2009'
p2424
(idecision_tree
decision_tree_leaf
p2425
(dp2426
g17
g18
(g19
tp2427
Rp2428
S'PKP'
p2429
I1
ssg26
g2429
sbsS'03-JUN-2009'
p2430
(idecision_tree
decision_tree_leaf
p2431
(dp2432
g17
g18
(g19
tp2433
Rp2434
g22
I1
ssg26
g22
sbsS'22-FEB-2009'
p2435
(idecision_tree
decision_tree_leaf
p2436
(dp2437
g17
g18
(g19
tp2438
Rp2439
S'PKP'
p2440
I1
ssg26
g2440
sbsS'14-FEB-2009'
p2441
(idecision_tree
decision_tree_leaf
p2442
(dp2443
g17
g18
(g19
tp2444
Rp2445
g22
I2
ssg26
g22
sbsS'16-FEB-2009'
p2446
(idecision_tree
decision_tree_leaf
p2447
(dp2448
g17
g18
(g19
tp2449
Rp2450
g22
I3
ssg26
g22
sbsS'11-SEP-2009'
p2451
(idecision_tree
decision_tree_leaf
p2452
(dp2453
g17
g18
(g19
tp2454
Rp2455
S'PKP'
p2456
I2
ssg26
g2456
sbsS'04-JAN-2009'
p2457
(idecision_tree
decision_tree_leaf
p2458
(dp2459
g17
g18
(g19
tp2460
Rp2461
g22
I4
ssg26
g22
sbsS'24-JAN-2009'
p2462
(idecision_tree
decision_tree_leaf
p2463
(dp2464
g17
g18
(g19
tp2465
Rp2466
S'PKP'
p2467
I2
ssg26
g2467
sbsS'01-AUG-2009'
p2468
(idecision_tree
decision_tree_leaf
p2469
(dp2470
g17
g18
(g19
tp2471
Rp2472
g22
I1
ssg26
g22
sbsS'06-JUL-2009'
p2473
(idecision_tree
decision_tree_leaf
p2474
(dp2475
g17
g18
(g19
tp2476
Rp2477
g22
I1
ssg26
g22
sbsS'12-JAN-2009'
p2478
(idecision_tree
decision_tree_leaf
p2479
(dp2480
g17
g18
(g19
tp2481
Rp2482
g22
I1
ssg26
g22
sbsS'12-FEB-2009'
p2483
(idecision_tree
decision_tree_leaf
p2484
(dp2485
g17
g18
(g19
tp2486
Rp2487
g22
I6
ssg26
g22
sbsS'08-APR-2009'
p2488
(idecision_tree
decision_tree_leaf
p2489
(dp2490
g17
g18
(g19
tp2491
Rp2492
g22
I1
ssg26
g22
sbsS'30-SEP-2009'
p2493
(idecision_tree
decision_tree_leaf
p2494
(dp2495
g17
g18
(g19
tp2496
Rp2497
S'PKP'
p2498
I1
ssg26
g2498
sbsS'15-NOV-2009'
p2499
(idecision_tree
decision_tree_leaf
p2500
(dp2501
g17
g18
(g19
tp2502
Rp2503
g22
I2
ssg26
g22
sbsS'15-SEP-2009'
p2504
(idecision_tree
decision_tree_leaf
p2505
(dp2506
g17
g18
(g19
tp2507
Rp2508
g22
I1
ssg26
g22
sbsS'29-AUG-2009'
p2509
(idecision_tree
decision_tree_leaf
p2510
(dp2511
g17
g18
(g19
tp2512
Rp2513
S'PKP'
p2514
I1
ssg26
g2514
sbsS'07-JAN-2009'
p2515
(idecision_tree
decision_tree
p2516
(dp2517
g3
I13
sg40
(dp2518
S'Z1020'
p2519
(idecision_tree
decision_tree_leaf
p2520
(dp2521
g17
g18
(g19
tp2522
Rp2523
g22
I1
ssg26
g22
sbsS'Z2040'
p2524
(idecision_tree
decision_tree_leaf
p2525
(dp2526
g17
g18
(g19
tp2527
Rp2528
S'Pn'
p2529
I1
ssg26
g2529
sbssbsS'07-FEB-2009'
p2530
(idecision_tree
decision_tree_leaf
p2531
(dp2532
g17
g18
(g19
tp2533
Rp2534
g22
I2
ssg26
g22
sbsS'22-JUN-2009'
p2535
(idecision_tree
decision_tree_leaf
p2536
(dp2537
g17
g18
(g19
tp2538
Rp2539
g22
I1
ssg26
g22
sbsS'01-APR-2009'
p2540
(idecision_tree
decision_tree_leaf
p2541
(dp2542
g17
g18
(g19
tp2543
Rp2544
g22
I1
ssg26
g22
sbsS'03-JAN-2009'
p2545
(idecision_tree
continuous_decision_tree
p2546
(dp2547
g2
F9.4375
sg3
I67
sg4
(idecision_tree
decision_tree_leaf
p2548
(dp2549
g17
g18
(g19
tp2550
Rp2551
g22
I1
ssg26
g22
sbsg27
(idecision_tree
decision_tree_leaf
p2552
(dp2553
g17
g18
(g19
tp2554
Rp2555
S'PKP'
p2556
I1
ssg26
g2556
sbsbsS'06-APR-2009'
p2557
(idecision_tree
decision_tree_leaf
p2558
(dp2559
g17
g18
(g19
tp2560
Rp2561
g22
I1
ssg26
g22
sbsS'28-OCT-2009'
p2562
(idecision_tree
decision_tree_leaf
p2563
(dp2564
g17
g18
(g19
tp2565
Rp2566
g22
I1
ssg26
g22
sbsS'03-DEC-2009'
p2567
(idecision_tree
decision_tree_leaf
p2568
(dp2569
g17
g18
(g19
tp2570
Rp2571
g22
I1
ssg26
g22
sbsS'08-FEB-2009'
p2572
(idecision_tree
decision_tree_leaf
p2573
(dp2574
g17
g18
(g19
tp2575
Rp2576
g22
I1
ssg26
g22
sbsS'03-JUL-2009'
p2577
(idecision_tree
decision_tree_leaf
p2578
(dp2579
g17
g18
(g19
tp2580
Rp2581
g22
I1
ssg26
g22
sbsS'08-NOV-2009'
p2582
(idecision_tree
decision_tree_leaf
p2583
(dp2584
g17
g18
(g19
tp2585
Rp2586
g22
I1
ssg26
g22
sbsS'01-JAN-2009'
p2587
(idecision_tree
decision_tree_leaf
p2588
(dp2589
g17
g18
(g19
tp2590
Rp2591
g22
I1
ssg26
g22
sbsS'28-JUN-2009'
p2592
(idecision_tree
decision_tree_leaf
p2593
(dp2594
g17
g18
(g19
tp2595
Rp2596
g22
I1
ssg26
g22
sbsS'29-SEP-2009'
p2597
(idecision_tree
decision_tree_leaf
p2598
(dp2599
g17
g18
(g19
tp2600
Rp2601
S'PKP'
p2602
I1
ssg26
g2602
sbsS'15-MAR-2009'
p2603
(idecision_tree
decision_tree_leaf
p2604
(dp2605
g17
g18
(g19
tp2606
Rp2607
S'PKP'
p2608
I1
ssg26
g2608
sbsS'18-AUG-2009'
p2609
(idecision_tree
decision_tree_leaf
p2610
(dp2611
g17
g18
(g19
tp2612
Rp2613
g22
I1
ssg26
g22
sbsS'16-DEC-2009'
p2614
(idecision_tree
decision_tree_leaf
p2615
(dp2616
g17
g18
(g19
tp2617
Rp2618
g22
I1
ssg26
g22
sbsS'28-JAN-2009'
p2619
(idecision_tree
decision_tree_leaf
p2620
(dp2621
g17
g18
(g19
tp2622
Rp2623
g22
I1
ssg26
g22
sbsS'25-JUN-2009'
p2624
(idecision_tree
decision_tree_leaf
p2625
(dp2626
g17
g18
(g19
tp2627
Rp2628
g22
I1
ssg26
g22
sbsS'29-NOV-2009'
p2629
(idecision_tree
decision_tree_leaf
p2630
(dp2631
g17
g18
(g19
tp2632
Rp2633
g22
I2
ssg26
g22
sbsS'17-APR-2009'
p2634
(idecision_tree
decision_tree_leaf
p2635
(dp2636
g17
g18
(g19
tp2637
Rp2638
g22
I1
ssg26
g22
sbsS'10-NOV-2009'
p2639
(idecision_tree
decision_tree_leaf
p2640
(dp2641
g17
g18
(g19
tp2642
Rp2643
g22
I4
ssg26
g22
sbsS'26-MAY-2009'
p2644
(idecision_tree
decision_tree_leaf
p2645
(dp2646
g17
g18
(g19
tp2647
Rp2648
g22
I1
ssg26
g22
sbsS'19-FEB-2009'
p2649
(idecision_tree
decision_tree_leaf
p2650
(dp2651
g17
g18
(g19
tp2652
Rp2653
g22
I2
ssg26
g22
sbsS'07-JUN-2009'
p2654
(idecision_tree
decision_tree_leaf
p2655
(dp2656
g17
g18
(g19
tp2657
Rp2658
g22
I1
ssg26
g22
sbsS'29-MAY-2009'
p2659
(idecision_tree
decision_tree_leaf
p2660
(dp2661
g17
g18
(g19
tp2662
Rp2663
g22
I1
ssg26
g22
sbsS'22-JAN-2009'
p2664
(idecision_tree
decision_tree_leaf
p2665
(dp2666
g17
g18
(g19
tp2667
Rp2668
g22
I1
ssg26
g22
sbsS'31-JAN-2009'
p2669
(idecision_tree
decision_tree_leaf
p2670
(dp2671
g17
g18
(g19
tp2672
Rp2673
S'PKP'
p2674
I1
ssg26
g2674
sbsS'09-MAR-2009'
p2675
(idecision_tree
decision_tree_leaf
p2676
(dp2677
g17
g18
(g19
tp2678
Rp2679
g22
I2
ssg26
g22
sbsS'27-AUG-2009'
p2680
(idecision_tree
continuous_decision_tree
p2681
(dp2682
g2
F-44.0
sg3
I67
sg4
(idecision_tree
decision_tree_leaf
p2683
(dp2684
g17
g18
(g19
tp2685
Rp2686
g22
I1
ssg26
g22
sbsg27
(idecision_tree
decision_tree_leaf
p2687
(dp2688
g17
g18
(g19
tp2689
Rp2690
S'PKP'
p2691
I1
ssg26
g2691
sbsbsS'26-JUL-2009'
p2692
(idecision_tree
decision_tree_leaf
p2693
(dp2694
g17
g18
(g19
tp2695
Rp2696
g22
I2
ssg26
g22
sbsS'19-AUG-2009'
p2697
(idecision_tree
decision_tree_leaf
p2698
(dp2699
g17
g18
(g19
tp2700
Rp2701
g22
I1
ssg26
g22
sbsS'14-NOV-2009'
p2702
(idecision_tree
decision_tree_leaf
p2703
(dp2704
g17
g18
(g19
tp2705
Rp2706
g22
I1
ssg26
g22
sbsS'04-OCT-2009'
p2707
(idecision_tree
decision_tree_leaf
p2708
(dp2709
g17
g18
(g19
tp2710
Rp2711
g22
I1
ssg26
g22
sbsS'04-AUG-2009'
p2712
(idecision_tree
decision_tree_leaf
p2713
(dp2714
g17
g18
(g19
tp2715
Rp2716
g22
I1
ssg26
g22
sbsS'02-JUN-2009'
p2717
(idecision_tree
decision_tree_leaf
p2718
(dp2719
g17
g18
(g19
tp2720
Rp2721
g22
I1
ssg26
g22
sbsS'10-MAY-2009'
p2722
(idecision_tree
decision_tree_leaf
p2723
(dp2724
g17
g18
(g19
tp2725
Rp2726
g22
I2
ssg26
g22
sbsS'21-JAN-2009'
p2727
(idecision_tree
decision_tree_leaf
p2728
(dp2729
g17
g18
(g19
tp2730
Rp2731
S'PKP'
p2732
I1
ssg26
g2732
sbsS'13-JAN-2009'
p2733
(idecision_tree
decision_tree_leaf
p2734
(dp2735
g17
g18
(g19
tp2736
Rp2737
g22
I2
ssg26
g22
sbsS'29-JUN-2009'
p2738
(idecision_tree
decision_tree_leaf
p2739
(dp2740
g17
g18
(g19
tp2741
Rp2742
S'PKP'
p2743
I1
ssg26
g2743
sbsS'14-OCT-2009'
p2744
(idecision_tree
decision_tree_leaf
p2745
(dp2746
g17
g18
(g19
tp2747
Rp2748
g22
I1
ssg26
g22
sbsS'13-MAY-2009'
p2749
(idecision_tree
decision_tree_leaf
p2750
(dp2751
g17
g18
(g19
tp2752
Rp2753
S'Pn'
p2754
I1
ssg26
g2754
sbsS'25-JAN-2009'
p2755
(idecision_tree
decision_tree_leaf
p2756
(dp2757
g17
g18
(g19
tp2758
Rp2759
g22
I2
ssg26
g22
sbsS'10-OCT-2009'
p2760
(idecision_tree
decision_tree_leaf
p2761
(dp2762
g17
g18
(g19
tp2763
Rp2764
g22
I1
ssg26
g22
sbssbsg27
(idecision_tree
continuous_decision_tree
p2765
(dp2766
g2
F0.22828700000000002
sg3
I49
sg4
(idecision_tree
continuous_decision_tree
p2767
(dp2768
g2
F174.375
sg3
I67
sg4
(idecision_tree
decision_tree_leaf
p2769
(dp2770
g17
g18
(g19
tp2771
Rp2772
g22
I37
sS'PKP'
p2773
I8
ssg26
g22
sbsg27
(idecision_tree
continuous_decision_tree
p2774
(dp2775
g2
F0.0
sg3
I66
sg4
(idecision_tree
continuous_decision_tree
p2776
(dp2777
g2
F0.0
sg3
I67
sg4
(idecision_tree
decision_tree
p2778
(dp2779
g3
I47
sg40
(dp2780
S'31-OCT-2009'
p2781
(idecision_tree
decision_tree_leaf
p2782
(dp2783
g17
g18
(g19
tp2784
Rp2785
g22
I1
ssg26
g22
sbsS'02-DEC-2009'
p2786
(idecision_tree
decision_tree_leaf
p2787
(dp2788
g17
g18
(g19
tp2789
Rp2790
g22
I1
ssg26
g22
sbsS'09-DEC-2009'
p2791
(idecision_tree
decision_tree_leaf
p2792
(dp2793
g17
g18
(g19
tp2794
Rp2795
g22
I1
ssg26
g22
sbsS'04-MAR-2009'
p2796
(idecision_tree
decision_tree_leaf
p2797
(dp2798
g17
g18
(g19
tp2799
Rp2800
g22
I1
ssg26
g22
sbsS'03-AUG-2009'
p2801
(idecision_tree
decision_tree_leaf
p2802
(dp2803
g17
g18
(g19
tp2804
Rp2805
g22
I1
ssg26
g22
sbsS'09-JAN-2009'
p2806
(idecision_tree
decision_tree_leaf
p2807
(dp2808
g17
g18
(g19
tp2809
Rp2810
g22
I1
ssg26
g22
sbsS'15-JUL-2009'
p2811
(idecision_tree
decision_tree_leaf
p2812
(dp2813
g17
g18
(g19
tp2814
Rp2815
S'PKP'
p2816
I1
ssg26
g2816
sbsS'30-APR-2009'
p2817
(idecision_tree
decision_tree_leaf
p2818
(dp2819
g17
g18
(g19
tp2820
Rp2821
g22
I1
ssg26
g22
sbsS'26-MAR-2009'
p2822
(idecision_tree
decision_tree_leaf
p2823
(dp2824
g17
g18
(g19
tp2825
Rp2826
g22
I1
ssg26
g22
sbsS'27-JAN-2009'
p2827
(idecision_tree
decision_tree_leaf
p2828
(dp2829
g17
g18
(g19
tp2830
Rp2831
g22
I1
ssg26
g22
sbsS'18-MAY-2009'
p2832
(idecision_tree
decision_tree_leaf
p2833
(dp2834
g17
g18
(g19
tp2835
Rp2836
g22
I1
ssg26
g22
sbsS'13-AUG-2009'
p2837
(idecision_tree
decision_tree_leaf
p2838
(dp2839
g17
g18
(g19
tp2840
Rp2841
S'PKP'
p2842
I1
ssg26
g2842
sbsS'09-MAY-2009'
p2843
(idecision_tree
decision_tree_leaf
p2844
(dp2845
g17
g18
(g19
tp2846
Rp2847
g22
I1
ssg26
g22
sbsS'18-JUN-2009'
p2848
(idecision_tree
decision_tree_leaf
p2849
(dp2850
g17
g18
(g19
tp2851
Rp2852
g22
I1
ssg26
g22
sbsS'19-APR-2009'
p2853
(idecision_tree
decision_tree_leaf
p2854
(dp2855
g17
g18
(g19
tp2856
Rp2857
g22
I2
ssg26
g22
sbsS'28-AUG-2009'
p2858
(idecision_tree
decision_tree_leaf
p2859
(dp2860
g17
g18
(g19
tp2861
Rp2862
g22
I1
ssg26
g22
sbsS'16-MAY-2009'
p2863
(idecision_tree
continuous_decision_tree
p2864
(dp2865
g2
F0.16015000000000001
sg3
I51
sg4
(idecision_tree
decision_tree_leaf
p2866
(dp2867
g17
g18
(g19
tp2868
Rp2869
g22
I1
sS'PKP'
p2870
I1
ssg26
g22
sbsg27
(idecision_tree
decision_tree_leaf
p2871
(dp2872
g17
g18
(g19
tp2873
Rp2874
g22
I1
ssg26
g22
sbsbsS'24-OCT-2009'
p2875
(idecision_tree
decision_tree_leaf
p2876
(dp2877
g17
g18
(g19
tp2878
Rp2879
g22
I1
ssg26
g22
sbsS'27-OCT-2009'
p2880
(idecision_tree
decision_tree_leaf
p2881
(dp2882
g17
g18
(g19
tp2883
Rp2884
S'PKP'
p2885
I1
ssg26
g2885
sbsS'12-APR-2009'
p2886
(idecision_tree
decision_tree_leaf
p2887
(dp2888
g17
g18
(g19
tp2889
Rp2890
S'PKP'
p2891
I1
ssg26
g2891
sbsS'19-JUN-2009'
p2892
(idecision_tree
decision_tree_leaf
p2893
(dp2894
g17
g18
(g19
tp2895
Rp2896
g22
I2
ssg26
g22
sbsS'10-JAN-2009'
p2897
(idecision_tree
decision_tree_leaf
p2898
(dp2899
g17
g18
(g19
tp2900
Rp2901
g22
I1
ssg26
g22
sbsS'04-MAY-2009'
p2902
(idecision_tree
decision_tree_leaf
p2903
(dp2904
g17
g18
(g19
tp2905
Rp2906
g22
I2
ssg26
g22
sbsS'15-APR-2009'
p2907
(idecision_tree
decision_tree_leaf
p2908
(dp2909
g17
g18
(g19
tp2910
Rp2911
g22
I1
ssg26
g22
sbsS'09-JUN-2009'
p2912
(idecision_tree
decision_tree_leaf
p2913
(dp2914
g17
g18
(g19
tp2915
Rp2916
g22
I1
ssg26
g22
sbsS'11-FEB-2009'
p2917
(idecision_tree
decision_tree_leaf
p2918
(dp2919
g17
g18
(g19
tp2920
Rp2921
g22
I3
ssg26
g22
sbsS'08-APR-2009'
p2922
(idecision_tree
decision_tree_leaf
p2923
(dp2924
g17
g18
(g19
tp2925
Rp2926
g22
I1
ssg26
g22
sbsS'27-JUN-2009'
p2927
(idecision_tree
decision_tree_leaf
p2928
(dp2929
g17
g18
(g19
tp2930
Rp2931
g22
I1
ssg26
g22
sbsS'24-MAY-2009'
p2932
(idecision_tree
decision_tree_leaf
p2933
(dp2934
g17
g18
(g19
tp2935
Rp2936
g22
I1
ssg26
g22
sbsS'19-MAY-2009'
p2937
(idecision_tree
decision_tree
p2938
(dp2939
g3
I13
sg40
(dp2940
S'Z1020'
p2941
(idecision_tree
decision_tree_leaf
p2942
(dp2943
g17
g18
(g19
tp2944
Rp2945
S'PKP'
p2946
I1
ssg26
g2946
sbsS'Z1530'
p2947
(idecision_tree
decision_tree_leaf
p2948
(dp2949
g17
g18
(g19
tp2950
Rp2951
g22
I1
ssg26
g22
sbssbsS'13-MAR-2009'
p2952
(idecision_tree
continuous_decision_tree
p2953
(dp2954
g2
F0.386618
sg3
I51
sg4
(idecision_tree
continuous_decision_tree
p2955
(dp2956
g2
F58.9165
sg3
I67
sg4
(idecision_tree
decision_tree_leaf
p2957
(dp2958
g17
g18
(g19
tp2959
Rp2960
g22
I1
ssg26
g22
sbsg27
(idecision_tree
decision_tree_leaf
p2961
(dp2962
g17
g18
(g19
tp2963
Rp2964
S'PKP'
p2965
I1
ssg26
g2965
sbsbsg27
(idecision_tree
decision_tree_leaf
p2966
(dp2967
g17
g18
(g19
tp2968
Rp2969
g22
I1
ssg26
g22
sbsbsS'19-MAR-2009'
p2970
(idecision_tree
decision_tree_leaf
p2971
(dp2972
g17
g18
(g19
tp2973
Rp2974
g22
I1
ssg26
g22
sbsS'21-AUG-2009'
p2975
(idecision_tree
decision_tree_leaf
p2976
(dp2977
g17
g18
(g19
tp2978
Rp2979
g22
I1
ssg26
g22
sbsS'20-MAR-2009'
p2980
(idecision_tree
decision_tree_leaf
p2981
(dp2982
g17
g18
(g19
tp2983
Rp2984
S'PKP'
p2985
I1
ssg26
g2985
sbsS'13-NOV-2009'
p2986
(idecision_tree
decision_tree_leaf
p2987
(dp2988
g17
g18
(g19
tp2989
Rp2990
g22
I1
ssg26
g22
sbsS'19-SEP-2009'
p2991
(idecision_tree
decision_tree_leaf
p2992
(dp2993
g17
g18
(g19
tp2994
Rp2995
g22
I1
ssg26
g22
sbsS'20-JUN-2009'
p2996
(idecision_tree
decision_tree_leaf
p2997
(dp2998
g17
g18
(g19
tp2999
Rp3000
g22
I1
ssg26
g22
sbsS'30-JUL-2009'
p3001
(idecision_tree
decision_tree_leaf
p3002
(dp3003
g17
g18
(g19
tp3004
Rp3005
g22
I1
ssg26
g22
sbsS'15-SEP-2009'
p3006
(idecision_tree
decision_tree_leaf
p3007
(dp3008
g17
g18
(g19
tp3009
Rp3010
g22
I1
ssg26
g22
sbsS'02-MAR-2009'
p3011
(idecision_tree
decision_tree
p3012
(dp3013
g3
I13
sg40
(dp3014
S'Z1020'
p3015
(idecision_tree
decision_tree_leaf
p3016
(dp3017
g17
g18
(g19
tp3018
Rp3019
g22
I1
ssg26
g22
sbsS'Z1530'
p3020
(idecision_tree
decision_tree_leaf
p3021
(dp3022
g17
g18
(g19
tp3023
Rp3024
S'PKP'
p3025
I1
ssg26
g3025
sbssbsS'02-NOV-2009'
p3026
(idecision_tree
decision_tree_leaf
p3027
(dp3028
g17
g18
(g19
tp3029
Rp3030
g22
I1
ssg26
g22
sbsS'05-FEB-2009'
p3031
(idecision_tree
decision_tree_leaf
p3032
(dp3033
g17
g18
(g19
tp3034
Rp3035
g22
I1
ssg26
g22
sbsS'10-APR-2009'
p3036
(idecision_tree
decision_tree_leaf
p3037
(dp3038
g17
g18
(g19
tp3039
Rp3040
g22
I1
sS'PKP'
p3041
I1
ssg26
g22
sbsS'22-MAR-2009'
p3042
(idecision_tree
decision_tree_leaf
p3043
(dp3044
g17
g18
(g19
tp3045
Rp3046
g22
I1
ssg26
g22
sbsS'06-MAY-2009'
p3047
(idecision_tree
decision_tree_leaf
p3048
(dp3049
g17
g18
(g19
tp3050
Rp3051
g22
I1
ssg26
g22
sbsS'07-MAR-2009'
p3052
(idecision_tree
decision_tree_leaf
p3053
(dp3054
g17
g18
(g19
tp3055
Rp3056
g22
I1
ssg26
g22
sbsS'05-MAR-2009'
p3057
(idecision_tree
decision_tree_leaf
p3058
(dp3059
g17
g18
(g19
tp3060
Rp3061
g22
I2
ssg26
g22
sbsS'13-DEC-2009'
p3062
(idecision_tree
decision_tree_leaf
p3063
(dp3064
g17
g18
(g19
tp3065
Rp3066
g22
I1
ssg26
g22
sbsS'04-FEB-2009'
p3067
(idecision_tree
decision_tree_leaf
p3068
(dp3069
g17
g18
(g19
tp3070
Rp3071
g22
I1
ssg26
g22
sbsS'18-SEP-2009'
p3072
(idecision_tree
decision_tree_leaf
p3073
(dp3074
g17
g18
(g19
tp3075
Rp3076
S'PKP'
p3077
I1
ssg26
g3077
sbsS'21-OCT-2009'
p3078
(idecision_tree
decision_tree_leaf
p3079
(dp3080
g17
g18
(g19
tp3081
Rp3082
S'PKP'
p3083
I1
ssg26
g3083
sbsS'17-OCT-2009'
p3084
(idecision_tree
decision_tree_leaf
p3085
(dp3086
g17
g18
(g19
tp3087
Rp3088
g22
I1
ssg26
g22
sbsS'19-DEC-2009'
p3089
(idecision_tree
decision_tree_leaf
p3090
(dp3091
g17
g18
(g19
tp3092
Rp3093
g22
I1
ssg26
g22
sbsS'15-DEC-2009'
p3094
(idecision_tree
decision_tree_leaf
p3095
(dp3096
g17
g18
(g19
tp3097
Rp3098
g22
I1
ssg26
g22
sbsS'12-MAR-2009'
p3099
(idecision_tree
decision_tree_leaf
p3100
(dp3101
g17
g18
(g19
tp3102
Rp3103
g22
I1
ssg26
g22
sbsS'13-FEB-2009'
p3104
(idecision_tree
decision_tree_leaf
p3105
(dp3106
g17
g18
(g19
tp3107
Rp3108
g22
I2
ssg26
g22
sbsS'08-AUG-2009'
p3109
(idecision_tree
decision_tree_leaf
p3110
(dp3111
g17
g18
(g19
tp3112
Rp3113
g22
I1
ssg26
g22
sbsS'05-SEP-2009'
p3114
(idecision_tree
decision_tree_leaf
p3115
(dp3116
g17
g18
(g19
tp3117
Rp3118
g22
I2
ssg26
g22
sbsS'07-SEP-2009'
p3119
(idecision_tree
decision_tree_leaf
p3120
(dp3121
g17
g18
(g19
tp3122
Rp3123
S'PKP'
p3124
I1
ssg26
g3124
sbsS'11-MAR-2009'
p3125
(idecision_tree
decision_tree_leaf
p3126
(dp3127
g17
g18
(g19
tp3128
Rp3129
g22
I1
ssg26
g22
sbsS'26-NOV-2009'
p3130
(idecision_tree
decision_tree_leaf
p3131
(dp3132
g17
g18
(g19
tp3133
Rp3134
S'PKP'
p3135
I1
ssg26
g3135
sbsS'04-APR-2009'
p3136
(idecision_tree
decision_tree_leaf
p3137
(dp3138
g17
g18
(g19
tp3139
Rp3140
g22
I1
ssg26
g22
sbsS'23-FEB-2009'
p3141
(idecision_tree
decision_tree_leaf
p3142
(dp3143
g17
g18
(g19
tp3144
Rp3145
g22
I1
ssg26
g22
sbsS'04-JUN-2009'
p3146
(idecision_tree
decision_tree_leaf
p3147
(dp3148
g17
g18
(g19
tp3149
Rp3150
S'PKP'
p3151
I1
ssg26
g3151
sbsS'11-JUL-2009'
p3152
(idecision_tree
decision_tree_leaf
p3153
(dp3154
g17
g18
(g19
tp3155
Rp3156
g22
I1
ssg26
g22
sbsS'24-FEB-2009'
p3157
(idecision_tree
decision_tree_leaf
p3158
(dp3159
g17
g18
(g19
tp3160
Rp3161
g22
I1
ssg26
g22
sbsS'01-MAR-2009'
p3162
(idecision_tree
decision_tree_leaf
p3163
(dp3164
g17
g18
(g19
tp3165
Rp3166
g22
I1
ssg26
g22
sbsS'27-FEB-2009'
p3167
(idecision_tree
decision_tree_leaf
p3168
(dp3169
g17
g18
(g19
tp3170
Rp3171
g22
I3
ssg26
g22
sbsS'20-MAY-2009'
p3172
(idecision_tree
decision_tree_leaf
p3173
(dp3174
g17
g18
(g19
tp3175
Rp3176
g22
I2
ssg26
g22
sbsS'21-MAR-2009'
p3177
(idecision_tree
decision_tree_leaf
p3178
(dp3179
g17
g18
(g19
tp3180
Rp3181
g22
I2
ssg26
g22
sbsS'14-JAN-2009'
p3182
(idecision_tree
decision_tree_leaf
p3183
(dp3184
g17
g18
(g19
tp3185
Rp3186
g22
I1
ssg26
g22
sbsS'23-MAR-2009'
p3187
(idecision_tree
decision_tree_leaf
p3188
(dp3189
g17
g18
(g19
tp3190
Rp3191
g22
I1
ssg26
g22
sbsS'20-SEP-2009'
p3192
(idecision_tree
decision_tree_leaf
p3193
(dp3194
g17
g18
(g19
tp3195
Rp3196
g22
I1
ssg26
g22
sbsS'18-NOV-2009'
p3197
(idecision_tree
decision_tree_leaf
p3198
(dp3199
g17
g18
(g19
tp3200
Rp3201
g22
I1
ssg26
g22
sbsS'03-JUN-2009'
p3202
(idecision_tree
decision_tree_leaf
p3203
(dp3204
g17
g18
(g19
tp3205
Rp3206
S'PKP'
p3207
I1
ssg26
g3207
sbsS'28-MAY-2009'
p3208
(idecision_tree
decision_tree_leaf
p3209
(dp3210
g17
g18
(g19
tp3211
Rp3212
S'PKP'
p3213
I1
ssg26
g3213
sbsS'04-SEP-2009'
p3214
(idecision_tree
decision_tree_leaf
p3215
(dp3216
g17
g18
(g19
tp3217
Rp3218
g22
I1
ssg26
g22
sbsS'16-FEB-2009'
p3219
(idecision_tree
decision_tree_leaf
p3220
(dp3221
g17
g18
(g19
tp3222
Rp3223
g22
I2
ssg26
g22
sbsS'18-JAN-2009'
p3224
(idecision_tree
decision_tree_leaf
p3225
(dp3226
g17
g18
(g19
tp3227
Rp3228
g22
I1
ssg26
g22
sbsS'22-AUG-2009'
p3229
(idecision_tree
decision_tree_leaf
p3230
(dp3231
g17
g18
(g19
tp3232
Rp3233
g22
I1
ssg26
g22
sbsS'04-AUG-2009'
p3234
(idecision_tree
decision_tree_leaf
p3235
(dp3236
g17
g18
(g19
tp3237
Rp3238
g22
I1
ssg26
g22
sbsS'15-OCT-2009'
p3239
(idecision_tree
decision_tree_leaf
p3240
(dp3241
g17
g18
(g19
tp3242
Rp3243
g22
I1
ssg26
g22
sbsS'04-JAN-2009'
p3244
(idecision_tree
decision_tree_leaf
p3245
(dp3246
g17
g18
(g19
tp3247
Rp3248
S'PKP'
p3249
I1
ssg26
g3249
sbsS'27-MAY-2009'
p3250
(idecision_tree
decision_tree_leaf
p3251
(dp3252
g17
g18
(g19
tp3253
Rp3254
g22
I1
ssg26
g22
sbsS'24-JAN-2009'
p3255
(idecision_tree
decision_tree_leaf
p3256
(dp3257
g17
g18
(g19
tp3258
Rp3259
g22
I1
ssg26
g22
sbsS'01-AUG-2009'
p3260
(idecision_tree
decision_tree_leaf
p3261
(dp3262
g17
g18
(g19
tp3263
Rp3264
S'PKP'
p3265
I1
ssg26
g3265
sbsS'06-JUL-2009'
p3266
(idecision_tree
decision_tree_leaf
p3267
(dp3268
g17
g18
(g19
tp3269
Rp3270
g22
I1
ssg26
g22
sbsS'12-FEB-2009'
p3271
(idecision_tree
decision_tree_leaf
p3272
(dp3273
g17
g18
(g19
tp3274
Rp3275
g22
I6
ssg26
g22
sbsS'14-MAR-2009'
p3276
(idecision_tree
decision_tree_leaf
p3277
(dp3278
g17
g18
(g19
tp3279
Rp3280
g22
I1
ssg26
g22
sbsS'23-SEP-2009'
p3281
(idecision_tree
decision_tree_leaf
p3282
(dp3283
g17
g18
(g19
tp3284
Rp3285
g22
I1
ssg26
g22
sbsS'28-NOV-2009'
p3286
(idecision_tree
decision_tree
p3287
(dp3288
g3
I13
sg40
(dp3289
S'Z1020'
p3290
(idecision_tree
decision_tree_leaf
p3291
(dp3292
g17
g18
(g19
tp3293
Rp3294
S'PKP'
p3295
I1
ssg26
g3295
sbsS'Z1530'
p3296
(idecision_tree
decision_tree_leaf
p3297
(dp3298
g17
g18
(g19
tp3299
Rp3300
g22
I1
ssg26
g22
sbssbsS'16-MAR-2009'
p3301
(idecision_tree
decision_tree_leaf
p3302
(dp3303
g17
g18
(g19
tp3304
Rp3305
g22
I1
ssg26
g22
sbsS'16-APR-2009'
p3306
(idecision_tree
decision_tree_leaf
p3307
(dp3308
g17
g18
(g19
tp3309
Rp3310
g22
I1
ssg26
g22
sbsS'21-JUN-2009'
p3311
(idecision_tree
decision_tree_leaf
p3312
(dp3313
g17
g18
(g19
tp3314
Rp3315
g22
I4
ssg26
g22
sbsS'13-JUL-2009'
p3316
(idecision_tree
decision_tree_leaf
p3317
(dp3318
g17
g18
(g19
tp3319
Rp3320
g22
I1
ssg26
g22
sbsS'16-JAN-2009'
p3321
(idecision_tree
decision_tree
p3322
(dp3323
g3
I13
sg40
(dp3324
S'Z1020'
p3325
(idecision_tree
decision_tree_leaf
p3326
(dp3327
g17
g18
(g19
tp3328
Rp3329
S'PKP'
p3330
I1
ssg26
g3330
sbsS'Z2040'
p3331
(idecision_tree
decision_tree_leaf
p3332
(dp3333
g17
g18
(g19
tp3334
Rp3335
g22
I1
ssg26
g22
sbssbsS'25-SEP-2009'
p3336
(idecision_tree
decision_tree_leaf
p3337
(dp3338
g17
g18
(g19
tp3339
Rp3340
g22
I1
ssg26
g22
sbsS'07-JAN-2009'
p3341
(idecision_tree
decision_tree_leaf
p3342
(dp3343
g17
g18
(g19
tp3344
Rp3345
g22
I1
ssg26
g22
sbsS'07-FEB-2009'
p3346
(idecision_tree
decision_tree_leaf
p3347
(dp3348
g17
g18
(g19
tp3349
Rp3350
g22
I2
ssg26
g22
sbsS'12-OCT-2009'
p3351
(idecision_tree
decision_tree_leaf
p3352
(dp3353
g17
g18
(g19
tp3354
Rp3355
g22
I1
ssg26
g22
sbsS'28-FEB-2009'
p3356
(idecision_tree
decision_tree_leaf
p3357
(dp3358
g17
g18
(g19
tp3359
Rp3360
g22
I1
ssg26
g22
sbsS'22-OCT-2009'
p3361
(idecision_tree
decision_tree_leaf
p3362
(dp3363
g17
g18
(g19
tp3364
Rp3365
g22
I1
ssg26
g22
sbsS'03-JAN-2009'
p3366
(idecision_tree
decision_tree_leaf
p3367
(dp3368
g17
g18
(g19
tp3369
Rp3370
g22
I1
ssg26
g22
sbsS'02-AUG-2009'
p3371
(idecision_tree
decision_tree_leaf
p3372
(dp3373
g17
g18
(g19
tp3374
Rp3375
g22
I1
ssg26
g22
sbsS'06-APR-2009'
p3376
(idecision_tree
decision_tree_leaf
p3377
(dp3378
g17
g18
(g19
tp3379
Rp3380
g22
I3
ssg26
g22
sbsS'19-JAN-2009'
p3381
(idecision_tree
decision_tree_leaf
p3382
(dp3383
g17
g18
(g19
tp3384
Rp3385
S'PKP'
p3386
I1
ssg26
g3386
sbsS'10-FEB-2009'
p3387
(idecision_tree
decision_tree_leaf
p3388
(dp3389
g17
g18
(g19
tp3390
Rp3391
g22
I1
ssg26
g22
sbsS'03-DEC-2009'
p3392
(idecision_tree
decision_tree_leaf
p3393
(dp3394
g17
g18
(g19
tp3395
Rp3396
g22
I1
ssg26
g22
sbsS'08-FEB-2009'
p3397
(idecision_tree
decision_tree_leaf
p3398
(dp3399
g17
g18
(g19
tp3400
Rp3401
g22
I1
ssg26
g22
sbsS'03-JUL-2009'
p3402
(idecision_tree
decision_tree_leaf
p3403
(dp3404
g17
g18
(g19
tp3405
Rp3406
g22
I1
ssg26
g22
sbsS'08-JUL-2009'
p3407
(idecision_tree
decision_tree_leaf
p3408
(dp3409
g17
g18
(g19
tp3410
Rp3411
g22
I1
ssg26
g22
sbsS'29-SEP-2009'
p3412
(idecision_tree
decision_tree_leaf
p3413
(dp3414
g17
g18
(g19
tp3415
Rp3416
g22
I1
ssg26
g22
sbsS'20-FEB-2009'
p3417
(idecision_tree
decision_tree_leaf
p3418
(dp3419
g17
g18
(g19
tp3420
Rp3421
g22
I3
ssg26
g22
sbsS'15-MAR-2009'
p3422
(idecision_tree
decision_tree_leaf
p3423
(dp3424
g17
g18
(g19
tp3425
Rp3426
g22
I1
ssg26
g22
sbsS'16-DEC-2009'
p3427
(idecision_tree
decision_tree_leaf
p3428
(dp3429
g17
g18
(g19
tp3430
Rp3431
g22
I1
ssg26
g22
sbsS'07-DEC-2009'
p3432
(idecision_tree
decision_tree_leaf
p3433
(dp3434
g17
g18
(g19
tp3435
Rp3436
S'PKP'
p3437
I1
ssg26
g3437
sbsS'14-FEB-2009'
p3438
(idecision_tree
decision_tree_leaf
p3439
(dp3440
g17
g18
(g19
tp3441
Rp3442
g22
I2
ssg26
g22
sbsS'23-AUG-2009'
p3443
(idecision_tree
decision_tree_leaf
p3444
(dp3445
g17
g18
(g19
tp3446
Rp3447
S'PKP'
p3448
I1
ssg26
g3448
sbsS'13-JUN-2009'
p3449
(idecision_tree
decision_tree_leaf
p3450
(dp3451
g17
g18
(g19
tp3452
Rp3453
g22
I1
ssg26
g22
sbsS'25-JUN-2009'
p3454
(idecision_tree
decision_tree_leaf
p3455
(dp3456
g17
g18
(g19
tp3457
Rp3458
g22
I1
ssg26
g22
sbsS'01-OCT-2009'
p3459
(idecision_tree
decision_tree_leaf
p3460
(dp3461
g17
g18
(g19
tp3462
Rp3463
S'PKP'
p3464
I2
ssg26
g3464
sbsS'30-OCT-2009'
p3465
(idecision_tree
decision_tree_leaf
p3466
(dp3467
g17
g18
(g19
tp3468
Rp3469
g22
I1
ssg26
g22
sbsS'19-FEB-2009'
p3470
(idecision_tree
decision_tree_leaf
p3471
(dp3472
g17
g18
(g19
tp3473
Rp3474
g22
I2
ssg26
g22
sbsS'03-APR-2009'
p3475
(idecision_tree
decision_tree_leaf
p3476
(dp3477
g17
g18
(g19
tp3478
Rp3479
g22
I1
ssg26
g22
sbsS'08-JUN-2009'
p3480
(idecision_tree
decision_tree_leaf
p3481
(dp3482
g17
g18
(g19
tp3483
Rp3484
g22
I1
ssg26
g22
sbsS'29-MAY-2009'
p3485
(idecision_tree
decision_tree_leaf
p3486
(dp3487
g17
g18
(g19
tp3488
Rp3489
S'PKP'
p3490
I1
ssg26
g3490
sbsS'22-JAN-2009'
p3491
(idecision_tree
decision_tree_leaf
p3492
(dp3493
g17
g18
(g19
tp3494
Rp3495
g22
I1
ssg26
g22
sbsS'03-FEB-2009'
p3496
(idecision_tree
decision_tree_leaf
p3497
(dp3498
g17
g18
(g19
tp3499
Rp3500
g22
I1
ssg26
g22
sbsS'03-MAR-2009'
p3501
(idecision_tree
decision_tree_leaf
p3502
(dp3503
g17
g18
(g19
tp3504
Rp3505
g22
I1
ssg26
g22
sbsS'10-AUG-2009'
p3506
(idecision_tree
decision_tree_leaf
p3507
(dp3508
g17
g18
(g19
tp3509
Rp3510
g22
I1
ssg26
g22
sbsS'09-MAR-2009'
p3511
(idecision_tree
decision_tree_leaf
p3512
(dp3513
g17
g18
(g19
tp3514
Rp3515
S'PKP'
p3516
I1
ssg26
g3516
sbsS'26-JUL-2009'
p3517
(idecision_tree
decision_tree_leaf
p3518
(dp3519
g17
g18
(g19
tp3520
Rp3521
g22
I1
ssg26
g22
sbsS'19-AUG-2009'
p3522
(idecision_tree
decision_tree_leaf
p3523
(dp3524
g17
g18
(g19
tp3525
Rp3526
g22
I1
ssg26
g22
sbsS'14-NOV-2009'
p3527
(idecision_tree
decision_tree_leaf
p3528
(dp3529
g17
g18
(g19
tp3530
Rp3531
S'PKP'
p3532
I1
ssg26
g3532
sbsS'05-DEC-2009'
p3533
(idecision_tree
decision_tree_leaf
p3534
(dp3535
g17
g18
(g19
tp3536
Rp3537
g22
I2
ssg26
g22
sbsS'21-NOV-2009'
p3538
(idecision_tree
decision_tree_leaf
p3539
(dp3540
g17
g18
(g19
tp3541
Rp3542
g22
I1
ssg26
g22
sbsS'29-OCT-2009'
p3543
(idecision_tree
decision_tree_leaf
p3544
(dp3545
g17
g18
(g19
tp3546
Rp3547
S'PKP'
p3548
I1
ssg26
g3548
sbsS'17-DEC-2009'
p3549
(idecision_tree
decision_tree_leaf
p3550
(dp3551
g17
g18
(g19
tp3552
Rp3553
g22
I1
ssg26
g22
sbsS'06-MAR-2009'
p3554
(idecision_tree
decision_tree
p3555
(dp3556
g3
I13
sg40
(dp3557
S'Z1020'
p3558
(idecision_tree
decision_tree_leaf
p3559
(dp3560
g17
g18
(g19
tp3561
Rp3562
g22
I1
ssg26
g22
sbsS'Z0515'
p3563
(idecision_tree
decision_tree_leaf
p3564
(dp3565
g17
g18
(g19
tp3566
Rp3567
S'PKP'
p3568
I1
ssg26
g3568
sbssbsS'24-AUG-2009'
p3569
(idecision_tree
decision_tree_leaf
p3570
(dp3571
g17
g18
(g19
tp3572
Rp3573
S'PKP'
p3574
I1
ssg26
g3574
sbsS'23-OCT-2009'
p3575
(idecision_tree
decision_tree_leaf
p3576
(dp3577
g17
g18
(g19
tp3578
Rp3579
g22
I1
ssg26
g22
sbsS'21-FEB-2009'
p3580
(idecision_tree
decision_tree_leaf
p3581
(dp3582
g17
g18
(g19
tp3583
Rp3584
g22
I1
ssg26
g22
sbsS'14-OCT-2009'
p3585
(idecision_tree
decision_tree
p3586
(dp3587
g3
I13
sg40
(dp3588
S'Z1020'
p3589
(idecision_tree
decision_tree_leaf
p3590
(dp3591
g17
g18
(g19
tp3592
Rp3593
S'PKP'
p3594
I1
ssg26
g3594
sbsS'Z1530'
p3595
(idecision_tree
decision_tree_leaf
p3596
(dp3597
g17
g18
(g19
tp3598
Rp3599
g22
I1
ssg26
g22
sbssbsS'25-JAN-2009'
p3600
(idecision_tree
decision_tree_leaf
p3601
(dp3602
g17
g18
(g19
tp3603
Rp3604
g22
I1
ssg26
g22
sbsS'10-OCT-2009'
p3605
(idecision_tree
decision_tree_leaf
p3606
(dp3607
g17
g18
(g19
tp3608
Rp3609
g22
I1
ssg26
g22
sbsS'20-APR-2009'
p3610
(idecision_tree
decision_tree_leaf
p3611
(dp3612
g17
g18
(g19
tp3613
Rp3614
g22
I1
ssg26
g22
sbssbsg27
(idecision_tree
continuous_decision_tree
p3615
(dp3616
g2
F-2.375
sg3
I63
sg4
(idecision_tree
continuous_decision_tree
p3617
(dp3618
g2
F0.258428
sg3
I51
sg4
(idecision_tree
continuous_decision_tree
p3619
(dp3620
g2
F-10.875
sg3
I67
sg4
(idecision_tree
decision_tree
p3621
(dp3622
g3
I47
sg40
(dp3623
S'07-JAN-2009'
p3624
(idecision_tree
decision_tree_leaf
p3625
(dp3626
g17
g18
(g19
tp3627
Rp3628
g22
I1
ssg26
g22
sbsS'23-OCT-2009'
p3629
(idecision_tree
decision_tree_leaf
p3630
(dp3631
g17
g18
(g19
tp3632
Rp3633
S'PKP'
p3634
I1
ssg26
g3634
sbsS'09-SEP-2009'
p3635
(idecision_tree
decision_tree_leaf
p3636
(dp3637
g17
g18
(g19
tp3638
Rp3639
g22
I1
ssg26
g22
sbsS'15-SEP-2009'
p3640
(idecision_tree
decision_tree_leaf
p3641
(dp3642
g17
g18
(g19
tp3643
Rp3644
g22
I1
ssg26
g22
sbssbsg27
(idecision_tree
decision_tree_leaf
p3645
(dp3646
g17
g18
(g19
tp3647
Rp3648
g22
I2
sS'PKP'
p3649
I1
ssg26
g22
sbsbsg27
(idecision_tree
continuous_decision_tree
p3650
(dp3651
g2
F0.3645445
sg3
I49
sg4
(idecision_tree
decision_tree
p3652
(dp3653
g3
I47
sg40
(dp3654
S'26-SEP-2009'
p3655
(idecision_tree
decision_tree_leaf
p3656
(dp3657
g17
g18
(g19
tp3658
Rp3659
g22
I1
ssg26
g22
sbsS'13-JAN-2009'
p3660
(idecision_tree
decision_tree_leaf
p3661
(dp3662
g17
g18
(g19
tp3663
Rp3664
S'PKP'
p3665
I1
ssg26
g3665
sbsS'20-FEB-2009'
p3666
(idecision_tree
decision_tree_leaf
p3667
(dp3668
g17
g18
(g19
tp3669
Rp3670
g22
I1
ssg26
g22
sbsS'20-JUN-2009'
p3671
(idecision_tree
decision_tree_leaf
p3672
(dp3673
g17
g18
(g19
tp3674
Rp3675
g22
I1
ssg26
g22
sbssbsg27
(idecision_tree
continuous_decision_tree
p3676
(dp3677
g2
F0.3025865
sg3
I52
sg4
(idecision_tree
decision_tree
p3678
(dp3679
g3
I47
sg40
(dp3680
S'16-DEC-2009'
p3681
(idecision_tree
decision_tree_leaf
p3682
(dp3683
g17
g18
(g19
tp3684
Rp3685
S'PKP'
p3686
I1
ssg26
g3686
sbsS'29-JUN-2009'
p3687
(idecision_tree
decision_tree_leaf
p3688
(dp3689
g17
g18
(g19
tp3690
Rp3691
g22
I1
ssg26
g22
sbssbsg27
(idecision_tree
decision_tree_leaf
p3692
(dp3693
g17
g18
(g19
tp3694
Rp3695
g22
I1
ssg26
g22
sbsbsbsbsg27
(idecision_tree
continuous_decision_tree
p3696
(dp3697
g2
F0.976108
sg3
I48
sg4
(idecision_tree
decision_tree
p3698
(dp3699
g3
I47
sg40
(dp3700
S'18-AUG-2009'
p3701
(idecision_tree
decision_tree_leaf
p3702
(dp3703
g17
g18
(g19
tp3704
Rp3705
g22
I1
ssg26
g22
sbsS'26-NOV-2009'
p3706
(idecision_tree
decision_tree_leaf
p3707
(dp3708
g17
g18
(g19
tp3709
Rp3710
S'PKP'
p3711
I1
ssg26
g3711
sbsS'29-JUN-2009'
p3712
(idecision_tree
decision_tree_leaf
p3713
(dp3714
g17
g18
(g19
tp3715
Rp3716
g22
I1
ssg26
g22
sbssbsg27
(idecision_tree
decision_tree
p3717
(dp3718
g3
I47
sg40
(dp3719
S'22-MAR-2009'
p3720
(idecision_tree
decision_tree_leaf
p3721
(dp3722
g17
g18
(g19
tp3723
Rp3724
S'PKP'
p3725
I1
ssg26
g3725
sbsS'09-JUL-2009'
p3726
(idecision_tree
decision_tree_leaf
p3727
(dp3728
g17
g18
(g19
tp3729
Rp3730
g22
I1
ssg26
g22
sbsS'27-FEB-2009'
p3731
(idecision_tree
decision_tree_leaf
p3732
(dp3733
g17
g18
(g19
tp3734
Rp3735
g22
I1
ssg26
g22
sbsS'16-MAY-2009'
p3736
(idecision_tree
decision_tree_leaf
p3737
(dp3738
g17
g18
(g19
tp3739
Rp3740
g22
I1
ssg26
g22
sbssbsbsbsbsg27
(idecision_tree
decision_tree
p3741
(dp3742
g3
I47
sg40
(dp3743
S'06-DEC-2009'
p3744
(idecision_tree
decision_tree_leaf
p3745
(dp3746
g17
g18
(g19
tp3747
Rp3748
g22
I1
ssg26
g22
sbsS'29-MAR-2009'
p3749
(idecision_tree
decision_tree_leaf
p3750
(dp3751
g17
g18
(g19
tp3752
Rp3753
g22
I1
ssg26
g22
sbsS'01-FEB-2009'
p3754
(idecision_tree
decision_tree_leaf
p3755
(dp3756
g17
g18
(g19
tp3757
Rp3758
g22
I1
ssg26
g22
sbsS'09-DEC-2009'
p3759
(idecision_tree
decision_tree_leaf
p3760
(dp3761
g17
g18
(g19
tp3762
Rp3763
g22
I1
ssg26
g22
sbsS'12-JUN-2009'
p3764
(idecision_tree
decision_tree_leaf
p3765
(dp3766
g17
g18
(g19
tp3767
Rp3768
S'PKP'
p3769
I1
ssg26
g3769
sbsS'20-DEC-2009'
p3770
(idecision_tree
decision_tree_leaf
p3771
(dp3772
g17
g18
(g19
tp3773
Rp3774
g22
I1
ssg26
g22
sbsS'12-MAY-2009'
p3775
(idecision_tree
decision_tree_leaf
p3776
(dp3777
g17
g18
(g19
tp3778
Rp3779
g22
I1
ssg26
g22
sbsS'27-MAR-2009'
p3780
(idecision_tree
decision_tree_leaf
p3781
(dp3782
g17
g18
(g19
tp3783
Rp3784
g22
I1
ssg26
g22
sbsS'12-AUG-2009'
p3785
(idecision_tree
decision_tree_leaf
p3786
(dp3787
g17
g18
(g19
tp3788
Rp3789
g22
I2
ssg26
g22
sbsS'29-NOV-2009'
p3790
(idecision_tree
decision_tree_leaf
p3791
(dp3792
g17
g18
(g19
tp3793
Rp3794
g22
I1
ssg26
g22
sbsS'21-NOV-2009'
p3795
(idecision_tree
decision_tree_leaf
p3796
(dp3797
g17
g18
(g19
tp3798
Rp3799
g22
I1
ssg26
g22
sbsS'10-OCT-2009'
p3800
(idecision_tree
decision_tree_leaf
p3801
(dp3802
g17
g18
(g19
tp3803
Rp3804
g22
I1
ssg26
g22
sbsS'30-OCT-2009'
p3805
(idecision_tree
decision_tree_leaf
p3806
(dp3807
g17
g18
(g19
tp3808
Rp3809
g22
I1
ssg26
g22
sbsS'21-JAN-2009'
p3810
(idecision_tree
decision_tree_leaf
p3811
(dp3812
g17
g18
(g19
tp3813
Rp3814
S'PKP'
p3815
I1
ssg26
g3815
sbsS'13-AUG-2009'
p3816
(idecision_tree
decision_tree_leaf
p3817
(dp3818
g17
g18
(g19
tp3819
Rp3820
g22
I1
ssg26
g22
sbsS'05-JUL-2009'
p3821
(idecision_tree
decision_tree_leaf
p3822
(dp3823
g17
g18
(g19
tp3824
Rp3825
g22
I2
ssg26
g22
sbsS'07-DEC-2009'
p3826
(idecision_tree
decision_tree_leaf
p3827
(dp3828
g17
g18
(g19
tp3829
Rp3830
g22
I1
ssg26
g22
sbsS'18-MAR-2009'
p3831
(idecision_tree
decision_tree_leaf
p3832
(dp3833
g17
g18
(g19
tp3834
Rp3835
g22
I1
ssg26
g22
sbsS'21-APR-2009'
p3836
(idecision_tree
decision_tree_leaf
p3837
(dp3838
g17
g18
(g19
tp3839
Rp3840
g22
I1
ssg26
g22
sbsS'18-JUL-2009'
p3841
(idecision_tree
decision_tree_leaf
p3842
(dp3843
g17
g18
(g19
tp3844
Rp3845
g22
I1
ssg26
g22
sbsS'18-NOV-2009'
p3846
(idecision_tree
decision_tree_leaf
p3847
(dp3848
g17
g18
(g19
tp3849
Rp3850
g22
I1
ssg26
g22
sbsS'04-FEB-2009'
p3851
(idecision_tree
decision_tree_leaf
p3852
(dp3853
g17
g18
(g19
tp3854
Rp3855
g22
I1
ssg26
g22
sbsS'04-SEP-2009'
p3856
(idecision_tree
decision_tree_leaf
p3857
(dp3858
g17
g18
(g19
tp3859
Rp3860
g22
I1
ssg26
g22
sbsS'01-OCT-2009'
p3861
(idecision_tree
decision_tree_leaf
p3862
(dp3863
g17
g18
(g19
tp3864
Rp3865
g22
I1
ssg26
g22
sbsS'30-MAR-2009'
p3866
(idecision_tree
decision_tree_leaf
p3867
(dp3868
g17
g18
(g19
tp3869
Rp3870
g22
I1
ssg26
g22
sbsS'01-JUN-2009'
p3871
(idecision_tree
decision_tree_leaf
p3872
(dp3873
g17
g18
(g19
tp3874
Rp3875
S'PKP'
p3876
I1
ssg26
g3876
sbsS'12-MAR-2009'
p3877
(idecision_tree
decision_tree_leaf
p3878
(dp3879
g17
g18
(g19
tp3880
Rp3881
g22
I1
ssg26
g22
sbsS'27-OCT-2009'
p3882
(idecision_tree
decision_tree_leaf
p3883
(dp3884
g17
g18
(g19
tp3885
Rp3886
g22
I1
ssg26
g22
sbsS'28-MAR-2009'
p3887
(idecision_tree
decision_tree_leaf
p3888
(dp3889
g17
g18
(g19
tp3890
Rp3891
g22
I1
ssg26
g22
sbsS'04-JAN-2009'
p3892
(idecision_tree
decision_tree_leaf
p3893
(dp3894
g17
g18
(g19
tp3895
Rp3896
g22
I2
ssg26
g22
sbsS'04-DEC-2009'
p3897
(idecision_tree
decision_tree_leaf
p3898
(dp3899
g17
g18
(g19
tp3900
Rp3901
g22
I1
sS'PKP'
p3902
I1
ssg26
g22
sbsS'17-MAR-2009'
p3903
(idecision_tree
continuous_decision_tree
p3904
(dp3905
g2
F-135.5
sg3
I67
sg4
(idecision_tree
decision_tree_leaf
p3906
(dp3907
g17
g18
(g19
tp3908
Rp3909
S'PKP'
p3910
I1
ssg26
g3910
sbsg27
(idecision_tree
decision_tree_leaf
p3911
(dp3912
g17
g18
(g19
tp3913
Rp3914
g22
I1
ssg26
g22
sbsbsS'25-MAR-2009'
p3915
(idecision_tree
decision_tree_leaf
p3916
(dp3917
g17
g18
(g19
tp3918
Rp3919
S'PKP'
p3920
I1
ssg26
g3920
sbsS'10-AUG-2009'
p3921
(idecision_tree
decision_tree_leaf
p3922
(dp3923
g17
g18
(g19
tp3924
Rp3925
S'PKP'
p3926
I1
ssg26
g3926
sbsS'24-MAY-2009'
p3927
(idecision_tree
decision_tree_leaf
p3928
(dp3929
g17
g18
(g19
tp3930
Rp3931
g22
I1
ssg26
g22
sbsS'30-JAN-2009'
p3932
(idecision_tree
decision_tree_leaf
p3933
(dp3934
g17
g18
(g19
tp3935
Rp3936
g22
I1
ssg26
g22
sbsS'08-FEB-2009'
p3937
(idecision_tree
decision_tree_leaf
p3938
(dp3939
g17
g18
(g19
tp3940
Rp3941
g22
I1
ssg26
g22
sbsS'27-AUG-2009'
p3942
(idecision_tree
decision_tree_leaf
p3943
(dp3944
g17
g18
(g19
tp3945
Rp3946
g22
I1
ssg26
g22
sbsS'16-MAR-2009'
p3947
(idecision_tree
decision_tree_leaf
p3948
(dp3949
g17
g18
(g19
tp3950
Rp3951
g22
I2
ssg26
g22
sbsS'03-JAN-2009'
p3952
(idecision_tree
decision_tree_leaf
p3953
(dp3954
g17
g18
(g19
tp3955
Rp3956
g22
I1
ssg26
g22
sbsS'12-FEB-2009'
p3957
(idecision_tree
decision_tree_leaf
p3958
(dp3959
g17
g18
(g19
tp3960
Rp3961
g22
I2
ssg26
g22
sbsS'15-MAY-2009'
p3962
(idecision_tree
decision_tree_leaf
p3963
(dp3964
g17
g18
(g19
tp3965
Rp3966
g22
I1
ssg26
g22
sbsS'31-MAR-2009'
p3967
(idecision_tree
decision_tree_leaf
p3968
(dp3969
g17
g18
(g19
tp3970
Rp3971
g22
I1
ssg26
g22
sbsS'07-JUL-2009'
p3972
(idecision_tree
decision_tree_leaf
p3973
(dp3974
g17
g18
(g19
tp3975
Rp3976
g22
I1
ssg26
g22
sbsS'22-AUG-2009'
p3977
(idecision_tree
decision_tree_leaf
p3978
(dp3979
g17
g18
(g19
tp3980
Rp3981
S'PKP'
p3982
I1
ssg26
g3982
sbsS'30-SEP-2009'
p3983
(idecision_tree
continuous_decision_tree
p3984
(dp3985
g2
F-114.0
sg3
I67
sg4
(idecision_tree
decision_tree_leaf
p3986
(dp3987
g17
g18
(g19
tp3988
Rp3989
g22
I1
ssg26
g22
sbsg27
(idecision_tree
decision_tree_leaf
p3990
(dp3991
g17
g18
(g19
tp3992
Rp3993
S'PKP'
p3994
I1
ssg26
g3994
sbsbsS'10-MAY-2009'
p3995
(idecision_tree
decision_tree_leaf
p3996
(dp3997
g17
g18
(g19
tp3998
Rp3999
g22
I1
ssg26
g22
sbsS'02-MAR-2009'
p4000
(idecision_tree
decision_tree_leaf
p4001
(dp4002
g17
g18
(g19
tp4003
Rp4004
g22
I2
ssg26
g22
sbsS'16-APR-2009'
p4005
(idecision_tree
decision_tree_leaf
p4006
(dp4007
g17
g18
(g19
tp4008
Rp4009
g22
I1
ssg26
g22
sbsS'17-JUL-2009'
p4010
(idecision_tree
decision_tree_leaf
p4011
(dp4012
g17
g18
(g19
tp4013
Rp4014
g22
I1
ssg26
g22
sbsS'15-NOV-2009'
p4015
(idecision_tree
decision_tree_leaf
p4016
(dp4017
g17
g18
(g19
tp4018
Rp4019
g22
I1
ssg26
g22
sbsS'16-AUG-2009'
p4020
(idecision_tree
decision_tree_leaf
p4021
(dp4022
g17
g18
(g19
tp4023
Rp4024
g22
I1
ssg26
g22
sbsS'21-OCT-2009'
p4025
(idecision_tree
decision_tree_leaf
p4026
(dp4027
g17
g18
(g19
tp4028
Rp4029
g22
I1
ssg26
g22
sbsS'05-DEC-2009'
p4030
(idecision_tree
decision_tree_leaf
p4031
(dp4032
g17
g18
(g19
tp4033
Rp4034
g22
I2
ssg26
g22
sbsS'01-MAR-2009'
p4035
(idecision_tree
decision_tree_leaf
p4036
(dp4037
g17
g18
(g19
tp4038
Rp4039
g22
I1
ssg26
g22
sbsS'08-MAY-2009'
p4040
(idecision_tree
decision_tree_leaf
p4041
(dp4042
g17
g18
(g19
tp4043
Rp4044
g22
I2
sS'PKP'
p4045
I1
ssg26
g22
sbsS'21-FEB-2009'
p4046
(idecision_tree
decision_tree_leaf
p4047
(dp4048
g17
g18
(g19
tp4049
Rp4050
g22
I2
ssg26
g22
sbsS'04-APR-2009'
p4051
(idecision_tree
decision_tree_leaf
p4052
(dp4053
g17
g18
(g19
tp4054
Rp4055
S'PKP'
p4056
I1
ssg26
g4056
sbsS'25-NOV-2009'
p4057
(idecision_tree
decision_tree_leaf
p4058
(dp4059
g17
g18
(g19
tp4060
Rp4061
g22
I1
ssg26
g22
sbsS'04-JUN-2009'
p4062
(idecision_tree
decision_tree_leaf
p4063
(dp4064
g17
g18
(g19
tp4065
Rp4066
g22
I1
ssg26
g22
sbsS'05-JAN-2009'
p4067
(idecision_tree
decision_tree_leaf
p4068
(dp4069
g17
g18
(g19
tp4070
Rp4071
S'PKP'
p4072
I1
ssg26
g4072
sbsS'06-APR-2009'
p4073
(idecision_tree
decision_tree_leaf
p4074
(dp4075
g17
g18
(g19
tp4076
Rp4077
g22
I2
ssg26
g22
sbsS'14-JUN-2009'
p4078
(idecision_tree
decision_tree_leaf
p4079
(dp4080
g17
g18
(g19
tp4081
Rp4082
g22
I1
ssg26
g22
sbsS'02-JAN-2009'
p4083
(idecision_tree
decision_tree_leaf
p4084
(dp4085
g17
g18
(g19
tp4086
Rp4087
g22
I1
ssg26
g22
sbsS'20-APR-2009'
p4088
(idecision_tree
decision_tree_leaf
p4089
(dp4090
g17
g18
(g19
tp4091
Rp4092
g22
I1
ssg26
g22
sbssbsbsbsg27
(idecision_tree
decision_tree_leaf
p4093
(dp4094
g17
g18
(g19
tp4095
Rp4096
g22
I37
sS'PKP'
p4097
I7
sS'Pn'
p4098
I1
ssg26
g22
sbsbsbsg27
(idecision_tree
continuous_decision_tree
p4099
(dp4100
g2
F0.0
sg3
I66
sg4
(idecision_tree
continuous_decision_tree
p4101
(dp4102
g2
F0.873591
sg3
I34
sg4
(idecision_tree
continuous_decision_tree
p4103
(dp4104
g2
F1.07373
sg3
I7
sg4
(idecision_tree
continuous_decision_tree
p4105
(dp4106
g2
F0.666665
sg3
I63
sg4
(idecision_tree
decision_tree_leaf
p4107
(dp4108
g17
g18
(g19
tp4109
Rp4110
g22
I19
sS'PKP'
p4111
I3
sS'Pn'
p4112
I6
sg70
I1
sS'Sn'
p4113
I1
ssg26
g22
sbsg27
(idecision_tree
continuous_decision_tree
p4114
(dp4115
g2
F8.25
sg3
I67
sg4
(idecision_tree
continuous_decision_tree
p4116
(dp4117
g2
F2.0
sg3
I66
sg4
(idecision_tree
decision_tree
p4118
(dp4119
g3
I47
sg40
(dp4120
S'26-AUG-2009'
p4121
(idecision_tree
decision_tree_leaf
p4122
(dp4123
g17
g18
(g19
tp4124
Rp4125
S'Pn'
p4126
I1
ssg26
g4126
sbsS'18-SEP-2009'
p4127
(idecision_tree
decision_tree_leaf
p4128
(dp4129
g17
g18
(g19
tp4130
Rp4131
g22
I1
ssg26
g22
sbssbsg27
(idecision_tree
decision_tree_leaf
p4132
(dp4133
g17
g18
(g19
tp4134
Rp4135
g22
I1
ssg26
g22
sbsbsg27
(idecision_tree
decision_tree_leaf
p4136
(dp4137
g17
g18
(g19
tp4138
Rp4139
g22
I5
sS'Pn'
p4140
I3
ssg26
g22
sbsbsbsg27
(idecision_tree
continuous_decision_tree
p4141
(dp4142
g2
F16.9375
sg3
I63
sg4
(idecision_tree
decision_tree_leaf
p4143
(dp4144
g17
g18
(g19
tp4145
Rp4146
g22
I7
sS'PKP'
p4147
I1
sS'Pn'
p4148
I3
ssg26
g22
sbsg27
(idecision_tree
continuous_decision_tree
p4149
(dp4150
g2
F12.4375
sg3
I67
sg4
(idecision_tree
continuous_decision_tree
p4151
(dp4152
g2
F4.0
sg3
I66
sg4
(idecision_tree
decision_tree
p4153
(dp4154
g3
I47
sg40
(dp4155
S'04-MAR-2009'
p4156
(idecision_tree
decision_tree_leaf
p4157
(dp4158
g17
g18
(g19
tp4159
Rp4160
g22
I1
ssg26
g22
sbsS'18-JUL-2009'
p4161
(idecision_tree
decision_tree_leaf
p4162
(dp4163
g17
g18
(g19
tp4164
Rp4165
g22
I1
ssg26
g22
sbsS'02-FEB-2009'
p4166
(idecision_tree
decision_tree_leaf
p4167
(dp4168
g17
g18
(g19
tp4169
Rp4170
g22
I1
ssg26
g22
sbsS'05-SEP-2009'
p4171
(idecision_tree
decision_tree_leaf
p4172
(dp4173
g17
g18
(g19
tp4174
Rp4175
S'Pn'
p4176
I1
ssg26
g4176
sbssbsg27
(idecision_tree
continuous_decision_tree
p4177
(dp4178
g2
F69.5
sg3
I67
sg4
(idecision_tree
continuous_decision_tree
p4179
(dp4180
g2
F0.48654050000000004
sg3
I52
sg4
(idecision_tree
continuous_decision_tree
p4181
(dp4182
g2
F0.565362
sg3
I49
sg4
(idecision_tree
decision_tree
p4183
(dp4184
g3
I47
sg40
(dp4185
S'09-JUN-2009'
p4186
(idecision_tree
decision_tree_leaf
p4187
(dp4188
g17
g18
(g19
tp4189
Rp4190
S'PKP'
p4191
I1
ssg26
g4191
sbsS'26-FEB-2009'
p4192
(idecision_tree
decision_tree_leaf
p4193
(dp4194
g17
g18
(g19
tp4195
Rp4196
g22
I1
ssg26
g22
sbssbsg27
(idecision_tree
decision_tree_leaf
p4197
(dp4198
g17
g18
(g19
tp4199
Rp4200
g22
I1
ssg26
g22
sbsbsg27
(idecision_tree
decision_tree
p4201
(dp4202
g3
I47
sg40
(dp4203
S'20-JAN-2009'
p4204
(idecision_tree
decision_tree_leaf
p4205
(dp4206
g17
g18
(g19
tp4207
Rp4208
g22
I1
ssg26
g22
sbsS'01-JAN-2009'
p4209
(idecision_tree
decision_tree_leaf
p4210
(dp4211
g17
g18
(g19
tp4212
Rp4213
S'Pn'
p4214
I1
ssg26
g4214
sbssbsbsg27
(idecision_tree
decision_tree
p4215
(dp4216
g3
I47
sg40
(dp4217
S'17-SEP-2009'
p4218
(idecision_tree
decision_tree_leaf
p4219
(dp4220
g17
g18
(g19
tp4221
Rp4222
S'Pn'
p4223
I1
ssg26
g4223
sbsS'04-JAN-2009'
p4224
(idecision_tree
decision_tree_leaf
p4225
(dp4226
g17
g18
(g19
tp4227
Rp4228
g22
I1
ssg26
g22
sbssbsbsbsg27
(idecision_tree
continuous_decision_tree
p4229
(dp4230
g2
F0.0
sg3
I67
sg4
(idecision_tree
continuous_decision_tree
p4231
(dp4232
g2
F0.24856
sg3
I52
sg4
(idecision_tree
continuous_decision_tree
p4233
(dp4234
g2
F1.022262
sg3
I50
sg4
(idecision_tree
continuous_decision_tree
p4235
(dp4236
g2
F0.4077845
sg3
I48
sg4
(idecision_tree
decision_tree
p4237
(dp4238
g3
I47
sg40
(dp4239
S'27-FEB-2009'
p4240
(idecision_tree
decision_tree_leaf
p4241
(dp4242
g17
g18
(g19
tp4243
Rp4244
g70
I1
ssg26
g70
sbsS'11-FEB-2009'
p4245
(idecision_tree
decision_tree_leaf
p4246
(dp4247
g17
g18
(g19
tp4248
Rp4249
g22
I1
ssg26
g22
sbssbsg27
(idecision_tree
decision_tree_leaf
p4250
(dp4251
g17
g18
(g19
tp4252
Rp4253
g22
I1
ssg26
g22
sbsbsg27
(idecision_tree
decision_tree_leaf
p4254
(dp4255
g17
g18
(g19
tp4256
Rp4257
g22
I7
sS'Pn'
p4258
I4
ssg26
g22
sbsbsg27
(idecision_tree
decision_tree
p4259
(dp4260
g3
I47
sg40
(dp4261
S'01-NOV-2009'
p4262
(idecision_tree
decision_tree_leaf
p4263
(dp4264
g17
g18
(g19
tp4265
Rp4266
g22
I1
ssg26
g22
sbsS'11-MAR-2009'
p4267
(idecision_tree
decision_tree_leaf
p4268
(dp4269
g17
g18
(g19
tp4270
Rp4271
S'Pn'
p4272
I1
ssg26
g4272
sbsS'23-SEP-2009'
p4273
(idecision_tree
decision_tree_leaf
p4274
(dp4275
g17
g18
(g19
tp4276
Rp4277
g22
I1
ssg26
g22
sbssbsbsg27
(idecision_tree
decision_tree
p4278
(dp4279
g3
I47
sg40
(dp4280
S'11-SEP-2009'
p4281
(idecision_tree
decision_tree_leaf
p4282
(dp4283
g17
g18
(g19
tp4284
Rp4285
S'Pn'
p4286
I1
ssg26
g4286
sbsS'29-NOV-2009'
p4287
(idecision_tree
decision_tree_leaf
p4288
(dp4289
g17
g18
(g19
tp4290
Rp4291
g22
I1
ssg26
g22
sbssbsbsbsbsbsg27
(idecision_tree
continuous_decision_tree
p4292
(dp4293
g2
F0.2487445
sg3
I38
sg4
(idecision_tree
continuous_decision_tree
p4294
(dp4295
g2
F1.0
sg3
I66
sg4
(idecision_tree
continuous_decision_tree
p4296
(dp4297
g2
F139.66665
sg3
I67
sg4
(idecision_tree
continuous_decision_tree
p4298
(dp4299
g2
F0.30431400000000003
sg3
I49
sg4
(idecision_tree
decision_tree
p4300
(dp4301
g3
I47
sg40
(dp4302
S'01-NOV-2009'
p4303
(idecision_tree
decision_tree_leaf
p4304
(dp4305
g17
g18
(g19
tp4306
Rp4307
S'PKP'
p4308
I1
ssg26
g4308
sbsS'02-MAY-2009'
p4309
(idecision_tree
decision_tree_leaf
p4310
(dp4311
g17
g18
(g19
tp4312
Rp4313
g22
I1
ssg26
g22
sbssbsg27
(idecision_tree
decision_tree_leaf
p4314
(dp4315
g17
g18
(g19
tp4316
Rp4317
g22
I1
ssg26
g22
sbsbsg27
(idecision_tree
continuous_decision_tree
p4318
(dp4319
g2
F18.0
sg3
I67
sg4
(idecision_tree
continuous_decision_tree
p4320
(dp4321
g2
F0.422041
sg3
I51
sg4
(idecision_tree
decision_tree
p4322
(dp4323
g3
I47
sg40
(dp4324
S'12-FEB-2009'
p4325
(idecision_tree
decision_tree_leaf
p4326
(dp4327
g17
g18
(g19
tp4328
Rp4329
g22
I1
ssg26
g22
sbsS'25-MAY-2009'
p4330
(idecision_tree
decision_tree_leaf
p4331
(dp4332
g17
g18
(g19
tp4333
Rp4334
S'PKP'
p4335
I1
ssg26
g4335
sbssbsg27
(idecision_tree
decision_tree_leaf
p4336
(dp4337
g17
g18
(g19
tp4338
Rp4339
g22
I1
ssg26
g22
sbsbsg27
(idecision_tree
decision_tree_leaf
p4340
(dp4341
g17
g18
(g19
tp4342
Rp4343
g22
I5
sS'Pn'
p4344
I1
sS'Lg'
p4345
I1
ssg26
g22
sbsbsbsg27
(idecision_tree
continuous_decision_tree
p4346
(dp4347
g2
F0.0
sg3
I67
sg4
(idecision_tree
continuous_decision_tree
p4348
(dp4349
g2
F0.560028
sg3
I52
sg4
(idecision_tree
decision_tree_leaf
p4350
(dp4351
g17
g18
(g19
tp4352
Rp4353
g22
I5
sg70
I1
sS'PKP'
p4354
I2
ssg26
g22
sbsg27
(idecision_tree
decision_tree_leaf
p4355
(dp4356
g17
g18
(g19
tp4357
Rp4358
g22
I3
sS'Pn'
p4359
I2
ssg26
g22
sbsbsg27
(idecision_tree
continuous_decision_tree
p4360
(dp4361
g2
F-168.25
sg3
I67
sg4
(idecision_tree
decision_tree
p4362
(dp4363
g3
I47
sg40
(dp4364
S'27-FEB-2009'
p4365
(idecision_tree
decision_tree_leaf
p4366
(dp4367
g17
g18
(g19
tp4368
Rp4369
g22
I1
ssg26
g22
sbsS'17-JAN-2009'
p4370
(idecision_tree
decision_tree_leaf
p4371
(dp4372
g17
g18
(g19
tp4373
Rp4374
S'Lg'
p4375
I1
ssg26
g4375
sbssbsg27
(idecision_tree
decision_tree
p4376
(dp4377
g3
I47
sg40
(dp4378
S'19-AUG-2009'
p4379
(idecision_tree
decision_tree_leaf
p4380
(dp4381
g17
g18
(g19
tp4382
Rp4383
g22
I1
ssg26
g22
sbsS'15-FEB-2009'
p4384
(idecision_tree
decision_tree_leaf
p4385
(dp4386
g17
g18
(g19
tp4387
Rp4388
S'PKP'
p4389
I1
ssg26
g4389
sbssbsbsbsbsg27
(idecision_tree
continuous_decision_tree
p4390
(dp4391
g2
F0.0
sg3
I67
sg4
(idecision_tree
continuous_decision_tree
p4392
(dp4393
g2
F0.5093544999999999
sg3
I48
sg4
(idecision_tree
decision_tree_leaf
p4394
(dp4395
g17
g18
(g19
tp4396
Rp4397
g22
I3
sS'PKP'
p4398
I2
ssg26
g22
sbsg27
(idecision_tree
decision_tree_leaf
p4399
(dp4400
g17
g18
(g19
tp4401
Rp4402
g22
I3
sS'PKP'
p4403
I2
ssg26
g22
sbsbsg27
(idecision_tree
decision_tree_leaf
p4404
(dp4405
g17
g18
(g19
tp4406
Rp4407
g22
I1
ssg26
g22
sbsbsbsbsg27
(idecision_tree
continuous_decision_tree
p4408
(dp4409
g2
F-51.75
sg3
I67
sg4
(idecision_tree
decision_tree
p4410
(dp4411
g3
I47
sg40
(dp4412
S'03-DEC-2009'
p4413
(idecision_tree
decision_tree_leaf
p4414
(dp4415
g17
g18
(g19
tp4416
Rp4417
g22
I1
ssg26
g22
sbsS'08-JUL-2009'
p4418
(idecision_tree
decision_tree_leaf
p4419
(dp4420
g17
g18
(g19
tp4421
Rp4422
g22
I1
ssg26
g22
sbsS'15-JAN-2009'
p4423
(idecision_tree
decision_tree_leaf
p4424
(dp4425
g17
g18
(g19
tp4426
Rp4427
g22
I1
ssg26
g22
sbsS'02-JUL-2009'
p4428
(idecision_tree
decision_tree_leaf
p4429
(dp4430
g17
g18
(g19
tp4431
Rp4432
S'Pn'
p4433
I1
ssg26
g4433
sbssbsg27
(idecision_tree
continuous_decision_tree
p4434
(dp4435
g2
F-1.0
sg3
I66
sg4
(idecision_tree
decision_tree_leaf
p4436
(dp4437
g17
g18
(g19
tp4438
Rp4439
g22
I9
sg70
I1
sS'Pn'
p4440
I1
ssg26
g22
sbsg27
(idecision_tree
decision_tree
p4441
(dp4442
g3
I47
sg40
(dp4443
S'26-NOV-2009'
p4444
(idecision_tree
decision_tree_leaf
p4445
(dp4446
g17
g18
(g19
tp4447
Rp4448
g22
I1
ssg26
g22
sbsS'28-SEP-2009'
p4449
(idecision_tree
decision_tree_leaf
p4450
(dp4451
g17
g18
(g19
tp4452
Rp4453
S'Pn'
p4454
I1
ssg26
g4454
sbssbsbsbsbsbsg27
(idecision_tree
continuous_decision_tree
p4455
(dp4456
g2
F0.447584
sg3
I50
sg4
(idecision_tree
continuous_decision_tree
p4457
(dp4458
g2
F-9.5
sg3
I59
sg4
(idecision_tree
continuous_decision_tree
p4459
(dp4460
g2
F-1.0
sg3
I66
sg4
(idecision_tree
continuous_decision_tree
p4461
(dp4462
g2
F-9.322915
sg3
I63
sg4
(idecision_tree
continuous_decision_tree
p4463
(dp4464
g2
F0.58761
sg3
I50
sg4
(idecision_tree
decision_tree
p4465
(dp4466
g3
I47
sg40
(dp4467
S'12-JAN-2009'
p4468
(idecision_tree
decision_tree_leaf
p4469
(dp4470
g17
g18
(g19
tp4471
Rp4472
S'Pn'
p4473
I1
ssg26
g4473
sbsS'26-FEB-2009'
p4474
(idecision_tree
decision_tree_leaf
p4475
(dp4476
g17
g18
(g19
tp4477
Rp4478
g22
I1
ssg26
g22
sbsS'02-MAR-2009'
p4479
(idecision_tree
decision_tree_leaf
p4480
(dp4481
g17
g18
(g19
tp4482
Rp4483
g22
I1
ssg26
g22
sbsS'24-JAN-2009'
p4484
(idecision_tree
decision_tree_leaf
p4485
(dp4486
g17
g18
(g19
tp4487
Rp4488
g22
I1
ssg26
g22
sbssbsg27
(idecision_tree
continuous_decision_tree
p4489
(dp4490
g2
F0.5113815
sg3
I50
sg4
(idecision_tree
decision_tree
p4491
(dp4492
g3
I47
sg40
(dp4493
S'25-FEB-2009'
p4494
(idecision_tree
decision_tree_leaf
p4495
(dp4496
g17
g18
(g19
tp4497
Rp4498
g22
I1
ssg26
g22
sbsS'12-SEP-2009'
p4499
(idecision_tree
decision_tree_leaf
p4500
(dp4501
g17
g18
(g19
tp4502
Rp4503
S'Pn'
p4504
I1
ssg26
g4504
sbssbsg27
(idecision_tree
decision_tree_leaf
p4505
(dp4506
g17
g18
(g19
tp4507
Rp4508
g22
I1
ssg26
g22
sbsbsbsg27
(idecision_tree
continuous_decision_tree
p4509
(dp4510
g2
F-0.5
sg3
I66
sg4
(idecision_tree
continuous_decision_tree
p4511
(dp4512
g2
F-14.0
sg3
I63
sg4
(idecision_tree
decision_tree
p4513
(dp4514
g3
I47
sg40
(dp4515
S'02-SEP-2009'
p4516
(idecision_tree
decision_tree_leaf
p4517
(dp4518
g17
g18
(g19
tp4519
Rp4520
g22
I1
ssg26
g22
sbsS'23-MAR-2009'
p4521
(idecision_tree
decision_tree_leaf
p4522
(dp4523
g17
g18
(g19
tp4524
Rp4525
S'Pn'
p4526
I1
ssg26
g4526
sbssbsg27
(idecision_tree
decision_tree_leaf
p4527
(dp4528
g17
g18
(g19
tp4529
Rp4530
g22
I1
ssg26
g22
sbsbsg27
(idecision_tree
decision_tree
p4531
(dp4532
g3
I47
sg40
(dp4533
S'16-NOV-2009'
p4534
(idecision_tree
decision_tree_leaf
p4535
(dp4536
g17
g18
(g19
tp4537
Rp4538
g22
I1
ssg26
g22
sbsS'22-FEB-2009'
p4539
(idecision_tree
decision_tree_leaf
p4540
(dp4541
g17
g18
(g19
tp4542
Rp4543
S'Pn'
p4544
I1
ssg26
g4544
sbsS'12-JAN-2009'
p4545
(idecision_tree
decision_tree_leaf
p4546
(dp4547
g17
g18
(g19
tp4548
Rp4549
g22
I1
ssg26
g22
sbsS'03-MAR-2009'
p4550
(idecision_tree
decision_tree_leaf
p4551
(dp4552
g17
g18
(g19
tp4553
Rp4554
g22
I1
ssg26
g22
sbssbsbsbsg27
(idecision_tree
decision_tree
p4555
(dp4556
g3
I47
sg40
(dp4557
S'09-SEP-2009'
p4558
(idecision_tree
decision_tree_leaf
p4559
(dp4560
g17
g18
(g19
tp4561
Rp4562
g22
I1
ssg26
g22
sbsS'08-DEC-2009'
p4563
(idecision_tree
decision_tree_leaf
p4564
(dp4565
g17
g18
(g19
tp4566
Rp4567
g22
I1
ssg26
g22
sbsS'22-FEB-2009'
p4568
(idecision_tree
decision_tree_leaf
p4569
(dp4570
g17
g18
(g19
tp4571
Rp4572
S'Pn'
p4573
I1
ssg26
g4573
sbsS'02-JUL-2009'
p4574
(idecision_tree
decision_tree_leaf
p4575
(dp4576
g17
g18
(g19
tp4577
Rp4578
g22
I1
ssg26
g22
sbsS'06-MAR-2009'
p4579
(idecision_tree
decision_tree_leaf
p4580
(dp4581
g17
g18
(g19
tp4582
Rp4583
g22
I1
ssg26
g22
sbsS'18-SEP-2009'
p4584
(idecision_tree
decision_tree_leaf
p4585
(dp4586
g17
g18
(g19
tp4587
Rp4588
g22
I1
ssg26
g22
sbssbsbsg27
(idecision_tree
decision_tree_leaf
p4589
(dp4590
g17
g18
(g19
tp4591
Rp4592
g22
I26
sg70
I2
sS'Pn'
p4593
I3
sS'Lg'
p4594
I1
ssg26
g22
sbsbsg27
(idecision_tree
continuous_decision_tree
p4595
(dp4596
g2
F-22.0625
sg3
I63
sg4
(idecision_tree
continuous_decision_tree
p4597
(dp4598
g2
F-11.875
sg3
I63
sg4
(idecision_tree
continuous_decision_tree
p4599
(dp4600
g2
F1.0
sg3
I53
sg4
(idecision_tree
decision_tree_leaf
p4601
(dp4602
g17
g18
(g19
tp4603
Rp4604
g22
I22
sS'PKP'
p4605
I7
ssg26
g22
sbsg27
(idecision_tree
decision_tree_leaf
p4606
(dp4607
g17
g18
(g19
tp4608
Rp4609
g22
I4
ssg26
g22
sbsbsg27
(idecision_tree
decision_tree_leaf
p4610
(dp4611
g17
g18
(g19
tp4612
Rp4613
g22
I15
sS'PKP'
p4614
I4
ssg26
g22
sbsbsg27
(idecision_tree
decision_tree_leaf
p4615
(dp4616
g17
g18
(g19
tp4617
Rp4618
g22
I56
sS'PKP'
p4619
I12
sS'Pn'
p4620
I3
ssg26
g22
sbsbsbsbsbsg27
(idecision_tree
continuous_decision_tree
p4621
(dp4622
g2
F2.75
sg3
I59
sg4
(idecision_tree
continuous_decision_tree
p4623
(dp4624
g2
F16.625
sg3
I59
sg4
(idecision_tree
decision_tree
p4625
(dp4626
g3
I47
sg40
(dp4627
S'24-SEP-2009'
p4628
(idecision_tree
decision_tree_leaf
p4629
(dp4630
g17
g18
(g19
tp4631
Rp4632
g22
I1
ssg26
g22
sbsS'09-DEC-2009'
p4633
(idecision_tree
decision_tree_leaf
p4634
(dp4635
g17
g18
(g19
tp4636
Rp4637
g70
I1
ssg26
g70
sbsS'22-MAR-2009'
p4638
(idecision_tree
decision_tree_leaf
p4639
(dp4640
g17
g18
(g19
tp4641
Rp4642
g22
I1
ssg26
g22
sbsS'01-SEP-2009'
p4643
(idecision_tree
decision_tree_leaf
p4644
(dp4645
g17
g18
(g19
tp4646
Rp4647
S'Pn'
p4648
I1
ssg26
g4648
sbsS'06-DEC-2009'
p4649
(idecision_tree
decision_tree_leaf
p4650
(dp4651
g17
g18
(g19
tp4652
Rp4653
g70
I1
ssg26
g70
sbsS'28-APR-2009'
p4654
(idecision_tree
decision_tree_leaf
p4655
(dp4656
g17
g18
(g19
tp4657
Rp4658
g22
I1
ssg26
g22
sbsS'18-MAY-2009'
p4659
(idecision_tree
decision_tree_leaf
p4660
(dp4661
g17
g18
(g19
tp4662
Rp4663
S'Pn'
p4664
I1
ssg26
g4664
sbsS'16-SEP-2009'
p4665
(idecision_tree
decision_tree_leaf
p4666
(dp4667
g17
g18
(g19
tp4668
Rp4669
g22
I1
ssg26
g22
sbsS'05-JUL-2009'
p4670
(idecision_tree
decision_tree_leaf
p4671
(dp4672
g17
g18
(g19
tp4673
Rp4674
g22
I1
ssg26
g22
sbsS'26-JUL-2009'
p4675
(idecision_tree
decision_tree_leaf
p4676
(dp4677
g17
g18
(g19
tp4678
Rp4679
g22
I2
ssg26
g22
sbsS'04-NOV-2009'
p4680
(idecision_tree
decision_tree
p4681
(dp4682
g3
I13
sg40
(dp4683
S'Z1020'
p4684
(idecision_tree
decision_tree_leaf
p4685
(dp4686
g17
g18
(g19
tp4687
Rp4688
S'Lg'
p4689
I1
ssg26
g4689
sbsS'Z1530'
p4690
(idecision_tree
decision_tree_leaf
p4691
(dp4692
g17
g18
(g19
tp4693
Rp4694
g22
I1
ssg26
g22
sbssbsS'28-OCT-2009'
p4695
(idecision_tree
decision_tree_leaf
p4696
(dp4697
g17
g18
(g19
tp4698
Rp4699
g22
I1
ssg26
g22
sbsS'14-FEB-2009'
p4700
(idecision_tree
decision_tree_leaf
p4701
(dp4702
g17
g18
(g19
tp4703
Rp4704
g22
I1
ssg26
g22
sbsS'27-OCT-2009'
p4705
(idecision_tree
decision_tree_leaf
p4706
(dp4707
g17
g18
(g19
tp4708
Rp4709
g22
I1
ssg26
g22
sbsS'24-MAY-2009'
p4710
(idecision_tree
decision_tree_leaf
p4711
(dp4712
g17
g18
(g19
tp4713
Rp4714
g22
I1
ssg26
g22
sbsS'02-OCT-2009'
p4715
(idecision_tree
decision_tree_leaf
p4716
(dp4717
g17
g18
(g19
tp4718
Rp4719
g22
I1
ssg26
g22
sbsS'16-JAN-2009'
p4720
(idecision_tree
decision_tree_leaf
p4721
(dp4722
g17
g18
(g19
tp4723
Rp4724
g22
I1
ssg26
g22
sbsS'19-JUN-2009'
p4725
(idecision_tree
decision_tree_leaf
p4726
(dp4727
g17
g18
(g19
tp4728
Rp4729
g22
I1
ssg26
g22
sbsS'04-MAY-2009'
p4730
(idecision_tree
decision_tree_leaf
p4731
(dp4732
g17
g18
(g19
tp4733
Rp4734
g22
I1
ssg26
g22
sbsS'18-SEP-2009'
p4735
(idecision_tree
decision_tree_leaf
p4736
(dp4737
g17
g18
(g19
tp4738
Rp4739
g22
I1
ssg26
g22
sbsS'27-APR-2009'
p4740
(idecision_tree
decision_tree_leaf
p4741
(dp4742
g17
g18
(g19
tp4743
Rp4744
S'Pn'
p4745
I1
ssg26
g4745
sbsS'09-JUN-2009'
p4746
(idecision_tree
decision_tree_leaf
p4747
(dp4748
g17
g18
(g19
tp4749
Rp4750
g22
I1
ssg26
g22
sbsS'11-AUG-2009'
p4751
(idecision_tree
decision_tree_leaf
p4752
(dp4753
g17
g18
(g19
tp4754
Rp4755
g22
I1
ssg26
g22
sbsS'01-JUL-2009'
p4756
(idecision_tree
decision_tree_leaf
p4757
(dp4758
g17
g18
(g19
tp4759
Rp4760
g22
I1
ssg26
g22
sbsS'27-MAY-2009'
p4761
(idecision_tree
decision_tree_leaf
p4762
(dp4763
g17
g18
(g19
tp4764
Rp4765
g22
I1
ssg26
g22
sbsS'19-MAY-2009'
p4766
(idecision_tree
decision_tree_leaf
p4767
(dp4768
g17
g18
(g19
tp4769
Rp4770
g22
I1
ssg26
g22
sbsS'13-FEB-2009'
p4771
(idecision_tree
decision_tree_leaf
p4772
(dp4773
g17
g18
(g19
tp4774
Rp4775
g22
I1
ssg26
g22
sbsS'13-NOV-2009'
p4776
(idecision_tree
decision_tree_leaf
p4777
(dp4778
g17
g18
(g19
tp4779
Rp4780
S'Sn'
p4781
I1
ssg26
g4781
sbsS'12-APR-2009'
p4782
(idecision_tree
decision_tree_leaf
p4783
(dp4784
g17
g18
(g19
tp4785
Rp4786
g22
I1
ssg26
g22
sbsS'06-FEB-2009'
p4787
(idecision_tree
decision_tree_leaf
p4788
(dp4789
g17
g18
(g19
tp4790
Rp4791
g22
I1
ssg26
g22
sbsS'30-JUL-2009'
p4792
(idecision_tree
decision_tree_leaf
p4793
(dp4794
g17
g18
(g19
tp4795
Rp4796
S'Pn'
p4797
I1
ssg26
g4797
sbsS'21-SEP-2009'
p4798
(idecision_tree
decision_tree_leaf
p4799
(dp4800
g17
g18
(g19
tp4801
Rp4802
g22
I1
ssg26
g22
sbsS'24-JUN-2009'
p4803
(idecision_tree
decision_tree_leaf
p4804
(dp4805
g17
g18
(g19
tp4806
Rp4807
g22
I2
ssg26
g22
sbsS'15-SEP-2009'
p4808
(idecision_tree
decision_tree_leaf
p4809
(dp4810
g17
g18
(g19
tp4811
Rp4812
g22
I1
ssg26
g22
sbsS'04-OCT-2009'
p4813
(idecision_tree
decision_tree_leaf
p4814
(dp4815
g17
g18
(g19
tp4816
Rp4817
g22
I1
ssg26
g22
sbsS'13-JUL-2009'
p4818
(idecision_tree
decision_tree_leaf
p4819
(dp4820
g17
g18
(g19
tp4821
Rp4822
g22
I1
ssg26
g22
sbsS'03-SEP-2009'
p4823
(idecision_tree
decision_tree_leaf
p4824
(dp4825
g17
g18
(g19
tp4826
Rp4827
g22
I1
ssg26
g22
sbsS'20-JUN-2009'
p4828
(idecision_tree
decision_tree_leaf
p4829
(dp4830
g17
g18
(g19
tp4831
Rp4832
g22
I2
ssg26
g22
sbsS'17-FEB-2009'
p4833
(idecision_tree
decision_tree_leaf
p4834
(dp4835
g17
g18
(g19
tp4836
Rp4837
g22
I1
ssg26
g22
sbsS'23-MAY-2009'
p4838
(idecision_tree
decision_tree_leaf
p4839
(dp4840
g17
g18
(g19
tp4841
Rp4842
g22
I1
ssg26
g22
sbsS'04-APR-2009'
p4843
(idecision_tree
decision_tree_leaf
p4844
(dp4845
g17
g18
(g19
tp4846
Rp4847
g22
I1
ssg26
g22
sbsS'05-FEB-2009'
p4848
(idecision_tree
decision_tree_leaf
p4849
(dp4850
g17
g18
(g19
tp4851
Rp4852
S'PKP'
p4853
I1
ssg26
g4853
sbsS'19-SEP-2009'
p4854
(idecision_tree
decision_tree_leaf
p4855
(dp4856
g17
g18
(g19
tp4857
Rp4858
g22
I1
ssg26
g22
sbsS'04-JUN-2009'
p4859
(idecision_tree
decision_tree_leaf
p4860
(dp4861
g17
g18
(g19
tp4862
Rp4863
g22
I2
ssg26
g22
sbsS'22-OCT-2009'
p4864
(idecision_tree
decision_tree_leaf
p4865
(dp4866
g17
g18
(g19
tp4867
Rp4868
g70
I1
ssg26
g70
sbsS'24-AUG-2009'
p4869
(idecision_tree
decision_tree_leaf
p4870
(dp4871
g17
g18
(g19
tp4872
Rp4873
S'Pn'
p4874
I1
ssg26
g4874
sbsS'19-AUG-2009'
p4875
(idecision_tree
decision_tree_leaf
p4876
(dp4877
g17
g18
(g19
tp4878
Rp4879
g22
I1
ssg26
g22
sbssbsg27
(idecision_tree
continuous_decision_tree
p4880
(dp4881
g2
F0.63939
sg3
I48
sg4
(idecision_tree
decision_tree
p4882
(dp4883
g3
I47
sg40
(dp4884
S'20-OCT-2009'
p4885
(idecision_tree
decision_tree_leaf
p4886
(dp4887
g17
g18
(g19
tp4888
Rp4889
g22
I2
ssg26
g22
sbsS'02-SEP-2009'
p4890
(idecision_tree
decision_tree_leaf
p4891
(dp4892
g17
g18
(g19
tp4893
Rp4894
g22
I1
ssg26
g22
sbsS'02-FEB-2009'
p4895
(idecision_tree
decision_tree_leaf
p4896
(dp4897
g17
g18
(g19
tp4898
Rp4899
g22
I1
ssg26
g22
sbsS'08-SEP-2009'
p4900
(idecision_tree
decision_tree_leaf
p4901
(dp4902
g17
g18
(g19
tp4903
Rp4904
S'Pn'
p4905
I1
ssg26
g4905
sbsS'23-JAN-2009'
p4906
(idecision_tree
decision_tree_leaf
p4907
(dp4908
g17
g18
(g19
tp4909
Rp4910
S'Sn'
p4911
I1
ssg26
g4911
sbsS'11-JAN-2009'
p4912
(idecision_tree
decision_tree
p4913
(dp4914
g3
I1
sg40
(dp4915
g22
(idecision_tree
decision_tree_leaf
p4916
(dp4917
g17
g18
(g19
tp4918
Rp4919
g22
I1
ssg26
g22
sbsS'Pg'
p4920
(idecision_tree
decision_tree_leaf
p4921
(dp4922
g17
g18
(g19
tp4923
Rp4924
S'Sn'
p4925
I1
ssg26
g4925
sbssbsS'15-JUL-2009'
p4926
(idecision_tree
decision_tree_leaf
p4927
(dp4928
g17
g18
(g19
tp4929
Rp4930
g22
I1
ssg26
g22
sbsS'29-NOV-2009'
p4931
(idecision_tree
decision_tree_leaf
p4932
(dp4933
g17
g18
(g19
tp4934
Rp4935
S'PKP'
p4936
I1
ssg26
g4936
sbsS'24-FEB-2009'
p4937
(idecision_tree
decision_tree_leaf
p4938
(dp4939
g17
g18
(g19
tp4940
Rp4941
S'Pn'
p4942
I1
ssg26
g4942
sbsS'15-AUG-2009'
p4943
(idecision_tree
decision_tree_leaf
p4944
(dp4945
g17
g18
(g19
tp4946
Rp4947
S'Pn'
p4948
I1
ssg26
g4948
sbsS'12-FEB-2009'
p4949
(idecision_tree
decision_tree_leaf
p4950
(dp4951
g17
g18
(g19
tp4952
Rp4953
g22
I3
ssg26
g22
sbsS'05-MAR-2009'
p4954
(idecision_tree
decision_tree_leaf
p4955
(dp4956
g17
g18
(g19
tp4957
Rp4958
g70
I1
ssg26
g70
sbsS'06-SEP-2009'
p4959
(idecision_tree
decision_tree_leaf
p4960
(dp4961
g17
g18
(g19
tp4962
Rp4963
S'Pn'
p4964
I1
ssg26
g4964
sbsS'23-OCT-2009'
p4965
(idecision_tree
decision_tree_leaf
p4966
(dp4967
g17
g18
(g19
tp4968
Rp4969
g22
I1
ssg26
g22
sbsS'21-APR-2009'
p4970
(idecision_tree
decision_tree_leaf
p4971
(dp4972
g17
g18
(g19
tp4973
Rp4974
g22
I1
ssg26
g22
sbsS'20-NOV-2009'
p4975
(idecision_tree
decision_tree_leaf
p4976
(dp4977
g17
g18
(g19
tp4978
Rp4979
g22
I1
ssg26
g22
sbsS'28-JAN-2009'
p4980
(idecision_tree
decision_tree_leaf
p4981
(dp4982
g17
g18
(g19
tp4983
Rp4984
g22
I1
ssg26
g22
sbsS'23-AUG-2009'
p4985
(idecision_tree
decision_tree_leaf
p4986
(dp4987
g17
g18
(g19
tp4988
Rp4989
g22
I1
ssg26
g22
sbsS'04-NOV-2009'
p4990
(idecision_tree
decision_tree_leaf
p4991
(dp4992
g17
g18
(g19
tp4993
Rp4994
g22
I1
ssg26
g22
sbsS'17-APR-2009'
p4995
(idecision_tree
decision_tree_leaf
p4996
(dp4997
g17
g18
(g19
tp4998
Rp4999
g22
I1
ssg26
g22
sbsS'19-JUN-2009'
p5000
(idecision_tree
decision_tree_leaf
p5001
(dp5002
g17
g18
(g19
tp5003
Rp5004
g22
I1
ssg26
g22
sbsS'01-NOV-2009'
p5005
(idecision_tree
decision_tree_leaf
p5006
(dp5007
g17
g18
(g19
tp5008
Rp5009
S'Pn'
p5010
I1
ssg26
g5010
sbsS'08-APR-2009'
p5011
(idecision_tree
decision_tree_leaf
p5012
(dp5013
g17
g18
(g19
tp5014
Rp5015
g22
I1
ssg26
g22
sbsS'05-NOV-2009'
p5016
(idecision_tree
decision_tree_leaf
p5017
(dp5018
g17
g18
(g19
tp5019
Rp5020
g22
I1
ssg26
g22
sbsS'25-MAR-2009'
p5021
(idecision_tree
decision_tree_leaf
p5022
(dp5023
g17
g18
(g19
tp5024
Rp5025
g22
I1
ssg26
g22
sbsS'28-FEB-2009'
p5026
(idecision_tree
decision_tree_leaf
p5027
(dp5028
g17
g18
(g19
tp5029
Rp5030
g22
I1
ssg26
g22
sbsS'27-MAY-2009'
p5031
(idecision_tree
decision_tree_leaf
p5032
(dp5033
g17
g18
(g19
tp5034
Rp5035
g22
I1
ssg26
g22
sbsS'26-JUL-2009'
p5036
(idecision_tree
decision_tree_leaf
p5037
(dp5038
g17
g18
(g19
tp5039
Rp5040
g22
I1
ssg26
g22
sbsS'10-JUL-2009'
p5041
(idecision_tree
decision_tree_leaf
p5042
(dp5043
g17
g18
(g19
tp5044
Rp5045
g22
I2
ssg26
g22
sbsS'06-JAN-2009'
p5046
(idecision_tree
decision_tree_leaf
p5047
(dp5048
g17
g18
(g19
tp5049
Rp5050
g22
I1
ssg26
g22
sbsS'05-JAN-2009'
p5051
(idecision_tree
decision_tree_leaf
p5052
(dp5053
g17
g18
(g19
tp5054
Rp5055
g22
I1
ssg26
g22
sbsS'20-MAR-2009'
p5056
(idecision_tree
decision_tree_leaf
p5057
(dp5058
g17
g18
(g19
tp5059
Rp5060
g22
I1
ssg26
g22
sbsS'13-NOV-2009'
p5061
(idecision_tree
decision_tree_leaf
p5062
(dp5063
g17
g18
(g19
tp5064
Rp5065
g22
I1
ssg26
g22
sbsS'26-JUN-2009'
p5066
(idecision_tree
decision_tree_leaf
p5067
(dp5068
g17
g18
(g19
tp5069
Rp5070
g22
I1
ssg26
g22
sbsS'21-JUL-2009'
p5071
(idecision_tree
decision_tree_leaf
p5072
(dp5073
g17
g18
(g19
tp5074
Rp5075
g22
I1
ssg26
g22
sbsS'22-AUG-2009'
p5076
(idecision_tree
decision_tree_leaf
p5077
(dp5078
g17
g18
(g19
tp5079
Rp5080
S'Pn'
p5081
I1
ssg26
g5081
sbsS'07-SEP-2009'
p5082
(idecision_tree
decision_tree_leaf
p5083
(dp5084
g17
g18
(g19
tp5085
Rp5086
g22
I1
ssg26
g22
sbsS'18-MAR-2009'
p5087
(idecision_tree
decision_tree_leaf
p5088
(dp5089
g17
g18
(g19
tp5090
Rp5091
g22
I1
ssg26
g22
sbsS'16-JUL-2009'
p5092
(idecision_tree
decision_tree_leaf
p5093
(dp5094
g17
g18
(g19
tp5095
Rp5096
g22
I1
ssg26
g22
sbsS'24-MAR-2009'
p5097
(idecision_tree
decision_tree_leaf
p5098
(dp5099
g17
g18
(g19
tp5100
Rp5101
g22
I1
ssg26
g22
sbsS'21-MAY-2009'
p5102
(idecision_tree
decision_tree_leaf
p5103
(dp5104
g17
g18
(g19
tp5105
Rp5106
g22
I1
ssg26
g22
sbsS'26-SEP-2009'
p5107
(idecision_tree
decision_tree_leaf
p5108
(dp5109
g17
g18
(g19
tp5110
Rp5111
g22
I1
ssg26
g22
sbsS'22-DEC-2009'
p5112
(idecision_tree
decision_tree_leaf
p5113
(dp5114
g17
g18
(g19
tp5115
Rp5116
g22
I1
ssg26
g22
sbsS'14-OCT-2009'
p5117
(idecision_tree
decision_tree_leaf
p5118
(dp5119
g17
g18
(g19
tp5120
Rp5121
S'Pn'
p5122
I1
ssg26
g5122
sbsS'22-OCT-2009'
p5123
(idecision_tree
decision_tree_leaf
p5124
(dp5125
g17
g18
(g19
tp5126
Rp5127
g22
I1
ssg26
g22
sbsS'25-JAN-2009'
p5128
(idecision_tree
decision_tree_leaf
p5129
(dp5130
g17
g18
(g19
tp5131
Rp5132
g22
I1
ssg26
g22
sbsS'06-APR-2009'
p5133
(idecision_tree
decision_tree_leaf
p5134
(dp5135
g17
g18
(g19
tp5136
Rp5137
g22
I1
ssg26
g22
sbssbsg27
(idecision_tree
continuous_decision_tree
p5138
(dp5139
g2
F13.33335
sg3
I63
sg4
(idecision_tree
decision_tree_leaf
p5140
(dp5141
g17
g18
(g19
tp5142
Rp5143
g22
I15
sg70
I1
sS'Pn'
p5144
I2
sS'Sn'
p5145
I1
ssg26
g22
sbsg27
(idecision_tree
continuous_decision_tree
p5146
(dp5147
g2
F262.592
sg3
I42
sg4
(idecision_tree
decision_tree_leaf
p5148
(dp5149
g17
g18
(g19
tp5150
Rp5151
g22
I15
sg70
I1
sS'Pn'
p5152
I2
sS'Sn'
p5153
I1
ssg26
g22
sbsg27
(idecision_tree
decision_tree_leaf
p5154
(dp5155
g17
g18
(g19
tp5156
Rp5157
g22
I26
sS'PKP'
p5158
I2
sS'Pn'
p5159
I3
sg70
I2
ssg26
g22
sbsbsbsbsbsg27
(idecision_tree
continuous_decision_tree
p5160
(dp5161
g2
F1.0
sg3
I66
sg4
(idecision_tree
continuous_decision_tree
p5162
(dp5163
g2
F-48.958349999999996
sg3
I67
sg4
(idecision_tree
decision_tree_leaf
p5164
(dp5165
g17
g18
(g19
tp5166
Rp5167
S'Lg'
p5168
I1
sS'PKP'
p5169
I6
sg22
I60
sg70
I3
sS'Sn'
p5170
I2
sS'Pn'
p5171
I8
ssg26
g22
sbsg27
(idecision_tree
decision_tree
p5172
(dp5173
g3
I47
sg40
(dp5174
S'31-JAN-2009'
p5175
(idecision_tree
decision_tree_leaf
p5176
(dp5177
g17
g18
(g19
tp5178
Rp5179
S'Pn'
p5180
I1
ssg26
g5180
sbsS'08-AUG-2009'
p5181
(idecision_tree
decision_tree_leaf
p5182
(dp5183
g17
g18
(g19
tp5184
Rp5185
g22
I1
ssg26
g22
sbsS'02-OCT-2009'
p5186
(idecision_tree
decision_tree_leaf
p5187
(dp5188
g17
g18
(g19
tp5189
Rp5190
g22
I1
ssg26
g22
sbsS'22-JUN-2009'
p5191
(idecision_tree
decision_tree_leaf
p5192
(dp5193
g17
g18
(g19
tp5194
Rp5195
g22
I1
ssg26
g22
sbssbsbsg27
(idecision_tree
continuous_decision_tree
p5196
(dp5197
g2
F0.0
sg3
I58
sg4
(idecision_tree
decision_tree_leaf
p5198
(dp5199
g17
g18
(g19
tp5200
Rp5201
S'Lg'
p5202
I3
sS'PKP'
p5203
I10
sg22
I186
sg70
I10
sS'Sn'
p5204
I3
sS'Pn'
p5205
I17
ssg26
g22
sbsg27
(idecision_tree
continuous_decision_tree
p5206
(dp5207
g2
F-67.75
sg3
I67
sg4
(idecision_tree
continuous_decision_tree
p5208
(dp5209
g2
F-3.0
sg3
I66
sg4
(idecision_tree
decision_tree_leaf
p5210
(dp5211
g17
g18
(g19
tp5212
Rp5213
S'Lg'
p5214
I1
sS'PKP'
p5215
I6
sg22
I83
sg70
I6
sS'Sn'
p5216
I6
sS'Pn'
p5217
I7
ssg26
g22
sbsg27
(idecision_tree
decision_tree
p5218
(dp5219
g3
I47
sg40
(dp5220
S'11-FEB-2009'
p5221
(idecision_tree
decision_tree_leaf
p5222
(dp5223
g17
g18
(g19
tp5224
Rp5225
g22
I1
ssg26
g22
sbsS'18-JUL-2009'
p5226
(idecision_tree
decision_tree_leaf
p5227
(dp5228
g17
g18
(g19
tp5229
Rp5230
g22
I1
ssg26
g22
sbsS'22-FEB-2009'
p5231
(idecision_tree
decision_tree_leaf
p5232
(dp5233
g17
g18
(g19
tp5234
Rp5235
g22
I1
ssg26
g22
sbsS'09-APR-2009'
p5236
(idecision_tree
decision_tree_leaf
p5237
(dp5238
g17
g18
(g19
tp5239
Rp5240
g70
I1
ssg26
g70
sbsS'11-APR-2009'
p5241
(idecision_tree
decision_tree_leaf
p5242
(dp5243
g17
g18
(g19
tp5244
Rp5245
g22
I1
ssg26
g22
sbsS'17-SEP-2009'
p5246
(idecision_tree
decision_tree_leaf
p5247
(dp5248
g17
g18
(g19
tp5249
Rp5250
g22
I1
ssg26
g22
sbsS'01-OCT-2009'
p5251
(idecision_tree
decision_tree_leaf
p5252
(dp5253
g17
g18
(g19
tp5254
Rp5255
g22
I1
ssg26
g22
sbsS'12-APR-2009'
p5256
(idecision_tree
decision_tree_leaf
p5257
(dp5258
g17
g18
(g19
tp5259
Rp5260
g22
I1
ssg26
g22
sbsS'07-JUN-2009'
p5261
(idecision_tree
decision_tree_leaf
p5262
(dp5263
g17
g18
(g19
tp5264
Rp5265
g22
I1
ssg26
g22
sbsS'06-JUN-2009'
p5266
(idecision_tree
decision_tree_leaf
p5267
(dp5268
g17
g18
(g19
tp5269
Rp5270
g22
I1
ssg26
g22
sbssbsbsg27
(idecision_tree
continuous_decision_tree
p5271
(dp5272
g2
F-118.7085
sg3
I67
sg4
(idecision_tree
continuous_decision_tree
p5273
(dp5274
g2
F-25.95835
sg3
I63
sg4
(idecision_tree
decision_tree
p5275
(dp5276
g3
I47
sg40
(dp5277
S'29-MAR-2009'
p5278
(idecision_tree
decision_tree_leaf
p5279
(dp5280
g17
g18
(g19
tp5281
Rp5282
g22
I1
ssg26
g22
sbsS'05-APR-2009'
p5283
(idecision_tree
decision_tree_leaf
p5284
(dp5285
g17
g18
(g19
tp5286
Rp5287
g22
I1
ssg26
g22
sbsS'17-NOV-2009'
p5288
(idecision_tree
decision_tree_leaf
p5289
(dp5290
g17
g18
(g19
tp5291
Rp5292
S'Sn'
p5293
I1
ssg26
g5293
sbsS'25-JUN-2009'
p5294
(idecision_tree
decision_tree_leaf
p5295
(dp5296
g17
g18
(g19
tp5297
Rp5298
g22
I1
ssg26
g22
sbsS'10-JUL-2009'
p5299
(idecision_tree
decision_tree_leaf
p5300
(dp5301
g17
g18
(g19
tp5302
Rp5303
g22
I1
ssg26
g22
sbsS'18-APR-2009'
p5304
(idecision_tree
decision_tree_leaf
p5305
(dp5306
g17
g18
(g19
tp5307
Rp5308
g22
I1
ssg26
g22
sbsS'30-MAR-2009'
p5309
(idecision_tree
decision_tree_leaf
p5310
(dp5311
g17
g18
(g19
tp5312
Rp5313
g22
I1
ssg26
g22
sbsS'31-MAR-2009'
p5314
(idecision_tree
decision_tree_leaf
p5315
(dp5316
g17
g18
(g19
tp5317
Rp5318
g70
I1
ssg26
g70
sbsS'07-JUL-2009'
p5319
(idecision_tree
decision_tree_leaf
p5320
(dp5321
g17
g18
(g19
tp5322
Rp5323
g22
I1
ssg26
g22
sbssbsg27
(idecision_tree
decision_tree
p5324
(dp5325
g3
I47
sg40
(dp5326
S'13-JAN-2009'
p5327
(idecision_tree
decision_tree_leaf
p5328
(dp5329
g17
g18
(g19
tp5330
Rp5331
g22
I1
ssg26
g22
sbsS'19-JUN-2009'
p5332
(idecision_tree
decision_tree_leaf
p5333
(dp5334
g17
g18
(g19
tp5335
Rp5336
g22
I1
ssg26
g22
sbsS'05-FEB-2009'
p5337
(idecision_tree
decision_tree_leaf
p5338
(dp5339
g17
g18
(g19
tp5340
Rp5341
g22
I1
ssg26
g22
sbsS'02-JUN-2009'
p5342
(idecision_tree
decision_tree_leaf
p5343
(dp5344
g17
g18
(g19
tp5345
Rp5346
g70
I1
ssg26
g70
sbssbsbsg27
(idecision_tree
decision_tree
p5347
(dp5348
g3
I47
sg40
(dp5349
S'24-SEP-2009'
p5350
(idecision_tree
decision_tree_leaf
p5351
(dp5352
g17
g18
(g19
tp5353
Rp5354
g70
I1
ssg26
g70
sbsS'14-JUN-2009'
p5355
(idecision_tree
decision_tree_leaf
p5356
(dp5357
g17
g18
(g19
tp5358
Rp5359
g22
I1
ssg26
g22
sbsS'12-FEB-2009'
p5360
(idecision_tree
decision_tree_leaf
p5361
(dp5362
g17
g18
(g19
tp5363
Rp5364
g22
I1
ssg26
g22
sbsS'19-AUG-2009'
p5365
(idecision_tree
decision_tree_leaf
p5366
(dp5367
g17
g18
(g19
tp5368
Rp5369
g22
I1
ssg26
g22
sbsS'16-FEB-2009'
p5370
(idecision_tree
decision_tree_leaf
p5371
(dp5372
g17
g18
(g19
tp5373
Rp5374
g22
I1
ssg26
g22
sbsS'23-JAN-2009'
p5375
(idecision_tree
decision_tree_leaf
p5376
(dp5377
g17
g18
(g19
tp5378
Rp5379
S'PKP'
p5380
I1
ssg26
g5380
sbsS'08-MAR-2009'
p5381
(idecision_tree
decision_tree_leaf
p5382
(dp5383
g17
g18
(g19
tp5384
Rp5385
g22
I1
ssg26
g22
sbsS'14-NOV-2009'
p5386
(idecision_tree
decision_tree_leaf
p5387
(dp5388
g17
g18
(g19
tp5389
Rp5390
g22
I1
ssg26
g22
sbsS'15-FEB-2009'
p5391
(idecision_tree
decision_tree_leaf
p5392
(dp5393
g17
g18
(g19
tp5394
Rp5395
g22
I1
ssg26
g22
sbssbsbsbsbsbsbsb.