(idecision_tree
continuous_decision_tree
p0
(dp1
S'split_point'
p2
F0.333333
sS'attribute'
p3
I8
sS'gt_subtree'
p4
(idecision_tree
continuous_decision_tree
p5
(dp6
g2
F1.0
sg3
I8
sg4
(idecision_tree
continuous_decision_tree
p7
(dp8
g2
F1.04518
sg3
I52
sg4
(idecision_tree
decision_tree_leaf
p9
(dp10
S'counts'
p11
ccollections
defaultdict
p12
(c__builtin__
int
p13
tp14
Rp15
S'Lg'
p16
I1
sS'PKP'
p17
I2
sS'P'
p18
I108
sS'S'
p19
I46
sS'Sn'
p20
I26
sS'Pn'
p21
I18
ssS'value'
p22
g18
sbsS'lt_subtree'
p23
(idecision_tree
continuous_decision_tree
p24
(dp25
g2
F-77.1146
sg3
I67
sg4
(idecision_tree
continuous_decision_tree
p26
(dp27
g2
F0.7763665
sg3
I52
sg4
(idecision_tree
continuous_decision_tree
p28
(dp29
g2
F18.83335
sg3
I59
sg4
(idecision_tree
continuous_decision_tree
p30
(dp31
g2
F87.66665
sg3
I67
sg4
(idecision_tree
continuous_decision_tree
p32
(dp33
g2
F105.35
sg3
I67
sg4
(idecision_tree
decision_tree_leaf
p34
(dp35
g11
g12
(g13
tp36
Rp37
S'Sn'
p38
I1
ssg22
g38
sbsg23
(idecision_tree
decision_tree_leaf
p39
(dp40
g11
g12
(g13
tp41
Rp42
g18
I1
ssg22
g18
sbsbsg23
(idecision_tree
continuous_decision_tree
p43
(dp44
g2
F1.7191
sg3
I48
sg4
(idecision_tree
continuous_decision_tree
p45
(dp46
g2
F64.16665
sg3
I67
sg4
(idecision_tree
decision_tree_leaf
p47
(dp48
g11
g12
(g13
tp49
Rp50
g19
I1
ssg22
g19
sbsg23
(idecision_tree
decision_tree_leaf
p51
(dp52
g11
g12
(g13
tp53
Rp54
g18
I1
ssg22
g18
sbsbsg23
(idecision_tree
continuous_decision_tree
p55
(dp56
g2
F37.041650000000004
sg3
I63
sg4
(idecision_tree
continuous_decision_tree
p57
(dp58
g2
F-1.9499999999999993
sg3
I67
sg4
(idecision_tree
decision_tree_leaf
p59
(dp60
g11
g12
(g13
tp61
Rp62
g18
I1
ssg22
g18
sbsg23
(idecision_tree
decision_tree_leaf
p63
(dp64
g11
g12
(g13
tp65
Rp66
S'Sn'
p67
I1
ssg22
g67
sbsbsg23
(idecision_tree
continuous_decision_tree
p68
(dp69
g2
F31.75
sg3
I63
sg4
(idecision_tree
continuous_decision_tree
p70
(dp71
g2
F59.0
sg3
I67
sg4
(idecision_tree
decision_tree_leaf
p72
(dp73
g11
g12
(g13
tp74
Rp75
g18
I1
ssg22
g18
sbsg23
(idecision_tree
decision_tree_leaf
p76
(dp77
g11
g12
(g13
tp78
Rp79
S'Sn'
p80
I1
ssg22
g80
sbsbsg23
(idecision_tree
continuous_decision_tree
p81
(dp82
g2
F0.805167
sg3
I52
sg4
(idecision_tree
continuous_decision_tree
p83
(dp84
g2
F1.470755
sg3
I39
sg4
(idecision_tree
continuous_decision_tree
p85
(dp86
g2
F26.25
sg3
I67
sg4
(idecision_tree
decision_tree_leaf
p87
(dp88
g11
g12
(g13
tp89
Rp90
g18
I1
ssg22
g18
sbsg23
(idecision_tree
decision_tree_leaf
p91
(dp92
g11
g12
(g13
tp93
Rp94
S'Lg'
p95
I1
ssg22
g95
sbsbsg23
(idecision_tree
decision_tree_leaf
p96
(dp97
g11
g12
(g13
tp98
Rp99
g18
I1
ssg22
g18
sbsbsg23
(idecision_tree
continuous_decision_tree
p100
(dp101
g2
F-10.1
sg3
I67
sg4
(idecision_tree
decision_tree_leaf
p102
(dp103
g11
g12
(g13
tp104
Rp105
g18
I1
ssg22
g18
sbsg23
(idecision_tree
decision_tree_leaf
p106
(dp107
g11
g12
(g13
tp108
Rp109
g19
I1
ssg22
g19
sbsbsbsbsbsbsbsg23
(idecision_tree
continuous_decision_tree
p110
(dp111
g2
F-1.0
sg3
I58
sg4
(idecision_tree
continuous_decision_tree
p112
(dp113
g2
F11.1875
sg3
I63
sg4
(idecision_tree
decision_tree_leaf
p114
(dp115
g11
g12
(g13
tp116
Rp117
g18
I6
sg19
I3
sS'Pn'
p118
I1
sS'Sn'
p119
I1
ssg22
g18
sbsg23
(idecision_tree
continuous_decision_tree
p120
(dp121
g2
F0.0
sg3
I58
sg4
(idecision_tree
continuous_decision_tree
p122
(dp123
g2
F4.0
sg3
I66
sg4
(idecision_tree
continuous_decision_tree
p124
(dp125
g2
F215.6
sg3
I67
sg4
(idecision_tree
decision_tree_leaf
p126
(dp127
g11
g12
(g13
tp128
Rp129
S'Pn'
p130
I1
ssg22
g130
sbsg23
(idecision_tree
decision_tree_leaf
p131
(dp132
g11
g12
(g13
tp133
Rp134
g18
I1
ssg22
g18
sbsbsg23
(idecision_tree
continuous_decision_tree
p135
(dp136
g2
F2.0
sg3
I62
sg4
(idecision_tree
continuous_decision_tree
p137
(dp138
g2
F-7.95833
sg3
I63
sg4
(idecision_tree
decision_tree_leaf
p139
(dp140
g11
g12
(g13
tp141
Rp142
g18
I2
sg19
I1
ssg22
g18
sbsg23
(idecision_tree
decision_tree_leaf
p143
(dp144
g11
g12
(g13
tp145
Rp146
g18
I1
ssg22
g18
sbsbsg23
(idecision_tree
continuous_decision_tree
p147
(dp148
g2
F-24.9167
sg3
I59
sg4
(idecision_tree
continuous_decision_tree
p149
(dp150
g2
F1.0
sg3
I58
sg4
(idecision_tree
continuous_decision_tree
p151
(dp152
g2
F1.0
sg3
I66
sg4
(idecision_tree
continuous_decision_tree
p153
(dp154
g2
F0.38273999999999997
sg3
I51
sg4
(idecision_tree
continuous_decision_tree
p155
(dp156
g2
F0.5853535
sg3
I50
sg4
(idecision_tree
continuous_decision_tree
p157
(dp158
g2
F9.0
sg3
I67
sg4
(idecision_tree
decision_tree_leaf
p159
(dp160
g11
g12
(g13
tp161
Rp162
S'Sn'
p163
I1
ssg22
g163
sbsg23
(idecision_tree
decision_tree_leaf
p164
(dp165
g11
g12
(g13
tp166
Rp167
g18
I1
ssg22
g18
sbsbsg23
(idecision_tree
continuous_decision_tree
p168
(dp169
g2
F-3.933349999999999
sg3
I67
sg4
(idecision_tree
decision_tree_leaf
p170
(dp171
g11
g12
(g13
tp172
Rp173
S'Sn'
p174
I1
ssg22
g174
sbsg23
(idecision_tree
decision_tree_leaf
p175
(dp176
g11
g12
(g13
tp177
Rp178
S'Pn'
p179
I1
ssg22
g179
sbsbsbsg23
(idecision_tree
continuous_decision_tree
p180
(dp181
g2
F8.5625
sg3
I67
sg4
(idecision_tree
decision_tree_leaf
p182
(dp183
g11
g12
(g13
tp184
Rp185
S'Pn'
p186
I1
ssg22
g186
sbsg23
(idecision_tree
decision_tree_leaf
p187
(dp188
g11
g12
(g13
tp189
Rp190
g18
I1
ssg22
g18
sbsbsbsg23
(idecision_tree
continuous_decision_tree
p191
(dp192
g2
F-69.5
sg3
I67
sg4
(idecision_tree
decision_tree_leaf
p193
(dp194
g11
g12
(g13
tp195
Rp196
g19
I1
ssg22
g19
sbsg23
(idecision_tree
decision_tree_leaf
p197
(dp198
g11
g12
(g13
tp199
Rp200
S'Sn'
p201
I1
ssg22
g201
sbsbsbsg23
(idecision_tree
continuous_decision_tree
p202
(dp203
g2
F0.0
sg3
I67
sg4
(idecision_tree
decision_tree_leaf
p204
(dp205
g11
g12
(g13
tp206
Rp207
g18
I9
sg19
I2
sS'Pn'
p208
I2
sS'Sn'
p209
I1
ssg22
g18
sbsg23
(idecision_tree
continuous_decision_tree
p210
(dp211
g2
F0.653776
sg3
I49
sg4
(idecision_tree
continuous_decision_tree
p212
(dp213
g2
F-26.57145
sg3
I67
sg4
(idecision_tree
decision_tree_leaf
p214
(dp215
g11
g12
(g13
tp216
Rp217
g18
I1
ssg22
g18
sbsg23
(idecision_tree
decision_tree_leaf
p218
(dp219
g11
g12
(g13
tp220
Rp221
S'Sn'
p222
I1
ssg22
g222
sbsbsg23
(idecision_tree
continuous_decision_tree
p223
(dp224
g2
F0.812929
sg3
I52
sg4
(idecision_tree
continuous_decision_tree
p225
(dp226
g2
F-36.9
sg3
I67
sg4
(idecision_tree
decision_tree_leaf
p227
(dp228
g11
g12
(g13
tp229
Rp230
g18
I1
ssg22
g18
sbsg23
(idecision_tree
decision_tree_leaf
p231
(dp232
g11
g12
(g13
tp233
Rp234
S'Sn'
p235
I1
ssg22
g235
sbsbsg23
(idecision_tree
decision_tree_leaf
p236
(dp237
g11
g12
(g13
tp238
Rp239
g18
I1
ssg22
g18
sbsbsbsbsbsg23
(idecision_tree
continuous_decision_tree
p240
(dp241
g2
F-62.25
sg3
I67
sg4
(idecision_tree
decision_tree_leaf
p242
(dp243
g11
g12
(g13
tp244
Rp245
S'Sn'
p246
I1
ssg22
g246
sbsg23
(idecision_tree
decision_tree_leaf
p247
(dp248
g11
g12
(g13
tp249
Rp250
g19
I1
ssg22
g19
sbsbsbsbsbsg23
(idecision_tree
continuous_decision_tree
p251
(dp252
g2
F-38.05
sg3
I63
sg4
(idecision_tree
continuous_decision_tree
p253
(dp254
g2
F0.9490909999999999
sg3
I52
sg4
(idecision_tree
continuous_decision_tree
p255
(dp256
g2
F0.541226
sg3
I51
sg4
(idecision_tree
decision_tree_leaf
p257
(dp258
g11
g12
(g13
tp259
Rp260
g18
I1
ssg22
g18
sbsg23
(idecision_tree
continuous_decision_tree
p261
(dp262
g2
F2.42636
sg3
I39
sg4
(idecision_tree
continuous_decision_tree
p263
(dp264
g2
F29.166649999999997
sg3
I67
sg4
(idecision_tree
decision_tree_leaf
p265
(dp266
g11
g12
(g13
tp267
Rp268
g18
I1
ssg22
g18
sbsg23
(idecision_tree
decision_tree_leaf
p269
(dp270
g11
g12
(g13
tp271
Rp272
S'Sn'
p273
I1
ssg22
g273
sbsbsg23
(idecision_tree
decision_tree_leaf
p274
(dp275
g11
g12
(g13
tp276
Rp277
g18
I1
ssg22
g18
sbsbsbsg23
(idecision_tree
continuous_decision_tree
p278
(dp279
g2
F-24.05
sg3
I67
sg4
(idecision_tree
decision_tree_leaf
p280
(dp281
g11
g12
(g13
tp282
Rp283
g18
I1
ssg22
g18
sbsg23
(idecision_tree
decision_tree_leaf
p284
(dp285
g11
g12
(g13
tp286
Rp287
g19
I1
ssg22
g19
sbsbsbsg23
(idecision_tree
continuous_decision_tree
p288
(dp289
g2
F-27.0
sg3
I59
sg4
(idecision_tree
continuous_decision_tree
p290
(dp291
g2
F-52.833349999999996
sg3
I67
sg4
(idecision_tree
decision_tree_leaf
p292
(dp293
g11
g12
(g13
tp294
Rp295
g18
I1
ssg22
g18
sbsg23
(idecision_tree
decision_tree_leaf
p296
(dp297
g11
g12
(g13
tp298
Rp299
S'Sn'
p300
I1
ssg22
g300
sbsbsg23
(idecision_tree
decision_tree_leaf
p301
(dp302
g11
g12
(g13
tp303
Rp304
g18
I1
ssg22
g18
sbsbsbsbsbsg23
(idecision_tree
continuous_decision_tree
p305
(dp306
g2
F-13.625
sg3
I67
sg4
(idecision_tree
continuous_decision_tree
p307
(dp308
g2
F-2.0
sg3
I66
sg4
(idecision_tree
continuous_decision_tree
p309
(dp310
g2
F-13.25
sg3
I67
sg4
(idecision_tree
continuous_decision_tree
p311
(dp312
g2
F31.75
sg3
I67
sg4
(idecision_tree
decision_tree_leaf
p313
(dp314
g11
g12
(g13
tp315
Rp316
S'Sn'
p317
I1
ssg22
g317
sbsg23
(idecision_tree
decision_tree_leaf
p318
(dp319
g11
g12
(g13
tp320
Rp321
g18
I1
ssg22
g18
sbsbsg23
(idecision_tree
decision_tree_leaf
p322
(dp323
g11
g12
(g13
tp324
Rp325
S'Pn'
p326
I1
ssg22
g326
sbsbsg23
(idecision_tree
decision_tree_leaf
p327
(dp328
g11
g12
(g13
tp329
Rp330
g18
I1
ssg22
g18
sbsbsg23
(idecision_tree
continuous_decision_tree
p331
(dp332
g2
F0.808215
sg3
I52
sg4
(idecision_tree
continuous_decision_tree
p333
(dp334
g2
F1.882625
sg3
I39
sg4
(idecision_tree
continuous_decision_tree
p335
(dp336
g2
F-24.25
sg3
I63
sg4
(idecision_tree
continuous_decision_tree
p337
(dp338
g2
F-30.0893
sg3
I67
sg4
(idecision_tree
decision_tree_leaf
p339
(dp340
g11
g12
(g13
tp341
Rp342
g18
I1
ssg22
g18
sbsg23
(idecision_tree
decision_tree_leaf
p343
(dp344
g11
g12
(g13
tp345
Rp346
S'Sn'
p347
I1
ssg22
g347
sbsbsg23
(idecision_tree
continuous_decision_tree
p348
(dp349
g2
F-28.125
sg3
I67
sg4
(idecision_tree
decision_tree_leaf
p350
(dp351
g11
g12
(g13
tp352
Rp353
g18
I1
ssg22
g18
sbsg23
(idecision_tree
decision_tree_leaf
p354
(dp355
g11
g12
(g13
tp356
Rp357
g19
I1
ssg22
g19
sbsbsbsg23
(idecision_tree
continuous_decision_tree
p358
(dp359
g2
F-25.0
sg3
I67
sg4
(idecision_tree
decision_tree_leaf
p360
(dp361
g11
g12
(g13
tp362
Rp363
g18
I1
ssg22
g18
sbsg23
(idecision_tree
decision_tree_leaf
p364
(dp365
g11
g12
(g13
tp366
Rp367
S'Pn'
p368
I1
ssg22
g368
sbsbsbsg23
(idecision_tree
continuous_decision_tree
p369
(dp370
g2
F-23.75
sg3
I67
sg4
(idecision_tree
decision_tree_leaf
p371
(dp372
g11
g12
(g13
tp373
Rp374
g18
I1
ssg22
g18
sbsg23
(idecision_tree
decision_tree_leaf
p375
(dp376
g11
g12
(g13
tp377
Rp378
S'Sn'
p379
I1
ssg22
g379
sbsbsbsbsbsbsg23
(idecision_tree
continuous_decision_tree
p380
(dp381
g2
F0.337178
sg3
I52
sg4
(idecision_tree
continuous_decision_tree
p382
(dp383
g2
F20.475
sg3
I59
sg4
(idecision_tree
continuous_decision_tree
p384
(dp385
g2
F79.59375
sg3
I67
sg4
(idecision_tree
continuous_decision_tree
p386
(dp387
g2
F140.0
sg3
I67
sg4
(idecision_tree
decision_tree_leaf
p388
(dp389
g11
g12
(g13
tp390
Rp391
g18
I1
ssg22
g18
sbsg23
(idecision_tree
decision_tree_leaf
p392
(dp393
g11
g12
(g13
tp394
Rp395
S'Sn'
p396
I1
ssg22
g396
sbsbsg23
(idecision_tree
continuous_decision_tree
p397
(dp398
g2
F54.416650000000004
sg3
I67
sg4
(idecision_tree
continuous_decision_tree
p399
(dp400
g2
F71.34375
sg3
I67
sg4
(idecision_tree
decision_tree_leaf
p401
(dp402
g11
g12
(g13
tp403
Rp404
g18
I1
ssg22
g18
sbsg23
(idecision_tree
decision_tree_leaf
p405
(dp406
g11
g12
(g13
tp407
Rp408
S'Sn'
p409
I1
ssg22
g409
sbsbsg23
(idecision_tree
continuous_decision_tree
p410
(dp411
g2
F39.6667
sg3
I67
sg4
(idecision_tree
continuous_decision_tree
p412
(dp413
g2
F42.0
sg3
I67
sg4
(idecision_tree
decision_tree_leaf
p414
(dp415
g11
g12
(g13
tp416
Rp417
g18
I1
ssg22
g18
sbsg23
(idecision_tree
decision_tree_leaf
p418
(dp419
g11
g12
(g13
tp420
Rp421
g19
I1
ssg22
g19
sbsbsg23
(idecision_tree
continuous_decision_tree
p422
(dp423
g2
F3.0
sg3
I66
sg4
(idecision_tree
continuous_decision_tree
p424
(dp425
g2
F28.15
sg3
I67
sg4
(idecision_tree
continuous_decision_tree
p426
(dp427
g2
F29.0
sg3
I59
sg4
(idecision_tree
continuous_decision_tree
p428
(dp429
g2
F34.583349999999996
sg3
I67
sg4
(idecision_tree
decision_tree_leaf
p430
(dp431
g11
g12
(g13
tp432
Rp433
g18
I1
ssg22
g18
sbsg23
(idecision_tree
decision_tree_leaf
p434
(dp435
g11
g12
(g13
tp436
Rp437
S'Pn'
p438
I1
ssg22
g438
sbsbsg23
(idecision_tree
decision_tree_leaf
p439
(dp440
g11
g12
(g13
tp441
Rp442
g18
I1
ssg22
g18
sbsbsg23
(idecision_tree
continuous_decision_tree
p443
(dp444
g2
F23.0
sg3
I67
sg4
(idecision_tree
decision_tree_leaf
p445
(dp446
g11
g12
(g13
tp447
Rp448
g18
I1
ssg22
g18
sbsg23
(idecision_tree
decision_tree_leaf
p449
(dp450
g11
g12
(g13
tp451
Rp452
S'Sn'
p453
I1
ssg22
g453
sbsbsbsg23
(idecision_tree
continuous_decision_tree
p454
(dp455
g2
F27.5
sg3
I67
sg4
(idecision_tree
decision_tree_leaf
p456
(dp457
g11
g12
(g13
tp458
Rp459
g18
I1
ssg22
g18
sbsg23
(idecision_tree
decision_tree_leaf
p460
(dp461
g11
g12
(g13
tp462
Rp463
g19
I1
ssg22
g19
sbsbsbsbsbsbsg23
(idecision_tree
continuous_decision_tree
p464
(dp465
g2
F13.47915
sg3
I63
sg4
(idecision_tree
continuous_decision_tree
p466
(dp467
g2
F17.16665
sg3
I67
sg4
(idecision_tree
continuous_decision_tree
p468
(dp469
g2
F4.5
sg3
I66
sg4
(idecision_tree
continuous_decision_tree
p470
(dp471
g2
F18.0238
sg3
I67
sg4
(idecision_tree
decision_tree_leaf
p472
(dp473
g11
g12
(g13
tp474
Rp475
S'Pn'
p476
I1
ssg22
g476
sbsg23
(idecision_tree
decision_tree_leaf
p477
(dp478
g11
g12
(g13
tp479
Rp480
g18
I1
ssg22
g18
sbsbsg23
(idecision_tree
continuous_decision_tree
p481
(dp482
g2
F4.0
sg3
I66
sg4
(idecision_tree
continuous_decision_tree
p483
(dp484
g2
F70.58335
sg3
I67
sg4
(idecision_tree
continuous_decision_tree
p485
(dp486
g2
F104.5
sg3
I67
sg4
(idecision_tree
decision_tree_leaf
p487
(dp488
g11
g12
(g13
tp489
Rp490
g18
I1
ssg22
g18
sbsg23
(idecision_tree
decision_tree_leaf
p491
(dp492
g11
g12
(g13
tp493
Rp494
S'Pn'
p495
I1
ssg22
g495
sbsbsg23
(idecision_tree
continuous_decision_tree
p496
(dp497
g2
F36.6667
sg3
I67
sg4
(idecision_tree
decision_tree_leaf
p498
(dp499
g11
g12
(g13
tp500
Rp501
S'Sn'
p502
I1
ssg22
g502
sbsg23
(idecision_tree
decision_tree_leaf
p503
(dp504
g11
g12
(g13
tp505
Rp506
g18
I1
ssg22
g18
sbsbsbsg23
(idecision_tree
continuous_decision_tree
p507
(dp508
g2
F49.166650000000004
sg3
I67
sg4
(idecision_tree
continuous_decision_tree
p509
(dp510
g2
F0.5
sg3
I62
sg4
(idecision_tree
continuous_decision_tree
p511
(dp512
g2
F0.45483799999999996
sg3
I49
sg4
(idecision_tree
continuous_decision_tree
p513
(dp514
g2
F112.83335
sg3
I67
sg4
(idecision_tree
decision_tree_leaf
p515
(dp516
g11
g12
(g13
tp517
Rp518
g18
I1
ssg22
g18
sbsg23
(idecision_tree
decision_tree_leaf
p519
(dp520
g11
g12
(g13
tp521
Rp522
g19
I1
ssg22
g19
sbsbsg23
(idecision_tree
decision_tree_leaf
p523
(dp524
g11
g12
(g13
tp525
Rp526
g18
I1
ssg22
g18
sbsbsg23
(idecision_tree
continuous_decision_tree
p527
(dp528
g2
F66.35415
sg3
I67
sg4
(idecision_tree
decision_tree_leaf
p529
(dp530
g11
g12
(g13
tp531
Rp532
g19
I1
ssg22
g19
sbsg23
(idecision_tree
decision_tree_leaf
p533
(dp534
g11
g12
(g13
tp535
Rp536
g18
I1
ssg22
g18
sbsbsbsg23
(idecision_tree
continuous_decision_tree
p537
(dp538
g2
F37.75
sg3
I67
sg4
(idecision_tree
decision_tree_leaf
p539
(dp540
g11
g12
(g13
tp541
Rp542
g19
I1
ssg22
g19
sbsg23
(idecision_tree
decision_tree_leaf
p543
(dp544
g11
g12
(g13
tp545
Rp546
g18
I1
ssg22
g18
sbsbsbsbsbsg23
(idecision_tree
continuous_decision_tree
p547
(dp548
g2
F-34.8512
sg3
I67
sg4
(idecision_tree
continuous_decision_tree
p549
(dp550
g2
F-20.95
sg3
I67
sg4
(idecision_tree
continuous_decision_tree
p551
(dp552
g2
F3.0
sg3
I66
sg4
(idecision_tree
decision_tree_leaf
p553
(dp554
g11
g12
(g13
tp555
Rp556
g18
I2
sS'Sn'
p557
I1
ssg22
g18
sbsg23
(idecision_tree
continuous_decision_tree
p558
(dp559
g2
F2.0
sg3
I66
sg4
(idecision_tree
decision_tree_leaf
p560
(dp561
g11
g12
(g13
tp562
Rp563
S'Lg'
p564
I1
sS'Pg'
p565
I1
sg18
I1
ssg22
g564
sbsg23
(idecision_tree
continuous_decision_tree
p566
(dp567
g2
F0.566555
sg3
I51
sg4
(idecision_tree
continuous_decision_tree
p568
(dp569
g2
F-1.5999999999999996
sg3
I67
sg4
(idecision_tree
decision_tree_leaf
p570
(dp571
g11
g12
(g13
tp572
Rp573
g18
I1
ssg22
g18
sbsg23
(idecision_tree
decision_tree_leaf
p574
(dp575
g11
g12
(g13
tp576
Rp577
S'Sn'
p578
I1
ssg22
g578
sbsbsg23
(idecision_tree
decision_tree_leaf
p579
(dp580
g11
g12
(g13
tp581
Rp582
g18
I1
ssg22
g18
sbsbsbsbsg23
(idecision_tree
continuous_decision_tree
p583
(dp584
g2
F-23.8262
sg3
I67
sg4
(idecision_tree
decision_tree_leaf
p585
(dp586
g11
g12
(g13
tp587
Rp588
g18
I1
ssg22
g18
sbsg23
(idecision_tree
decision_tree_leaf
p589
(dp590
g11
g12
(g13
tp591
Rp592
S'Pn'
p593
I1
ssg22
g593
sbsbsbsg23
(idecision_tree
continuous_decision_tree
p594
(dp595
g2
F-49.958349999999996
sg3
I67
sg4
(idecision_tree
decision_tree_leaf
p596
(dp597
g11
g12
(g13
tp598
Rp599
g18
I1
ssg22
g18
sbsg23
(idecision_tree
decision_tree_leaf
p600
(dp601
g11
g12
(g13
tp602
Rp603
S'Sn'
p604
I1
ssg22
g604
sbsbsbsbsg23
(idecision_tree
continuous_decision_tree
p605
(dp606
g2
F2.106665
sg3
I39
sg4
(idecision_tree
continuous_decision_tree
p607
(dp608
g2
F0.0
sg3
I59
sg4
(idecision_tree
continuous_decision_tree
p609
(dp610
g2
F-46.1881
sg3
I67
sg4
(idecision_tree
continuous_decision_tree
p611
(dp612
g2
F2.5
sg3
I63
sg4
(idecision_tree
continuous_decision_tree
p613
(dp614
g2
F3.333335
sg3
I67
sg4
(idecision_tree
continuous_decision_tree
p615
(dp616
g2
F43.37025
sg3
I44
sg4
(idecision_tree
continuous_decision_tree
p617
(dp618
g2
F7.333335
sg3
I67
sg4
(idecision_tree
decision_tree_leaf
p619
(dp620
g11
g12
(g13
tp621
Rp622
g18
I1
ssg22
g18
sbsg23
(idecision_tree
decision_tree_leaf
p623
(dp624
g11
g12
(g13
tp625
Rp626
S'Sn'
p627
I1
ssg22
g627
sbsbsg23
(idecision_tree
decision_tree_leaf
p628
(dp629
g11
g12
(g13
tp630
Rp631
g18
I1
ssg22
g18
sbsbsg23
(idecision_tree
decision_tree_leaf
p632
(dp633
g11
g12
(g13
tp634
Rp635
g18
I1
ssg22
g18
sbsbsg23
(idecision_tree
continuous_decision_tree
p636
(dp637
g2
F0.0
sg3
I63
sg4
(idecision_tree
continuous_decision_tree
p638
(dp639
g2
F213.79149999999998
sg3
I67
sg4
(idecision_tree
continuous_decision_tree
p640
(dp641
g2
F274.675
sg3
I67
sg4
(idecision_tree
decision_tree_leaf
p642
(dp643
g11
g12
(g13
tp644
Rp645
g18
I1
ssg22
g18
sbsg23
(idecision_tree
continuous_decision_tree
p646
(dp647
g2
F0.575581
sg3
I52
sg4
(idecision_tree
continuous_decision_tree
p648
(dp649
g2
F0.21986
sg3
I50
sg4
(idecision_tree
continuous_decision_tree
p650
(dp651
g2
F246.0
sg3
I67
sg4
(idecision_tree
decision_tree_leaf
p652
(dp653
g11
g12
(g13
tp654
Rp655
S'Pn'
p656
I1
ssg22
g656
sbsg23
(idecision_tree
decision_tree_leaf
p657
(dp658
g11
g12
(g13
tp659
Rp660
g18
I1
ssg22
g18
sbsbsg23
(idecision_tree
decision_tree_leaf
p661
(dp662
g11
g12
(g13
tp663
Rp664
g18
I1
ssg22
g18
sbsbsg23
(idecision_tree
decision_tree_leaf
p665
(dp666
g11
g12
(g13
tp667
Rp668
g18
I1
ssg22
g18
sbsbsbsg23
(idecision_tree
continuous_decision_tree
p669
(dp670
g2
F0.6236820000000001
sg3
I52
sg4
(idecision_tree
continuous_decision_tree
p671
(dp672
g2
F4.5
sg3
I66
sg4
(idecision_tree
decision_tree_leaf
p673
(dp674
g11
g12
(g13
tp675
Rp676
g18
I1
ssg22
g18
sbsg23
(idecision_tree
continuous_decision_tree
p677
(dp678
g2
F0.6893050000000001
sg3
I52
sg4
(idecision_tree
continuous_decision_tree
p679
(dp680
g2
F0.09113550000000001
sg3
I50
sg4
(idecision_tree
continuous_decision_tree
p681
(dp682
g2
F103.6665
sg3
I67
sg4
(idecision_tree
decision_tree_leaf
p683
(dp684
g11
g12
(g13
tp685
Rp686
S'Pn'
p687
I1
ssg22
g687
sbsg23
(idecision_tree
decision_tree_leaf
p688
(dp689
g11
g12
(g13
tp690
Rp691
g18
I1
ssg22
g18
sbsbsg23
(idecision_tree
decision_tree_leaf
p692
(dp693
g11
g12
(g13
tp694
Rp695
g18
I1
ssg22
g18
sbsbsg23
(idecision_tree
decision_tree_leaf
p696
(dp697
g11
g12
(g13
tp698
Rp699
g18
I1
ssg22
g18
sbsbsbsg23
(idecision_tree
continuous_decision_tree
p700
(dp701
g2
F37.57205
sg3
I44
sg4
(idecision_tree
continuous_decision_tree
p702
(dp703
g2
F47.69865
sg3
I44
sg4
(idecision_tree
continuous_decision_tree
p704
(dp705
g2
F2.24836
sg3
I39
sg4
(idecision_tree
continuous_decision_tree
p706
(dp707
g2
F62.0
sg3
I67
sg4
(idecision_tree
decision_tree_leaf
p708
(dp709
g11
g12
(g13
tp710
Rp711
g18
I1
ssg22
g18
sbsg23
(idecision_tree
decision_tree_leaf
p712
(dp713
g11
g12
(g13
tp714
Rp715
g19
I1
ssg22
g19
sbsbsg23
(idecision_tree
decision_tree_leaf
p716
(dp717
g11
g12
(g13
tp718
Rp719
g18
I1
ssg22
g18
sbsbsg23
(idecision_tree
decision_tree_leaf
p720
(dp721
g11
g12
(g13
tp722
Rp723
g18
I1
ssg22
g18
sbsbsg23
(idecision_tree
continuous_decision_tree
p724
(dp725
g2
F3.15774
sg3
I48
sg4
(idecision_tree
decision_tree_leaf
p726
(dp727
g11
g12
(g13
tp728
Rp729
g18
I1
ssg22
g18
sbsg23
(idecision_tree
continuous_decision_tree
p730
(dp731
g2
F0.8472075
sg3
I34
sg4
(idecision_tree
decision_tree_leaf
p732
(dp733
g11
g12
(g13
tp734
Rp735
g18
I3
sS'Pn'
p736
I1
ssg22
g18
sbsg23
(idecision_tree
decision_tree_leaf
p737
(dp738
g11
g12
(g13
tp739
Rp740
g18
I1
ssg22
g18
sbsbsbsbsbsbsg23
(idecision_tree
continuous_decision_tree
p741
(dp742
g2
F15.55
sg3
I67
sg4
(idecision_tree
continuous_decision_tree
p743
(dp744
g2
F88.6
sg3
I67
sg4
(idecision_tree
decision_tree_leaf
p745
(dp746
g11
g12
(g13
tp747
Rp748
g18
I1
ssg22
g18
sbsg23
(idecision_tree
decision_tree_leaf
p749
(dp750
g11
g12
(g13
tp751
Rp752
g19
I1
ssg22
g19
sbsbsg23
(idecision_tree
decision_tree_leaf
p753
(dp754
g11
g12
(g13
tp755
Rp756
S'Sn'
p757
I1
ssg22
g757
sbsbsbsbsg23
(idecision_tree
continuous_decision_tree
p758
(dp759
g2
F-59.4
sg3
I67
sg4
(idecision_tree
continuous_decision_tree
p760
(dp761
g2
F0.666665
sg3
I63
sg4
(idecision_tree
continuous_decision_tree
p762
(dp763
g2
F-50.638099999999994
sg3
I67
sg4
(idecision_tree
decision_tree_leaf
p764
(dp765
g11
g12
(g13
tp766
Rp767
g18
I1
ssg22
g18
sbsg23
(idecision_tree
decision_tree_leaf
p768
(dp769
g11
g12
(g13
tp770
Rp771
g19
I1
ssg22
g19
sbsbsg23
(idecision_tree
decision_tree_leaf
p772
(dp773
g11
g12
(g13
tp774
Rp775
g18
I1
ssg22
g18
sbsbsg23
(idecision_tree
decision_tree_leaf
p776
(dp777
g11
g12
(g13
tp778
Rp779
g18
I1
ssg22
g18
sbsbsbsg23
(idecision_tree
continuous_decision_tree
p780
(dp781
g2
F-71.15
sg3
I67
sg4
(idecision_tree
continuous_decision_tree
p782
(dp783
g2
F-55.433350000000004
sg3
I63
sg4
(idecision_tree
continuous_decision_tree
p784
(dp785
g2
F0.4437315
sg3
I52
sg4
(idecision_tree
continuous_decision_tree
p786
(dp787
g2
F-59.357150000000004
sg3
I67
sg4
(idecision_tree
continuous_decision_tree
p788
(dp789
g2
F0.0
sg3
I62
sg4
(idecision_tree
continuous_decision_tree
p790
(dp791
g2
F-11.25
sg3
I63
sg4
(idecision_tree
continuous_decision_tree
p792
(dp793
g2
F24.166649999999997
sg3
I67
sg4
(idecision_tree
decision_tree_leaf
p794
(dp795
g11
g12
(g13
tp796
Rp797
g18
I1
ssg22
g18
sbsg23
(idecision_tree
decision_tree_leaf
p798
(dp799
g11
g12
(g13
tp800
Rp801
S'Sn'
p802
I1
ssg22
g802
sbsbsg23
(idecision_tree
decision_tree_leaf
p803
(dp804
g11
g12
(g13
tp805
Rp806
S'Sn'
p807
I1
ssg22
g807
sbsbsg23
(idecision_tree
continuous_decision_tree
p808
(dp809
g2
F-2.5
sg3
I66
sg4
(idecision_tree
continuous_decision_tree
p810
(dp811
g2
F-5.266665
sg3
I63
sg4
(idecision_tree
continuous_decision_tree
p812
(dp813
g2
F137.1375
sg3
I67
sg4
(idecision_tree
decision_tree_leaf
p814
(dp815
g11
g12
(g13
tp816
Rp817
g18
I1
ssg22
g18
sbsg23
(idecision_tree
decision_tree_leaf
p818
(dp819
g11
g12
(g13
tp820
Rp821
S'Sn'
p822
I1
ssg22
g822
sbsbsg23
(idecision_tree
continuous_decision_tree
p823
(dp824
g2
F120.399835
sg3
I67
sg4
(idecision_tree
decision_tree_leaf
p825
(dp826
g11
g12
(g13
tp827
Rp828
g18
I1
ssg22
g18
sbsg23
(idecision_tree
decision_tree_leaf
p829
(dp830
g11
g12
(g13
tp831
Rp832
S'Sn'
p833
I1
ssg22
g833
sbsbsbsg23
(idecision_tree
continuous_decision_tree
p834
(dp835
g2
F-3.5
sg3
I58
sg4
(idecision_tree
continuous_decision_tree
p836
(dp837
g2
F-4.5
sg3
I66
sg4
(idecision_tree
continuous_decision_tree
p838
(dp839
g2
F73.8
sg3
I67
sg4
(idecision_tree
decision_tree_leaf
p840
(dp841
g11
g12
(g13
tp842
Rp843
S'PKP'
p844
I1
ssg22
g844
sbsg23
(idecision_tree
decision_tree_leaf
p845
(dp846
g11
g12
(g13
tp847
Rp848
S'Sn'
p849
I1
ssg22
g849
sbsbsg23
(idecision_tree
continuous_decision_tree
p850
(dp851
g2
F-41.2619
sg3
I67
sg4
(idecision_tree
decision_tree_leaf
p852
(dp853
g11
g12
(g13
tp854
Rp855
S'Sn'
p856
I1
ssg22
g856
sbsg23
(idecision_tree
decision_tree_leaf
p857
(dp858
g11
g12
(g13
tp859
Rp860
g19
I1
ssg22
g19
sbsbsbsg23
(idecision_tree
continuous_decision_tree
p861
(dp862
g2
F0.609396
sg3
I52
sg4
(idecision_tree
continuous_decision_tree
p863
(dp864
g2
F-28.457150000000002
sg3
I67
sg4
(idecision_tree
decision_tree_leaf
p865
(dp866
g11
g12
(g13
tp867
Rp868
S'Sn'
p869
I1
ssg22
g869
sbsg23
(idecision_tree
decision_tree_leaf
p870
(dp871
g11
g12
(g13
tp872
Rp873
g19
I1
ssg22
g19
sbsbsg23
(idecision_tree
continuous_decision_tree
p874
(dp875
g2
F-31.8611
sg3
I67
sg4
(idecision_tree
decision_tree_leaf
p876
(dp877
g11
g12
(g13
tp878
Rp879
S'Sn'
p880
I1
ssg22
g880
sbsg23
(idecision_tree
decision_tree_leaf
p881
(dp882
g11
g12
(g13
tp883
Rp884
g19
I1
ssg22
g19
sbsbsbsbsbsbsg23
(idecision_tree
continuous_decision_tree
p885
(dp886
g2
F-67.48335
sg3
I67
sg4
(idecision_tree
decision_tree_leaf
p887
(dp888
g11
g12
(g13
tp889
Rp890
g18
I1
ssg22
g18
sbsg23
(idecision_tree
decision_tree_leaf
p891
(dp892
g11
g12
(g13
tp893
Rp894
S'Sn'
p895
I1
ssg22
g895
sbsbsbsg23
(idecision_tree
continuous_decision_tree
p896
(dp897
g2
F-49.125
sg3
I67
sg4
(idecision_tree
decision_tree_leaf
p898
(dp899
g11
g12
(g13
tp900
Rp901
S'Sn'
p902
I1
ssg22
g902
sbsg23
(idecision_tree
decision_tree_leaf
p903
(dp904
g11
g12
(g13
tp905
Rp906
g18
I1
ssg22
g18
sbsbsbsg23
(idecision_tree
continuous_decision_tree
p907
(dp908
g2
F-65.775
sg3
I67
sg4
(idecision_tree
decision_tree_leaf
p909
(dp910
g11
g12
(g13
tp911
Rp912
g19
I1
ssg22
g19
sbsg23
(idecision_tree
decision_tree_leaf
p913
(dp914
g11
g12
(g13
tp915
Rp916
S'Sn'
p917
I1
ssg22
g917
sbsbsbsg23
(idecision_tree
continuous_decision_tree
p918
(dp919
g2
F-74.66665
sg3
I67
sg4
(idecision_tree
decision_tree_leaf
p920
(dp921
g11
g12
(g13
tp922
Rp923
S'Lg'
p924
I1
ssg22
g924
sbsg23
(idecision_tree
decision_tree_leaf
p925
(dp926
g11
g12
(g13
tp927
Rp928
g18
I1
ssg22
g18
sbsbsbsbsg23
(idecision_tree
continuous_decision_tree
p929
(dp930
g2
F0.6986445
sg3
I52
sg4
(idecision_tree
continuous_decision_tree
p931
(dp932
g2
F28.875
sg3
I67
sg4
(idecision_tree
continuous_decision_tree
p933
(dp934
g2
F163.125
sg3
I67
sg4
(idecision_tree
decision_tree_leaf
p935
(dp936
g11
g12
(g13
tp937
Rp938
g18
I1
ssg22
g18
sbsg23
(idecision_tree
decision_tree_leaf
p939
(dp940
g11
g12
(g13
tp941
Rp942
g19
I1
ssg22
g19
sbsbsg23
(idecision_tree
continuous_decision_tree
p943
(dp944
g2
F0.0
sg3
I66
sg4
(idecision_tree
decision_tree_leaf
p945
(dp946
g11
g12
(g13
tp947
Rp948
g18
I2
sS'PKP'
p949
I1
ssg22
g18
sbsg23
(idecision_tree
continuous_decision_tree
p950
(dp951
g2
F-2.125
sg3
I59
sg4
(idecision_tree
continuous_decision_tree
p952
(dp953
g2
F-33.666650000000004
sg3
I67
sg4
(idecision_tree
decision_tree_leaf
p954
(dp955
g11
g12
(g13
tp956
Rp957
g18
I1
ssg22
g18
sbsg23
(idecision_tree
decision_tree_leaf
p958
(dp959
g11
g12
(g13
tp960
Rp961
S'Pn'
p962
I1
ssg22
g962
sbsbsg23
(idecision_tree
continuous_decision_tree
p963
(dp964
g2
F-0.5
sg3
I58
sg4
(idecision_tree
continuous_decision_tree
p965
(dp966
g2
F-47.191649999999996
sg3
I67
sg4
(idecision_tree
decision_tree_leaf
p967
(dp968
g11
g12
(g13
tp969
Rp970
g18
I1
ssg22
g18
sbsg23
(idecision_tree
decision_tree_leaf
p971
(dp972
g11
g12
(g13
tp973
Rp974
g19
I1
ssg22
g19
sbsbsg23
(idecision_tree
continuous_decision_tree
p975
(dp976
g2
F-2.5
sg3
I62
sg4
(idecision_tree
continuous_decision_tree
p977
(dp978
g2
F-43.41665
sg3
I67
sg4
(idecision_tree
decision_tree_leaf
p979
(dp980
g11
g12
(g13
tp981
Rp982
g18
I1
ssg22
g18
sbsg23
(idecision_tree
decision_tree_leaf
p983
(dp984
g11
g12
(g13
tp985
Rp986
S'Sn'
p987
I1
ssg22
g987
sbsbsg23
(idecision_tree
continuous_decision_tree
p988
(dp989
g2
F-43.2857
sg3
I67
sg4
(idecision_tree
decision_tree_leaf
p990
(dp991
g11
g12
(g13
tp992
Rp993
g18
I1
ssg22
g18
sbsg23
(idecision_tree
decision_tree_leaf
p994
(dp995
g11
g12
(g13
tp996
Rp997
S'Sn'
p998
I1
ssg22
g998
sbsbsbsbsbsbsbsg23
(idecision_tree
continuous_decision_tree
p999
(dp1000
g2
F-6.0
sg3
I66
sg4
(idecision_tree
continuous_decision_tree
p1001
(dp1002
g2
F-58.333349999999996
sg3
I63
sg4
(idecision_tree
continuous_decision_tree
p1003
(dp1004
g2
F2.0
sg3
I62
sg4
(idecision_tree
continuous_decision_tree
p1005
(dp1006
g2
F7.416665
sg3
I67
sg4
(idecision_tree
decision_tree_leaf
p1007
(dp1008
g11
g12
(g13
tp1009
Rp1010
g18
I1
ssg22
g18
sbsg23
(idecision_tree
continuous_decision_tree
p1011
(dp1012
g2
F1.5
sg3
I66
sg4
(idecision_tree
continuous_decision_tree
p1013
(dp1014
g2
F0.25
sg3
I67
sg4
(idecision_tree
decision_tree_leaf
p1015
(dp1016
g11
g12
(g13
tp1017
Rp1018
S'Sn'
p1019
I1
ssg22
g1019
sbsg23
(idecision_tree
decision_tree_leaf
p1020
(dp1021
g11
g12
(g13
tp1022
Rp1023
g18
I1
ssg22
g18
sbsbsg23
(idecision_tree
decision_tree_leaf
p1024
(dp1025
g11
g12
(g13
tp1026
Rp1027
g18
I1
ssg22
g18
sbsbsbsg23
(idecision_tree
continuous_decision_tree
p1028
(dp1029
g2
F-65.54165
sg3
I67
sg4
(idecision_tree
continuous_decision_tree
p1030
(dp1031
g2
F0.533335
sg3
I63
sg4
(idecision_tree
continuous_decision_tree
p1032
(dp1033
g2
F0.5
sg3
I62
sg4
(idecision_tree
continuous_decision_tree
p1034
(dp1035
g2
F-29.66665
sg3
I67
sg4
(idecision_tree
decision_tree_leaf
p1036
(dp1037
g11
g12
(g13
tp1038
Rp1039
g18
I1
ssg22
g18
sbsg23
(idecision_tree
decision_tree_leaf
p1040
(dp1041
g11
g12
(g13
tp1042
Rp1043
S'Sn'
p1044
I1
ssg22
g1044
sbsbsg23
(idecision_tree
continuous_decision_tree
p1045
(dp1046
g2
F14.283335
sg3
I67
sg4
(idecision_tree
decision_tree_leaf
p1047
(dp1048
g11
g12
(g13
tp1049
Rp1050
g18
I1
ssg22
g18
sbsg23
(idecision_tree
decision_tree_leaf
p1051
(dp1052
g11
g12
(g13
tp1053
Rp1054
g19
I1
ssg22
g19
sbsbsbsg23
(idecision_tree
continuous_decision_tree
p1055
(dp1056
g2
F0.396401
sg3
I52
sg4
(idecision_tree
continuous_decision_tree
p1057
(dp1058
g2
F0.47321100000000005
sg3
I52
sg4
(idecision_tree
continuous_decision_tree
p1059
(dp1060
g2
F-20.45835
sg3
I67
sg4
(idecision_tree
continuous_decision_tree
p1061
(dp1062
g2
F-1.0
sg3
I62
sg4
(idecision_tree
continuous_decision_tree
p1063
(dp1064
g2
F0.918221
sg3
I35
sg4
(idecision_tree
continuous_decision_tree
p1065
(dp1066
g2
F0.0
sg3
I67
sg4
(idecision_tree
continuous_decision_tree
p1067
(dp1068
g2
F6.5
sg3
I67
sg4
(idecision_tree
continuous_decision_tree
p1069
(dp1070
g2
F225.16649999999998
sg3
I67
sg4
(idecision_tree
continuous_decision_tree
p1071
(dp1072
g2
F253.0
sg3
I67
sg4
(idecision_tree
decision_tree_leaf
p1073
(dp1074
g11
g12
(g13
tp1075
Rp1076
g18
I1
ssg22
g18
sbsg23
(idecision_tree
decision_tree_leaf
p1077
(dp1078
g11
g12
(g13
tp1079
Rp1080
g19
I1
ssg22
g19
sbsbsg23
(idecision_tree
continuous_decision_tree
p1081
(dp1082
g2
F109.6665
sg3
I67
sg4
(idecision_tree
decision_tree_leaf
p1083
(dp1084
g11
g12
(g13
tp1085
Rp1086
g18
I1
ssg22
g18
sbsg23
(idecision_tree
decision_tree_leaf
p1087
(dp1088
g11
g12
(g13
tp1089
Rp1090
g19
I1
ssg22
g19
sbsbsbsg23
(idecision_tree
decision_tree_leaf
p1091
(dp1092
g11
g12
(g13
tp1093
Rp1094
g18
I1
sS'Pn'
p1095
I1
ssg22
g18
sbsbsg23
(idecision_tree
decision_tree_leaf
p1096
(dp1097
g11
g12
(g13
tp1098
Rp1099
g18
I1
ssg22
g18
sbsbsg23
(idecision_tree
continuous_decision_tree
p1100
(dp1101
g2
F0.5284415
sg3
I52
sg4
(idecision_tree
continuous_decision_tree
p1102
(dp1103
g2
F0.3545165
sg3
I51
sg4
(idecision_tree
continuous_decision_tree
p1104
(dp1105
g2
F0.46993150000000006
sg3
I49
sg4
(idecision_tree
continuous_decision_tree
p1106
(dp1107
g2
F55.875
sg3
I67
sg4
(idecision_tree
decision_tree_leaf
p1108
(dp1109
g11
g12
(g13
tp1110
Rp1111
g18
I1
ssg22
g18
sbsg23
(idecision_tree
decision_tree_leaf
p1112
(dp1113
g11
g12
(g13
tp1114
Rp1115
g19
I1
ssg22
g19
sbsbsg23
(idecision_tree
decision_tree_leaf
p1116
(dp1117
g11
g12
(g13
tp1118
Rp1119
g18
I1
ssg22
g18
sbsbsg23
(idecision_tree
continuous_decision_tree
p1120
(dp1121
g2
F147.25
sg3
I67
sg4
(idecision_tree
decision_tree_leaf
p1122
(dp1123
g11
g12
(g13
tp1124
Rp1125
g18
I1
ssg22
g18
sbsg23
(idecision_tree
decision_tree_leaf
p1126
(dp1127
g11
g12
(g13
tp1128
Rp1129
g19
I1
ssg22
g19
sbsbsbsg23
(idecision_tree
decision_tree_leaf
p1130
(dp1131
g11
g12
(g13
tp1132
Rp1133
g18
I1
sg19
I1
ssg22
g18
sbsbsbsg23
(idecision_tree
continuous_decision_tree
p1134
(dp1135
g2
F16.55
sg3
I67
sg4
(idecision_tree
decision_tree_leaf
p1136
(dp1137
g11
g12
(g13
tp1138
Rp1139
g19
I1
ssg22
g19
sbsg23
(idecision_tree
decision_tree_leaf
p1140
(dp1141
g11
g12
(g13
tp1142
Rp1143
S'Sn'
p1144
I1
ssg22
g1144
sbsbsbsg23
(idecision_tree
continuous_decision_tree
p1145
(dp1146
g2
F-26.2798
sg3
I67
sg4
(idecision_tree
decision_tree_leaf
p1147
(dp1148
g11
g12
(g13
tp1149
Rp1150
g18
I1
ssg22
g18
sbsg23
(idecision_tree
decision_tree_leaf
p1151
(dp1152
g11
g12
(g13
tp1153
Rp1154
g19
I1
ssg22
g19
sbsbsbsg23
(idecision_tree
continuous_decision_tree
p1155
(dp1156
g2
F1.1464675
sg3
I48
sg4
(idecision_tree
continuous_decision_tree
p1157
(dp1158
g2
F76.16665
sg3
I67
sg4
(idecision_tree
decision_tree_leaf
p1159
(dp1160
g11
g12
(g13
tp1161
Rp1162
g18
I1
ssg22
g18
sbsg23
(idecision_tree
decision_tree_leaf
p1163
(dp1164
g11
g12
(g13
tp1165
Rp1166
S'Sn'
p1167
I1
ssg22
g1167
sbsbsg23
(idecision_tree
continuous_decision_tree
p1168
(dp1169
g2
F0.8432299999999999
sg3
I35
sg4
(idecision_tree
continuous_decision_tree
p1170
(dp1171
g2
F-18.0
sg3
I67
sg4
(idecision_tree
decision_tree_leaf
p1172
(dp1173
g11
g12
(g13
tp1174
Rp1175
g18
I1
ssg22
g18
sbsg23
(idecision_tree
decision_tree_leaf
p1176
(dp1177
g11
g12
(g13
tp1178
Rp1179
g19
I1
ssg22
g19
sbsbsg23
(idecision_tree
continuous_decision_tree
p1180
(dp1181
g2
F-26.0
sg3
I67
sg4
(idecision_tree
decision_tree_leaf
p1182
(dp1183
g11
g12
(g13
tp1184
Rp1185
g18
I1
ssg22
g18
sbsg23
(idecision_tree
decision_tree_leaf
p1186
(dp1187
g11
g12
(g13
tp1188
Rp1189
g19
I1
ssg22
g19
sbsbsbsbsbsg23
(idecision_tree
continuous_decision_tree
p1190
(dp1191
g2
F1.0
sg3
I66
sg4
(idecision_tree
decision_tree_leaf
p1192
(dp1193
g11
g12
(g13
tp1194
Rp1195
g18
I2
sg19
I1
ssg22
g18
sbsg23
(idecision_tree
decision_tree_leaf
p1196
(dp1197
g11
g12
(g13
tp1198
Rp1199
g19
I1
ssg22
g19
sbsbsbsbsg23
(idecision_tree
continuous_decision_tree
p1200
(dp1201
g2
F-69.14285000000001
sg3
I67
sg4
(idecision_tree
decision_tree_leaf
p1202
(dp1203
g11
g12
(g13
tp1204
Rp1205
g18
I1
ssg22
g18
sbsg23
(idecision_tree
decision_tree_leaf
p1206
(dp1207
g11
g12
(g13
tp1208
Rp1209
g19
I1
ssg22
g19
sbsbsbsbsg23
(idecision_tree
continuous_decision_tree
p1210
(dp1211
g2
F-66.47915
sg3
I67
sg4
(idecision_tree
decision_tree_leaf
p1212
(dp1213
g11
g12
(g13
tp1214
Rp1215
g18
I1
ssg22
g18
sbsg23
(idecision_tree
decision_tree_leaf
p1216
(dp1217
g11
g12
(g13
tp1218
Rp1219
S'Sn'
p1220
I1
ssg22
g1220
sbsbsbsg23
(idecision_tree
decision_tree_leaf
p1221
(dp1222
g11
g12
(g13
tp1223
Rp1224
g18
I1
ssg22
g18
sbsbsbsbsbsbsg23
(idecision_tree
continuous_decision_tree
p1225
(dp1226
g2
F-37.9833
sg3
I67
sg4
(idecision_tree
continuous_decision_tree
p1227
(dp1228
g2
F64.75
sg3
I67
sg4
(idecision_tree
continuous_decision_tree
p1229
(dp1230
g2
F163.5
sg3
I67
sg4
(idecision_tree
decision_tree_leaf
p1231
(dp1232
g11
g12
(g13
tp1233
Rp1234
S'Pn'
p1235
I1
ssg22
g1235
sbsg23
(idecision_tree
decision_tree_leaf
p1236
(dp1237
g11
g12
(g13
tp1238
Rp1239
g18
I1
ssg22
g18
sbsbsg23
(idecision_tree
continuous_decision_tree
p1240
(dp1241
g2
F33.654799999999994
sg3
I63
sg4
(idecision_tree
continuous_decision_tree
p1242
(dp1243
g2
F7.636900000000001
sg3
I67
sg4
(idecision_tree
decision_tree_leaf
p1244
(dp1245
g11
g12
(g13
tp1246
Rp1247
g18
I1
ssg22
g18
sbsg23
(idecision_tree
decision_tree_leaf
p1248
(dp1249
g11
g12
(g13
tp1250
Rp1251
S'Pn'
p1252
I1
ssg22
g1252
sbsbsg23
(idecision_tree
continuous_decision_tree
p1253
(dp1254
g2
F8.75
sg3
I67
sg4
(idecision_tree
continuous_decision_tree
p1255
(dp1256
g2
F4.5
sg3
I66
sg4
(idecision_tree
continuous_decision_tree
p1257
(dp1258
g2
F42.57145
sg3
I67
sg4
(idecision_tree
decision_tree_leaf
p1259
(dp1260
g11
g12
(g13
tp1261
Rp1262
S'Pn'
p1263
I1
ssg22
g1263
sbsg23
(idecision_tree
decision_tree_leaf
p1264
(dp1265
g11
g12
(g13
tp1266
Rp1267
g18
I1
ssg22
g18
sbsbsg23
(idecision_tree
continuous_decision_tree
p1268
(dp1269
g2
F0.25
sg3
I63
sg4
(idecision_tree
continuous_decision_tree
p1270
(dp1271
g2
F22.25
sg3
I67
sg4
(idecision_tree
decision_tree_leaf
p1272
(dp1273
g11
g12
(g13
tp1274
Rp1275
g18
I1
ssg22
g18
sbsg23
(idecision_tree
decision_tree_leaf
p1276
(dp1277
g11
g12
(g13
tp1278
Rp1279
S'Pn'
p1280
I1
ssg22
g1280
sbsbsg23
(idecision_tree
decision_tree_leaf
p1281
(dp1282
g11
g12
(g13
tp1283
Rp1284
g18
I1
ssg22
g18
sbsbsbsg23
(idecision_tree
continuous_decision_tree
p1285
(dp1286
g2
F-16.91665
sg3
I67
sg4
(idecision_tree
decision_tree_leaf
p1287
(dp1288
g11
g12
(g13
tp1289
Rp1290
g18
I1
ssg22
g18
sbsg23
(idecision_tree
decision_tree_leaf
p1291
(dp1292
g11
g12
(g13
tp1293
Rp1294
g19
I1
ssg22
g19
sbsbsbsbsbsg23
(idecision_tree
continuous_decision_tree
p1295
(dp1296
g2
F-48.316649999999996
sg3
I67
sg4
(idecision_tree
decision_tree_leaf
p1297
(dp1298
g11
g12
(g13
tp1299
Rp1300
g18
I1
ssg22
g18
sbsg23
(idecision_tree
decision_tree_leaf
p1301
(dp1302
g11
g12
(g13
tp1303
Rp1304
S'Pn'
p1305
I1
ssg22
g1305
sbsbsbsbsbsg23
(idecision_tree
continuous_decision_tree
p1306
(dp1307
g2
F0.9752845
sg3
I35
sg4
(idecision_tree
continuous_decision_tree
p1308
(dp1309
g2
F1.5
sg3
I66
sg4
(idecision_tree
continuous_decision_tree
p1310
(dp1311
g2
F-84.96775
sg3
I67
sg4
(idecision_tree
decision_tree_leaf
p1312
(dp1313
g11
g12
(g13
tp1314
Rp1315
g18
I1
ssg22
g18
sbsg23
(idecision_tree
decision_tree_leaf
p1316
(dp1317
g11
g12
(g13
tp1318
Rp1319
S'Pn'
p1320
I1
ssg22
g1320
sbsbsg23
(idecision_tree
continuous_decision_tree
p1321
(dp1322
g2
F0.5218579999999999
sg3
I52
sg4
(idecision_tree
continuous_decision_tree
p1323
(dp1324
g2
F-187.5
sg3
I67
sg4
(idecision_tree
continuous_decision_tree
p1325
(dp1326
g2
F0.7658995
sg3
I52
sg4
(idecision_tree
continuous_decision_tree
p1327
(dp1328
g2
F-143.219
sg3
I67
sg4
(idecision_tree
decision_tree_leaf
p1329
(dp1330
g11
g12
(g13
tp1331
Rp1332
S'Pn'
p1333
I1
ssg22
g1333
sbsg23
(idecision_tree
decision_tree_leaf
p1334
(dp1335
g11
g12
(g13
tp1336
Rp1337
g18
I1
ssg22
g18
sbsbsg23
(idecision_tree
continuous_decision_tree
p1338
(dp1339
g2
F-136.6375
sg3
I67
sg4
(idecision_tree
continuous_decision_tree
p1340
(dp1341
g2
F-128.221
sg3
I67
sg4
(idecision_tree
decision_tree_leaf
p1342
(dp1343
g11
g12
(g13
tp1344
Rp1345
g19
I1
ssg22
g19
sbsg23
(idecision_tree
decision_tree_leaf
p1346
(dp1347
g11
g12
(g13
tp1348
Rp1349
g18
I1
ssg22
g18
sbsbsg23
(idecision_tree
continuous_decision_tree
p1350
(dp1351
g2
F4.48521
sg3
I39
sg4
(idecision_tree
continuous_decision_tree
p1352
(dp1353
g2
F-157.25
sg3
I67
sg4
(idecision_tree
decision_tree_leaf
p1354
(dp1355
g11
g12
(g13
tp1356
Rp1357
g19
I1
ssg22
g19
sbsg23
(idecision_tree
decision_tree_leaf
p1358
(dp1359
g11
g12
(g13
tp1360
Rp1361
g18
I1
ssg22
g18
sbsbsg23
(idecision_tree
decision_tree_leaf
p1362
(dp1363
g11
g12
(g13
tp1364
Rp1365
g18
I1
ssg22
g18
sbsbsbsbsg23
(idecision_tree
continuous_decision_tree
p1366
(dp1367
g2
F-220.6
sg3
I67
sg4
(idecision_tree
decision_tree_leaf
p1368
(dp1369
g11
g12
(g13
tp1370
Rp1371
S'Pn'
p1372
I1
ssg22
g1372
sbsg23
(idecision_tree
decision_tree_leaf
p1373
(dp1374
g11
g12
(g13
tp1375
Rp1376
g18
I1
ssg22
g18
sbsbsbsg23
(idecision_tree
continuous_decision_tree
p1377
(dp1378
g2
F-246.425
sg3
I67
sg4
(idecision_tree
decision_tree_leaf
p1379
(dp1380
g11
g12
(g13
tp1381
Rp1382
g19
I1
ssg22
g19
sbsg23
(idecision_tree
decision_tree_leaf
p1383
(dp1384
g11
g12
(g13
tp1385
Rp1386
g18
I1
ssg22
g18
sbsbsbsbsg23
(idecision_tree
continuous_decision_tree
p1387
(dp1388
g2
F1.8133
sg3
I39
sg4
(idecision_tree
decision_tree_leaf
p1389
(dp1390
g11
g12
(g13
tp1391
Rp1392
g18
I17
sg19
I8
sS'Pn'
p1393
I2
sS'Sn'
p1394
I4
sS'PKP'
p1395
I1
ssg22
g18
sbsg23
(idecision_tree
continuous_decision_tree
p1396
(dp1397
g2
F0.0
sg3
I59
sg4
(idecision_tree
continuous_decision_tree
p1398
(dp1399
g2
F0.358297
sg3
I48
sg4
(idecision_tree
continuous_decision_tree
p1400
(dp1401
g2
F0.0
sg3
I62
sg4
(idecision_tree
continuous_decision_tree
p1402
(dp1403
g2
F0.0
sg3
I66
sg4
(idecision_tree
decision_tree_leaf
p1404
(dp1405
g11
g12
(g13
tp1406
Rp1407
g18
I3
sg19
I1
ssg22
g18
sbsg23
(idecision_tree
continuous_decision_tree
p1408
(dp1409
g2
F-156.6875
sg3
I67
sg4
(idecision_tree
continuous_decision_tree
p1410
(dp1411
g2
F-149.35399999999998
sg3
I67
sg4
(idecision_tree
continuous_decision_tree
p1412
(dp1413
g2
F-111.0415
sg3
I67
sg4
(idecision_tree
decision_tree_leaf
p1414
(dp1415
g11
g12
(g13
tp1416
Rp1417
g18
I1
ssg22
g18
sbsg23
(idecision_tree
decision_tree_leaf
p1418
(dp1419
g11
g12
(g13
tp1420
Rp1421
g19
I1
ssg22
g19
sbsbsg23
(idecision_tree
decision_tree_leaf
p1422
(dp1423
g11
g12
(g13
tp1424
Rp1425
g18
I1
ssg22
g18
sbsbsg23
(idecision_tree
continuous_decision_tree
p1426
(dp1427
g2
F-2.5
sg3
I66
sg4
(idecision_tree
continuous_decision_tree
p1428
(dp1429
g2
F-168.0
sg3
I67
sg4
(idecision_tree
decision_tree_leaf
p1430
(dp1431
g11
g12
(g13
tp1432
Rp1433
S'Sn'
p1434
I1
ssg22
g1434
sbsg23
(idecision_tree
decision_tree_leaf
p1435
(dp1436
g11
g12
(g13
tp1437
Rp1438
g18
I1
ssg22
g18
sbsbsg23
(idecision_tree
decision_tree_leaf
p1439
(dp1440
g11
g12
(g13
tp1441
Rp1442
g18
I1
ssg22
g18
sbsbsbsbsg23
(idecision_tree
decision_tree_leaf
p1443
(dp1444
g11
g12
(g13
tp1445
Rp1446
g19
I2
ssg22
g19
sbsbsg23
(idecision_tree
continuous_decision_tree
p1447
(dp1448
g2
F-1.5
sg3
I66
sg4
(idecision_tree
continuous_decision_tree
p1449
(dp1450
g2
F0.4654545
sg3
I52
sg4
(idecision_tree
continuous_decision_tree
p1451
(dp1452
g2
F-175.6146
sg3
I67
sg4
(idecision_tree
decision_tree_leaf
p1453
(dp1454
g11
g12
(g13
tp1455
Rp1456
S'Pn'
p1457
I1
ssg22
g1457
sbsg23
(idecision_tree
decision_tree_leaf
p1458
(dp1459
g11
g12
(g13
tp1460
Rp1461
g18
I1
ssg22
g18
sbsbsg23
(idecision_tree
decision_tree_leaf
p1462
(dp1463
g11
g12
(g13
tp1464
Rp1465
g18
I1
ssg22
g18
sbsbsg23
(idecision_tree
continuous_decision_tree
p1466
(dp1467
g2
F-174.3665
sg3
I67
sg4
(idecision_tree
decision_tree_leaf
p1468
(dp1469
g11
g12
(g13
tp1470
Rp1471
g19
I1
ssg22
g19
sbsg23
(idecision_tree
decision_tree_leaf
p1472
(dp1473
g11
g12
(g13
tp1474
Rp1475
g18
I1
ssg22
g18
sbsbsbsbsg23
(idecision_tree
continuous_decision_tree
p1476
(dp1477
g2
F-109.19775
sg3
I67
sg4
(idecision_tree
continuous_decision_tree
p1478
(dp1479
g2
F-88.42410000000001
sg3
I67
sg4
(idecision_tree
decision_tree_leaf
p1480
(dp1481
g11
g12
(g13
tp1482
Rp1483
g18
I1
ssg22
g18
sbsg23
(idecision_tree
decision_tree_leaf
p1484
(dp1485
g11
g12
(g13
tp1486
Rp1487
S'Sn'
p1488
I1
ssg22
g1488
sbsbsg23
(idecision_tree
decision_tree_leaf
p1489
(dp1490
g11
g12
(g13
tp1491
Rp1492
g18
I1
sg19
I2
ssg22
g19
sbsbsbsbsbsbsbsg23
(idecision_tree
continuous_decision_tree
p1493
(dp1494
g2
F4.0
sg3
I62
sg4
(idecision_tree
continuous_decision_tree
p1495
(dp1496
g2
F4.0
sg3
I66
sg4
(idecision_tree
decision_tree_leaf
p1497
(dp1498
g11
g12
(g13
tp1499
Rp1500
g18
I113
sg19
I9
sS'Pn'
p1501
I57
sS'Sn'
p1502
I6
sS'Pg'
p1503
I1
ssg22
g18
sbsg23
(idecision_tree
continuous_decision_tree
p1504
(dp1505
g2
F-122.6
sg3
I67
sg4
(idecision_tree
continuous_decision_tree
p1506
(dp1507
g2
F0.4053395
sg3
I51
sg4
(idecision_tree
continuous_decision_tree
p1508
(dp1509
g2
F-69.98335
sg3
I67
sg4
(idecision_tree
continuous_decision_tree
p1510
(dp1511
g2
F-42.83335
sg3
I67
sg4
(idecision_tree
decision_tree_leaf
p1512
(dp1513
g11
g12
(g13
tp1514
Rp1515
g18
I1
ssg22
g18
sbsg23
(idecision_tree
decision_tree_leaf
p1516
(dp1517
g11
g12
(g13
tp1518
Rp1519
S'Pn'
p1520
I1
ssg22
g1520
sbsbsg23
(idecision_tree
decision_tree_leaf
p1521
(dp1522
g11
g12
(g13
tp1523
Rp1524
g18
I1
ssg22
g18
sbsbsg23
(idecision_tree
decision_tree_leaf
p1525
(dp1526
g11
g12
(g13
tp1527
Rp1528
g18
I9
sS'Pn'
p1529
I5
ssg22
g18
sbsbsg23
(idecision_tree
continuous_decision_tree
p1530
(dp1531
g2
F3.0
sg3
I66
sg4
(idecision_tree
continuous_decision_tree
p1532
(dp1533
g2
F0.569633
sg3
I48
sg4
(idecision_tree
decision_tree_leaf
p1534
(dp1535
g11
g12
(g13
tp1536
Rp1537
g18
I3
sS'Pn'
p1538
I1
ssg22
g18
sbsg23
(idecision_tree
decision_tree_leaf
p1539
(dp1540
g11
g12
(g13
tp1541
Rp1542
g18
I3
sS'Pn'
p1543
I1
ssg22
g18
sbsbsg23
(idecision_tree
continuous_decision_tree
p1544
(dp1545
g2
F-175.2645
sg3
I67
sg4
(idecision_tree
continuous_decision_tree
p1546
(dp1547
g2
F-160.5
sg3
I67
sg4
(idecision_tree
decision_tree_leaf
p1548
(dp1549
g11
g12
(g13
tp1550
Rp1551
g18
I2
sg19
I1
ssg22
g18
sbsg23
(idecision_tree
decision_tree_leaf
p1552
(dp1553
g11
g12
(g13
tp1554
Rp1555
S'Pn'
p1556
I1
ssg22
g1556
sbsbsg23
(idecision_tree
continuous_decision_tree
p1557
(dp1558
g2
F-210.779
sg3
I67
sg4
(idecision_tree
decision_tree_leaf
p1559
(dp1560
g11
g12
(g13
tp1561
Rp1562
g18
I1
ssg22
g18
sbsg23
(idecision_tree
decision_tree_leaf
p1563
(dp1564
g11
g12
(g13
tp1565
Rp1566
S'Pn'
p1567
I1
ssg22
g1567
sbsbsbsbsbsbsg23
(idecision_tree
continuous_decision_tree
p1568
(dp1569
g2
F3.0
sg3
I62
sg4
(idecision_tree
continuous_decision_tree
p1570
(dp1571
g2
F2.231635
sg3
I39
sg4
(idecision_tree
continuous_decision_tree
p1572
(dp1573
g2
F18.9
sg3
I63
sg4
(idecision_tree
continuous_decision_tree
p1574
(dp1575
g2
F-58.354150000000004
sg3
I67
sg4
(idecision_tree
continuous_decision_tree
p1576
(dp1577
g2
F25.375
sg3
I59
sg4
(idecision_tree
continuous_decision_tree
p1578
(dp1579
g2
F26.5
sg3
I67
sg4
(idecision_tree
decision_tree_leaf
p1580
(dp1581
g11
g12
(g13
tp1582
Rp1583
g18
I2
sg19
I1
ssg22
g18
sbsg23
(idecision_tree
continuous_decision_tree
p1584
(dp1585
g2
F-31.0
sg3
I67
sg4
(idecision_tree
decision_tree_leaf
p1586
(dp1587
g11
g12
(g13
tp1588
Rp1589
g18
I1
ssg22
g18
sbsg23
(idecision_tree
decision_tree_leaf
p1590
(dp1591
g11
g12
(g13
tp1592
Rp1593
S'Sn'
p1594
I1
ssg22
g1594
sbsbsbsg23
(idecision_tree
continuous_decision_tree
p1595
(dp1596
g2
F46.51875
sg3
I67
sg4
(idecision_tree
continuous_decision_tree
p1597
(dp1598
g2
F27.66665
sg3
I63
sg4
(idecision_tree
continuous_decision_tree
p1599
(dp1600
g2
F0.353788
sg3
I52
sg4
(idecision_tree
continuous_decision_tree
p1601
(dp1602
g2
F72.55
sg3
I67
sg4
(idecision_tree
decision_tree_leaf
p1603
(dp1604
g11
g12
(g13
tp1605
Rp1606
g18
I1
ssg22
g18
sbsg23
(idecision_tree
decision_tree_leaf
p1607
(dp1608
g11
g12
(g13
tp1609
Rp1610
g19
I1
ssg22
g19
sbsbsg23
(idecision_tree
decision_tree_leaf
p1611
(dp1612
g11
g12
(g13
tp1613
Rp1614
g18
I1
ssg22
g18
sbsbsg23
(idecision_tree
continuous_decision_tree
p1615
(dp1616
g2
F125.238
sg3
I67
sg4
(idecision_tree
decision_tree_leaf
p1617
(dp1618
g11
g12
(g13
tp1619
Rp1620
S'Pn'
p1621
I1
ssg22
g1621
sbsg23
(idecision_tree
decision_tree_leaf
p1622
(dp1623
g11
g12
(g13
tp1624
Rp1625
g18
I1
ssg22
g18
sbsbsbsg23
(idecision_tree
continuous_decision_tree
p1626
(dp1627
g2
F3.0
sg3
I66
sg4
(idecision_tree
continuous_decision_tree
p1628
(dp1629
g2
F23.5
sg3
I67
sg4
(idecision_tree
decision_tree_leaf
p1630
(dp1631
g11
g12
(g13
tp1632
Rp1633
g18
I2
sS'Pn'
p1634
I1
ssg22
g18
sbsg23
(idecision_tree
decision_tree_leaf
p1635
(dp1636
g11
g12
(g13
tp1637
Rp1638
g18
I4
sS'Pn'
p1639
I2
ssg22
g18
sbsbsg23
(idecision_tree
decision_tree_leaf
p1640
(dp1641
g11
g12
(g13
tp1642
Rp1643
g18
I1
sg19
I1
sS'Pn'
p1644
I1
ssg22
g18
sbsbsbsbsg23
(idecision_tree
continuous_decision_tree
p1645
(dp1646
g2
F2.0
sg3
I66
sg4
(idecision_tree
decision_tree_leaf
p1647
(dp1648
g11
g12
(g13
tp1649
Rp1650
g18
I3
sS'Pn'
p1651
I1
ssg22
g18
sbsg23
(idecision_tree
decision_tree_leaf
p1652
(dp1653
g11
g12
(g13
tp1654
Rp1655
g19
I1
ssg22
g19
sbsbsbsg23
(idecision_tree
continuous_decision_tree
p1656
(dp1657
g2
F0.4140855
sg3
I49
sg4
(idecision_tree
continuous_decision_tree
p1658
(dp1659
g2
F-22.625
sg3
I63
sg4
(idecision_tree
continuous_decision_tree
p1660
(dp1661
g2
F6.716665
sg3
I67
sg4
(idecision_tree
continuous_decision_tree
p1662
(dp1663
g2
F11.8
sg3
I67
sg4
(idecision_tree
decision_tree_leaf
p1664
(dp1665
g11
g12
(g13
tp1666
Rp1667
g18
I2
sS'Pn'
p1668
I1
ssg22
g18
sbsg23
(idecision_tree
continuous_decision_tree
p1669
(dp1670
g2
F11.1
sg3
I67
sg4
(idecision_tree
decision_tree_leaf
p1671
(dp1672
g11
g12
(g13
tp1673
Rp1674
g18
I1
ssg22
g18
sbsg23
(idecision_tree
decision_tree_leaf
p1675
(dp1676
g11
g12
(g13
tp1677
Rp1678
g19
I1
ssg22
g19
sbsbsbsg23
(idecision_tree
continuous_decision_tree
p1679
(dp1680
g2
F-30.333334999999998
sg3
I67
sg4
(idecision_tree
decision_tree_leaf
p1681
(dp1682
g11
g12
(g13
tp1683
Rp1684
g18
I1
ssg22
g18
sbsg23
(idecision_tree
decision_tree_leaf
p1685
(dp1686
g11
g12
(g13
tp1687
Rp1688
S'Pn'
p1689
I1
ssg22
g1689
sbsbsbsg23
(idecision_tree
continuous_decision_tree
p1690
(dp1691
g2
F-63.3
sg3
I67
sg4
(idecision_tree
decision_tree_leaf
p1692
(dp1693
g11
g12
(g13
tp1694
Rp1695
g18
I1
ssg22
g18
sbsg23
(idecision_tree
decision_tree_leaf
p1696
(dp1697
g11
g12
(g13
tp1698
Rp1699
g19
I1
ssg22
g19
sbsbsbsg23
(idecision_tree
continuous_decision_tree
p1700
(dp1701
g2
F4.0
sg3
I66
sg4
(idecision_tree
continuous_decision_tree
p1702
(dp1703
g2
F19.73335
sg3
I67
sg4
(idecision_tree
continuous_decision_tree
p1704
(dp1705
g2
F57.047650000000004
sg3
I67
sg4
(idecision_tree
decision_tree_leaf
p1706
(dp1707
g11
g12
(g13
tp1708
Rp1709
g18
I1
ssg22
g18
sbsg23
(idecision_tree
decision_tree_leaf
p1710
(dp1711
g11
g12
(g13
tp1712
Rp1713
S'Pn'
p1714
I1
ssg22
g1714
sbsbsg23
(idecision_tree
decision_tree_leaf
p1715
(dp1716
g11
g12
(g13
tp1717
Rp1718
g18
I1
ssg22
g18
sbsbsg23
(idecision_tree
continuous_decision_tree
p1719
(dp1720
g2
F16.5
sg3
I67
sg4
(idecision_tree
continuous_decision_tree
p1721
(dp1722
g2
F18.4375
sg3
I67
sg4
(idecision_tree
decision_tree_leaf
p1723
(dp1724
g11
g12
(g13
tp1725
Rp1726
S'Pn'
p1727
I1
ssg22
g1727
sbsg23
(idecision_tree
decision_tree_leaf
p1728
(dp1729
g11
g12
(g13
tp1730
Rp1731
g18
I1
ssg22
g18
sbsbsg23
(idecision_tree
continuous_decision_tree
p1732
(dp1733
g2
F0.31451450000000003
sg3
I49
sg4
(idecision_tree
continuous_decision_tree
p1734
(dp1735
g2
F-64.2241
sg3
I67
sg4
(idecision_tree
decision_tree_leaf
p1736
(dp1737
g11
g12
(g13
tp1738
Rp1739
S'Pn'
p1740
I1
ssg22
g1740
sbsg23
(idecision_tree
decision_tree_leaf
p1741
(dp1742
g11
g12
(g13
tp1743
Rp1744
g18
I1
ssg22
g18
sbsbsg23
(idecision_tree
continuous_decision_tree
p1745
(dp1746
g2
F11.6875
sg3
I67
sg4
(idecision_tree
decision_tree_leaf
p1747
(dp1748
g11
g12
(g13
tp1749
Rp1750
S'Pn'
p1751
I1
ssg22
g1751
sbsg23
(idecision_tree
decision_tree_leaf
p1752
(dp1753
g11
g12
(g13
tp1754
Rp1755
g18
I1
ssg22
g18
sbsbsbsbsbsbsbsg23
(idecision_tree
continuous_decision_tree
p1756
(dp1757
g2
F1.34265
sg3
I39
sg4
(idecision_tree
decision_tree_leaf
p1758
(dp1759
g11
g12
(g13
tp1760
Rp1761
g18
I30
sg19
I12
sS'Pn'
p1762
I10
ssg22
g18
sbsg23
(idecision_tree
continuous_decision_tree
p1763
(dp1764
g2
F18.16665
sg3
I63
sg4
(idecision_tree
decision_tree_leaf
p1765
(dp1766
g11
g12
(g13
tp1767
Rp1768
g18
I7
sg19
I1
sS'Pn'
p1769
I4
ssg22
g18
sbsg23
(idecision_tree
decision_tree_leaf
p1770
(dp1771
g11
g12
(g13
tp1772
Rp1773
g18
I4
sS'Pn'
p1774
I3
ssg22
g18
sbsbsbsbsg23
(idecision_tree
continuous_decision_tree
p1775
(dp1776
g2
F2.0
sg3
I62
sg4
(idecision_tree
decision_tree_leaf
p1777
(dp1778
g11
g12
(g13
tp1779
Rp1780
g18
I97
sg19
I20
sS'Pn'
p1781
I37
sS'Sn'
p1782
I11
sS'Pg'
p1783
I2
ssg22
g18
sbsg23
(idecision_tree
continuous_decision_tree
p1784
(dp1785
g2
F1.0
sg3
I58
sg4
(idecision_tree
decision_tree_leaf
p1786
(dp1787
g11
g12
(g13
tp1788
Rp1789
g19
I41
sg18
I117
sS'PKP'
p1790
I1
sS'Pn'
p1791
I18
sS'Sn'
p1792
I16
ssg22
g18
sbsg23
(idecision_tree
continuous_decision_tree
p1793
(dp1794
g2
F-35.40475
sg3
I67
sg4
(idecision_tree
continuous_decision_tree
p1795
(dp1796
g2
F-57.0
sg3
I63
sg4
(idecision_tree
continuous_decision_tree
p1797
(dp1798
g2
F0.0
sg3
I63
sg4
(idecision_tree
continuous_decision_tree
p1799
(dp1800
g2
F0.6401935000000001
sg3
I52
sg4
(idecision_tree
continuous_decision_tree
p1801
(dp1802
g2
F56.125
sg3
I67
sg4
(idecision_tree
continuous_decision_tree
p1803
(dp1804
g2
F1.12666
sg3
I48
sg4
(idecision_tree
continuous_decision_tree
p1805
(dp1806
g2
F1.01616
sg3
I49
sg4
(idecision_tree
continuous_decision_tree
p1807
(dp1808
g2
F2.0
sg3
I66
sg4
(idecision_tree
continuous_decision_tree
p1809
(dp1810
g2
F2.0
sg3
I63
sg4
(idecision_tree
decision_tree_leaf
p1811
(dp1812
g11
g12
(g13
tp1813
Rp1814
g18
I2
sg19
I1
ssg22
g18
sbsg23
(idecision_tree
continuous_decision_tree
p1815
(dp1816
g2
F162.0
sg3
I67
sg4
(idecision_tree
continuous_decision_tree
p1817
(dp1818
g2
F228.0
sg3
I67
sg4
(idecision_tree
decision_tree_leaf
p1819
(dp1820
g11
g12
(g13
tp1821
Rp1822
g18
I1
ssg22
g18
sbsg23
(idecision_tree
decision_tree_leaf
p1823
(dp1824
g11
g12
(g13
tp1825
Rp1826
g19
I1
ssg22
g19
sbsbsg23
(idecision_tree
decision_tree_leaf
p1827
(dp1828
g11
g12
(g13
tp1829
Rp1830
g18
I1
ssg22
g18
sbsbsbsg23
(idecision_tree
decision_tree_leaf
p1831
(dp1832
g11
g12
(g13
tp1833
Rp1834
g18
I1
ssg22
g18
sbsbsg23
(idecision_tree
continuous_decision_tree
p1835
(dp1836
g2
F218.0
sg3
I67
sg4
(idecision_tree
continuous_decision_tree
p1837
(dp1838
g2
F231.3125
sg3
I67
sg4
(idecision_tree
continuous_decision_tree
p1839
(dp1840
g2
F0.7580065
sg3
I52
sg4
(idecision_tree
continuous_decision_tree
p1841
(dp1842
g2
F0.2572185
sg3
I51
sg4
(idecision_tree
continuous_decision_tree
p1843
(dp1844
g2
F248.5
sg3
I67
sg4
(idecision_tree
decision_tree_leaf
p1845
(dp1846
g11
g12
(g13
tp1847
Rp1848
g18
I1
ssg22
g18
sbsg23
(idecision_tree
decision_tree_leaf
p1849
(dp1850
g11
g12
(g13
tp1851
Rp1852
S'Pn'
p1853
I1
ssg22
g1853
sbsbsg23
(idecision_tree
decision_tree_leaf
p1854
(dp1855
g11
g12
(g13
tp1856
Rp1857
g18
I1
ssg22
g18
sbsbsg23
(idecision_tree
decision_tree_leaf
p1858
(dp1859
g11
g12
(g13
tp1860
Rp1861
g18
I1
ssg22
g18
sbsbsg23
(idecision_tree
continuous_decision_tree
p1862
(dp1863
g2
F1.5
sg3
I66
sg4
(idecision_tree
continuous_decision_tree
p1864
(dp1865
g2
F224.8125
sg3
I67
sg4
(idecision_tree
decision_tree_leaf
p1866
(dp1867
g11
g12
(g13
tp1868
Rp1869
g18
I1
ssg22
g18
sbsg23
(idecision_tree
decision_tree_leaf
p1870
(dp1871
g11
g12
(g13
tp1872
Rp1873
g19
I1
ssg22
g19
sbsbsg23
(idecision_tree
decision_tree_leaf
p1874
(dp1875
g11
g12
(g13
tp1876
Rp1877
g18
I1
ssg22
g18
sbsbsbsg23
(idecision_tree
continuous_decision_tree
p1878
(dp1879
g2
F0.39075249999999995
sg3
I49
sg4
(idecision_tree
continuous_decision_tree
p1880
(dp1881
g2
F157.16649999999998
sg3
I67
sg4
(idecision_tree
continuous_decision_tree
p1882
(dp1883
g2
F209.611
sg3
I67
sg4
(idecision_tree
decision_tree_leaf
p1884
(dp1885
g11
g12
(g13
tp1886
Rp1887
g18
I1
ssg22
g18
sbsg23
(idecision_tree
continuous_decision_tree
p1888
(dp1889
g2
F0.26988449999999997
sg3
I51
sg4
(idecision_tree
continuous_decision_tree
p1890
(dp1891
g2
F197.111
sg3
I67
sg4
(idecision_tree
decision_tree_leaf
p1892
(dp1893
g11
g12
(g13
tp1894
Rp1895
S'Pn'
p1896
I1
ssg22
g1896
sbsg23
(idecision_tree
decision_tree_leaf
p1897
(dp1898
g11
g12
(g13
tp1899
Rp1900
g18
I1
ssg22
g18
sbsbsg23
(idecision_tree
decision_tree_leaf
p1901
(dp1902
g11
g12
(g13
tp1903
Rp1904
g18
I1
ssg22
g18
sbsbsbsg23
(idecision_tree
continuous_decision_tree
p1905
(dp1906
g2
F0.50044
sg3
I49
sg4
(idecision_tree
continuous_decision_tree
p1907
(dp1908
g2
F134.0
sg3
I67
sg4
(idecision_tree
decision_tree_leaf
p1909
(dp1910
g11
g12
(g13
tp1911
Rp1912
g19
I1
ssg22
g19
sbsg23
(idecision_tree
decision_tree_leaf
p1913
(dp1914
g11
g12
(g13
tp1915
Rp1916
g18
I1
ssg22
g18
sbsbsg23
(idecision_tree
decision_tree_leaf
p1917
(dp1918
g11
g12
(g13
tp1919
Rp1920
g18
I1
ssg22
g18
sbsbsbsg23
(idecision_tree
continuous_decision_tree
p1921
(dp1922
g2
F0.443683
sg3
I50
sg4
(idecision_tree
continuous_decision_tree
p1923
(dp1924
g2
F156.5
sg3
I67
sg4
(idecision_tree
decision_tree_leaf
p1925
(dp1926
g11
g12
(g13
tp1927
Rp1928
g18
I1
ssg22
g18
sbsg23
(idecision_tree
decision_tree_leaf
p1929
(dp1930
g11
g12
(g13
tp1931
Rp1932
g19
I1
ssg22
g19
sbsbsg23
(idecision_tree
decision_tree_leaf
p1933
(dp1934
g11
g12
(g13
tp1935
Rp1936
g18
I1
ssg22
g18
sbsbsbsbsbsg23
(idecision_tree
continuous_decision_tree
p1937
(dp1938
g2
F2.0
sg3
I66
sg4
(idecision_tree
continuous_decision_tree
p1939
(dp1940
g2
F68.9765
sg3
I40
sg4
(idecision_tree
continuous_decision_tree
p1941
(dp1942
g2
F165.08350000000002
sg3
I67
sg4
(idecision_tree
continuous_decision_tree
p1943
(dp1944
g2
F205.875
sg3
I67
sg4
(idecision_tree
continuous_decision_tree
p1945
(dp1946
g2
F0.7778005
sg3
I49
sg4
(idecision_tree
decision_tree_leaf
p1947
(dp1948
g11
g12
(g13
tp1949
Rp1950
g18
I2
sS'Sn'
p1951
I1
ssg22
g18
sbsg23
(idecision_tree
decision_tree_leaf
p1952
(dp1953
g11
g12
(g13
tp1954
Rp1955
g18
I5
sS'Pn'
p1956
I2
ssg22
g18
sbsbsg23
(idecision_tree
decision_tree_leaf
p1957
(dp1958
g11
g12
(g13
tp1959
Rp1960
g18
I2
sS'Pn'
p1961
I1
ssg22
g18
sbsbsg23
(idecision_tree
continuous_decision_tree
p1962
(dp1963
g2
F3.5
sg3
I66
sg4
(idecision_tree
continuous_decision_tree
p1964
(dp1965
g2
F161.41649999999998
sg3
I67
sg4
(idecision_tree
decision_tree_leaf
p1966
(dp1967
g11
g12
(g13
tp1968
Rp1969
S'Pn'
p1970
I1
ssg22
g1970
sbsg23
(idecision_tree
decision_tree_leaf
p1971
(dp1972
g11
g12
(g13
tp1973
Rp1974
g18
I1
ssg22
g18
sbsbsg23
(idecision_tree
decision_tree_leaf
p1975
(dp1976
g11
g12
(g13
tp1977
Rp1978
g18
I1
ssg22
g18
sbsbsbsg23
(idecision_tree
continuous_decision_tree
p1979
(dp1980
g2
F130.875
sg3
I67
sg4
(idecision_tree
continuous_decision_tree
p1981
(dp1982
g2
F1.614095
sg3
I49
sg4
(idecision_tree
continuous_decision_tree
p1983
(dp1984
g2
F175.4375
sg3
I67
sg4
(idecision_tree
decision_tree_leaf
p1985
(dp1986
g11
g12
(g13
tp1987
Rp1988
g18
I2
ssg22
g18
sbsg23
(idecision_tree
decision_tree_leaf
p1989
(dp1990
g11
g12
(g13
tp1991
Rp1992
S'Sn'
p1993
I1
ssg22
g1993
sbsbsg23
(idecision_tree
continuous_decision_tree
p1994
(dp1995
g2
F0.9081095
sg3
I48
sg4
(idecision_tree
continuous_decision_tree
p1996
(dp1997
g2
F1.549355
sg3
I52
sg4
(idecision_tree
continuous_decision_tree
p1998
(dp1999
g2
F208.0
sg3
I67
sg4
(idecision_tree
decision_tree_leaf
p2000
(dp2001
g11
g12
(g13
tp2002
Rp2003
g18
I1
ssg22
g18
sbsg23
(idecision_tree
decision_tree_leaf
p2004
(dp2005
g11
g12
(g13
tp2006
Rp2007
S'Sn'
p2008
I1
ssg22
g2008
sbsbsg23
(idecision_tree
decision_tree_leaf
p2009
(dp2010
g11
g12
(g13
tp2011
Rp2012
g18
I1
ssg22
g18
sbsbsg23
(idecision_tree
continuous_decision_tree
p2013
(dp2014
g2
F0.759609
sg3
I52
sg4
(idecision_tree
continuous_decision_tree
p2015
(dp2016
g2
F0.8031975
sg3
I49
sg4
(idecision_tree
continuous_decision_tree
p2017
(dp2018
g2
F171.20850000000002
sg3
I67
sg4
(idecision_tree
decision_tree_leaf
p2019
(dp2020
g11
g12
(g13
tp2021
Rp2022
g18
I1
ssg22
g18
sbsg23
(idecision_tree
decision_tree_leaf
p2023
(dp2024
g11
g12
(g13
tp2025
Rp2026
g19
I1
ssg22
g19
sbsbsg23
(idecision_tree
decision_tree_leaf
p2027
(dp2028
g11
g12
(g13
tp2029
Rp2030
g18
I1
ssg22
g18
sbsbsg23
(idecision_tree
decision_tree_leaf
p2031
(dp2032
g11
g12
(g13
tp2033
Rp2034
g18
I1
ssg22
g18
sbsbsbsbsg23
(idecision_tree
continuous_decision_tree
p2035
(dp2036
g2
F88.875
sg3
I67
sg4
(idecision_tree
continuous_decision_tree
p2037
(dp2038
g2
F122.375
sg3
I67
sg4
(idecision_tree
decision_tree_leaf
p2039
(dp2040
g11
g12
(g13
tp2041
Rp2042
g18
I1
ssg22
g18
sbsg23
(idecision_tree
decision_tree_leaf
p2043
(dp2044
g11
g12
(g13
tp2045
Rp2046
g19
I1
ssg22
g19
sbsbsg23
(idecision_tree
decision_tree_leaf
p2047
(dp2048
g11
g12
(g13
tp2049
Rp2050
g18
I1
ssg22
g18
sbsbsbsbsg23
(idecision_tree
continuous_decision_tree
p2051
(dp2052
g2
F151.375
sg3
I67
sg4
(idecision_tree
continuous_decision_tree
p2053
(dp2054
g2
F192.5
sg3
I67
sg4
(idecision_tree
continuous_decision_tree
p2055
(dp2056
g2
F0.6762159999999999
sg3
I49
sg4
(idecision_tree
decision_tree_leaf
p2057
(dp2058
g11
g12
(g13
tp2059
Rp2060
g18
I8
sg19
I2
sS'Sn'
p2061
I1
ssg22
g18
sbsg23
(idecision_tree
continuous_decision_tree
p2062
(dp2063
g2
F30.11355
sg3
I44
sg4
(idecision_tree
continuous_decision_tree
p2064
(dp2065
g2
F0.8419765
sg3
I34
sg4
(idecision_tree
continuous_decision_tree
p2066
(dp2067
g2
F259.875
sg3
I67
sg4
(idecision_tree
decision_tree_leaf
p2068
(dp2069
g11
g12
(g13
tp2070
Rp2071
g19
I1
ssg22
g19
sbsg23
(idecision_tree
decision_tree_leaf
p2072
(dp2073
g11
g12
(g13
tp2074
Rp2075
g18
I1
ssg22
g18
sbsbsg23
(idecision_tree
decision_tree_leaf
p2076
(dp2077
g11
g12
(g13
tp2078
Rp2079
g18
I1
ssg22
g18
sbsbsg23
(idecision_tree
decision_tree_leaf
p2080
(dp2081
g11
g12
(g13
tp2082
Rp2083
g18
I3
sS'Pn'
p2084
I1
ssg22
g18
sbsbsbsg23
(idecision_tree
continuous_decision_tree
p2085
(dp2086
g2
F184.0
sg3
I67
sg4
(idecision_tree
decision_tree_leaf
p2087
(dp2088
g11
g12
(g13
tp2089
Rp2090
g18
I2
sg19
I1
ssg22
g18
sbsg23
(idecision_tree
continuous_decision_tree
p2091
(dp2092
g2
F0.679312
sg3
I52
sg4
(idecision_tree
continuous_decision_tree
p2093
(dp2094
g2
F0.2035905
sg3
I51
sg4
(idecision_tree
continuous_decision_tree
p2095
(dp2096
g2
F165.75
sg3
I67
sg4
(idecision_tree
decision_tree_leaf
p2097
(dp2098
g11
g12
(g13
tp2099
Rp2100
S'PKP'
p2101
I1
ssg22
g2101
sbsg23
(idecision_tree
decision_tree_leaf
p2102
(dp2103
g11
g12
(g13
tp2104
Rp2105
g18
I1
ssg22
g18
sbsbsg23
(idecision_tree
decision_tree_leaf
p2106
(dp2107
g11
g12
(g13
tp2108
Rp2109
g18
I1
ssg22
g18
sbsbsg23
(idecision_tree
decision_tree_leaf
p2110
(dp2111
g11
g12
(g13
tp2112
Rp2113
g18
I1
ssg22
g18
sbsbsbsbsg23
(idecision_tree
decision_tree_leaf
p2114
(dp2115
g11
g12
(g13
tp2116
Rp2117
g18
I18
sg19
I5
sS'Pn'
p2118
I1
sS'Sn'
p2119
I1
ssg22
g18
sbsbsbsbsg23
(idecision_tree
continuous_decision_tree
p2120
(dp2121
g2
F0.0
sg3
I59
sg4
(idecision_tree
continuous_decision_tree
p2122
(dp2123
g2
F0.0
sg3
I67
sg4
(idecision_tree
continuous_decision_tree
p2124
(dp2125
g2
F0.0
sg3
I62
sg4
(idecision_tree
continuous_decision_tree
p2126
(dp2127
g2
F0.9889615
sg3
I35
sg4
(idecision_tree
continuous_decision_tree
p2128
(dp2129
g2
F-0.5
sg3
I66
sg4
(idecision_tree
continuous_decision_tree
p2130
(dp2131
g2
F0.139326
sg3
I51
sg4
(idecision_tree
decision_tree_leaf
p2132
(dp2133
g11
g12
(g13
tp2134
Rp2135
g18
I1
sS'Pn'
p2136
I1
ssg22
g18
sbsg23
(idecision_tree
decision_tree_leaf
p2137
(dp2138
g11
g12
(g13
tp2139
Rp2140
g18
I1
ssg22
g18
sbsbsg23
(idecision_tree
decision_tree_leaf
p2141
(dp2142
g11
g12
(g13
tp2143
Rp2144
g18
I1
ssg22
g18
sbsbsg23
(idecision_tree
continuous_decision_tree
p2145
(dp2146
g2
F0.0
sg3
I58
sg4
(idecision_tree
decision_tree_leaf
p2147
(dp2148
g11
g12
(g13
tp2149
Rp2150
g18
I94
sg19
I12
sS'Pn'
p2151
I13
sS'Sn'
p2152
I5
ssg22
g18
sbsg23
(idecision_tree
continuous_decision_tree
p2153
(dp2154
g2
F-2.5
sg3
I58
sg4
(idecision_tree
continuous_decision_tree
p2155
(dp2156
g2
F45.99165
sg3
I67
sg4
(idecision_tree
decision_tree_leaf
p2157
(dp2158
g11
g12
(g13
tp2159
Rp2160
g19
I1
ssg22
g19
sbsg23
(idecision_tree
decision_tree_leaf
p2161
(dp2162
g11
g12
(g13
tp2163
Rp2164
g18
I1
ssg22
g18
sbsbsg23
(idecision_tree
decision_tree_leaf
p2165
(dp2166
g11
g12
(g13
tp2167
Rp2168
g19
I1
ssg22
g19
sbsbsbsbsg23
(idecision_tree
continuous_decision_tree
p2169
(dp2170
g2
F3.791665
sg3
I67
sg4
(idecision_tree
continuous_decision_tree
p2171
(dp2172
g2
F11.9643
sg3
I67
sg4
(idecision_tree
continuous_decision_tree
p2173
(dp2174
g2
F-2.0
sg3
I58
sg4
(idecision_tree
continuous_decision_tree
p2175
(dp2176
g2
F25.0
sg3
I67
sg4
(idecision_tree
continuous_decision_tree
p2177
(dp2178
g2
F31.08335
sg3
I67
sg4
(idecision_tree
decision_tree_leaf
p2179
(dp2180
g11
g12
(g13
tp2181
Rp2182
g18
I1
ssg22
g18
sbsg23
(idecision_tree
decision_tree_leaf
p2183
(dp2184
g11
g12
(g13
tp2185
Rp2186
S'Lg'
p2187
I1
ssg22
g2187
sbsbsg23
(idecision_tree
decision_tree_leaf
p2188
(dp2189
g11
g12
(g13
tp2190
Rp2191
S'Sn'
p2192
I1
ssg22
g2192
sbsbsg23
(idecision_tree
decision_tree_leaf
p2193
(dp2194
g11
g12
(g13
tp2195
Rp2196
S'Sn'
p2197
I1
ssg22
g2197
sbsbsg23
(idecision_tree
continuous_decision_tree
p2198
(dp2199
g2
F5.416665
sg3
I67
sg4
(idecision_tree
decision_tree_leaf
p2200
(dp2201
g11
g12
(g13
tp2202
Rp2203
g18
I1
ssg22
g18
sbsg23
(idecision_tree
decision_tree_leaf
p2204
(dp2205
g11
g12
(g13
tp2206
Rp2207
S'Sn'
p2208
I1
ssg22
g2208
sbsbsbsg23
(idecision_tree
continuous_decision_tree
p2209
(dp2210
g2
F1.25
sg3
I67
sg4
(idecision_tree
decision_tree_leaf
p2211
(dp2212
g11
g12
(g13
tp2213
Rp2214
g19
I1
ssg22
g19
sbsg23
(idecision_tree
decision_tree_leaf
p2215
(dp2216
g11
g12
(g13
tp2217
Rp2218
g18
I1
ssg22
g18
sbsbsbsbsg23
(idecision_tree
continuous_decision_tree
p2219
(dp2220
g2
F-19.83335
sg3
I67
sg4
(idecision_tree
continuous_decision_tree
p2221
(dp2222
g2
F-2.5
sg3
I58
sg4
(idecision_tree
continuous_decision_tree
p2223
(dp2224
g2
F-15.66665
sg3
I67
sg4
(idecision_tree
continuous_decision_tree
p2225
(dp2226
g2
F-11.96665
sg3
I67
sg4
(idecision_tree
continuous_decision_tree
p2227
(dp2228
g2
F10.875
sg3
I63
sg4
(idecision_tree
continuous_decision_tree
p2229
(dp2230
g2
F-7.466665
sg3
I67
sg4
(idecision_tree
decision_tree_leaf
p2231
(dp2232
g11
g12
(g13
tp2233
Rp2234
g18
I1
ssg22
g18
sbsg23
(idecision_tree
decision_tree_leaf
p2235
(dp2236
g11
g12
(g13
tp2237
Rp2238
S'Sn'
p2239
I1
ssg22
g2239
sbsbsg23
(idecision_tree
decision_tree_leaf
p2240
(dp2241
g11
g12
(g13
tp2242
Rp2243
g18
I1
ssg22
g18
sbsbsg23
(idecision_tree
continuous_decision_tree
p2244
(dp2245
g2
F-13.8333
sg3
I67
sg4
(idecision_tree
decision_tree_leaf
p2246
(dp2247
g11
g12
(g13
tp2248
Rp2249
g18
I1
ssg22
g18
sbsg23
(idecision_tree
decision_tree_leaf
p2250
(dp2251
g11
g12
(g13
tp2252
Rp2253
S'Sn'
p2254
I1
ssg22
g2254
sbsbsbsg23
(idecision_tree
continuous_decision_tree
p2255
(dp2256
g2
F-17.0
sg3
I67
sg4
(idecision_tree
decision_tree_leaf
p2257
(dp2258
g11
g12
(g13
tp2259
Rp2260
g18
I1
ssg22
g18
sbsg23
(idecision_tree
decision_tree_leaf
p2261
(dp2262
g11
g12
(g13
tp2263
Rp2264
S'Sn'
p2265
I1
ssg22
g2265
sbsbsbsg23
(idecision_tree
continuous_decision_tree
p2266
(dp2267
g2
F-14.33335
sg3
I67
sg4
(idecision_tree
decision_tree_leaf
p2268
(dp2269
g11
g12
(g13
tp2270
Rp2271
g19
I1
ssg22
g19
sbsg23
(idecision_tree
decision_tree_leaf
p2272
(dp2273
g11
g12
(g13
tp2274
Rp2275
S'Sn'
p2276
I1
ssg22
g2276
sbsbsbsg23
(idecision_tree
continuous_decision_tree
p2277
(dp2278
g2
F-27.58335
sg3
I67
sg4
(idecision_tree
decision_tree_leaf
p2279
(dp2280
g11
g12
(g13
tp2281
Rp2282
g19
I1
ssg22
g19
sbsg23
(idecision_tree
decision_tree_leaf
p2283
(dp2284
g11
g12
(g13
tp2285
Rp2286
g18
I1
ssg22
g18
sbsbsbsbsg23
(idecision_tree
decision_tree_leaf
p2287
(dp2288
g11
g12
(g13
tp2289
Rp2290
g18
I1
ssg22
g18
sbsbsbsg23
(idecision_tree
continuous_decision_tree
p2291
(dp2292
g2
F0.0
sg3
I66
sg4
(idecision_tree
decision_tree_leaf
p2293
(dp2294
g11
g12
(g13
tp2295
Rp2296
g18
I134
sg19
I6
sS'Pn'
p2297
I44
sS'Pg'
p2298
I2
sS'Sn'
p2299
I4
ssg22
g18
sbsg23
(idecision_tree
continuous_decision_tree
p2300
(dp2301
g2
F-14.0625
sg3
I67
sg4
(idecision_tree
continuous_decision_tree
p2302
(dp2303
g2
F17.25
sg3
I67
sg4
(idecision_tree
continuous_decision_tree
p2304
(dp2305
g2
F0.3743375
sg3
I51
sg4
(idecision_tree
continuous_decision_tree
p2306
(dp2307
g2
F-2.5
sg3
I62
sg4
(idecision_tree
continuous_decision_tree
p2308
(dp2309
g2
F2.33494
sg3
I39
sg4
(idecision_tree
continuous_decision_tree
p2310
(dp2311
g2
F27.53125
sg3
I67
sg4
(idecision_tree
decision_tree_leaf
p2312
(dp2313
g11
g12
(g13
tp2314
Rp2315
g18
I1
ssg22
g18
sbsg23
(idecision_tree
decision_tree_leaf
p2316
(dp2317
g11
g12
(g13
tp2318
Rp2319
S'Sn'
p2320
I1
ssg22
g2320
sbsbsg23
(idecision_tree
decision_tree_leaf
p2321
(dp2322
g11
g12
(g13
tp2323
Rp2324
g18
I1
ssg22
g18
sbsbsg23
(idecision_tree
decision_tree_leaf
p2325
(dp2326
g11
g12
(g13
tp2327
Rp2328
g18
I1
ssg22
g18
sbsbsg23
(idecision_tree
continuous_decision_tree
p2329
(dp2330
g2
F-1.0
sg3
I66
sg4
(idecision_tree
continuous_decision_tree
p2331
(dp2332
g2
F36.083349999999996
sg3
I67
sg4
(idecision_tree
decision_tree_leaf
p2333
(dp2334
g11
g12
(g13
tp2335
Rp2336
g18
I1
ssg22
g18
sbsg23
(idecision_tree
decision_tree_leaf
p2337
(dp2338
g11
g12
(g13
tp2339
Rp2340
S'Pn'
p2341
I1
ssg22
g2341
sbsbsg23
(idecision_tree
decision_tree_leaf
p2342
(dp2343
g11
g12
(g13
tp2344
Rp2345
g18
I2
ssg22
g18
sbsbsbsg23
(idecision_tree
continuous_decision_tree
p2346
(dp2347
g2
F35.63335
sg3
I59
sg4
(idecision_tree
decision_tree_leaf
p2348
(dp2349
g11
g12
(g13
tp2350
Rp2351
g18
I1
ssg22
g18
sbsg23
(idecision_tree
continuous_decision_tree
p2352
(dp2353
g2
F0.814146
sg3
I49
sg4
(idecision_tree
continuous_decision_tree
p2354
(dp2355
g2
F-2.333315
sg3
I67
sg4
(idecision_tree
decision_tree_leaf
p2356
(dp2357
g11
g12
(g13
tp2358
Rp2359
g18
I1
ssg22
g18
sbsg23
(idecision_tree
decision_tree_leaf
p2360
(dp2361
g11
g12
(g13
tp2362
Rp2363
S'Sn'
p2364
I1
ssg22
g2364
sbsbsg23
(idecision_tree
decision_tree_leaf
p2365
(dp2366
g11
g12
(g13
tp2367
Rp2368
g18
I1
ssg22
g18
sbsbsbsbsg23
(idecision_tree
continuous_decision_tree
p2369
(dp2370
g2
F-18.64585
sg3
I67
sg4
(idecision_tree
decision_tree_leaf
p2371
(dp2372
g11
g12
(g13
tp2373
Rp2374
g18
I1
ssg22
g18
sbsg23
(idecision_tree
continuous_decision_tree
p2375
(dp2376
g2
F49.5
sg3
I63
sg4
(idecision_tree
continuous_decision_tree
p2377
(dp2378
g2
F-27.75
sg3
I67
sg4
(idecision_tree
decision_tree_leaf
p2379
(dp2380
g11
g12
(g13
tp2381
Rp2382
S'Pn'
p2383
I1
ssg22
g2383
sbsg23
(idecision_tree
decision_tree_leaf
p2384
(dp2385
g11
g12
(g13
tp2386
Rp2387
g18
I1
ssg22
g18
sbsbsg23
(idecision_tree
decision_tree_leaf
p2388
(dp2389
g11
g12
(g13
tp2390
Rp2391
g18
I1
ssg22
g18
sbsbsbsbsbsbsg23
(idecision_tree
continuous_decision_tree
p2392
(dp2393
g2
F1.63713
sg3
I52
sg4
(idecision_tree
continuous_decision_tree
p2394
(dp2395
g2
F-30.6875
sg3
I67
sg4
(idecision_tree
continuous_decision_tree
p2396
(dp2397
g2
F-26.201700000000002
sg3
I67
sg4
(idecision_tree
continuous_decision_tree
p2398
(dp2399
g2
F-24.0
sg3
I67
sg4
(idecision_tree
continuous_decision_tree
p2400
(dp2401
g2
F-23.5104
sg3
I67
sg4
(idecision_tree
continuous_decision_tree
p2402
(dp2403
g2
F-29.5104
sg3
I63
sg4
(idecision_tree
continuous_decision_tree
p2404
(dp2405
g2
F128.0625
sg3
I67
sg4
(idecision_tree
continuous_decision_tree
p2406
(dp2407
g2
F140.6875
sg3
I67
sg4
(idecision_tree
decision_tree_leaf
p2408
(dp2409
g11
g12
(g13
tp2410
Rp2411
S'Sn'
p2412
I1
ssg22
g2412
sbsg23
(idecision_tree
decision_tree_leaf
p2413
(dp2414
g11
g12
(g13
tp2415
Rp2416
g19
I1
ssg22
g19
sbsbsg23
(idecision_tree
continuous_decision_tree
p2417
(dp2418
g2
F1.663965
sg3
I52
sg4
(idecision_tree
continuous_decision_tree
p2419
(dp2420
g2
F0.256747
sg3
I51
sg4
(idecision_tree
continuous_decision_tree
p2421
(dp2422
g2
F1.48231
sg3
I39
sg4
(idecision_tree
continuous_decision_tree
p2423
(dp2424
g2
F8.451665
sg3
I40
sg4
(idecision_tree
continuous_decision_tree
p2425
(dp2426
g2
F3.9992900000000002
sg3
I49
sg4
(idecision_tree
continuous_decision_tree
p2427
(dp2428
g2
F-6.995850000000001
sg3
I67
sg4
(idecision_tree
decision_tree_leaf
p2429
(dp2430
g11
g12
(g13
tp2431
Rp2432
g19
I1
ssg22
g19
sbsg23
(idecision_tree
decision_tree_leaf
p2433
(dp2434
g11
g12
(g13
tp2435
Rp2436
S'Sn'
p2437
I1
ssg22
g2437
sbsbsg23
(idecision_tree
continuous_decision_tree
p2438
(dp2439
g2
F7.98546
sg3
I37
sg4
(idecision_tree
continuous_decision_tree
p2440
(dp2441
g2
F58.875
sg3
I67
sg4
(idecision_tree
decision_tree_leaf
p2442
(dp2443
g11
g12
(g13
tp2444
Rp2445
S'Sn'
p2446
I1
ssg22
g2446
sbsg23
(idecision_tree
decision_tree_leaf
p2447
(dp2448
g11
g12
(g13
tp2449
Rp2450
g19
I1
ssg22
g19
sbsbsg23
(idecision_tree
continuous_decision_tree
p2451
(dp2452
g2
F0.0
sg3
I66
sg4
(idecision_tree
continuous_decision_tree
p2453
(dp2454
g2
F-7.166665
sg3
I67
sg4
(idecision_tree
decision_tree_leaf
p2455
(dp2456
g11
g12
(g13
tp2457
Rp2458
g19
I2
sS'Sn'
p2459
I1
ssg22
g19
sbsg23
(idecision_tree
decision_tree_leaf
p2460
(dp2461
g11
g12
(g13
tp2462
Rp2463
g19
I1
ssg22
g19
sbsbsg23
(idecision_tree
continuous_decision_tree
p2464
(dp2465
g2
F1.721865
sg3
I52
sg4
(idecision_tree
continuous_decision_tree
p2466
(dp2467
g2
F-1.0
sg3
I66
sg4
(idecision_tree
decision_tree_leaf
p2468
(dp2469
g11
g12
(g13
tp2470
Rp2471
g18
I1
sg19
I2
sS'Sn'
p2472
I1
ssg22
g19
sbsg23
(idecision_tree
continuous_decision_tree
p2473
(dp2474
g2
F1.8431950000000001
sg3
I52
sg4
(idecision_tree
continuous_decision_tree
p2475
(dp2476
g2
F-3.5
sg3
I66
sg4
(idecision_tree
continuous_decision_tree
p2477
(dp2478
g2
F-14.483335
sg3
I67
sg4
(idecision_tree
decision_tree_leaf
p2479
(dp2480
g11
g12
(g13
tp2481
Rp2482
g18
I1
ssg22
g18
sbsg23
(idecision_tree
decision_tree_leaf
p2483
(dp2484
g11
g12
(g13
tp2485
Rp2486
g19
I1
ssg22
g19
sbsbsg23
(idecision_tree
continuous_decision_tree
p2487
(dp2488
g2
F-18.125
sg3
I67
sg4
(idecision_tree
continuous_decision_tree
p2489
(dp2490
g2
F1.158585
sg3
I51
sg4
(idecision_tree
continuous_decision_tree
p2491
(dp2492
g2
F-11.25
sg3
I67
sg4
(idecision_tree
decision_tree_leaf
p2493
(dp2494
g11
g12
(g13
tp2495
Rp2496
g19
I1
ssg22
g19
sbsg23
(idecision_tree
decision_tree_leaf
p2497
(dp2498
g11
g12
(g13
tp2499
Rp2500
S'Sn'
p2501
I1
ssg22
g2501
sbsbsg23
(idecision_tree
decision_tree_leaf
p2502
(dp2503
g11
g12
(g13
tp2504
Rp2505
g19
I1
ssg22
g19
sbsbsg23
(idecision_tree
continuous_decision_tree
p2506
(dp2507
g2
F-20.625
sg3
I67
sg4
(idecision_tree
decision_tree_leaf
p2508
(dp2509
g11
g12
(g13
tp2510
Rp2511
g19
I1
ssg22
g19
sbsg23
(idecision_tree
decision_tree_leaf
p2512
(dp2513
g11
g12
(g13
tp2514
Rp2515
S'Sn'
p2516
I1
ssg22
g2516
sbsbsbsbsg23
(idecision_tree
continuous_decision_tree
p2517
(dp2518
g2
F-20.84375
sg3
I67
sg4
(idecision_tree
decision_tree_leaf
p2519
(dp2520
g11
g12
(g13
tp2521
Rp2522
g18
I1
ssg22
g18
sbsg23
(idecision_tree
decision_tree_leaf
p2523
(dp2524
g11
g12
(g13
tp2525
Rp2526
S'Sn'
p2527
I1
ssg22
g2527
sbsbsbsbsg23
(idecision_tree
continuous_decision_tree
p2528
(dp2529
g2
F-17.91665
sg3
I67
sg4
(idecision_tree
decision_tree_leaf
p2530
(dp2531
g11
g12
(g13
tp2532
Rp2533
g19
I1
ssg22
g19
sbsg23
(idecision_tree
decision_tree_leaf
p2534
(dp2535
g11
g12
(g13
tp2536
Rp2537
S'Sn'
p2538
I1
ssg22
g2538
sbsbsbsbsbsbsg23
(idecision_tree
continuous_decision_tree
p2539
(dp2540
g2
F-9.3125
sg3
I67
sg4
(idecision_tree
decision_tree_leaf
p2541
(dp2542
g11
g12
(g13
tp2543
Rp2544
g19
I1
ssg22
g19
sbsg23
(idecision_tree
decision_tree_leaf
p2545
(dp2546
g11
g12
(g13
tp2547
Rp2548
S'Sn'
p2549
I1
ssg22
g2549
sbsbsbsg23
(idecision_tree
continuous_decision_tree
p2550
(dp2551
g2
F-20.9375
sg3
I67
sg4
(idecision_tree
decision_tree_leaf
p2552
(dp2553
g11
g12
(g13
tp2554
Rp2555
g19
I1
ssg22
g19
sbsg23
(idecision_tree
decision_tree_leaf
p2556
(dp2557
g11
g12
(g13
tp2558
Rp2559
S'Sn'
p2560
I1
ssg22
g2560
sbsbsbsg23
(idecision_tree
decision_tree_leaf
p2561
(dp2562
g11
g12
(g13
tp2563
Rp2564
g18
I1
sS'Pn'
p2565
I1
ssg22
g18
sbsbsg23
(idecision_tree
continuous_decision_tree
p2566
(dp2567
g2
F-15.41665
sg3
I67
sg4
(idecision_tree
decision_tree_leaf
p2568
(dp2569
g11
g12
(g13
tp2570
Rp2571
g19
I1
ssg22
g19
sbsg23
(idecision_tree
decision_tree_leaf
p2572
(dp2573
g11
g12
(g13
tp2574
Rp2575
g18
I1
ssg22
g18
sbsbsbsbsg23
(idecision_tree
continuous_decision_tree
p2576
(dp2577
g2
F90.2855
sg3
I67
sg4
(idecision_tree
decision_tree_leaf
p2578
(dp2579
g11
g12
(g13
tp2580
Rp2581
g19
I1
ssg22
g19
sbsg23
(idecision_tree
decision_tree_leaf
p2582
(dp2583
g11
g12
(g13
tp2584
Rp2585
S'Sn'
p2586
I1
ssg22
g2586
sbsbsbsg23
(idecision_tree
decision_tree_leaf
p2587
(dp2588
g11
g12
(g13
tp2589
Rp2590
g19
I1
sS'Sn'
p2591
I1
ssg22
g19
sbsbsg23
(idecision_tree
decision_tree_leaf
p2592
(dp2593
g11
g12
(g13
tp2594
Rp2595
g19
I1
ssg22
g19
sbsbsg23
(idecision_tree
continuous_decision_tree
p2596
(dp2597
g2
F-5.0
sg3
I66
sg4
(idecision_tree
continuous_decision_tree
p2598
(dp2599
g2
F-29.1
sg3
I63
sg4
(idecision_tree
continuous_decision_tree
p2600
(dp2601
g2
F-18.3667
sg3
I63
sg4
(idecision_tree
continuous_decision_tree
p2602
(dp2603
g2
F-27.648400000000002
sg3
I67
sg4
(idecision_tree
decision_tree_leaf
p2604
(dp2605
g11
g12
(g13
tp2606
Rp2607
g19
I1
ssg22
g19
sbsg23
(idecision_tree
decision_tree_leaf
p2608
(dp2609
g11
g12
(g13
tp2610
Rp2611
S'Sn'
p2612
I1
ssg22
g2612
sbsbsg23
(idecision_tree
decision_tree_leaf
p2613
(dp2614
g11
g12
(g13
tp2615
Rp2616
g19
I2
sS'Sn'
p2617
I1
ssg22
g19
sbsbsg23
(idecision_tree
decision_tree_leaf
p2618
(dp2619
g11
g12
(g13
tp2620
Rp2621
g19
I1
sS'Sn'
p2622
I1
ssg22
g19
sbsbsg23
(idecision_tree
decision_tree_leaf
p2623
(dp2624
g11
g12
(g13
tp2625
Rp2626
S'Sn'
p2627
I1
ssg22
g2627
sbsbsbsg23
(idecision_tree
continuous_decision_tree
p2628
(dp2629
g2
F-2.0
sg3
I66
sg4
(idecision_tree
decision_tree_leaf
p2630
(dp2631
g11
g12
(g13
tp2632
Rp2633
g18
I1
sg19
I2
sS'Sn'
p2634
I1
ssg22
g19
sbsg23
(idecision_tree
continuous_decision_tree
p2635
(dp2636
g2
F-34.458349999999996
sg3
I67
sg4
(idecision_tree
decision_tree_leaf
p2637
(dp2638
g11
g12
(g13
tp2639
Rp2640
g19
I1
ssg22
g19
sbsg23
(idecision_tree
decision_tree_leaf
p2641
(dp2642
g11
g12
(g13
tp2643
Rp2644
S'Sn'
p2645
I1
ssg22
g2645
sbsbsbsbsg23
(idecision_tree
decision_tree_leaf
p2646
(dp2647
g11
g12
(g13
tp2648
Rp2649
S'Lg'
p2650
I2
sg18
I92
sg19
I46
sS'Sn'
p2651
I23
sS'Pn'
p2652
I20
sS'Pg'
p2653
I2
ssg22
g18
sbsbsbsg23
(idecision_tree
continuous_decision_tree
p2654
(dp2655
g2
F0.447704
sg3
I51
sg4
(idecision_tree
continuous_decision_tree
p2656
(dp2657
g2
F68.0
sg3
I67
sg4
(idecision_tree
continuous_decision_tree
p2658
(dp2659
g2
F0.535301
sg3
I52
sg4
(idecision_tree
continuous_decision_tree
p2660
(dp2661
g2
F144.6
sg3
I67
sg4
(idecision_tree
decision_tree_leaf
p2662
(dp2663
g11
g12
(g13
tp2664
Rp2665
g19
I1
ssg22
g19
sbsg23
(idecision_tree
decision_tree_leaf
p2666
(dp2667
g11
g12
(g13
tp2668
Rp2669
g18
I1
ssg22
g18
sbsbsg23
(idecision_tree
decision_tree_leaf
p2670
(dp2671
g11
g12
(g13
tp2672
Rp2673
g18
I1
ssg22
g18
sbsbsg23
(idecision_tree
continuous_decision_tree
p2674
(dp2675
g2
F27.7
sg3
I67
sg4
(idecision_tree
decision_tree_leaf
p2676
(dp2677
g11
g12
(g13
tp2678
Rp2679
S'Sn'
p2680
I1
ssg22
g2680
sbsg23
(idecision_tree
decision_tree_leaf
p2681
(dp2682
g11
g12
(g13
tp2683
Rp2684
g18
I1
ssg22
g18
sbsbsbsg23
(idecision_tree
continuous_decision_tree
p2685
(dp2686
g2
F-1.0
sg3
I66
sg4
(idecision_tree
decision_tree_leaf
p2687
(dp2688
g11
g12
(g13
tp2689
Rp2690
g18
I10
sS'Pn'
p2691
I5
ssg22
g18
sbsg23
(idecision_tree
continuous_decision_tree
p2692
(dp2693
g2
F32.35
sg3
I67
sg4
(idecision_tree
continuous_decision_tree
p2694
(dp2695
g2
F113.4165
sg3
I67
sg4
(idecision_tree
decision_tree_leaf
p2696
(dp2697
g11
g12
(g13
tp2698
Rp2699
S'Pn'
p2700
I1
ssg22
g2700
sbsg23
(idecision_tree
decision_tree_leaf
p2701
(dp2702
g11
g12
(g13
tp2703
Rp2704
g18
I1
ssg22
g18
sbsbsg23
(idecision_tree
decision_tree_leaf
p2705
(dp2706
g11
g12
(g13
tp2707
Rp2708
S'Pn'
p2709
I1
ssg22
g2709
sbsbsbsbsbsg23
(idecision_tree
continuous_decision_tree
p2710
(dp2711
g2
F0.666667
sg3
I8
sg4
(idecision_tree
continuous_decision_tree
p2712
(dp2713
g2
F0.204673
sg3
I52
sg4
(idecision_tree
continuous_decision_tree
p2714
(dp2715
g2
F3.25
sg3
I59
sg4
(idecision_tree
continuous_decision_tree
p2716
(dp2717
g2
F0.6057655
sg3
I49
sg4
(idecision_tree
continuous_decision_tree
p2718
(dp2719
g2
F-74.33315
sg3
I67
sg4
(idecision_tree
decision_tree_leaf
p2720
(dp2721
g11
g12
(g13
tp2722
Rp2723
S'Sn'
p2724
I1
ssg22
g2724
sbsg23
(idecision_tree
decision_tree_leaf
p2725
(dp2726
g11
g12
(g13
tp2727
Rp2728
g18
I1
ssg22
g18
sbsbsg23
(idecision_tree
decision_tree_leaf
p2729
(dp2730
g11
g12
(g13
tp2731
Rp2732
g18
I1
ssg22
g18
sbsbsg23
(idecision_tree
decision_tree_leaf
p2733
(dp2734
g11
g12
(g13
tp2735
Rp2736
g18
I111
sg19
I21
sS'Pn'
p2737
I17
sS'Sn'
p2738
I17
ssg22
g18
sbsbsg23
(idecision_tree
continuous_decision_tree
p2739
(dp2740
g2
F-15.25
sg3
I63
sg4
(idecision_tree
continuous_decision_tree
p2741
(dp2742
g2
F-103.59885
sg3
I67
sg4
(idecision_tree
decision_tree_leaf
p2743
(dp2744
g11
g12
(g13
tp2745
Rp2746
S'Pn'
p2747
I1
ssg22
g2747
sbsg23
(idecision_tree
decision_tree_leaf
p2748
(dp2749
g11
g12
(g13
tp2750
Rp2751
g18
I1
ssg22
g18
sbsbsg23
(idecision_tree
decision_tree_leaf
p2752
(dp2753
g11
g12
(g13
tp2754
Rp2755
g18
I1
ssg22
g18
sbsbsbsg23
(idecision_tree
continuous_decision_tree
p2756
(dp2757
g2
F-40.166650000000004
sg3
I63
sg4
(idecision_tree
continuous_decision_tree
p2758
(dp2759
g2
F-1.0
sg3
I66
sg4
(idecision_tree
continuous_decision_tree
p2760
(dp2761
g2
F-43.3333
sg3
I67
sg4
(idecision_tree
decision_tree_leaf
p2762
(dp2763
g11
g12
(g13
tp2764
Rp2765
g18
I2
sg19
I1
ssg22
g18
sbsg23
(idecision_tree
decision_tree_leaf
p2766
(dp2767
g11
g12
(g13
tp2768
Rp2769
g18
I33
sg19
I4
sS'Pn'
p2770
I9
sS'Sn'
p2771
I2
sS'Pg'
p2772
I1
ssg22
g18
sbsbsg23
(idecision_tree
continuous_decision_tree
p2773
(dp2774
g2
F-2.5
sg3
I58
sg4
(idecision_tree
continuous_decision_tree
p2775
(dp2776
g2
F-40.0
sg3
I67
sg4
(idecision_tree
decision_tree_leaf
p2777
(dp2778
g11
g12
(g13
tp2779
Rp2780
g18
I1
sg19
I2
ssg22
g19
sbsg23
(idecision_tree
continuous_decision_tree
p2781
(dp2782
g2
F-101.37485000000001
sg3
I67
sg4
(idecision_tree
continuous_decision_tree
p2783
(dp2784
g2
F-57.60835
sg3
I67
sg4
(idecision_tree
continuous_decision_tree
p2785
(dp2786
g2
F-1.0
sg3
I62
sg4
(idecision_tree
decision_tree_leaf
p2787
(dp2788
g11
g12
(g13
tp2789
Rp2790
g18
I2
sg19
I1
ssg22
g18
sbsg23
(idecision_tree
decision_tree_leaf
p2791
(dp2792
g11
g12
(g13
tp2793
Rp2794
g19
I1
ssg22
g19
sbsbsg23
(idecision_tree
continuous_decision_tree
p2795
(dp2796
g2
F-4.0
sg3
I66
sg4
(idecision_tree
continuous_decision_tree
p2797
(dp2798
g2
F-3.5
sg3
I66
sg4
(idecision_tree
decision_tree_leaf
p2799
(dp2800
g11
g12
(g13
tp2801
Rp2802
g18
I9
sg19
I4
sS'Pn'
p2803
I1
sS'Sn'
p2804
I3
ssg22
g18
sbsg23
(idecision_tree
continuous_decision_tree
p2805
(dp2806
g2
F-62.0
sg3
I67
sg4
(idecision_tree
decision_tree_leaf
p2807
(dp2808
g11
g12
(g13
tp2809
Rp2810
S'Sn'
p2811
I1
ssg22
g2811
sbsg23
(idecision_tree
decision_tree_leaf
p2812
(dp2813
g11
g12
(g13
tp2814
Rp2815
g19
I1
ssg22
g19
sbsbsbsg23
(idecision_tree
decision_tree_leaf
p2816
(dp2817
g11
g12
(g13
tp2818
Rp2819
g18
I1
ssg22
g18
sbsbsbsg23
(idecision_tree
continuous_decision_tree
p2820
(dp2821
g2
F-2.0
sg3
I66
sg4
(idecision_tree
continuous_decision_tree
p2822
(dp2823
g2
F2.49193
sg3
I39
sg4
(idecision_tree
continuous_decision_tree
p2824
(dp2825
g2
F0.26969299999999996
sg3
I52
sg4
(idecision_tree
continuous_decision_tree
p2826
(dp2827
g2
F-207.844
sg3
I67
sg4
(idecision_tree
continuous_decision_tree
p2828
(dp2829
g2
F-191.25
sg3
I67
sg4
(idecision_tree
continuous_decision_tree
p2830
(dp2831
g2
F-163.5
sg3
I67
sg4
(idecision_tree
decision_tree_leaf
p2832
(dp2833
g11
g12
(g13
tp2834
Rp2835
g19
I1
ssg22
g19
sbsg23
(idecision_tree
decision_tree_leaf
p2836
(dp2837
g11
g12
(g13
tp2838
Rp2839
g18
I1
ssg22
g18
sbsbsg23
(idecision_tree
decision_tree_leaf
p2840
(dp2841
g11
g12
(g13
tp2842
Rp2843
g18
I1
ssg22
g18
sbsbsg23
(idecision_tree
continuous_decision_tree
p2844
(dp2845
g2
F-242.594
sg3
I67
sg4
(idecision_tree
decision_tree_leaf
p2846
(dp2847
g11
g12
(g13
tp2848
Rp2849
g19
I1
ssg22
g19
sbsg23
(idecision_tree
decision_tree_leaf
p2850
(dp2851
g11
g12
(g13
tp2852
Rp2853
g18
I1
ssg22
g18
sbsbsbsg23
(idecision_tree
continuous_decision_tree
p2854
(dp2855
g2
F-196.16649999999998
sg3
I67
sg4
(idecision_tree
decision_tree_leaf
p2856
(dp2857
g11
g12
(g13
tp2858
Rp2859
S'Pn'
p2860
I1
ssg22
g2860
sbsg23
(idecision_tree
decision_tree_leaf
p2861
(dp2862
g11
g12
(g13
tp2863
Rp2864
g18
I1
ssg22
g18
sbsbsbsg23
(idecision_tree
continuous_decision_tree
p2865
(dp2866
g2
F-129.0625
sg3
I67
sg4
(idecision_tree
continuous_decision_tree
p2867
(dp2868
g2
F-113.771
sg3
I67
sg4
(idecision_tree
decision_tree_leaf
p2869
(dp2870
g11
g12
(g13
tp2871
Rp2872
g19
I1
ssg22
g19
sbsg23
(idecision_tree
decision_tree_leaf
p2873
(dp2874
g11
g12
(g13
tp2875
Rp2876
g18
I1
ssg22
g18
sbsbsg23
(idecision_tree
continuous_decision_tree
p2877
(dp2878
g2
F-16.0
sg3
I63
sg4
(idecision_tree
continuous_decision_tree
p2879
(dp2880
g2
F-207.125
sg3
I67
sg4
(idecision_tree
decision_tree_leaf
p2881
(dp2882
g11
g12
(g13
tp2883
Rp2884
S'Pn'
p2885
I1
ssg22
g2885
sbsg23
(idecision_tree
decision_tree_leaf
p2886
(dp2887
g11
g12
(g13
tp2888
Rp2889
g18
I1
ssg22
g18
sbsbsg23
(idecision_tree
decision_tree_leaf
p2890
(dp2891
g11
g12
(g13
tp2892
Rp2893
g18
I1
ssg22
g18
sbsbsbsbsg23
(idecision_tree
continuous_decision_tree
p2894
(dp2895
g2
F-3.0
sg3
I66
sg4
(idecision_tree
continuous_decision_tree
p2896
(dp2897
g2
F0.38560649999999996
sg3
I52
sg4
(idecision_tree
continuous_decision_tree
p2898
(dp2899
g2
F0.6492555
sg3
I52
sg4
(idecision_tree
continuous_decision_tree
p2900
(dp2901
g2
F-154.58350000000002
sg3
I67
sg4
(idecision_tree
decision_tree_leaf
p2902
(dp2903
g11
g12
(g13
tp2904
Rp2905
g19
I1
ssg22
g19
sbsg23
(idecision_tree
decision_tree_leaf
p2906
(dp2907
g11
g12
(g13
tp2908
Rp2909
g18
I1
ssg22
g18
sbsbsg23
(idecision_tree
decision_tree_leaf
p2910
(dp2911
g11
g12
(g13
tp2912
Rp2913
g19
I1
ssg22
g19
sbsbsg23
(idecision_tree
continuous_decision_tree
p2914
(dp2915
g2
F-164.1875
sg3
I67
sg4
(idecision_tree
decision_tree_leaf
p2916
(dp2917
g11
g12
(g13
tp2918
Rp2919
S'Pn'
p2920
I1
ssg22
g2920
sbsg23
(idecision_tree
decision_tree_leaf
p2921
(dp2922
g11
g12
(g13
tp2923
Rp2924
g18
I1
ssg22
g18
sbsbsbsg23
(idecision_tree
decision_tree_leaf
p2925
(dp2926
g11
g12
(g13
tp2927
Rp2928
g19
I1
ssg22
g19
sbsbsbsbsbsg23
(idecision_tree
continuous_decision_tree
p2929
(dp2930
g2
F-6.0
sg3
I66
sg4
(idecision_tree
decision_tree_leaf
p2931
(dp2932
g11
g12
(g13
tp2933
Rp2934
g19
I4
sS'Sn'
p2935
I5
ssg22
g2935
sbsg23
(idecision_tree
decision_tree_leaf
p2936
(dp2937
g11
g12
(g13
tp2938
Rp2939
g19
I1
ssg22
g19
sbsbsbsbsg23
(idecision_tree
continuous_decision_tree
p2940
(dp2941
g2
F-82.75
sg3
I67
sg4
(idecision_tree
continuous_decision_tree
p2942
(dp2943
g2
F-41.166650000000004
sg3
I67
sg4
(idecision_tree
continuous_decision_tree
p2944
(dp2945
g2
F-38.13635
sg3
I67
sg4
(idecision_tree
decision_tree_leaf
p2946
(dp2947
g11
g12
(g13
tp2948
Rp2949
g18
I1
ssg22
g18
sbsg23
(idecision_tree
decision_tree_leaf
p2950
(dp2951
g11
g12
(g13
tp2952
Rp2953
S'Sn'
p2954
I1
ssg22
g2954
sbsbsg23
(idecision_tree
continuous_decision_tree
p2955
(dp2956
g2
F3.129175
sg3
I52
sg4
(idecision_tree
continuous_decision_tree
p2957
(dp2958
g2
F-46.708349999999996
sg3
I67
sg4
(idecision_tree
decision_tree_leaf
p2959
(dp2960
g11
g12
(g13
tp2961
Rp2962
g18
I1
ssg22
g18
sbsg23
(idecision_tree
decision_tree_leaf
p2963
(dp2964
g11
g12
(g13
tp2965
Rp2966
g19
I1
ssg22
g19
sbsbsg23
(idecision_tree
continuous_decision_tree
p2967
(dp2968
g2
F-2.5
sg3
I62
sg4
(idecision_tree
continuous_decision_tree
p2969
(dp2970
g2
F-54.0
sg3
I63
sg4
(idecision_tree
continuous_decision_tree
p2971
(dp2972
g2
F-1.0
sg3
I66
sg4
(idecision_tree
decision_tree_leaf
p2973
(dp2974
g11
g12
(g13
tp2975
Rp2976
g18
I3
sg19
I1
ssg22
g18
sbsg23
(idecision_tree
continuous_decision_tree
p2977
(dp2978
g2
F-50.25
sg3
I67
sg4
(idecision_tree
decision_tree_leaf
p2979
(dp2980
g11
g12
(g13
tp2981
Rp2982
g18
I1
sg19
I1
ssg22
g18
sbsg23
(idecision_tree
continuous_decision_tree
p2983
(dp2984
g2
F-64.5
sg3
I67
sg4
(idecision_tree
decision_tree_leaf
p2985
(dp2986
g11
g12
(g13
tp2987
Rp2988
g18
I1
ssg22
g18
sbsg23
(idecision_tree
decision_tree_leaf
p2989
(dp2990
g11
g12
(g13
tp2991
Rp2992
g19
I1
ssg22
g19
sbsbsbsbsg23
(idecision_tree
decision_tree_leaf
p2993
(dp2994
g11
g12
(g13
tp2995
Rp2996
S'Pn'
p2997
I1
ssg22
g2997
sbsbsg23
(idecision_tree
continuous_decision_tree
p2998
(dp2999
g2
F-66.58335
sg3
I67
sg4
(idecision_tree
decision_tree_leaf
p3000
(dp3001
g11
g12
(g13
tp3002
Rp3003
g18
I1
ssg22
g18
sbsg23
(idecision_tree
decision_tree_leaf
p3004
(dp3005
g11
g12
(g13
tp3006
Rp3007
g19
I1
ssg22
g19
sbsbsbsbsbsg23
(idecision_tree
continuous_decision_tree
p3008
(dp3009
g2
F-92.14445
sg3
I67
sg4
(idecision_tree
continuous_decision_tree
p3010
(dp3011
g2
F-88.69445
sg3
I67
sg4
(idecision_tree
decision_tree_leaf
p3012
(dp3013
g11
g12
(g13
tp3014
Rp3015
g18
I1
ssg22
g18
sbsg23
(idecision_tree
decision_tree_leaf
p3016
(dp3017
g11
g12
(g13
tp3018
Rp3019
S'Sn'
p3020
I1
ssg22
g3020
sbsbsg23
(idecision_tree
continuous_decision_tree
p3021
(dp3022
g2
F-5.5
sg3
I66
sg4
(idecision_tree
continuous_decision_tree
p3023
(dp3024
g2
F-45.5
sg3
I63
sg4
(idecision_tree
continuous_decision_tree
p3025
(dp3026
g2
F-134.25
sg3
I67
sg4
(idecision_tree
decision_tree_leaf
p3027
(dp3028
g11
g12
(g13
tp3029
Rp3030
S'Pn'
p3031
I1
ssg22
g3031
sbsg23
(idecision_tree
decision_tree_leaf
p3032
(dp3033
g11
g12
(g13
tp3034
Rp3035
g18
I1
ssg22
g18
sbsbsg23
(idecision_tree
continuous_decision_tree
p3036
(dp3037
g2
F-100.0
sg3
I67
sg4
(idecision_tree
continuous_decision_tree
p3038
(dp3039
g2
F-96.2
sg3
I67
sg4
(idecision_tree
decision_tree_leaf
p3040
(dp3041
g11
g12
(g13
tp3042
Rp3043
g18
I1
ssg22
g18
sbsg23
(idecision_tree
decision_tree_leaf
p3044
(dp3045
g11
g12
(g13
tp3046
Rp3047
S'Pn'
p3048
I1
ssg22
g3048
sbsbsg23
(idecision_tree
continuous_decision_tree
p3049
(dp3050
g2
F-2.0
sg3
I66
sg4
(idecision_tree
decision_tree_leaf
p3051
(dp3052
g11
g12
(g13
tp3053
Rp3054
g18
I2
sg19
I2
sS'Pn'
p3055
I1
ssg22
g18
sbsg23
(idecision_tree
decision_tree_leaf
p3056
(dp3057
g11
g12
(g13
tp3058
Rp3059
g18
I2
ssg22
g18
sbsbsbsbsg23
(idecision_tree
continuous_decision_tree
p3060
(dp3061
g2
F-116.857
sg3
I67
sg4
(idecision_tree
decision_tree_leaf
p3062
(dp3063
g11
g12
(g13
tp3064
Rp3065
g18
I1
ssg22
g18
sbsg23
(idecision_tree
decision_tree_leaf
p3066
(dp3067
g11
g12
(g13
tp3068
Rp3069
g19
I1
ssg22
g19
sbsbsbsbsbsbsbsbsbsbsbsbsbsg23
(idecision_tree
continuous_decision_tree
p3070
(dp3071
g2
F-14.54165
sg3
I63
sg4
(idecision_tree
continuous_decision_tree
p3072
(dp3073
g2
F0.4710705
sg3
I49
sg4
(idecision_tree
continuous_decision_tree
p3074
(dp3075
g2
F0.855623
sg3
I34
sg4
(idecision_tree
decision_tree_leaf
p3076
(dp3077
g11
g12
(g13
tp3078
Rp3079
g18
I30
sg19
I3
sS'Pn'
p3080
I8
sS'Sn'
p3081
I3
ssg22
g18
sbsg23
(idecision_tree
continuous_decision_tree
p3082
(dp3083
g2
F4.0
sg3
I58
sg4
(idecision_tree
continuous_decision_tree
p3084
(dp3085
g2
F0.4967945
sg3
I38
sg4
(idecision_tree
continuous_decision_tree
p3086
(dp3087
g2
F5.5
sg3
I62
sg4
(idecision_tree
decision_tree_leaf
p3088
(dp3089
g11
g12
(g13
tp3090
Rp3091
g18
I1
ssg22
g18
sbsg23
(idecision_tree
continuous_decision_tree
p3092
(dp3093
g2
F43.125
sg3
I59
sg4
(idecision_tree
continuous_decision_tree
p3094
(dp3095
g2
F-61.9
sg3
I67
sg4
(idecision_tree
decision_tree_leaf
p3096
(dp3097
g11
g12
(g13
tp3098
Rp3099
S'Sn'
p3100
I1
ssg22
g3100
sbsg23
(idecision_tree
decision_tree_leaf
p3101
(dp3102
g11
g12
(g13
tp3103
Rp3104
g18
I1
ssg22
g18
sbsbsg23
(idecision_tree
decision_tree_leaf
p3105
(dp3106
g11
g12
(g13
tp3107
Rp3108
g18
I1
ssg22
g18
sbsbsbsg23
(idecision_tree
continuous_decision_tree
p3109
(dp3110
g2
F4.5
sg3
I58
sg4
(idecision_tree
decision_tree_leaf
p3111
(dp3112
g11
g12
(g13
tp3113
Rp3114
g18
I1
ssg22
g18
sbsg23
(idecision_tree
continuous_decision_tree
p3115
(dp3116
g2
F0.17041299999999998
sg3
I52
sg4
(idecision_tree
continuous_decision_tree
p3117
(dp3118
g2
F-36.466499999999996
sg3
I67
sg4
(idecision_tree
decision_tree_leaf
p3119
(dp3120
g11
g12
(g13
tp3121
Rp3122
S'Pn'
p3123
I1
ssg22
g3123
sbsg23
(idecision_tree
decision_tree_leaf
p3124
(dp3125
g11
g12
(g13
tp3126
Rp3127
g18
I1
ssg22
g18
sbsbsg23
(idecision_tree
decision_tree_leaf
p3128
(dp3129
g11
g12
(g13
tp3130
Rp3131
g18
I1
ssg22
g18
sbsbsbsbsg23
(idecision_tree
continuous_decision_tree
p3132
(dp3133
g2
F32.0
sg3
I59
sg4
(idecision_tree
continuous_decision_tree
p3134
(dp3135
g2
F0.26472049999999997
sg3
I51
sg4
(idecision_tree
continuous_decision_tree
p3136
(dp3137
g2
F6.421900000000001
sg3
I67
sg4
(idecision_tree
decision_tree_leaf
p3138
(dp3139
g11
g12
(g13
tp3140
Rp3141
g18
I1
ssg22
g18
sbsg23
(idecision_tree
decision_tree_leaf
p3142
(dp3143
g11
g12
(g13
tp3144
Rp3145
S'Pn'
p3146
I1
ssg22
g3146
sbsbsg23
(idecision_tree
decision_tree_leaf
p3147
(dp3148
g11
g12
(g13
tp3149
Rp3150
g18
I1
ssg22
g18
sbsbsg23
(idecision_tree
continuous_decision_tree
p3151
(dp3152
g2
F20.5
sg3
I59
sg4
(idecision_tree
continuous_decision_tree
p3153
(dp3154
g2
F0.2992365
sg3
I51
sg4
(idecision_tree
continuous_decision_tree
p3155
(dp3156
g2
F69.4375
sg3
I67
sg4
(idecision_tree
decision_tree_leaf
p3157
(dp3158
g11
g12
(g13
tp3159
Rp3160
S'Pn'
p3161
I1
ssg22
g3161
sbsg23
(idecision_tree
decision_tree_leaf
p3162
(dp3163
g11
g12
(g13
tp3164
Rp3165
g18
I1
ssg22
g18
sbsbsg23
(idecision_tree
decision_tree_leaf
p3166
(dp3167
g11
g12
(g13
tp3168
Rp3169
g18
I1
ssg22
g18
sbsbsg23
(idecision_tree
continuous_decision_tree
p3170
(dp3171
g2
F0.5
sg3
I58
sg4
(idecision_tree
continuous_decision_tree
p3172
(dp3173
g2
F-30.125
sg3
I67
sg4
(idecision_tree
continuous_decision_tree
p3174
(dp3175
g2
F-5.208335
sg3
I67
sg4
(idecision_tree
decision_tree_leaf
p3176
(dp3177
g11
g12
(g13
tp3178
Rp3179
g18
I1
ssg22
g18
sbsg23
(idecision_tree
decision_tree_leaf
p3180
(dp3181
g11
g12
(g13
tp3182
Rp3183
S'Sn'
p3184
I1
ssg22
g3184
sbsbsg23
(idecision_tree
decision_tree_leaf
p3185
(dp3186
g11
g12
(g13
tp3187
Rp3188
g18
I1
ssg22
g18
sbsbsg23
(idecision_tree
continuous_decision_tree
p3189
(dp3190
g2
F2.162465
sg3
I39
sg4
(idecision_tree
continuous_decision_tree
p3191
(dp3192
g2
F-48.91665
sg3
I67
sg4
(idecision_tree
continuous_decision_tree
p3193
(dp3194
g2
F5.20835
sg3
I67
sg4
(idecision_tree
decision_tree_leaf
p3195
(dp3196
g11
g12
(g13
tp3197
Rp3198
g18
I1
ssg22
g18
sbsg23
(idecision_tree
decision_tree_leaf
p3199
(dp3200
g11
g12
(g13
tp3201
Rp3202
g19
I1
ssg22
g19
sbsbsg23
(idecision_tree
decision_tree_leaf
p3203
(dp3204
g11
g12
(g13
tp3205
Rp3206
g18
I1
ssg22
g18
sbsbsg23
(idecision_tree
continuous_decision_tree
p3207
(dp3208
g2
F0.8619515
sg3
I48
sg4
(idecision_tree
decision_tree_leaf
p3209
(dp3210
g11
g12
(g13
tp3211
Rp3212
g18
I2
sg19
I1
ssg22
g18
sbsg23
(idecision_tree
continuous_decision_tree
p3213
(dp3214
g2
F-4.083335
sg3
I67
sg4
(idecision_tree
decision_tree_leaf
p3215
(dp3216
g11
g12
(g13
tp3217
Rp3218
g18
I1
ssg22
g18
sbsg23
(idecision_tree
decision_tree_leaf
p3219
(dp3220
g11
g12
(g13
tp3221
Rp3222
g19
I1
ssg22
g19
sbsbsbsbsbsbsbsbsbsg23
(idecision_tree
continuous_decision_tree
p3223
(dp3224
g2
F34.0833
sg3
I59
sg4
(idecision_tree
continuous_decision_tree
p3225
(dp3226
g2
F0.31704699999999997
sg3
I51
sg4
(idecision_tree
continuous_decision_tree
p3227
(dp3228
g2
F-18.917
sg3
I67
sg4
(idecision_tree
decision_tree_leaf
p3229
(dp3230
g11
g12
(g13
tp3231
Rp3232
S'Pn'
p3233
I1
ssg22
g3233
sbsg23
(idecision_tree
decision_tree_leaf
p3234
(dp3235
g11
g12
(g13
tp3236
Rp3237
g18
I1
ssg22
g18
sbsbsg23
(idecision_tree
decision_tree_leaf
p3238
(dp3239
g11
g12
(g13
tp3240
Rp3241
g18
I1
ssg22
g18
sbsbsg23
(idecision_tree
continuous_decision_tree
p3242
(dp3243
g2
F0.434643
sg3
I49
sg4
(idecision_tree
continuous_decision_tree
p3244
(dp3245
g2
F1.5567549999999999
sg3
I39
sg4
(idecision_tree
continuous_decision_tree
p3246
(dp3247
g2
F7.4
sg3
I67
sg4
(idecision_tree
decision_tree_leaf
p3248
(dp3249
g11
g12
(g13
tp3250
Rp3251
S'Pn'
p3252
I1
ssg22
g3252
sbsg23
(idecision_tree
decision_tree_leaf
p3253
(dp3254
g11
g12
(g13
tp3255
Rp3256
g18
I1
ssg22
g18
sbsbsg23
(idecision_tree
decision_tree_leaf
p3257
(dp3258
g11
g12
(g13
tp3259
Rp3260
g18
I1
ssg22
g18
sbsbsg23
(idecision_tree
continuous_decision_tree
p3261
(dp3262
g2
F1.4321175
sg3
I48
sg4
(idecision_tree
continuous_decision_tree
p3263
(dp3264
g2
F-46.66685
sg3
I67
sg4
(idecision_tree
continuous_decision_tree
p3265
(dp3266
g2
F33.26665
sg3
I67
sg4
(idecision_tree
decision_tree_leaf
p3267
(dp3268
g11
g12
(g13
tp3269
Rp3270
g18
I1
ssg22
g18
sbsg23
(idecision_tree
decision_tree_leaf
p3271
(dp3272
g11
g12
(g13
tp3273
Rp3274
S'Pn'
p3275
I1
ssg22
g3275
sbsbsg23
(idecision_tree
decision_tree_leaf
p3276
(dp3277
g11
g12
(g13
tp3278
Rp3279
g18
I1
ssg22
g18
sbsbsg23
(idecision_tree
continuous_decision_tree
p3280
(dp3281
g2
F-91.95835
sg3
I67
sg4
(idecision_tree
continuous_decision_tree
p3282
(dp3283
g2
F55.05
sg3
I67
sg4
(idecision_tree
continuous_decision_tree
p3284
(dp3285
g2
F119.5145
sg3
I67
sg4
(idecision_tree
continuous_decision_tree
p3286
(dp3287
g2
F201.8255
sg3
I67
sg4
(idecision_tree
decision_tree_leaf
p3288
(dp3289
g11
g12
(g13
tp3290
Rp3291
g18
I1
ssg22
g18
sbsg23
(idecision_tree
decision_tree_leaf
p3292
(dp3293
g11
g12
(g13
tp3294
Rp3295
S'Pn'
p3296
I1
ssg22
g3296
sbsbsg23
(idecision_tree
decision_tree_leaf
p3297
(dp3298
g11
g12
(g13
tp3299
Rp3300
g18
I1
ssg22
g18
sbsbsg23
(idecision_tree
continuous_decision_tree
p3301
(dp3302
g2
F3.0
sg3
I66
sg4
(idecision_tree
decision_tree_leaf
p3303
(dp3304
g11
g12
(g13
tp3305
Rp3306
g18
I4
sS'Pn'
p3307
I1
ssg22
g18
sbsg23
(idecision_tree
continuous_decision_tree
p3308
(dp3309
g2
F-2.75
sg3
I67
sg4
(idecision_tree
decision_tree_leaf
p3310
(dp3311
g11
g12
(g13
tp3312
Rp3313
S'Pn'
p3314
I1
ssg22
g3314
sbsg23
(idecision_tree
decision_tree_leaf
p3315
(dp3316
g11
g12
(g13
tp3317
Rp3318
g18
I1
ssg22
g18
sbsbsbsbsg23
(idecision_tree
continuous_decision_tree
p3319
(dp3320
g2
F1.5
sg3
I62
sg4
(idecision_tree
continuous_decision_tree
p3321
(dp3322
g2
F-137.54935
sg3
I67
sg4
(idecision_tree
decision_tree_leaf
p3323
(dp3324
g11
g12
(g13
tp3325
Rp3326
S'Pn'
p3327
I1
ssg22
g3327
sbsg23
(idecision_tree
decision_tree_leaf
p3328
(dp3329
g11
g12
(g13
tp3330
Rp3331
g18
I1
ssg22
g18
sbsbsg23
(idecision_tree
decision_tree_leaf
p3332
(dp3333
g11
g12
(g13
tp3334
Rp3335
g18
I1
ssg22
g18
sbsbsbsbsbsbsbsg23
(idecision_tree
continuous_decision_tree
p3336
(dp3337
g2
F135.375
sg3
I67
sg4
(idecision_tree
continuous_decision_tree
p3338
(dp3339
g2
F-56.666650000000004
sg3
I63
sg4
(idecision_tree
continuous_decision_tree
p3340
(dp3341
g2
F219.3335
sg3
I67
sg4
(idecision_tree
decision_tree_leaf
p3342
(dp3343
g11
g12
(g13
tp3344
Rp3345
S'Sn'
p3346
I1
ssg22
g3346
sbsg23
(idecision_tree
decision_tree_leaf
p3347
(dp3348
g11
g12
(g13
tp3349
Rp3350
g18
I1
ssg22
g18
sbsbsg23
(idecision_tree
decision_tree_leaf
p3351
(dp3352
g11
g12
(g13
tp3353
Rp3354
g18
I1
ssg22
g18
sbsbsg23
(idecision_tree
continuous_decision_tree
p3355
(dp3356
g2
F-4.0
sg3
I66
sg4
(idecision_tree
continuous_decision_tree
p3357
(dp3358
g2
F-20.65415
sg3
I63
sg4
(idecision_tree
continuous_decision_tree
p3359
(dp3360
g2
F-1.5
sg3
I62
sg4
(idecision_tree
continuous_decision_tree
p3361
(dp3362
g2
F51.875
sg3
I67
sg4
(idecision_tree
decision_tree_leaf
p3363
(dp3364
g11
g12
(g13
tp3365
Rp3366
S'Pn'
p3367
I1
ssg22
g3367
sbsg23
(idecision_tree
decision_tree_leaf
p3368
(dp3369
g11
g12
(g13
tp3370
Rp3371
g18
I1
ssg22
g18
sbsbsg23
(idecision_tree
decision_tree_leaf
p3372
(dp3373
g11
g12
(g13
tp3374
Rp3375
g18
I1
ssg22
g18
sbsbsg23
(idecision_tree
continuous_decision_tree
p3376
(dp3377
g2
F-25.90415
sg3
I67
sg4
(idecision_tree
continuous_decision_tree
p3378
(dp3379
g2
F0.3514685
sg3
I51
sg4
(idecision_tree
continuous_decision_tree
p3380
(dp3381
g2
F36.34585
sg3
I67
sg4
(idecision_tree
decision_tree_leaf
p3382
(dp3383
g11
g12
(g13
tp3384
Rp3385
g18
I1
ssg22
g18
sbsg23
(idecision_tree
decision_tree_leaf
p3386
(dp3387
g11
g12
(g13
tp3388
Rp3389
g19
I1
ssg22
g19
sbsbsg23
(idecision_tree
decision_tree_leaf
p3390
(dp3391
g11
g12
(g13
tp3392
Rp3393
g18
I1
ssg22
g18
sbsbsg23
(idecision_tree
continuous_decision_tree
p3394
(dp3395
g2
F-39.5714
sg3
I67
sg4
(idecision_tree
continuous_decision_tree
p3396
(dp3397
g2
F-36.166650000000004
sg3
I67
sg4
(idecision_tree
decision_tree_leaf
p3398
(dp3399
g11
g12
(g13
tp3400
Rp3401
g18
I2
ssg22
g18
sbsg23
(idecision_tree
decision_tree_leaf
p3402
(dp3403
g11
g12
(g13
tp3404
Rp3405
g19
I1
ssg22
g19
sbsbsg23
(idecision_tree
continuous_decision_tree
p3406
(dp3407
g2
F-49.0
sg3
I63
sg4
(idecision_tree
continuous_decision_tree
p3408
(dp3409
g2
F0.2712745
sg3
I52
sg4
(idecision_tree
continuous_decision_tree
p3410
(dp3411
g2
F-104.83335
sg3
I67
sg4
(idecision_tree
decision_tree_leaf
p3412
(dp3413
g11
g12
(g13
tp3414
Rp3415
g18
I1
ssg22
g18
sbsg23
(idecision_tree
decision_tree_leaf
p3416
(dp3417
g11
g12
(g13
tp3418
Rp3419
S'Pn'
p3420
I1
ssg22
g3420
sbsbsg23
(idecision_tree
decision_tree_leaf
p3421
(dp3422
g11
g12
(g13
tp3423
Rp3424
g18
I1
ssg22
g18
sbsbsg23
(idecision_tree
continuous_decision_tree
p3425
(dp3426
g2
F-127.25
sg3
I67
sg4
(idecision_tree
continuous_decision_tree
p3427
(dp3428
g2
F-0.5
sg3
I58
sg4
(idecision_tree
continuous_decision_tree
p3429
(dp3430
g2
F-90.5
sg3
I67
sg4
(idecision_tree
decision_tree_leaf
p3431
(dp3432
g11
g12
(g13
tp3433
Rp3434
g18
I1
ssg22
g18
sbsg23
(idecision_tree
decision_tree_leaf
p3435
(dp3436
g11
g12
(g13
tp3437
Rp3438
S'Pn'
p3439
I1
ssg22
g3439
sbsbsg23
(idecision_tree
decision_tree_leaf
p3440
(dp3441
g11
g12
(g13
tp3442
Rp3443
g18
I1
ssg22
g18
sbsbsg23
(idecision_tree
continuous_decision_tree
p3444
(dp3445
g2
F-133.5
sg3
I67
sg4
(idecision_tree
decision_tree_leaf
p3446
(dp3447
g11
g12
(g13
tp3448
Rp3449
S'Pg'
p3450
I1
ssg22
g3450
sbsg23
(idecision_tree
decision_tree_leaf
p3451
(dp3452
g11
g12
(g13
tp3453
Rp3454
g18
I1
ssg22
g18
sbsbsbsbsbsbsbsg23
(idecision_tree
decision_tree_leaf
p3455
(dp3456
g11
g12
(g13
tp3457
Rp3458
g18
I2
ssg22
g18
sbsbsbsbsb.