(idecision_tree
decision_tree
p0
(dp1
S'attribute'
p2
I47
sS'value_to_tree'
p3
(dp4
S'06-DEC-2009'
p5
(idecision_tree
decision_tree_leaf
p6
(dp7
S'counts'
p8
ccollections
defaultdict
p9
(c__builtin__
int
p10
tp11
Rp12
S'P'
p13
I5
ssS'value'
p14
g13
sbsS'02-DEC-2009'
p15
(idecision_tree
decision_tree_leaf
p16
(dp17
g8
g9
(g10
tp18
Rp19
g13
I5
ssg14
g13
sbsS'04-MAR-2009'
p20
(idecision_tree
decision_tree_leaf
p21
(dp22
g8
g9
(g10
tp23
Rp24
g13
I5
ssg14
g13
sbsS'15-JUL-2009'
p25
(idecision_tree
decision_tree
p26
(dp27
g2
I13
sg3
(dp28
S'Z0515'
p29
(idecision_tree
decision_tree_leaf
p30
(dp31
g8
g9
(g10
tp32
Rp33
g13
I2
ssg14
g13
sbsS'Z1020'
p34
(idecision_tree
decision_tree_leaf
p35
(dp36
g8
g9
(g10
tp37
Rp38
g13
I6
ssg14
g13
sbsS'Z1530'
p39
(idecision_tree
continuous_decision_tree
p40
(dp41
S'split_point'
p42
F139.0
sg2
I67
sS'gt_subtree'
p43
(idecision_tree
decision_tree_leaf
p44
(dp45
g8
g9
(g10
tp46
Rp47
g13
I1
ssg14
g13
sbsS'lt_subtree'
p48
(idecision_tree
decision_tree_leaf
p49
(dp50
g8
g9
(g10
tp51
Rp52
S'PKP'
p53
I1
ssg14
g53
sbsbssbsS'11-APR-2009'
p54
(idecision_tree
decision_tree_leaf
p55
(dp56
g8
g9
(g10
tp57
Rp58
g13
I3
ssg14
g13
sbsS'31-AUG-2009'
p59
(idecision_tree
decision_tree_leaf
p60
(dp61
g8
g9
(g10
tp62
Rp63
g13
I8
ssg14
g13
sbsS'09-JUL-2009'
p64
(idecision_tree
decision_tree
p65
(dp66
g2
I13
sg3
(dp67
S'Z1020'
p68
(idecision_tree
decision_tree_leaf
p69
(dp70
g8
g9
(g10
tp71
Rp72
g13
I3
ssg14
g13
sbsS'Z1530'
p73
(idecision_tree
decision_tree_leaf
p74
(dp75
g8
g9
(g10
tp76
Rp77
S'Pn'
p78
I1
ssg14
g78
sbssbsS'08-DEC-2009'
p79
(idecision_tree
continuous_decision_tree
p80
(dp81
g42
F0.3230465
sg2
I50
sg43
(idecision_tree
decision_tree
p82
(dp83
g2
I13
sg3
(dp84
S'Z1020'
p85
(idecision_tree
decision_tree_leaf
p86
(dp87
g8
g9
(g10
tp88
Rp89
g13
I1
ssg14
g13
sbsS'Z0515'
p90
(idecision_tree
decision_tree_leaf
p91
(dp92
g8
g9
(g10
tp93
Rp94
S'Pn'
p95
I1
ssg14
g95
sbssbsg48
(idecision_tree
decision_tree_leaf
p96
(dp97
g8
g9
(g10
tp98
Rp99
g13
I1
ssg14
g13
sbsbsS'26-JUL-2009'
p100
(idecision_tree
decision_tree_leaf
p101
(dp102
g8
g9
(g10
tp103
Rp104
g13
I5
ssg14
g13
sbsS'16-OCT-2009'
p105
(idecision_tree
decision_tree_leaf
p106
(dp107
g8
g9
(g10
tp108
Rp109
g13
I12
ssg14
g13
sbsS'16-MAY-2009'
p110
(idecision_tree
decision_tree_leaf
p111
(dp112
g8
g9
(g10
tp113
Rp114
g13
I6
ssg14
g13
sbsS'24-OCT-2009'
p115
(idecision_tree
decision_tree
p116
(dp117
g2
I1
sg3
(dp118
g13
(idecision_tree
decision_tree_leaf
p119
(dp120
g8
g9
(g10
tp121
Rp122
g13
I6
ssg14
g13
sbsS'Pn'
p123
(idecision_tree
decision_tree_leaf
p124
(dp125
g8
g9
(g10
tp126
Rp127
g13
I1
ssg14
g13
sbsS'Pg'
p128
(idecision_tree
decision_tree_leaf
p129
(dp130
g8
g9
(g10
tp131
Rp132
S'Pn'
p133
I1
ssg14
g133
sbssbsS'18-FEB-2009'
p134
(idecision_tree
decision_tree_leaf
p135
(dp136
g8
g9
(g10
tp137
Rp138
g13
I3
sS'Pn'
p139
I1
ssg14
g13
sbsS'28-MAR-2009'
p140
(idecision_tree
decision_tree
p141
(dp142
g2
I13
sg3
(dp143
S'Z1530'
p144
(idecision_tree
decision_tree_leaf
p145
(dp146
g8
g9
(g10
tp147
Rp148
g13
I5
ssg14
g13
sbsS'Z0515'
p149
(idecision_tree
decision_tree_leaf
p150
(dp151
g8
g9
(g10
tp152
Rp153
S'Lg'
p154
I1
ssg14
g154
sbssbsS'11-FEB-2009'
p155
(idecision_tree
decision_tree
p156
(dp157
g2
I13
sg3
(dp158
S'Z1020'
p159
(idecision_tree
decision_tree_leaf
p160
(dp161
g8
g9
(g10
tp162
Rp163
g13
I7
ssg14
g13
sbsS'Z1530'
p164
(idecision_tree
continuous_decision_tree
p165
(dp166
g42
F0.535108
sg2
I52
sg43
(idecision_tree
decision_tree
p167
(dp168
g2
I1
sg3
(dp169
g13
(idecision_tree
decision_tree_leaf
p170
(dp171
g8
g9
(g10
tp172
Rp173
S'Pn'
p174
I1
ssg14
g174
sbsS'tx'
p175
(idecision_tree
decision_tree_leaf
p176
(dp177
g8
g9
(g10
tp178
Rp179
g13
I1
ssg14
g13
sbssbsg48
(idecision_tree
decision_tree_leaf
p180
(dp181
g8
g9
(g10
tp182
Rp183
g13
I1
ssg14
g13
sbsbssbsS'01-NOV-2009'
p184
(idecision_tree
decision_tree_leaf
p185
(dp186
g8
g9
(g10
tp187
Rp188
g13
I1
ssg14
g13
sbsS'25-FEB-2009'
p189
(idecision_tree
decision_tree_leaf
p190
(dp191
g8
g9
(g10
tp192
Rp193
g13
I5
ssg14
g13
sbsS'12-SEP-2009'
p194
(idecision_tree
decision_tree_leaf
p195
(dp196
g8
g9
(g10
tp197
Rp198
g13
I3
ssg14
g13
sbsS'13-NOV-2009'
p199
(idecision_tree
continuous_decision_tree
p200
(dp201
g42
F-117.0
sg2
I67
sg43
(idecision_tree
continuous_decision_tree
p202
(dp203
g42
F0.0
sg2
I67
sg43
(idecision_tree
decision_tree_leaf
p204
(dp205
g8
g9
(g10
tp206
Rp207
g13
I3
sS'PKP'
p208
I1
ssg14
g13
sbsg48
(idecision_tree
decision_tree_leaf
p209
(dp210
g8
g9
(g10
tp211
Rp212
S'Lg'
p213
I1
ssg14
g213
sbsbsg48
(idecision_tree
continuous_decision_tree
p214
(dp215
g42
F-278.0
sg2
I67
sg43
(idecision_tree
decision_tree
p216
(dp217
g2
I14
sg3
(dp218
S'coh'
p219
(idecision_tree
decision_tree_leaf
p220
(dp221
g8
g9
(g10
tp222
Rp223
g13
I1
ssg14
g13
sbsS'inc'
p224
(idecision_tree
decision_tree_leaf
p225
(dp226
g8
g9
(g10
tp227
Rp228
S'S'
p229
I1
ssg14
g229
sbssbsg48
(idecision_tree
decision_tree_leaf
p230
(dp231
g8
g9
(g10
tp232
Rp233
g13
I1
ssg14
g13
sbsbsbsS'07-JUL-2009'
p234
(idecision_tree
continuous_decision_tree
p235
(dp236
g42
F-1.0
sg2
I67
sg43
(idecision_tree
decision_tree_leaf
p237
(dp238
g8
g9
(g10
tp239
Rp240
g13
I3
sS'PKP'
p241
I1
ssg14
g13
sbsg48
(idecision_tree
continuous_decision_tree
p242
(dp243
g42
F12.5
sg2
I63
sg43
(idecision_tree
decision_tree_leaf
p244
(dp245
g8
g9
(g10
tp246
Rp247
g13
I1
ssg14
g13
sbsg48
(idecision_tree
continuous_decision_tree
p248
(dp249
g42
F-72.33335
sg2
I67
sg43
(idecision_tree
continuous_decision_tree
p250
(dp251
g42
F0.259091
sg2
I52
sg43
(idecision_tree
decision_tree
p252
(dp253
g2
I13
sg3
(dp254
S'Z1020'
p255
(idecision_tree
decision_tree_leaf
p256
(dp257
g8
g9
(g10
tp258
Rp259
S'Pn'
p260
I1
ssg14
g260
sbsS'Z0515'
p261
(idecision_tree
decision_tree_leaf
p262
(dp263
g8
g9
(g10
tp264
Rp265
g13
I1
ssg14
g13
sbssbsg48
(idecision_tree
decision_tree_leaf
p266
(dp267
g8
g9
(g10
tp268
Rp269
g13
I1
ssg14
g13
sbsbsg48
(idecision_tree
decision_tree_leaf
p270
(dp271
g8
g9
(g10
tp272
Rp273
g13
I1
ssg14
g13
sbsbsbsbsS'24-JUN-2009'
p274
(idecision_tree
continuous_decision_tree
p275
(dp276
g42
F-144.9
sg2
I67
sg43
(idecision_tree
decision_tree_leaf
p277
(dp278
g8
g9
(g10
tp279
Rp280
g13
I3
sS'Pn'
p281
I1
ssg14
g13
sbsg48
(idecision_tree
decision_tree_leaf
p282
(dp283
g8
g9
(g10
tp284
Rp285
g13
I1
ssg14
g13
sbsbsS'26-OCT-2009'
p286
(idecision_tree
decision_tree_leaf
p287
(dp288
g8
g9
(g10
tp289
Rp290
g13
I4
ssg14
g13
sbsS'02-NOV-2009'
p291
(idecision_tree
decision_tree_leaf
p292
(dp293
g8
g9
(g10
tp294
Rp295
g13
I8
ssg14
g13
sbsS'05-JAN-2009'
p296
(idecision_tree
decision_tree
p297
(dp298
g2
I13
sg3
(dp299
S'Z1020'
p300
(idecision_tree
continuous_decision_tree
p301
(dp302
g42
F-64.203
sg2
I67
sg43
(idecision_tree
continuous_decision_tree
p303
(dp304
g42
F-1.0
sg2
I66
sg43
(idecision_tree
decision_tree_leaf
p305
(dp306
g8
g9
(g10
tp307
Rp308
g13
I3
sS'Pn'
p309
I1
ssg14
g13
sbsg48
(idecision_tree
decision_tree_leaf
p310
(dp311
g8
g9
(g10
tp312
Rp313
g13
I1
ssg14
g13
sbsbsg48
(idecision_tree
decision_tree_leaf
p314
(dp315
g8
g9
(g10
tp316
Rp317
g13
I1
ssg14
g13
sbsbsS'Z1530'
p318
(idecision_tree
decision_tree_leaf
p319
(dp320
g8
g9
(g10
tp321
Rp322
g13
I8
ssg14
g13
sbsS'Z2040'
p323
(idecision_tree
decision_tree_leaf
p324
(dp325
g8
g9
(g10
tp326
Rp327
g13
I1
ssg14
g13
sbssbsS'30-JUN-2009'
p328
(idecision_tree
decision_tree_leaf
p329
(dp330
g8
g9
(g10
tp331
Rp332
g13
I15
ssg14
g13
sbsS'22-MAR-2009'
p333
(idecision_tree
decision_tree_leaf
p334
(dp335
g8
g9
(g10
tp336
Rp337
g13
I15
ssg14
g13
sbsS'12-MAY-2009'
p338
(idecision_tree
continuous_decision_tree
p339
(dp340
g42
F36.0
sg2
I67
sg43
(idecision_tree
decision_tree
p341
(dp342
g2
I13
sg3
(dp343
S'Z1530'
p344
(idecision_tree
decision_tree_leaf
p345
(dp346
g8
g9
(g10
tp347
Rp348
S'PKP'
p349
I1
ssg14
g349
sbsS'Z0515'
p350
(idecision_tree
decision_tree_leaf
p351
(dp352
g8
g9
(g10
tp353
Rp354
g13
I1
ssg14
g13
sbssbsg48
(idecision_tree
decision_tree_leaf
p355
(dp356
g8
g9
(g10
tp357
Rp358
g13
I2
ssg14
g13
sbsbsS'14-AUG-2009'
p359
(idecision_tree
decision_tree_leaf
p360
(dp361
g8
g9
(g10
tp362
Rp363
g13
I5
ssg14
g13
sbsS'10-OCT-2009'
p364
(idecision_tree
decision_tree
p365
(dp366
g2
I14
sg3
(dp367
S'coh'
p368
(idecision_tree
decision_tree_leaf
p369
(dp370
g8
g9
(g10
tp371
Rp372
g13
I12
ssg14
g13
sbsS'inc'
p373
(idecision_tree
decision_tree_leaf
p374
(dp375
g8
g9
(g10
tp376
Rp377
S'Pn'
p378
I1
ssg14
g378
sbssbsS'15-JUN-2009'
p379
(idecision_tree
decision_tree_leaf
p380
(dp381
g8
g9
(g10
tp382
Rp383
g13
I5
ssg14
g13
sbsS'08-MAR-2009'
p384
(idecision_tree
decision_tree_leaf
p385
(dp386
g8
g9
(g10
tp387
Rp388
g13
I3
ssg14
g13
sbsS'19-NOV-2009'
p389
(idecision_tree
decision_tree
p390
(dp391
g2
I1
sg3
(dp392
g13
(idecision_tree
decision_tree_leaf
p393
(dp394
g8
g9
(g10
tp395
Rp396
g13
I9
ssg14
g13
sbsS'Pg'
p397
(idecision_tree
decision_tree_leaf
p398
(dp399
g8
g9
(g10
tp400
Rp401
S'Lg'
p402
I1
ssg14
g402
sbssbsS'13-OCT-2009'
p403
(idecision_tree
decision_tree_leaf
p404
(dp405
g8
g9
(g10
tp406
Rp407
g13
I24
ssg14
g13
sbsS'27-NOV-2009'
p408
(idecision_tree
continuous_decision_tree
p409
(dp410
g42
F158.026
sg2
I43
sg43
(idecision_tree
decision_tree
p411
(dp412
g2
I13
sg3
(dp413
S'Z1020'
p414
(idecision_tree
decision_tree_leaf
p415
(dp416
g8
g9
(g10
tp417
Rp418
g13
I1
ssg14
g13
sbsS'Z0515'
p419
(idecision_tree
decision_tree_leaf
p420
(dp421
g8
g9
(g10
tp422
Rp423
S'Pn'
p424
I1
ssg14
g424
sbssbsg48
(idecision_tree
continuous_decision_tree
p425
(dp426
g42
F21.33335
sg2
I67
sg43
(idecision_tree
decision_tree_leaf
p427
(dp428
g8
g9
(g10
tp429
Rp430
S'PKP'
p431
I1
ssg14
g431
sbsg48
(idecision_tree
decision_tree_leaf
p432
(dp433
g8
g9
(g10
tp434
Rp435
g13
I1
ssg14
g13
sbsbsbsS'13-FEB-2009'
p436
(idecision_tree
decision_tree
p437
(dp438
g2
I1
sg3
(dp439
g13
(idecision_tree
decision_tree_leaf
p440
(dp441
g8
g9
(g10
tp442
Rp443
g13
I11
ssg14
g13
sbsS'Pn'
p444
(idecision_tree
decision_tree_leaf
p445
(dp446
g8
g9
(g10
tp447
Rp448
g13
I1
ssg14
g13
sbsS'Pg'
p449
(idecision_tree
decision_tree_leaf
p450
(dp451
g8
g9
(g10
tp452
Rp453
g13
I1
ssg14
g13
sbsS'tx'
p454
(idecision_tree
decision_tree
p455
(dp456
g2
I13
sg3
(dp457
S'Z1020'
p458
(idecision_tree
decision_tree_leaf
p459
(dp460
g8
g9
(g10
tp461
Rp462
S'PKP'
p463
I1
ssg14
g463
sbsS'Z4080'
p464
(idecision_tree
decision_tree_leaf
p465
(dp466
g8
g9
(g10
tp467
Rp468
g13
I1
ssg14
g13
sbssbssbsS'12-MAR-2009'
p469
(idecision_tree
decision_tree_leaf
p470
(dp471
g8
g9
(g10
tp472
Rp473
g13
I6
ssg14
g13
sbsS'21-JUL-2009'
p474
(idecision_tree
decision_tree_leaf
p475
(dp476
g8
g9
(g10
tp477
Rp478
g13
I3
ssg14
g13
sbsS'29-JAN-2009'
p479
(idecision_tree
decision_tree_leaf
p480
(dp481
g8
g9
(g10
tp482
Rp483
g13
I6
ssg14
g13
sbsS'24-NOV-2009'
p484
(idecision_tree
continuous_decision_tree
p485
(dp486
g42
F-89.25
sg2
I67
sg43
(idecision_tree
continuous_decision_tree
p487
(dp488
g42
F201.7635
sg2
I43
sg43
(idecision_tree
decision_tree
p489
(dp490
g2
I14
sg3
(dp491
S'coh'
p492
(idecision_tree
decision_tree_leaf
p493
(dp494
g8
g9
(g10
tp495
Rp496
g13
I1
ssg14
g13
sbsS'inc'
p497
(idecision_tree
decision_tree_leaf
p498
(dp499
g8
g9
(g10
tp500
Rp501
S'Pn'
p502
I1
ssg14
g502
sbssbsg48
(idecision_tree
decision_tree_leaf
p503
(dp504
g8
g9
(g10
tp505
Rp506
g13
I1
ssg14
g13
sbsbsg48
(idecision_tree
decision_tree_leaf
p507
(dp508
g8
g9
(g10
tp509
Rp510
g13
I2
sg229
I1
ssg14
g13
sbsbsS'04-JUN-2009'
p511
(idecision_tree
decision_tree
p512
(dp513
g2
I13
sg3
(dp514
S'Z1020'
p515
(idecision_tree
decision_tree_leaf
p516
(dp517
g8
g9
(g10
tp518
Rp519
g13
I1
ssg14
g13
sbsS'Z1530'
p520
(idecision_tree
decision_tree_leaf
p521
(dp522
g8
g9
(g10
tp523
Rp524
S'Pn'
p525
I1
ssg14
g525
sbssbsS'23-JAN-2009'
p526
(idecision_tree
decision_tree_leaf
p527
(dp528
g8
g9
(g10
tp529
Rp530
g13
I10
ssg14
g13
sbsS'17-MAY-2009'
p531
(idecision_tree
decision_tree
p532
(dp533
g2
I13
sg3
(dp534
S'Z1530'
p535
(idecision_tree
decision_tree_leaf
p536
(dp537
g8
g9
(g10
tp538
Rp539
g13
I2
ssg14
g13
sbsS'Z1020'
p540
(idecision_tree
decision_tree_leaf
p541
(dp542
g8
g9
(g10
tp543
Rp544
g13
I1
ssg14
g13
sbsS'Z0515'
p545
(idecision_tree
decision_tree_leaf
p546
(dp547
g8
g9
(g10
tp548
Rp549
S'Pn'
p550
I1
ssg14
g550
sbssbsS'24-SEP-2009'
p551
(idecision_tree
decision_tree_leaf
p552
(dp553
g8
g9
(g10
tp554
Rp555
g13
I6
ssg14
g13
sbsS'29-MAR-2009'
p556
(idecision_tree
decision_tree_leaf
p557
(dp558
g8
g9
(g10
tp559
Rp560
g13
I6
ssg14
g13
sbsS'16-NOV-2009'
p561
(idecision_tree
decision_tree_leaf
p562
(dp563
g8
g9
(g10
tp564
Rp565
g13
I6
ssg14
g13
sbsS'12-AUG-2009'
p566
(idecision_tree
decision_tree_leaf
p567
(dp568
g8
g9
(g10
tp569
Rp570
g13
I5
ssg14
g13
sbsS'08-OCT-2009'
p571
(idecision_tree
decision_tree_leaf
p572
(dp573
g8
g9
(g10
tp574
Rp575
g13
I73
ssg14
g13
sbsS'15-AUG-2009'
p576
(idecision_tree
decision_tree_leaf
p577
(dp578
g8
g9
(g10
tp579
Rp580
g13
I10
ssg14
g13
sbsS'16-JUN-2009'
p581
(idecision_tree
decision_tree_leaf
p582
(dp583
g8
g9
(g10
tp584
Rp585
g13
I2
ssg14
g13
sbsS'18-NOV-2009'
p586
(idecision_tree
continuous_decision_tree
p587
(dp588
g42
F14.5
sg2
I67
sg43
(idecision_tree
continuous_decision_tree
p589
(dp590
g42
F4.0
sg2
I66
sg43
(idecision_tree
continuous_decision_tree
p591
(dp592
g42
F59.0
sg2
I67
sg43
(idecision_tree
decision_tree_leaf
p593
(dp594
g8
g9
(g10
tp595
Rp596
g13
I1
ssg14
g13
sbsg48
(idecision_tree
decision_tree_leaf
p597
(dp598
g8
g9
(g10
tp599
Rp600
S'Pn'
p601
I1
ssg14
g601
sbsbsg48
(idecision_tree
decision_tree_leaf
p602
(dp603
g8
g9
(g10
tp604
Rp605
g13
I3
ssg14
g13
sbsbsg48
(idecision_tree
decision_tree_leaf
p606
(dp607
g8
g9
(g10
tp608
Rp609
g13
I4
sS'Pn'
p610
I1
ssg14
g13
sbsbsS'14-FEB-2009'
p611
(idecision_tree
decision_tree_leaf
p612
(dp613
g8
g9
(g10
tp614
Rp615
g13
I7
ssg14
g13
sbsS'16-FEB-2009'
p616
(idecision_tree
continuous_decision_tree
p617
(dp618
g42
F0.0
sg2
I67
sg43
(idecision_tree
decision_tree_leaf
p619
(dp620
g8
g9
(g10
tp621
Rp622
g13
I5
sS'Pn'
p623
I1
ssg14
g13
sbsg48
(idecision_tree
continuous_decision_tree
p624
(dp625
g42
F-165.08335
sg2
I67
sg43
(idecision_tree
decision_tree
p626
(dp627
g2
I13
sg3
(dp628
S'Z1530'
p629
(idecision_tree
decision_tree_leaf
p630
(dp631
g8
g9
(g10
tp632
Rp633
S'Pn'
p634
I1
ssg14
g634
sbsS'Z2040'
p635
(idecision_tree
decision_tree_leaf
p636
(dp637
g8
g9
(g10
tp638
Rp639
g13
I1
ssg14
g13
sbssbsg48
(idecision_tree
decision_tree_leaf
p640
(dp641
g8
g9
(g10
tp642
Rp643
g13
I1
ssg14
g13
sbsbsbsS'10-DEC-2009'
p644
(idecision_tree
decision_tree_leaf
p645
(dp646
g8
g9
(g10
tp647
Rp648
g13
I2
ssg14
g13
sbsS'30-JAN-2009'
p649
(idecision_tree
decision_tree_leaf
p650
(dp651
g8
g9
(g10
tp652
Rp653
g13
I2
ssg14
g13
sbsS'06-JUL-2009'
p654
(idecision_tree
decision_tree_leaf
p655
(dp656
g8
g9
(g10
tp657
Rp658
g13
I7
ssg14
g13
sbsS'06-AUG-2009'
p659
(idecision_tree
continuous_decision_tree
p660
(dp661
g42
F-12.0
sg2
I67
sg43
(idecision_tree
continuous_decision_tree
p662
(dp663
g42
F0.30346700000000004
sg2
I51
sg43
(idecision_tree
continuous_decision_tree
p664
(dp665
g42
F0.446295
sg2
I49
sg43
(idecision_tree
continuous_decision_tree
p666
(dp667
g42
F29.75
sg2
I67
sg43
(idecision_tree
decision_tree_leaf
p668
(dp669
g8
g9
(g10
tp670
Rp671
g13
I1
ssg14
g13
sbsg48
(idecision_tree
decision_tree_leaf
p672
(dp673
g8
g9
(g10
tp674
Rp675
S'Pn'
p676
I1
ssg14
g676
sbsbsg48
(idecision_tree
decision_tree_leaf
p677
(dp678
g8
g9
(g10
tp679
Rp680
g13
I1
ssg14
g13
sbsbsg48
(idecision_tree
decision_tree_leaf
p681
(dp682
g8
g9
(g10
tp683
Rp684
g13
I1
ssg14
g13
sbsbsg48
(idecision_tree
decision_tree_leaf
p685
(dp686
g8
g9
(g10
tp687
Rp688
g13
I1
ssg14
g13
sbsbsS'08-APR-2009'
p689
(idecision_tree
decision_tree_leaf
p690
(dp691
g8
g9
(g10
tp692
Rp693
g13
I3
ssg14
g13
sbsS'04-MAY-2009'
p694
(idecision_tree
decision_tree_leaf
p695
(dp696
g8
g9
(g10
tp697
Rp698
g13
I2
ssg14
g13
sbsS'22-JUN-2009'
p699
(idecision_tree
decision_tree
p700
(dp701
g2
I14
sg3
(dp702
S'coh'
p703
(idecision_tree
decision_tree_leaf
p704
(dp705
g8
g9
(g10
tp706
Rp707
g13
I7
ssg14
g13
sbsS'inc'
p708
(idecision_tree
decision_tree_leaf
p709
(dp710
g8
g9
(g10
tp711
Rp712
S'Pg'
p713
I1
ssg14
g713
sbssbsS'03-JAN-2009'
p714
(idecision_tree
decision_tree
p715
(dp716
g2
I13
sg3
(dp717
S'Z1530'
p718
(idecision_tree
decision_tree_leaf
p719
(dp720
g8
g9
(g10
tp721
Rp722
g13
I4
ssg14
g13
sbsS'Z1020'
p723
(idecision_tree
decision_tree_leaf
p724
(dp725
g8
g9
(g10
tp726
Rp727
g13
I5
ssg14
g13
sbsS'Z0515'
p728
(idecision_tree
decision_tree_leaf
p729
(dp730
g8
g9
(g10
tp731
Rp732
g229
I1
ssg14
g229
sbssbsS'06-APR-2009'
p733
(idecision_tree
continuous_decision_tree
p734
(dp735
g42
F10.666665
sg2
I67
sg43
(idecision_tree
continuous_decision_tree
p736
(dp737
g42
F14.5
sg2
I67
sg43
(idecision_tree
decision_tree_leaf
p738
(dp739
g8
g9
(g10
tp740
Rp741
g13
I2
sS'Pn'
p742
I1
ssg14
g13
sbsg48
(idecision_tree
decision_tree
p743
(dp744
g2
I13
sg3
(dp745
S'Z1020'
p746
(idecision_tree
decision_tree_leaf
p747
(dp748
g8
g9
(g10
tp749
Rp750
g13
I1
ssg14
g13
sbsS'Z1530'
p751
(idecision_tree
decision_tree_leaf
p752
(dp753
g8
g9
(g10
tp754
Rp755
S'PKP'
p756
I1
ssg14
g756
sbssbsbsg48
(idecision_tree
decision_tree
p757
(dp758
g2
I14
sg3
(dp759
S'coh'
p760
(idecision_tree
decision_tree_leaf
p761
(dp762
g8
g9
(g10
tp763
Rp764
g13
I1
ssg14
g13
sbsS'inc'
p765
(idecision_tree
decision_tree_leaf
p766
(dp767
g8
g9
(g10
tp768
Rp769
S'Lg'
p770
I1
ssg14
g770
sbssbsbsS'10-FEB-2009'
p771
(idecision_tree
decision_tree_leaf
p772
(dp773
g8
g9
(g10
tp774
Rp775
g13
I9
ssg14
g13
sbsS'08-FEB-2009'
p776
(idecision_tree
decision_tree_leaf
p777
(dp778
g8
g9
(g10
tp779
Rp780
g13
I2
ssg14
g13
sbsS'08-NOV-2009'
p781
(idecision_tree
decision_tree_leaf
p782
(dp783
g8
g9
(g10
tp784
Rp785
g13
I7
ssg14
g13
sbsS'01-JAN-2009'
p786
(idecision_tree
decision_tree
p787
(dp788
g2
I13
sg3
(dp789
S'Z1020'
p790
(idecision_tree
decision_tree_leaf
p791
(dp792
g8
g9
(g10
tp793
Rp794
g13
I5
ssg14
g13
sbsS'Z1530'
p795
(idecision_tree
decision_tree_leaf
p796
(dp797
g8
g9
(g10
tp798
Rp799
g13
I2
ssg14
g13
sbsS'Z2040'
p800
(idecision_tree
decision_tree_leaf
p801
(dp802
g8
g9
(g10
tp803
Rp804
S'Pn'
p805
I1
ssg14
g805
sbssbsS'21-NOV-2009'
p806
(idecision_tree
decision_tree_leaf
p807
(dp808
g8
g9
(g10
tp809
Rp810
S'Lg'
p811
I1
sS'Pg'
p812
I1
sS'Sn'
p813
I1
ssg14
g811
sbsS'13-JUN-2009'
p814
(idecision_tree
decision_tree_leaf
p815
(dp816
g8
g9
(g10
tp817
Rp818
g13
I3
ssg14
g13
sbsS'14-SEP-2009'
p819
(idecision_tree
decision_tree_leaf
p820
(dp821
g8
g9
(g10
tp822
Rp823
g13
I5
ssg14
g13
sbsS'04-JUL-2009'
p824
(idecision_tree
decision_tree
p825
(dp826
g2
I13
sg3
(dp827
S'Z1020'
p828
(idecision_tree
continuous_decision_tree
p829
(dp830
g42
F-1.0
sg2
I66
sg43
(idecision_tree
continuous_decision_tree
p831
(dp832
g42
F78.5
sg2
I67
sg43
(idecision_tree
decision_tree_leaf
p833
(dp834
g8
g9
(g10
tp835
Rp836
g13
I3
sS'PKP'
p837
I1
ssg14
g13
sbsg48
(idecision_tree
decision_tree_leaf
p838
(dp839
g8
g9
(g10
tp840
Rp841
g13
I1
ssg14
g13
sbsbsg48
(idecision_tree
decision_tree_leaf
p842
(dp843
g8
g9
(g10
tp844
Rp845
g13
I1
ssg14
g13
sbsbsS'Z1530'
p846
(idecision_tree
decision_tree_leaf
p847
(dp848
g8
g9
(g10
tp849
Rp850
g13
I6
ssg14
g13
sbsS'Z2040'
p851
(idecision_tree
decision_tree_leaf
p852
(dp853
g8
g9
(g10
tp854
Rp855
g13
I1
ssg14
g13
sbssbsS'28-JUL-2009'
p856
(idecision_tree
decision_tree_leaf
p857
(dp858
g8
g9
(g10
tp859
Rp860
g13
I4
ssg14
g13
sbsS'04-NOV-2009'
p861
(idecision_tree
decision_tree
p862
(dp863
g2
I13
sg3
(dp864
S'Z1020'
p865
(idecision_tree
decision_tree_leaf
p866
(dp867
g8
g9
(g10
tp868
Rp869
S'Pn'
p870
I1
ssg14
g870
sbsS'Z1530'
p871
(idecision_tree
decision_tree_leaf
p872
(dp873
g8
g9
(g10
tp874
Rp875
g13
I4
ssg14
g13
sbssbsS'17-APR-2009'
p876
(idecision_tree
decision_tree_leaf
p877
(dp878
g8
g9
(g10
tp879
Rp880
g13
I13
ssg14
g13
sbsS'10-NOV-2009'
p881
(idecision_tree
decision_tree_leaf
p882
(dp883
g8
g9
(g10
tp884
Rp885
g13
I4
ssg14
g13
sbsS'02-SEP-2009'
p886
(idecision_tree
decision_tree
p887
(dp888
g2
I14
sg3
(dp889
S'coh'
p890
(idecision_tree
decision_tree_leaf
p891
(dp892
g8
g9
(g10
tp893
Rp894
g13
I5
ssg14
g13
sbsS'inc'
p895
(idecision_tree
decision_tree_leaf
p896
(dp897
g8
g9
(g10
tp898
Rp899
g229
I1
ssg14
g229
sbssbsS'03-MAR-2009'
p900
(idecision_tree
decision_tree_leaf
p901
(dp902
g8
g9
(g10
tp903
Rp904
g13
I4
ssg14
g13
sbsS'10-AUG-2009'
p905
(idecision_tree
decision_tree_leaf
p906
(dp907
g8
g9
(g10
tp908
Rp909
g13
I6
ssg14
g13
sbsS'20-JUL-2009'
p910
(idecision_tree
decision_tree_leaf
p911
(dp912
g8
g9
(g10
tp913
Rp914
g13
I2
ssg14
g13
sbsS'11-JUL-2009'
p915
(idecision_tree
decision_tree_leaf
p916
(dp917
g8
g9
(g10
tp918
Rp919
g13
I4
ssg14
g13
sbsS'20-AUG-2009'
p920
(idecision_tree
decision_tree_leaf
p921
(dp922
g8
g9
(g10
tp923
Rp924
g13
I11
ssg14
g13
sbsS'04-AUG-2009'
p925
(idecision_tree
decision_tree_leaf
p926
(dp927
g8
g9
(g10
tp928
Rp929
g13
I4
ssg14
g13
sbsS'20-MAY-2009'
p930
(idecision_tree
decision_tree_leaf
p931
(dp932
g8
g9
(g10
tp933
Rp934
g13
I6
ssg14
g13
sbsS'19-JUL-2009'
p935
(idecision_tree
decision_tree
p936
(dp937
g2
I13
sg3
(dp938
S'Z1020'
p939
(idecision_tree
decision_tree_leaf
p940
(dp941
g8
g9
(g10
tp942
Rp943
S'PKP'
p944
I1
ssg14
g944
sbsS'Z0515'
p945
(idecision_tree
decision_tree_leaf
p946
(dp947
g8
g9
(g10
tp948
Rp949
g13
I1
ssg14
g13
sbssbsS'01-DEC-2009'
p950
(idecision_tree
decision_tree_leaf
p951
(dp952
g8
g9
(g10
tp953
Rp954
g13
I10
ssg14
g13
sbsS'10-JUN-2009'
p955
(idecision_tree
decision_tree_leaf
p956
(dp957
g8
g9
(g10
tp958
Rp959
g13
I3
ssg14
g13
sbsS'02-APR-2009'
p960
(idecision_tree
decision_tree_leaf
p961
(dp962
g8
g9
(g10
tp963
Rp964
g13
I9
sS'Pn'
p965
I2
sS'Sn'
p966
I2
ssg14
g13
sbsS'13-MAY-2009'
p967
(idecision_tree
continuous_decision_tree
p968
(dp969
g42
F16.875
sg2
I67
sg43
(idecision_tree
decision_tree_leaf
p970
(dp971
g8
g9
(g10
tp972
Rp973
g13
I1
sS'Pn'
p974
I1
sS'Pg'
p975
I1
ssg14
g13
sbsg48
(idecision_tree
decision_tree
p976
(dp977
g2
I1
sg3
(dp978
S'Rg'
p979
(idecision_tree
decision_tree_leaf
p980
(dp981
g8
g9
(g10
tp982
Rp983
S'Lg'
p984
I1
ssg14
g984
sbsS'Pg'
p985
(idecision_tree
decision_tree_leaf
p986
(dp987
g8
g9
(g10
tp988
Rp989
S'Sn'
p990
I1
ssg14
g990
sbssbsbsS'25-JAN-2009'
p991
(idecision_tree
decision_tree_leaf
p992
(dp993
g8
g9
(g10
tp994
Rp995
g13
I8
ssg14
g13
sbsS'20-APR-2009'
p996
(idecision_tree
decision_tree_leaf
p997
(dp998
g8
g9
(g10
tp999
Rp1000
g13
I19
ssg14
g13
sbsS'09-JAN-2009'
p1001
(idecision_tree
decision_tree_leaf
p1002
(dp1003
g8
g9
(g10
tp1004
Rp1005
g13
I11
ssg14
g13
sbsS'30-APR-2009'
p1006
(idecision_tree
decision_tree_leaf
p1007
(dp1008
g8
g9
(g10
tp1009
Rp1010
g13
I3
ssg14
g13
sbsS'27-JAN-2009'
p1011
(idecision_tree
decision_tree_leaf
p1012
(dp1013
g8
g9
(g10
tp1014
Rp1015
g13
I4
ssg14
g13
sbsS'13-AUG-2009'
p1016
(idecision_tree
decision_tree
p1017
(dp1018
g2
I14
sg3
(dp1019
S'coh'
p1020
(idecision_tree
decision_tree_leaf
p1021
(dp1022
g8
g9
(g10
tp1023
Rp1024
g13
I9
ssg14
g13
sbsS'inc'
p1025
(idecision_tree
decision_tree_leaf
p1026
(dp1027
g8
g9
(g10
tp1028
Rp1029
g229
I1
ssg14
g229
sbssbsS'03-MAY-2009'
p1030
(idecision_tree
decision_tree_leaf
p1031
(dp1032
g8
g9
(g10
tp1033
Rp1034
g13
I5
ssg14
g13
sbsS'22-JUL-2009'
p1035
(idecision_tree
decision_tree_leaf
p1036
(dp1037
g8
g9
(g10
tp1038
Rp1039
g13
I2
ssg14
g13
sbsS'04-DEC-2009'
p1040
(idecision_tree
decision_tree_leaf
p1041
(dp1042
g8
g9
(g10
tp1043
Rp1044
g13
I3
ssg14
g13
sbsS'22-NOV-2009'
p1045
(idecision_tree
continuous_decision_tree
p1046
(dp1047
g42
F2.5
sg2
I66
sg43
(idecision_tree
decision_tree_leaf
p1048
(dp1049
g8
g9
(g10
tp1050
Rp1051
g13
I1
ssg14
g13
sbsg48
(idecision_tree
continuous_decision_tree
p1052
(dp1053
g42
F67.75
sg2
I67
sg43
(idecision_tree
decision_tree_leaf
p1054
(dp1055
g8
g9
(g10
tp1056
Rp1057
g13
I1
ssg14
g13
sbsg48
(idecision_tree
continuous_decision_tree
p1058
(dp1059
g42
F0.2246765
sg2
I52
sg43
(idecision_tree
continuous_decision_tree
p1060
(dp1061
g42
F0.5390465
sg2
I49
sg43
(idecision_tree
continuous_decision_tree
p1062
(dp1063
g42
F0.9033605
sg2
I48
sg43
(idecision_tree
continuous_decision_tree
p1064
(dp1065
g42
F6.25
sg2
I67
sg43
(idecision_tree
decision_tree_leaf
p1066
(dp1067
g8
g9
(g10
tp1068
Rp1069
S'Pn'
p1070
I1
ssg14
g1070
sbsg48
(idecision_tree
decision_tree_leaf
p1071
(dp1072
g8
g9
(g10
tp1073
Rp1074
g13
I1
ssg14
g13
sbsbsg48
(idecision_tree
decision_tree_leaf
p1075
(dp1076
g8
g9
(g10
tp1077
Rp1078
g13
I1
ssg14
g13
sbsbsg48
(idecision_tree
decision_tree_leaf
p1079
(dp1080
g8
g9
(g10
tp1081
Rp1082
g13
I1
ssg14
g13
sbsbsg48
(idecision_tree
decision_tree_leaf
p1083
(dp1084
g8
g9
(g10
tp1085
Rp1086
g13
I1
ssg14
g13
sbsbsbsbsS'27-OCT-2009'
p1087
(idecision_tree
decision_tree_leaf
p1088
(dp1089
g8
g9
(g10
tp1090
Rp1091
g13
I7
ssg14
g13
sbsS'16-JAN-2009'
p1092
(idecision_tree
decision_tree_leaf
p1093
(dp1094
g8
g9
(g10
tp1095
Rp1096
g13
I12
ssg14
g13
sbsS'19-JUN-2009'
p1097
(idecision_tree
decision_tree_leaf
p1098
(dp1099
g8
g9
(g10
tp1100
Rp1101
g13
I4
sS'PKP'
p1102
I2
ssg14
g13
sbsS'01-OCT-2009'
p1103
(idecision_tree
decision_tree
p1104
(dp1105
g2
I1
sg3
(dp1106
g13
(idecision_tree
decision_tree_leaf
p1107
(dp1108
g8
g9
(g10
tp1109
Rp1110
g13
I14
ssg14
g13
sbsS'Pg'
p1111
(idecision_tree
decision_tree_leaf
p1112
(dp1113
g8
g9
(g10
tp1114
Rp1115
S'Lg'
p1116
I1
ssg14
g1116
sbsS'N'
p1117
(idecision_tree
decision_tree_leaf
p1118
(dp1119
g8
g9
(g10
tp1120
Rp1121
g13
I1
ssg14
g13
sbssbsS'25-MAR-2009'
p1122
(idecision_tree
decision_tree_leaf
p1123
(dp1124
g8
g9
(g10
tp1125
Rp1126
g13
I4
ssg14
g13
sbsS'10-JUL-2009'
p1127
(idecision_tree
continuous_decision_tree
p1128
(dp1129
g42
F0.48329
sg2
I52
sg43
(idecision_tree
decision_tree_leaf
p1130
(dp1131
g8
g9
(g10
tp1132
Rp1133
g13
I1
ssg14
g13
sbsg48
(idecision_tree
continuous_decision_tree
p1134
(dp1135
g42
F0.832161
sg2
I51
sg43
(idecision_tree
decision_tree_leaf
p1136
(dp1137
g8
g9
(g10
tp1138
Rp1139
g13
I1
ssg14
g13
sbsg48
(idecision_tree
continuous_decision_tree
p1140
(dp1141
g42
F17257900.0
sg2
I64
sg43
(idecision_tree
decision_tree_leaf
p1142
(dp1143
g8
g9
(g10
tp1144
Rp1145
g13
I1
ssg14
g13
sbsg48
(idecision_tree
decision_tree_leaf
p1146
(dp1147
g8
g9
(g10
tp1148
Rp1149
g13
I3
sS'Pn'
p1150
I1
ssg14
g13
sbsbsbsbsS'15-MAY-2009'
p1151
(idecision_tree
decision_tree_leaf
p1152
(dp1153
g8
g9
(g10
tp1154
Rp1155
g13
I3
ssg14
g13
sbsS'20-JUN-2009'
p1156
(idecision_tree
continuous_decision_tree
p1157
(dp1158
g42
F-7.5
sg2
I67
sg43
(idecision_tree
continuous_decision_tree
p1159
(dp1160
g42
F0.5
sg2
I53
sg43
(idecision_tree
decision_tree
p1161
(dp1162
g2
I13
sg3
(dp1163
S'Z1020'
p1164
(idecision_tree
decision_tree_leaf
p1165
(dp1166
g8
g9
(g10
tp1167
Rp1168
S'PKP'
p1169
I1
ssg14
g1169
sbsS'Z1530'
p1170
(idecision_tree
decision_tree_leaf
p1171
(dp1172
g8
g9
(g10
tp1173
Rp1174
g13
I1
ssg14
g13
sbssbsg48
(idecision_tree
decision_tree_leaf
p1175
(dp1176
g8
g9
(g10
tp1177
Rp1178
g13
I1
ssg14
g13
sbsbsg48
(idecision_tree
decision_tree
p1179
(dp1180
g2
I14
sg3
(dp1181
S'coh'
p1182
(idecision_tree
decision_tree_leaf
p1183
(dp1184
g8
g9
(g10
tp1185
Rp1186
g13
I1
ssg14
g13
sbsS'inc'
p1187
(idecision_tree
decision_tree_leaf
p1188
(dp1189
g8
g9
(g10
tp1190
Rp1191
g229
I1
ssg14
g229
sbssbsbsS'17-NOV-2009'
p1192
(idecision_tree
continuous_decision_tree
p1193
(dp1194
g42
F0.0
sg2
I66
sg43
(idecision_tree
decision_tree_leaf
p1195
(dp1196
g8
g9
(g10
tp1197
Rp1198
g13
I4
sS'Pn'
p1199
I1
ssg14
g13
sbsg48
(idecision_tree
continuous_decision_tree
p1200
(dp1201
g42
F11.25
sg2
I67
sg43
(idecision_tree
decision_tree_leaf
p1202
(dp1203
g8
g9
(g10
tp1204
Rp1205
g13
I1
ssg14
g13
sbsg48
(idecision_tree
decision_tree_leaf
p1206
(dp1207
g8
g9
(g10
tp1208
Rp1209
S'Pn'
p1210
I1
ssg14
g1210
sbsbsbsS'17-FEB-2009'
p1211
(idecision_tree
continuous_decision_tree
p1212
(dp1213
g42
F0.5
sg2
I53
sg43
(idecision_tree
continuous_decision_tree
p1214
(dp1215
g42
F100.5
sg2
I67
sg43
(idecision_tree
decision_tree_leaf
p1216
(dp1217
g8
g9
(g10
tp1218
Rp1219
g13
I1
ssg14
g13
sbsg48
(idecision_tree
continuous_decision_tree
p1220
(dp1221
g42
F0.7182284999999999
sg2
I48
sg43
(idecision_tree
continuous_decision_tree
p1222
(dp1223
g42
F189.9764
sg2
I41
sg43
(idecision_tree
decision_tree
p1224
(dp1225
g2
I13
sg3
(dp1226
S'Z1020'
p1227
(idecision_tree
decision_tree_leaf
p1228
(dp1229
g8
g9
(g10
tp1230
Rp1231
S'PKP'
p1232
I1
ssg14
g1232
sbsS'Z1530'
p1233
(idecision_tree
decision_tree_leaf
p1234
(dp1235
g8
g9
(g10
tp1236
Rp1237
g13
I1
ssg14
g13
sbssbsg48
(idecision_tree
decision_tree_leaf
p1238
(dp1239
g8
g9
(g10
tp1240
Rp1241
g13
I1
ssg14
g13
sbsbsg48
(idecision_tree
decision_tree_leaf
p1242
(dp1243
g8
g9
(g10
tp1244
Rp1245
g13
I1
ssg14
g13
sbsbsbsg48
(idecision_tree
decision_tree_leaf
p1246
(dp1247
g8
g9
(g10
tp1248
Rp1249
g13
I1
ssg14
g13
sbsbsS'12-JUL-2009'
p1250
(idecision_tree
continuous_decision_tree
p1251
(dp1252
g42
F9.5
sg2
I67
sg43
(idecision_tree
continuous_decision_tree
p1253
(dp1254
g42
F0.0
sg2
I66
sg43
(idecision_tree
decision_tree
p1255
(dp1256
g2
I13
sg3
(dp1257
S'Z1020'
p1258
(idecision_tree
decision_tree_leaf
p1259
(dp1260
g8
g9
(g10
tp1261
Rp1262
g13
I1
ssg14
g13
sbsS'Z1530'
p1263
(idecision_tree
decision_tree_leaf
p1264
(dp1265
g8
g9
(g10
tp1266
Rp1267
S'Pn'
p1268
I1
ssg14
g1268
sbssbsg48
(idecision_tree
decision_tree_leaf
p1269
(dp1270
g8
g9
(g10
tp1271
Rp1272
g13
I1
ssg14
g13
sbsbsg48
(idecision_tree
decision_tree
p1273
(dp1274
g2
I13
sg3
(dp1275
S'Z1020'
p1276
(idecision_tree
decision_tree_leaf
p1277
(dp1278
g8
g9
(g10
tp1279
Rp1280
g13
I1
ssg14
g13
sbsS'Z0515'
p1281
(idecision_tree
decision_tree_leaf
p1282
(dp1283
g8
g9
(g10
tp1284
Rp1285
S'Lg'
p1286
I1
ssg14
g1286
sbssbsbsS'10-SEP-2009'
p1287
(idecision_tree
decision_tree_leaf
p1288
(dp1289
g8
g9
(g10
tp1290
Rp1291
g13
I2
ssg14
g13
sbsS'31-JUL-2009'
p1292
(idecision_tree
decision_tree_leaf
p1293
(dp1294
g8
g9
(g10
tp1295
Rp1296
g13
I4
ssg14
g13
sbsS'11-JAN-2009'
p1297
(idecision_tree
decision_tree_leaf
p1298
(dp1299
g8
g9
(g10
tp1300
Rp1301
g13
I9
ssg14
g13
sbsS'22-JAN-2009'
p1302
(idecision_tree
decision_tree_leaf
p1303
(dp1304
g8
g9
(g10
tp1305
Rp1306
g13
I12
ssg14
g13
sbsS'05-MAR-2009'
p1307
(idecision_tree
decision_tree_leaf
p1308
(dp1309
g8
g9
(g10
tp1310
Rp1311
g13
I8
ssg14
g13
sbsS'25-MAY-2009'
p1312
(idecision_tree
decision_tree_leaf
p1313
(dp1314
g8
g9
(g10
tp1315
Rp1316
g13
I5
ssg14
g13
sbsS'06-SEP-2009'
p1317
(idecision_tree
decision_tree_leaf
p1318
(dp1319
g8
g9
(g10
tp1320
Rp1321
g13
I9
ssg14
g13
sbsS'22-DEC-2009'
p1322
(idecision_tree
continuous_decision_tree
p1323
(dp1324
g42
F-20.25
sg2
I67
sg43
(idecision_tree
continuous_decision_tree
p1325
(dp1326
g42
F73.33705
sg2
I40
sg43
(idecision_tree
continuous_decision_tree
p1327
(dp1328
g42
F3.2227699999999997
sg2
I39
sg43
(idecision_tree
decision_tree
p1329
(dp1330
g2
I13
sg3
(dp1331
S'Z1020'
p1332
(idecision_tree
decision_tree_leaf
p1333
(dp1334
g8
g9
(g10
tp1335
Rp1336
g13
I1
ssg14
g13
sbsS'Z1530'
p1337
(idecision_tree
decision_tree_leaf
p1338
(dp1339
g8
g9
(g10
tp1340
Rp1341
S'Pg'
p1342
I1
ssg14
g1342
sbssbsg48
(idecision_tree
decision_tree_leaf
p1343
(dp1344
g8
g9
(g10
tp1345
Rp1346
g13
I1
ssg14
g13
sbsbsg48
(idecision_tree
decision_tree_leaf
p1347
(dp1348
g8
g9
(g10
tp1349
Rp1350
g13
I2
sS'Pn'
p1351
I1
ssg14
g13
sbsbsg48
(idecision_tree
continuous_decision_tree
p1352
(dp1353
g42
F0.296465
sg2
I48
sg43
(idecision_tree
decision_tree
p1354
(dp1355
g2
I13
sg3
(dp1356
S'Z1020'
p1357
(idecision_tree
decision_tree_leaf
p1358
(dp1359
g8
g9
(g10
tp1360
Rp1361
S'Lg'
p1362
I1
ssg14
g1362
sbsS'Z2040'
p1363
(idecision_tree
decision_tree_leaf
p1364
(dp1365
g8
g9
(g10
tp1366
Rp1367
g13
I1
ssg14
g13
sbssbsg48
(idecision_tree
decision_tree_leaf
p1368
(dp1369
g8
g9
(g10
tp1370
Rp1371
g13
I1
ssg14
g13
sbsbsbsS'06-NOV-2009'
p1372
(idecision_tree
decision_tree_leaf
p1373
(dp1374
g8
g9
(g10
tp1375
Rp1376
g13
I3
ssg14
g13
sbsS'13-DEC-2009'
p1377
(idecision_tree
decision_tree_leaf
p1378
(dp1379
g8
g9
(g10
tp1380
Rp1381
g13
I2
ssg14
g13
sbsS'26-JAN-2009'
p1382
(idecision_tree
decision_tree
p1383
(dp1384
g2
I13
sg3
(dp1385
S'Z1020'
p1386
(idecision_tree
decision_tree_leaf
p1387
(dp1388
g8
g9
(g10
tp1389
Rp1390
g13
I4
ssg14
g13
sbsS'Z4080'
p1391
(idecision_tree
decision_tree_leaf
p1392
(dp1393
g8
g9
(g10
tp1394
Rp1395
S'Pn'
p1396
I1
ssg14
g1396
sbsS'Z1530'
p1397
(idecision_tree
decision_tree_leaf
p1398
(dp1399
g8
g9
(g10
tp1400
Rp1401
g13
I3
ssg14
g13
sbsS'Z2040'
p1402
(idecision_tree
decision_tree_leaf
p1403
(dp1404
g8
g9
(g10
tp1405
Rp1406
g13
I1
ssg14
g13
sbssbsS'18-SEP-2009'
p1407
(idecision_tree
decision_tree_leaf
p1408
(dp1409
g8
g9
(g10
tp1410
Rp1411
g13
I6
ssg14
g13
sbsS'19-DEC-2009'
p1412
(idecision_tree
decision_tree
p1413
(dp1414
g2
I13
sg3
(dp1415
S'Z1530'
p1416
(idecision_tree
decision_tree_leaf
p1417
(dp1418
g8
g9
(g10
tp1419
Rp1420
g13
I2
ssg14
g13
sbsS'Z1020'
p1421
(idecision_tree
decision_tree_leaf
p1422
(dp1423
g8
g9
(g10
tp1424
Rp1425
g13
I2
ssg14
g13
sbsS'Z0515'
p1426
(idecision_tree
decision_tree_leaf
p1427
(dp1428
g8
g9
(g10
tp1429
Rp1430
S'Lg'
p1431
I1
ssg14
g1431
sbssbsS'08-AUG-2009'
p1432
(idecision_tree
decision_tree_leaf
p1433
(dp1434
g8
g9
(g10
tp1435
Rp1436
g13
I4
ssg14
g13
sbsS'30-NOV-2009'
p1437
(idecision_tree
decision_tree_leaf
p1438
(dp1439
g8
g9
(g10
tp1440
Rp1441
S'Pn'
p1442
I1
ssg14
g1442
sbsS'05-SEP-2009'
p1443
(idecision_tree
continuous_decision_tree
p1444
(dp1445
g42
F-3.0
sg2
I66
sg43
(idecision_tree
decision_tree
p1446
(dp1447
g2
I13
sg3
(dp1448
S'Z1020'
p1449
(idecision_tree
decision_tree_leaf
p1450
(dp1451
g8
g9
(g10
tp1452
Rp1453
S'Lg'
p1454
I1
ssg14
g1454
sbsS'Z1530'
p1455
(idecision_tree
decision_tree_leaf
p1456
(dp1457
g8
g9
(g10
tp1458
Rp1459
g13
I1
ssg14
g13
sbssbsg48
(idecision_tree
decision_tree_leaf
p1460
(dp1461
g8
g9
(g10
tp1462
Rp1463
g13
I1
ssg14
g13
sbsbsS'07-SEP-2009'
p1464
(idecision_tree
decision_tree_leaf
p1465
(dp1466
g8
g9
(g10
tp1467
Rp1468
g13
I6
ssg14
g13
sbsS'16-JUL-2009'
p1469
(idecision_tree
decision_tree_leaf
p1470
(dp1471
g8
g9
(g10
tp1472
Rp1473
g13
I12
ssg14
g13
sbsS'11-MAR-2009'
p1474
(idecision_tree
continuous_decision_tree
p1475
(dp1476
g42
F7.819435
sg2
I33
sg43
(idecision_tree
decision_tree_leaf
p1477
(dp1478
g8
g9
(g10
tp1479
Rp1480
g13
I1
ssg14
g13
sbsg48
(idecision_tree
continuous_decision_tree
p1481
(dp1482
g42
F3.75
sg2
I63
sg43
(idecision_tree
decision_tree_leaf
p1483
(dp1484
g8
g9
(g10
tp1485
Rp1486
g13
I1
ssg14
g13
sbsg48
(idecision_tree
continuous_decision_tree
p1487
(dp1488
g42
F0.25
sg2
I59
sg43
(idecision_tree
decision_tree_leaf
p1489
(dp1490
g8
g9
(g10
tp1491
Rp1492
g13
I1
ssg14
g13
sbsg48
(idecision_tree
continuous_decision_tree
p1493
(dp1494
g42
F0.2587395
sg2
I52
sg43
(idecision_tree
continuous_decision_tree
p1495
(dp1496
g42
F63.0
sg2
I67
sg43
(idecision_tree
decision_tree_leaf
p1497
(dp1498
g8
g9
(g10
tp1499
Rp1500
g13
I1
ssg14
g13
sbsg48
(idecision_tree
continuous_decision_tree
p1501
(dp1502
g42
F1.0893445000000002
sg2
I48
sg43
(idecision_tree
decision_tree_leaf
p1503
(dp1504
g8
g9
(g10
tp1505
Rp1506
g13
I1
ssg14
g13
sbsg48
(idecision_tree
continuous_decision_tree
p1507
(dp1508
g42
F0.4351855
sg2
I49
sg43
(idecision_tree
decision_tree_leaf
p1509
(dp1510
g8
g9
(g10
tp1511
Rp1512
g13
I1
ssg14
g13
sbsg48
(idecision_tree
continuous_decision_tree
p1513
(dp1514
g42
F0.9169655
sg2
I34
sg43
(idecision_tree
continuous_decision_tree
p1515
(dp1516
g42
F-114.5
sg2
I67
sg43
(idecision_tree
decision_tree_leaf
p1517
(dp1518
g8
g9
(g10
tp1519
Rp1520
S'PKP'
p1521
I1
ssg14
g1521
sbsg48
(idecision_tree
decision_tree_leaf
p1522
(dp1523
g8
g9
(g10
tp1524
Rp1525
g13
I1
ssg14
g13
sbsbsg48
(idecision_tree
decision_tree_leaf
p1526
(dp1527
g8
g9
(g10
tp1528
Rp1529
g13
I1
ssg14
g13
sbsbsbsbsbsg48
(idecision_tree
decision_tree_leaf
p1530
(dp1531
g8
g9
(g10
tp1532
Rp1533
g13
I1
ssg14
g13
sbsbsbsbsbsS'16-AUG-2009'
p1534
(idecision_tree
decision_tree_leaf
p1535
(dp1536
g8
g9
(g10
tp1537
Rp1538
g13
I8
ssg14
g13
sbsS'11-MAY-2009'
p1539
(idecision_tree
decision_tree_leaf
p1540
(dp1541
g8
g9
(g10
tp1542
Rp1543
g13
I4
ssg14
g13
sbsS'04-OCT-2009'
p1544
(idecision_tree
decision_tree_leaf
p1545
(dp1546
g8
g9
(g10
tp1547
Rp1548
g13
I14
ssg14
g13
sbsS'20-DEC-2009'
p1549
(idecision_tree
continuous_decision_tree
p1550
(dp1551
g42
F0.5718425
sg2
I49
sg43
(idecision_tree
decision_tree
p1552
(dp1553
g2
I1
sg3
(dp1554
S'Lg'
p1555
(idecision_tree
decision_tree_leaf
p1556
(dp1557
g8
g9
(g10
tp1558
Rp1559
S'Lg'
p1560
I1
ssg14
g1560
sbsS'Sx'
p1561
(idecision_tree
decision_tree_leaf
p1562
(dp1563
g8
g9
(g10
tp1564
Rp1565
S'Sn'
p1566
I1
ssg14
g1566
sbsS'tx'
p1567
(idecision_tree
decision_tree_leaf
p1568
(dp1569
g8
g9
(g10
tp1570
Rp1571
g13
I1
ssg14
g13
sbsg1117
(idecision_tree
decision_tree_leaf
p1572
(dp1573
g8
g9
(g10
tp1574
Rp1575
g13
I1
ssg14
g13
sbsg13
(idecision_tree
decision_tree_leaf
p1576
(dp1577
g8
g9
(g10
tp1578
Rp1579
g13
I5
ssg14
g13
sbsS'Pn'
p1580
(idecision_tree
decision_tree_leaf
p1581
(dp1582
g8
g9
(g10
tp1583
Rp1584
g13
I1
ssg14
g13
sbssbsg48
(idecision_tree
decision_tree
p1585
(dp1586
g2
I14
sg3
(dp1587
S'coh'
p1588
(idecision_tree
decision_tree_leaf
p1589
(dp1590
g8
g9
(g10
tp1591
Rp1592
g13
I4
ssg14
g13
sbsS'inc'
p1593
(idecision_tree
decision_tree_leaf
p1594
(dp1595
g8
g9
(g10
tp1596
Rp1597
S'Pn'
p1598
I1
ssg14
g1598
sbssbsbsS'23-MAR-2009'
p1599
(idecision_tree
decision_tree_leaf
p1600
(dp1601
g8
g9
(g10
tp1602
Rp1603
g13
I4
ssg14
g13
sbsS'20-SEP-2009'
p1604
(idecision_tree
continuous_decision_tree
p1605
(dp1606
g42
F-54.666650000000004
sg2
I67
sg43
(idecision_tree
decision_tree
p1607
(dp1608
g2
I13
sg3
(dp1609
S'Z1020'
p1610
(idecision_tree
decision_tree_leaf
p1611
(dp1612
g8
g9
(g10
tp1613
Rp1614
g13
I1
ssg14
g13
sbsS'Z1530'
p1615
(idecision_tree
decision_tree_leaf
p1616
(dp1617
g8
g9
(g10
tp1618
Rp1619
S'Pn'
p1620
I1
ssg14
g1620
sbssbsg48
(idecision_tree
decision_tree
p1621
(dp1622
g2
I13
sg3
(dp1623
S'Z1020'
p1624
(idecision_tree
decision_tree_leaf
p1625
(dp1626
g8
g9
(g10
tp1627
Rp1628
g13
I1
ssg14
g13
sbsS'Z0515'
p1629
(idecision_tree
decision_tree_leaf
p1630
(dp1631
g8
g9
(g10
tp1632
Rp1633
S'Pn'
p1634
I1
ssg14
g1634
sbssbsbsS'14-MAY-2009'
p1635
(idecision_tree
decision_tree_leaf
p1636
(dp1637
g8
g9
(g10
tp1638
Rp1639
g13
I4
ssg14
g13
sbsS'20-NOV-2009'
p1640
(idecision_tree
decision_tree_leaf
p1641
(dp1642
g8
g9
(g10
tp1643
Rp1644
g13
I5
ssg14
g13
sbsS'14-JAN-2009'
p1645
(idecision_tree
decision_tree_leaf
p1646
(dp1647
g8
g9
(g10
tp1648
Rp1649
g13
I6
ssg14
g13
sbsS'04-SEP-2009'
p1650
(idecision_tree
continuous_decision_tree
p1651
(dp1652
g42
F3.0
sg2
I66
sg43
(idecision_tree
continuous_decision_tree
p1653
(dp1654
g42
F-0.866649999999999
sg2
I67
sg43
(idecision_tree
decision_tree
p1655
(dp1656
g2
I14
sg3
(dp1657
S'coh'
p1658
(idecision_tree
decision_tree_leaf
p1659
(dp1660
g8
g9
(g10
tp1661
Rp1662
g13
I1
ssg14
g13
sbsS'inc'
p1663
(idecision_tree
decision_tree_leaf
p1664
(dp1665
g8
g9
(g10
tp1666
Rp1667
S'Pn'
p1668
I1
ssg14
g1668
sbssbsg48
(idecision_tree
decision_tree
p1669
(dp1670
g2
I13
sg3
(dp1671
S'Z1020'
p1672
(idecision_tree
decision_tree_leaf
p1673
(dp1674
g8
g9
(g10
tp1675
Rp1676
g13
I1
ssg14
g13
sbsS'Z0515'
p1677
(idecision_tree
decision_tree_leaf
p1678
(dp1679
g8
g9
(g10
tp1680
Rp1681
g229
I1
ssg14
g229
sbssbsbsg48
(idecision_tree
decision_tree
p1682
(dp1683
g2
I14
sg3
(dp1684
S'coh'
p1685
(idecision_tree
decision_tree_leaf
p1686
(dp1687
g8
g9
(g10
tp1688
Rp1689
g13
I4
ssg14
g13
sbsS'inc'
p1690
(idecision_tree
decision_tree_leaf
p1691
(dp1692
g8
g9
(g10
tp1693
Rp1694
S'Lg'
p1695
I1
ssg14
g1695
sbssbsbsS'30-MAR-2009'
p1696
(idecision_tree
decision_tree_leaf
p1697
(dp1698
g8
g9
(g10
tp1699
Rp1700
g13
I8
ssg14
g13
sbsS'06-JUN-2009'
p1701
(idecision_tree
decision_tree_leaf
p1702
(dp1703
g8
g9
(g10
tp1704
Rp1705
g13
I8
ssg14
g13
sbsS'12-FEB-2009'
p1706
(idecision_tree
continuous_decision_tree
p1707
(dp1708
g42
F0.0
sg2
I62
sg43
(idecision_tree
decision_tree
p1709
(dp1710
g2
I13
sg3
(dp1711
S'Z1020'
p1712
(idecision_tree
continuous_decision_tree
p1713
(dp1714
g42
F46.1412
sg2
I44
sg43
(idecision_tree
decision_tree_leaf
p1715
(dp1716
g8
g9
(g10
tp1717
Rp1718
g13
I1
ssg14
g13
sbsg48
(idecision_tree
decision_tree_leaf
p1719
(dp1720
g8
g9
(g10
tp1721
Rp1722
g13
I6
sS'Pn'
p1723
I1
ssg14
g13
sbsbsS'Z1530'
p1724
(idecision_tree
decision_tree_leaf
p1725
(dp1726
g8
g9
(g10
tp1727
Rp1728
g13
I2
ssg14
g13
sbsS'Z2040'
p1729
(idecision_tree
decision_tree_leaf
p1730
(dp1731
g8
g9
(g10
tp1732
Rp1733
g13
I1
ssg14
g13
sbssbsg48
(idecision_tree
continuous_decision_tree
p1734
(dp1735
g42
F3.39342
sg2
I49
sg43
(idecision_tree
decision_tree_leaf
p1736
(dp1737
g8
g9
(g10
tp1738
Rp1739
g13
I1
ssg14
g13
sbsg48
(idecision_tree
continuous_decision_tree
p1740
(dp1741
g42
F0.0
sg2
I58
sg43
(idecision_tree
decision_tree
p1742
(dp1743
g2
I1
sg3
(dp1744
g13
(idecision_tree
decision_tree_leaf
p1745
(dp1746
g8
g9
(g10
tp1747
Rp1748
S'PKP'
p1749
I1
ssg14
g1749
sbsS'tx'
p1750
(idecision_tree
decision_tree_leaf
p1751
(dp1752
g8
g9
(g10
tp1753
Rp1754
g13
I1
ssg14
g13
sbssbsg48
(idecision_tree
decision_tree_leaf
p1755
(dp1756
g8
g9
(g10
tp1757
Rp1758
g13
I5
ssg14
g13
sbsbsbsbsS'09-OCT-2009'
p1759
(idecision_tree
decision_tree_leaf
p1760
(dp1761
g8
g9
(g10
tp1762
Rp1763
g13
I16
ssg14
g13
sbsS'23-SEP-2009'
p1764
(idecision_tree
decision_tree_leaf
p1765
(dp1766
g8
g9
(g10
tp1767
Rp1768
g13
I4
ssg14
g13
sbsS'21-SEP-2009'
p1769
(idecision_tree
decision_tree_leaf
p1770
(dp1771
g8
g9
(g10
tp1772
Rp1773
g13
I4
ssg14
g13
sbsS'30-SEP-2009'
p1774
(idecision_tree
decision_tree
p1775
(dp1776
g2
I1
sg3
(dp1777
g13
(idecision_tree
decision_tree
p1778
(dp1779
g2
I13
sg3
(dp1780
S'Z0515'
p1781
(idecision_tree
decision_tree_leaf
p1782
(dp1783
g8
g9
(g10
tp1784
Rp1785
g13
I3
ssg14
g13
sbsS'Z1020'
p1786
(idecision_tree
decision_tree
p1787
(dp1788
g2
I27
sg3
(dp1789
S'30-SEP-2009'
p1790
(idecision_tree
decision_tree
p1791
(dp1792
g2
I14
sg3
(dp1793
S'coh'
p1794
(idecision_tree
decision_tree
p1795
(dp1796
g2
I10
sg3
(dp1797
S'30-SEP-2009'
p1798
(idecision_tree
decision_tree
p1799
(dp1800
g2
I9
sg3
(dp1801
S'-999'
p1802
(idecision_tree
continuous_decision_tree
p1803
(dp1804
g42
F4.0
sg2
I66
sg43
(idecision_tree
decision_tree_leaf
p1805
(dp1806
g8
g9
(g10
tp1807
Rp1808
g13
I4
sS'PKP'
p1809
I1
ssg14
g13
sbsg48
(idecision_tree
decision_tree_leaf
p1810
(dp1811
g8
g9
(g10
tp1812
Rp1813
g13
I6
ssg14
g13
sbsbssbssbssbssbsS'Z1530'
p1814
(idecision_tree
decision_tree_leaf
p1815
(dp1816
g8
g9
(g10
tp1817
Rp1818
g13
I4
ssg14
g13
sbssbsS'Pn'
p1819
(idecision_tree
continuous_decision_tree
p1820
(dp1821
g42
F96.08335
sg2
I67
sg43
(idecision_tree
decision_tree_leaf
p1822
(dp1823
g8
g9
(g10
tp1824
Rp1825
g13
I1
ssg14
g13
sbsg48
(idecision_tree
decision_tree_leaf
p1826
(dp1827
g8
g9
(g10
tp1828
Rp1829
S'Pn'
p1830
I1
ssg14
g1830
sbsbsS'Pg'
p1831
(idecision_tree
decision_tree_leaf
p1832
(dp1833
g8
g9
(g10
tp1834
Rp1835
g229
I1
ssg14
g229
sbsS'tx'
p1836
(idecision_tree
decision_tree_leaf
p1837
(dp1838
g8
g9
(g10
tp1839
Rp1840
g13
I1
ssg14
g13
sbsg1117
(idecision_tree
decision_tree_leaf
p1841
(dp1842
g8
g9
(g10
tp1843
Rp1844
g13
I2
ssg14
g13
sbssbsS'30-MAY-2009'
p1845
(idecision_tree
continuous_decision_tree
p1846
(dp1847
g42
F1.0
sg2
I66
sg43
(idecision_tree
continuous_decision_tree
p1848
(dp1849
g42
F128.5
sg2
I67
sg43
(idecision_tree
decision_tree_leaf
p1850
(dp1851
g8
g9
(g10
tp1852
Rp1853
g13
I1
ssg14
g13
sbsg48
(idecision_tree
decision_tree_leaf
p1854
(dp1855
g8
g9
(g10
tp1856
Rp1857
g13
I3
sS'Pn'
p1858
I1
ssg14
g13
sbsbsg48
(idecision_tree
decision_tree
p1859
(dp1860
g2
I1
sg3
(dp1861
S'Pn'
p1862
(idecision_tree
decision_tree_leaf
p1863
(dp1864
g8
g9
(g10
tp1865
Rp1866
S'Pn'
p1867
I1
ssg14
g1867
sbsg1117
(idecision_tree
decision_tree_leaf
p1868
(dp1869
g8
g9
(g10
tp1870
Rp1871
g13
I1
ssg14
g13
sbssbsbsS'13-JUL-2009'
p1872
(idecision_tree
decision_tree_leaf
p1873
(dp1874
g8
g9
(g10
tp1875
Rp1876
g13
I11
ssg14
g13
sbsS'03-FEB-2009'
p1877
(idecision_tree
decision_tree_leaf
p1878
(dp1879
g8
g9
(g10
tp1880
Rp1881
g13
I5
ssg14
g13
sbsS'12-OCT-2009'
p1882
(idecision_tree
decision_tree_leaf
p1883
(dp1884
g8
g9
(g10
tp1885
Rp1886
g13
I25
ssg14
g13
sbsS'22-OCT-2009'
p1887
(idecision_tree
decision_tree_leaf
p1888
(dp1889
g8
g9
(g10
tp1890
Rp1891
g13
I9
ssg14
g13
sbsS'19-OCT-2009'
p1892
(idecision_tree
decision_tree_leaf
p1893
(dp1894
g8
g9
(g10
tp1895
Rp1896
g13
I4
ssg14
g13
sbsS'02-AUG-2009'
p1897
(idecision_tree
decision_tree_leaf
p1898
(dp1899
g8
g9
(g10
tp1900
Rp1901
g13
I3
ssg14
g13
sbsS'06-OCT-2009'
p1902
(idecision_tree
decision_tree_leaf
p1903
(dp1904
g8
g9
(g10
tp1905
Rp1906
g13
I8
ssg14
g13
sbsS'19-JAN-2009'
p1907
(idecision_tree
decision_tree_leaf
p1908
(dp1909
g8
g9
(g10
tp1910
Rp1911
g13
I8
ssg14
g13
sbsS'28-OCT-2009'
p1912
(idecision_tree
decision_tree_leaf
p1913
(dp1914
g8
g9
(g10
tp1915
Rp1916
g13
I5
ssg14
g13
sbsS'15-JAN-2009'
p1917
(idecision_tree
decision_tree_leaf
p1918
(dp1919
g8
g9
(g10
tp1920
Rp1921
g13
I9
ssg14
g13
sbsS'30-OCT-2009'
p1922
(idecision_tree
decision_tree_leaf
p1923
(dp1924
g8
g9
(g10
tp1925
Rp1926
g13
I2
ssg14
g13
sbsS'18-AUG-2009'
p1927
(idecision_tree
decision_tree_leaf
p1928
(dp1929
g8
g9
(g10
tp1930
Rp1931
g13
I5
sS'Pn'
p1932
I3
ssg14
g13
sbsS'11-JUN-2009'
p1933
(idecision_tree
decision_tree_leaf
p1934
(dp1935
g8
g9
(g10
tp1936
Rp1937
g13
I5
ssg14
g13
sbsS'01-JUL-2009'
p1938
(idecision_tree
decision_tree_leaf
p1939
(dp1940
g8
g9
(g10
tp1941
Rp1942
g13
I2
sS'PKP'
p1943
I1
ssg14
g13
sbsS'22-SEP-2009'
p1944
(idecision_tree
continuous_decision_tree
p1945
(dp1946
g42
F11.0
sg2
I67
sg43
(idecision_tree
continuous_decision_tree
p1947
(dp1948
g42
F1.16083
sg2
I49
sg43
(idecision_tree
decision_tree
p1949
(dp1950
g2
I13
sg3
(dp1951
S'Z1020'
p1952
(idecision_tree
decision_tree_leaf
p1953
(dp1954
g8
g9
(g10
tp1955
Rp1956
S'Pn'
p1957
I1
ssg14
g1957
sbsS'Z1530'
p1958
(idecision_tree
decision_tree_leaf
p1959
(dp1960
g8
g9
(g10
tp1961
Rp1962
g13
I1
ssg14
g13
sbssbsg48
(idecision_tree
decision_tree_leaf
p1963
(dp1964
g8
g9
(g10
tp1965
Rp1966
g13
I1
ssg14
g13
sbsbsg48
(idecision_tree
continuous_decision_tree
p1967
(dp1968
g42
F0.5
sg2
I58
sg43
(idecision_tree
continuous_decision_tree
p1969
(dp1970
g42
F-159.8182
sg2
I67
sg43
(idecision_tree
decision_tree
p1971
(dp1972
g2
I1
sg3
(dp1973
g13
(idecision_tree
decision_tree_leaf
p1974
(dp1975
g8
g9
(g10
tp1976
Rp1977
g13
I1
ssg14
g13
sbsS'Pn'
p1978
(idecision_tree
decision_tree_leaf
p1979
(dp1980
g8
g9
(g10
tp1981
Rp1982
S'Lg'
p1983
I1
ssg14
g1983
sbssbsg48
(idecision_tree
decision_tree_leaf
p1984
(dp1985
g8
g9
(g10
tp1986
Rp1987
g13
I1
ssg14
g13
sbsbsg48
(idecision_tree
continuous_decision_tree
p1988
(dp1989
g42
F222.4155
sg2
I43
sg43
(idecision_tree
decision_tree
p1990
(dp1991
g2
I13
sg3
(dp1992
S'Z0515'
p1993
(idecision_tree
decision_tree_leaf
p1994
(dp1995
g8
g9
(g10
tp1996
Rp1997
S'Pn'
p1998
I1
ssg14
g1998
sbsS'Z1530'
p1999
(idecision_tree
decision_tree_leaf
p2000
(dp2001
g8
g9
(g10
tp2002
Rp2003
g13
I1
ssg14
g13
sbssbsg48
(idecision_tree
decision_tree_leaf
p2004
(dp2005
g8
g9
(g10
tp2006
Rp2007
g13
I1
ssg14
g13
sbsbsbsbsS'21-FEB-2009'
p2008
(idecision_tree
decision_tree_leaf
p2009
(dp2010
g8
g9
(g10
tp2011
Rp2012
g13
I3
ssg14
g13
sbsS'07-JUN-2009'
p2013
(idecision_tree
decision_tree_leaf
p2014
(dp2015
g8
g9
(g10
tp2016
Rp2017
g13
I8
sg229
I1
sS'Pn'
p2018
I1
ssg14
g13
sbsS'09-MAR-2009'
p2019
(idecision_tree
continuous_decision_tree
p2020
(dp2021
g42
F-32.5
sg2
I63
sg43
(idecision_tree
continuous_decision_tree
p2022
(dp2023
g42
F0.2103835
sg2
I52
sg43
(idecision_tree
continuous_decision_tree
p2024
(dp2025
g42
F1.0
sg2
I66
sg43
(idecision_tree
decision_tree
p2026
(dp2027
g2
I1
sg3
(dp2028
g13
(idecision_tree
decision_tree_leaf
p2029
(dp2030
g8
g9
(g10
tp2031
Rp2032
S'Pn'
p2033
I1
ssg14
g2033
sbsg1117
(idecision_tree
decision_tree_leaf
p2034
(dp2035
g8
g9
(g10
tp2036
Rp2037
g13
I1
ssg14
g13
sbssbsg48
(idecision_tree
decision_tree_leaf
p2038
(dp2039
g8
g9
(g10
tp2040
Rp2041
g13
I3
ssg14
g13
sbsbsg48
(idecision_tree
decision_tree_leaf
p2042
(dp2043
g8
g9
(g10
tp2044
Rp2045
g13
I1
ssg14
g13
sbsbsg48
(idecision_tree
decision_tree_leaf
p2046
(dp2047
g8
g9
(g10
tp2048
Rp2049
g13
I1
ssg14
g13
sbsbsS'19-AUG-2009'
p2050
(idecision_tree
continuous_decision_tree
p2051
(dp2052
g42
F0.4210465
sg2
I51
sg43
(idecision_tree
decision_tree
p2053
(dp2054
g2
I13
sg3
(dp2055
S'Z1020'
p2056
(idecision_tree
decision_tree_leaf
p2057
(dp2058
g8
g9
(g10
tp2059
Rp2060
g13
I1
ssg14
g13
sbsS'Z0515'
p2061
(idecision_tree
decision_tree_leaf
p2062
(dp2063
g8
g9
(g10
tp2064
Rp2065
S'Pn'
p2066
I1
ssg14
g2066
sbssbsg48
(idecision_tree
continuous_decision_tree
p2067
(dp2068
g42
F0.302851
sg2
I52
sg43
(idecision_tree
continuous_decision_tree
p2069
(dp2070
g42
F131.0
sg2
I67
sg43
(idecision_tree
decision_tree_leaf
p2071
(dp2072
g8
g9
(g10
tp2073
Rp2074
S'Pn'
p2075
I1
ssg14
g2075
sbsg48
(idecision_tree
decision_tree_leaf
p2076
(dp2077
g8
g9
(g10
tp2078
Rp2079
g13
I1
ssg14
g13
sbsbsg48
(idecision_tree
decision_tree_leaf
p2080
(dp2081
g8
g9
(g10
tp2082
Rp2083
g13
I1
ssg14
g13
sbsbsbsS'07-AUG-2009'
p2084
(idecision_tree
decision_tree
p2085
(dp2086
g2
I1
sg3
(dp2087
g13
(idecision_tree
decision_tree_leaf
p2088
(dp2089
g8
g9
(g10
tp2090
Rp2091
g13
I4
ssg14
g13
sbsS'Pn'
p2092
(idecision_tree
decision_tree_leaf
p2093
(dp2094
g8
g9
(g10
tp2095
Rp2096
S'Pn'
p2097
I1
ssg14
g2097
sbssbsS'06-MAR-2009'
p2098
(idecision_tree
decision_tree_leaf
p2099
(dp2100
g8
g9
(g10
tp2101
Rp2102
g13
I2
ssg14
g13
sbsS'29-OCT-2009'
p2103
(idecision_tree
continuous_decision_tree
p2104
(dp2105
g42
F-85.0
sg2
I67
sg43
(idecision_tree
continuous_decision_tree
p2106
(dp2107
g42
F26837650.0
sg2
I64
sg43
(idecision_tree
decision_tree
p2108
(dp2109
g2
I13
sg3
(dp2110
S'Z1020'
p2111
(idecision_tree
decision_tree_leaf
p2112
(dp2113
g8
g9
(g10
tp2114
Rp2115
g13
I1
ssg14
g13
sbsS'Z0515'
p2116
(idecision_tree
decision_tree_leaf
p2117
(dp2118
g8
g9
(g10
tp2119
Rp2120
g229
I1
ssg14
g229
sbssbsg48
(idecision_tree
continuous_decision_tree
p2121
(dp2122
g42
F0.361538
sg2
I51
sg43
(idecision_tree
decision_tree
p2123
(dp2124
g2
I14
sg3
(dp2125
S'coh'
p2126
(idecision_tree
decision_tree_leaf
p2127
(dp2128
g8
g9
(g10
tp2129
Rp2130
g13
I1
ssg14
g13
sbsS'inc'
p2131
(idecision_tree
decision_tree_leaf
p2132
(dp2133
g8
g9
(g10
tp2134
Rp2135
S'Pn'
p2136
I1
ssg14
g2136
sbssbsg48
(idecision_tree
decision_tree_leaf
p2137
(dp2138
g8
g9
(g10
tp2139
Rp2140
g13
I1
ssg14
g13
sbsbsbsg48
(idecision_tree
decision_tree
p2141
(dp2142
g2
I13
sg3
(dp2143
S'Z1020'
p2144
(idecision_tree
decision_tree_leaf
p2145
(dp2146
g8
g9
(g10
tp2147
Rp2148
g13
I1
ssg14
g13
sbsS'Z0515'
p2149
(idecision_tree
decision_tree_leaf
p2150
(dp2151
g8
g9
(g10
tp2152
Rp2153
S'Lg'
p2154
I1
ssg14
g2154
sbssbsbsS'18-MAR-2009'
p2155
(idecision_tree
decision_tree
p2156
(dp2157
g2
I14
sg3
(dp2158
S'coh'
p2159
(idecision_tree
decision_tree_leaf
p2160
(dp2161
g8
g9
(g10
tp2162
Rp2163
g13
I4
ssg14
g13
sbsS'inc'
p2164
(idecision_tree
decision_tree_leaf
p2165
(dp2166
g8
g9
(g10
tp2167
Rp2168
g229
I1
ssg14
g229
sbssbsS'27-JUL-2009'
p2169
(idecision_tree
continuous_decision_tree
p2170
(dp2171
g42
F1.0
sg2
I66
sg43
(idecision_tree
continuous_decision_tree
p2172
(dp2173
g42
F0.0
sg2
I63
sg43
(idecision_tree
continuous_decision_tree
p2174
(dp2175
g42
F150.0
sg2
I67
sg43
(idecision_tree
decision_tree
p2176
(dp2177
g2
I13
sg3
(dp2178
S'Z1020'
p2179
(idecision_tree
decision_tree_leaf
p2180
(dp2181
g8
g9
(g10
tp2182
Rp2183
S'Pn'
p2184
I1
ssg14
g2184
sbsS'Z1530'
p2185
(idecision_tree
decision_tree_leaf
p2186
(dp2187
g8
g9
(g10
tp2188
Rp2189
S'PKP'
p2190
I1
ssg14
g2190
sbssbsg48
(idecision_tree
continuous_decision_tree
p2191
(dp2192
g42
F3.0
sg2
I59
sg43
(idecision_tree
decision_tree
p2193
(dp2194
g2
I1
sg3
(dp2195
g13
(idecision_tree
decision_tree_leaf
p2196
(dp2197
g8
g9
(g10
tp2198
Rp2199
S'Pn'
p2200
I1
ssg14
g2200
sbsS'Pn'
p2201
(idecision_tree
decision_tree_leaf
p2202
(dp2203
g8
g9
(g10
tp2204
Rp2205
g13
I1
ssg14
g13
sbssbsg48
(idecision_tree
decision_tree_leaf
p2206
(dp2207
g8
g9
(g10
tp2208
Rp2209
g13
I1
ssg14
g13
sbsbsbsg48
(idecision_tree
decision_tree_leaf
p2210
(dp2211
g8
g9
(g10
tp2212
Rp2213
g13
I1
ssg14
g13
sbsbsg48
(idecision_tree
decision_tree_leaf
p2214
(dp2215
g8
g9
(g10
tp2216
Rp2217
g13
I5
ssg14
g13
sbsbsS'24-AUG-2009'
p2218
(idecision_tree
continuous_decision_tree
p2219
(dp2220
g42
F1.0
sg2
I66
sg43
(idecision_tree
continuous_decision_tree
p2221
(dp2222
g42
F87.76205
sg2
I67
sg43
(idecision_tree
decision_tree_leaf
p2223
(dp2224
g8
g9
(g10
tp2225
Rp2226
g13
I2
sS'Pn'
p2227
I1
ssg14
g13
sbsg48
(idecision_tree
continuous_decision_tree
p2228
(dp2229
g42
F232.56
sg2
I43
sg43
(idecision_tree
decision_tree
p2230
(dp2231
g2
I1
sg3
(dp2232
S'Lg'
p2233
(idecision_tree
decision_tree_leaf
p2234
(dp2235
g8
g9
(g10
tp2236
Rp2237
S'Lg'
p2238
I1
ssg14
g2238
sbsg13
(idecision_tree
decision_tree_leaf
p2239
(dp2240
g8
g9
(g10
tp2241
Rp2242
g13
I1
ssg14
g13
sbssbsg48
(idecision_tree
decision_tree_leaf
p2243
(dp2244
g8
g9
(g10
tp2245
Rp2246
g13
I1
ssg14
g13
sbsbsbsg48
(idecision_tree
decision_tree_leaf
p2247
(dp2248
g8
g9
(g10
tp2249
Rp2250
g13
I2
ssg14
g13
sbsbsS'20-OCT-2009'
p2251
(idecision_tree
decision_tree_leaf
p2252
(dp2253
g8
g9
(g10
tp2254
Rp2255
g13
I4
ssg14
g13
sbsS'09-DEC-2009'
p2256
(idecision_tree
decision_tree_leaf
p2257
(dp2258
g8
g9
(g10
tp2259
Rp2260
g13
I5
ssg14
g13
sbsS'26-MAR-2009'
p2261
(idecision_tree
decision_tree
p2262
(dp2263
g2
I13
sg3
(dp2264
S'Z0515'
p2265
(idecision_tree
decision_tree_leaf
p2266
(dp2267
g8
g9
(g10
tp2268
Rp2269
S'Pn'
p2270
I1
ssg14
g2270
sbsS'Z2040'
p2271
(idecision_tree
decision_tree_leaf
p2272
(dp2273
g8
g9
(g10
tp2274
Rp2275
g13
I1
ssg14
g13
sbssbsS'18-MAY-2009'
p2276
(idecision_tree
decision_tree_leaf
p2277
(dp2278
g8
g9
(g10
tp2279
Rp2280
g13
I4
ssg14
g13
sbsS'14-JUL-2009'
p2281
(idecision_tree
decision_tree_leaf
p2282
(dp2283
g8
g9
(g10
tp2284
Rp2285
g13
I6
ssg14
g13
sbsS'18-JUN-2009'
p2286
(idecision_tree
decision_tree_leaf
p2287
(dp2288
g8
g9
(g10
tp2289
Rp2290
g13
I5
ssg14
g13
sbsS'14-MAR-2009'
p2291
(idecision_tree
decision_tree_leaf
p2292
(dp2293
g8
g9
(g10
tp2294
Rp2295
g13
I5
ssg14
g13
sbsS'11-NOV-2009'
p2296
(idecision_tree
decision_tree_leaf
p2297
(dp2298
g8
g9
(g10
tp2299
Rp2300
g13
I3
ssg14
g13
sbsS'21-JUN-2009'
p2301
(idecision_tree
decision_tree_leaf
p2302
(dp2303
g8
g9
(g10
tp2304
Rp2305
g13
I3
ssg14
g13
sbsS'11-AUG-2009'
p2306
(idecision_tree
continuous_decision_tree
p2307
(dp2308
g42
F-63.5
sg2
I67
sg43
(idecision_tree
continuous_decision_tree
p2309
(dp2310
g42
F69.5
sg2
I67
sg43
(idecision_tree
decision_tree
p2311
(dp2312
g2
I13
sg3
(dp2313
S'Z1020'
p2314
(idecision_tree
decision_tree_leaf
p2315
(dp2316
g8
g9
(g10
tp2317
Rp2318
g13
I1
ssg14
g13
sbsS'Z1530'
p2319
(idecision_tree
decision_tree_leaf
p2320
(dp2321
g8
g9
(g10
tp2322
Rp2323
S'Pn'
p2324
I1
ssg14
g2324
sbssbsg48
(idecision_tree
decision_tree_leaf
p2325
(dp2326
g8
g9
(g10
tp2327
Rp2328
g13
I1
sS'Pn'
p2329
I1
ssg14
g13
sbsbsg48
(idecision_tree
continuous_decision_tree
p2330
(dp2331
g42
F-177.16649999999998
sg2
I67
sg43
(idecision_tree
decision_tree_leaf
p2332
(dp2333
g8
g9
(g10
tp2334
Rp2335
S'Pn'
p2336
I1
ssg14
g2336
sbsg48
(idecision_tree
decision_tree_leaf
p2337
(dp2338
g8
g9
(g10
tp2339
Rp2340
g13
I1
ssg14
g13
sbsbsbsS'09-JUN-2009'
p2341
(idecision_tree
decision_tree_leaf
p2342
(dp2343
g8
g9
(g10
tp2344
Rp2345
g13
I4
ssg14
g13
sbsS'19-MAY-2009'
p2346
(idecision_tree
decision_tree_leaf
p2347
(dp2348
g8
g9
(g10
tp2349
Rp2350
g13
I1
ssg14
g13
sbsS'16-MAR-2009'
p2351
(idecision_tree
decision_tree_leaf
p2352
(dp2353
g8
g9
(g10
tp2354
Rp2355
g13
I3
ssg14
g13
sbsS'13-MAR-2009'
p2356
(idecision_tree
continuous_decision_tree
p2357
(dp2358
g42
F9.54165
sg2
I67
sg43
(idecision_tree
decision_tree
p2359
(dp2360
g2
I14
sg3
(dp2361
S'coh'
p2362
(idecision_tree
decision_tree_leaf
p2363
(dp2364
g8
g9
(g10
tp2365
Rp2366
g13
I4
ssg14
g13
sbsS'inc'
p2367
(idecision_tree
decision_tree_leaf
p2368
(dp2369
g8
g9
(g10
tp2370
Rp2371
g229
I1
ssg14
g229
sbssbsg48
(idecision_tree
decision_tree
p2372
(dp2373
g2
I13
sg3
(dp2374
S'Z0515'
p2375
(idecision_tree
decision_tree_leaf
p2376
(dp2377
g8
g9
(g10
tp2378
Rp2379
S'PKP'
p2380
I1
ssg14
g2380
sbsS'Z1530'
p2381
(idecision_tree
decision_tree_leaf
p2382
(dp2383
g8
g9
(g10
tp2384
Rp2385
g13
I1
ssg14
g13
sbsS'Z2040'
p2386
(idecision_tree
decision_tree_leaf
p2387
(dp2388
g8
g9
(g10
tp2389
Rp2390
g13
I2
ssg14
g13
sbssbsbsS'21-AUG-2009'
p2391
(idecision_tree
continuous_decision_tree
p2392
(dp2393
g42
F-11.4
sg2
I63
sg43
(idecision_tree
continuous_decision_tree
p2394
(dp2395
g42
F183.595
sg2
I41
sg43
(idecision_tree
continuous_decision_tree
p2396
(dp2397
g42
F-93.5
sg2
I67
sg43
(idecision_tree
decision_tree
p2398
(dp2399
g2
I14
sg3
(dp2400
S'coh'
p2401
(idecision_tree
decision_tree_leaf
p2402
(dp2403
g8
g9
(g10
tp2404
Rp2405
g13
I1
ssg14
g13
sbsS'inc'
p2406
(idecision_tree
decision_tree_leaf
p2407
(dp2408
g8
g9
(g10
tp2409
Rp2410
S'Lg'
p2411
I1
ssg14
g2411
sbssbsg48
(idecision_tree
decision_tree_leaf
p2412
(dp2413
g8
g9
(g10
tp2414
Rp2415
g13
I1
ssg14
g13
sbsbsg48
(idecision_tree
continuous_decision_tree
p2416
(dp2417
g42
F-12.0
sg2
I67
sg43
(idecision_tree
decision_tree
p2418
(dp2419
g2
I13
sg3
(dp2420
S'Z1020'
p2421
(idecision_tree
decision_tree_leaf
p2422
(dp2423
g8
g9
(g10
tp2424
Rp2425
g13
I1
ssg14
g13
sbsS'Z1530'
p2426
(idecision_tree
decision_tree_leaf
p2427
(dp2428
g8
g9
(g10
tp2429
Rp2430
g13
I2
ssg14
g13
sbsS'Z2040'
p2431
(idecision_tree
decision_tree_leaf
p2432
(dp2433
g8
g9
(g10
tp2434
Rp2435
S'Pn'
p2436
I1
ssg14
g2436
sbssbsg48
(idecision_tree
continuous_decision_tree
p2437
(dp2438
g42
F0.9659855
sg2
I49
sg43
(idecision_tree
decision_tree
p2439
(dp2440
g2
I13
sg3
(dp2441
S'Z1530'
p2442
(idecision_tree
decision_tree_leaf
p2443
(dp2444
g8
g9
(g10
tp2445
Rp2446
g13
I1
ssg14
g13
sbsS'Z2040'
p2447
(idecision_tree
decision_tree_leaf
p2448
(dp2449
g8
g9
(g10
tp2450
Rp2451
S'Sn'
p2452
I1
ssg14
g2452
sbssbsg48
(idecision_tree
decision_tree_leaf
p2453
(dp2454
g8
g9
(g10
tp2455
Rp2456
g13
I1
ssg14
g13
sbsbsbsbsg48
(idecision_tree
decision_tree_leaf
p2457
(dp2458
g8
g9
(g10
tp2459
Rp2460
g13
I3
ssg14
g13
sbsbsS'20-MAR-2009'
p2461
(idecision_tree
decision_tree_leaf
p2462
(dp2463
g8
g9
(g10
tp2464
Rp2465
g13
I26
ssg14
g13
sbsS'17-OCT-2009'
p2466
(idecision_tree
decision_tree_leaf
p2467
(dp2468
g8
g9
(g10
tp2469
Rp2470
g13
I5
ssg14
g13
sbsS'30-JUL-2009'
p2471
(idecision_tree
decision_tree_leaf
p2472
(dp2473
g8
g9
(g10
tp2474
Rp2475
g13
I5
ssg14
g13
sbsS'14-DEC-2009'
p2476
(idecision_tree
decision_tree_leaf
p2477
(dp2478
g8
g9
(g10
tp2479
Rp2480
g13
I4
ssg14
g13
sbsS'05-JUN-2009'
p2481
(idecision_tree
decision_tree_leaf
p2482
(dp2483
g8
g9
(g10
tp2484
Rp2485
g13
I8
ssg14
g13
sbsS'29-NOV-2009'
p2486
(idecision_tree
continuous_decision_tree
p2487
(dp2488
g42
F-28.2222
sg2
I67
sg43
(idecision_tree
decision_tree
p2489
(dp2490
g2
I14
sg3
(dp2491
S'coh'
p2492
(idecision_tree
decision_tree_leaf
p2493
(dp2494
g8
g9
(g10
tp2495
Rp2496
g13
I3
ssg14
g13
sbsS'inc'
p2497
(idecision_tree
decision_tree_leaf
p2498
(dp2499
g8
g9
(g10
tp2500
Rp2501
S'Pn'
p2502
I1
ssg14
g2502
sbssbsg48
(idecision_tree
decision_tree
p2503
(dp2504
g2
I14
sg3
(dp2505
S'coh'
p2506
(idecision_tree
decision_tree_leaf
p2507
(dp2508
g8
g9
(g10
tp2509
Rp2510
g13
I3
ssg14
g13
sbsS'inc'
p2511
(idecision_tree
decision_tree_leaf
p2512
(dp2513
g8
g9
(g10
tp2514
Rp2515
S'Lg'
p2516
I1
ssg14
g2516
sbssbsbsS'05-FEB-2009'
p2517
(idecision_tree
decision_tree
p2518
(dp2519
g2
I14
sg3
(dp2520
S'coh'
p2521
(idecision_tree
decision_tree_leaf
p2522
(dp2523
g8
g9
(g10
tp2524
Rp2525
S'Lg'
p2526
I1
ssg14
g2526
sbsS'inc'
p2527
(idecision_tree
decision_tree_leaf
p2528
(dp2529
g8
g9
(g10
tp2530
Rp2531
S'Pn'
p2532
I1
ssg14
g2532
sbssbsS'01-SEP-2009'
p2533
(idecision_tree
decision_tree_leaf
p2534
(dp2535
g8
g9
(g10
tp2536
Rp2537
g13
I2
ssg14
g13
sbsS'26-FEB-2009'
p2538
(idecision_tree
decision_tree
p2539
(dp2540
g2
I13
sg3
(dp2541
S'Z1530'
p2542
(idecision_tree
decision_tree_leaf
p2543
(dp2544
g8
g9
(g10
tp2545
Rp2546
g13
I3
ssg14
g13
sbsS'Z1020'
p2547
(idecision_tree
decision_tree_leaf
p2548
(dp2549
g8
g9
(g10
tp2550
Rp2551
g13
I2
ssg14
g13
sbsS'Z0515'
p2552
(idecision_tree
decision_tree_leaf
p2553
(dp2554
g8
g9
(g10
tp2555
Rp2556
g229
I1
ssg14
g229
sbsS'Z2040'
p2557
(idecision_tree
decision_tree_leaf
p2558
(dp2559
g8
g9
(g10
tp2560
Rp2561
g13
I2
ssg14
g13
sbssbsS'16-DEC-2009'
p2562
(idecision_tree
decision_tree
p2563
(dp2564
g2
I1
sg3
(dp2565
g13
(idecision_tree
decision_tree_leaf
p2566
(dp2567
g8
g9
(g10
tp2568
Rp2569
g13
I6
ssg14
g13
sbsS'Pn'
p2570
(idecision_tree
decision_tree_leaf
p2571
(dp2572
g8
g9
(g10
tp2573
Rp2574
g229
I1
ssg14
g229
sbssbsS'15-FEB-2009'
p2575
(idecision_tree
continuous_decision_tree
p2576
(dp2577
g42
F-232.0
sg2
I67
sg43
(idecision_tree
continuous_decision_tree
p2578
(dp2579
g42
F-3.0
sg2
I66
sg43
(idecision_tree
continuous_decision_tree
p2580
(dp2581
g42
F4721240.0
sg2
I64
sg43
(idecision_tree
decision_tree_leaf
p2582
(dp2583
g8
g9
(g10
tp2584
Rp2585
g13
I1
ssg14
g13
sbsg48
(idecision_tree
decision_tree
p2586
(dp2587
g2
I13
sg3
(dp2588
S'Z0515'
p2589
(idecision_tree
decision_tree_leaf
p2590
(dp2591
g8
g9
(g10
tp2592
Rp2593
g13
I1
ssg14
g13
sbsS'Z1020'
p2594
(idecision_tree
decision_tree_leaf
p2595
(dp2596
g8
g9
(g10
tp2597
Rp2598
S'Pn'
p2599
I1
ssg14
g2599
sbsS'Z1530'
p2600
(idecision_tree
decision_tree_leaf
p2601
(dp2602
g8
g9
(g10
tp2603
Rp2604
g13
I1
ssg14
g13
sbsS'Z2040'
p2605
(idecision_tree
decision_tree_leaf
p2606
(dp2607
g8
g9
(g10
tp2608
Rp2609
g13
I1
ssg14
g13
sbssbsbsg48
(idecision_tree
decision_tree_leaf
p2610
(dp2611
g8
g9
(g10
tp2612
Rp2613
g13
I1
ssg14
g13
sbsbsg48
(idecision_tree
decision_tree_leaf
p2614
(dp2615
g8
g9
(g10
tp2616
Rp2617
g13
I1
ssg14
g13
sbsbsS'17-JUN-2009'
p2618
(idecision_tree
continuous_decision_tree
p2619
(dp2620
g42
F1.0
sg2
I62
sg43
(idecision_tree
continuous_decision_tree
p2621
(dp2622
g42
F-25.98335
sg2
I67
sg43
(idecision_tree
decision_tree
p2623
(dp2624
g2
I14
sg3
(dp2625
S'coh'
p2626
(idecision_tree
decision_tree_leaf
p2627
(dp2628
g8
g9
(g10
tp2629
Rp2630
S'Sn'
p2631
I1
ssg14
g2631
sbsS'inc'
p2632
(idecision_tree
decision_tree_leaf
p2633
(dp2634
g8
g9
(g10
tp2635
Rp2636
S'Pn'
p2637
I1
ssg14
g2637
sbssbsg48
(idecision_tree
decision_tree_leaf
p2638
(dp2639
g8
g9
(g10
tp2640
Rp2641
g13
I1
ssg14
g13
sbsbsg48
(idecision_tree
decision_tree_leaf
p2642
(dp2643
g8
g9
(g10
tp2644
Rp2645
g13
I1
ssg14
g13
sbsbsS'19-SEP-2009'
p2646
(idecision_tree
decision_tree_leaf
p2647
(dp2648
g8
g9
(g10
tp2649
Rp2650
g13
I11
ssg14
g13
sbsS'22-MAY-2009'
p2651
(idecision_tree
continuous_decision_tree
p2652
(dp2653
g42
F1.0
sg2
I66
sg43
(idecision_tree
continuous_decision_tree
p2654
(dp2655
g42
F13.66665
sg2
I63
sg43
(idecision_tree
decision_tree
p2656
(dp2657
g2
I14
sg3
(dp2658
S'coh'
p2659
(idecision_tree
decision_tree_leaf
p2660
(dp2661
g8
g9
(g10
tp2662
Rp2663
g13
I1
ssg14
g13
sbsS'inc'
p2664
(idecision_tree
decision_tree_leaf
p2665
(dp2666
g8
g9
(g10
tp2667
Rp2668
S'Pg'
p2669
I1
ssg14
g2669
sbssbsg48
(idecision_tree
decision_tree
p2670
(dp2671
g2
I13
sg3
(dp2672
S'Z1020'
p2673
(idecision_tree
decision_tree_leaf
p2674
(dp2675
g8
g9
(g10
tp2676
Rp2677
S'PKP'
p2678
I1
ssg14
g2678
sbsS'Z1530'
p2679
(idecision_tree
decision_tree_leaf
p2680
(dp2681
g8
g9
(g10
tp2682
Rp2683
g13
I1
ssg14
g13
sbssbsbsg48
(idecision_tree
decision_tree
p2684
(dp2685
g2
I1
sg3
(dp2686
g13
(idecision_tree
decision_tree_leaf
p2687
(dp2688
g8
g9
(g10
tp2689
Rp2690
g13
I5
ssg14
g13
sbsS'Pn'
p2691
(idecision_tree
decision_tree_leaf
p2692
(dp2693
g8
g9
(g10
tp2694
Rp2695
S'Lg'
p2696
I1
ssg14
g2696
sbssbsbsS'11-DEC-2009'
p2697
(idecision_tree
decision_tree_leaf
p2698
(dp2699
g8
g9
(g10
tp2700
Rp2701
g13
I4
ssg14
g13
sbsS'17-MAR-2009'
p2702
(idecision_tree
decision_tree_leaf
p2703
(dp2704
g8
g9
(g10
tp2705
Rp2706
g13
I8
ssg14
g13
sbsS'09-APR-2009'
p2707
(idecision_tree
decision_tree_leaf
p2708
(dp2709
g8
g9
(g10
tp2710
Rp2711
g13
I6
ssg14
g13
sbsS'06-JAN-2009'
p2712
(idecision_tree
decision_tree_leaf
p2713
(dp2714
g8
g9
(g10
tp2715
Rp2716
g13
I8
ssg14
g13
sbsS'03-OCT-2009'
p2717
(idecision_tree
decision_tree
p2718
(dp2719
g2
I13
sg3
(dp2720
S'Z1020'
p2721
(idecision_tree
decision_tree_leaf
p2722
(dp2723
g8
g9
(g10
tp2724
Rp2725
g13
I3
sS'PKP'
p2726
I1
ssg14
g13
sbsS'Z1530'
p2727
(idecision_tree
decision_tree_leaf
p2728
(dp2729
g8
g9
(g10
tp2730
Rp2731
g13
I4
ssg14
g13
sbsS'Z2040'
p2732
(idecision_tree
decision_tree_leaf
p2733
(dp2734
g8
g9
(g10
tp2735
Rp2736
g13
I1
ssg14
g13
sbssbsS'23-JUN-2009'
p2737
(idecision_tree
decision_tree
p2738
(dp2739
g2
I13
sg3
(dp2740
S'Z1530'
p2741
(idecision_tree
decision_tree_leaf
p2742
(dp2743
g8
g9
(g10
tp2744
Rp2745
g13
I2
ssg14
g13
sbsS'Z1020'
p2746
(idecision_tree
continuous_decision_tree
p2747
(dp2748
g42
F0.223659
sg2
I49
sg43
(idecision_tree
continuous_decision_tree
p2749
(dp2750
g42
F0.24177550000000003
sg2
I48
sg43
(idecision_tree
continuous_decision_tree
p2751
(dp2752
g42
F52.09035
sg2
I44
sg43
(idecision_tree
decision_tree_leaf
p2753
(dp2754
g8
g9
(g10
tp2755
Rp2756
g13
I1
ssg14
g13
sbsg48
(idecision_tree
continuous_decision_tree
p2757
(dp2758
g42
F-134.5
sg2
I67
sg43
(idecision_tree
decision_tree_leaf
p2759
(dp2760
g8
g9
(g10
tp2761
Rp2762
g13
I2
sS'Pn'
p2763
I1
ssg14
g13
sbsg48
(idecision_tree
decision_tree_leaf
p2764
(dp2765
g8
g9
(g10
tp2766
Rp2767
g13
I1
ssg14
g13
sbsbsbsg48
(idecision_tree
decision_tree_leaf
p2768
(dp2769
g8
g9
(g10
tp2770
Rp2771
g13
I1
ssg14
g13
sbsbsg48
(idecision_tree
decision_tree_leaf
p2772
(dp2773
g8
g9
(g10
tp2774
Rp2775
g13
I1
ssg14
g13
sbsbsS'Z0515'
p2776
(idecision_tree
decision_tree_leaf
p2777
(dp2778
g8
g9
(g10
tp2779
Rp2780
g13
I1
ssg14
g13
sbssbsS'08-JUN-2009'
p2781
(idecision_tree
decision_tree_leaf
p2782
(dp2783
g8
g9
(g10
tp2784
Rp2785
g13
I5
ssg14
g13
sbsS'23-FEB-2009'
p2786
(idecision_tree
continuous_decision_tree
p2787
(dp2788
g42
F5.725
sg2
I67
sg43
(idecision_tree
decision_tree
p2789
(dp2790
g2
I14
sg3
(dp2791
S'coh'
p2792
(idecision_tree
decision_tree_leaf
p2793
(dp2794
g8
g9
(g10
tp2795
Rp2796
g13
I1
ssg14
g13
sbsS'inc'
p2797
(idecision_tree
decision_tree_leaf
p2798
(dp2799
g8
g9
(g10
tp2800
Rp2801
S'Pg'
p2802
I1
ssg14
g2802
sbssbsg48
(idecision_tree
decision_tree
p2803
(dp2804
g2
I13
sg3
(dp2805
S'Z1020'
p2806
(idecision_tree
decision_tree_leaf
p2807
(dp2808
g8
g9
(g10
tp2809
Rp2810
S'Sn'
p2811
I1
ssg14
g2811
sbsS'Z1530'
p2812
(idecision_tree
decision_tree_leaf
p2813
(dp2814
g8
g9
(g10
tp2815
Rp2816
g13
I1
ssg14
g13
sbssbsbsS'27-SEP-2009'
p2817
(idecision_tree
decision_tree_leaf
p2818
(dp2819
g8
g9
(g10
tp2820
Rp2821
g13
I4
ssg14
g13
sbsS'01-MAR-2009'
p2822
(idecision_tree
decision_tree
p2823
(dp2824
g2
I13
sg3
(dp2825
S'Z1530'
p2826
(idecision_tree
decision_tree_leaf
p2827
(dp2828
g8
g9
(g10
tp2829
Rp2830
g13
I3
ssg14
g13
sbsS'Z1020'
p2831
(idecision_tree
decision_tree_leaf
p2832
(dp2833
g8
g9
(g10
tp2834
Rp2835
g13
I3
ssg14
g13
sbsS'Z0515'
p2836
(idecision_tree
decision_tree_leaf
p2837
(dp2838
g8
g9
(g10
tp2839
Rp2840
g229
I1
ssg14
g229
sbsS'Z2040'
p2841
(idecision_tree
decision_tree_leaf
p2842
(dp2843
g8
g9
(g10
tp2844
Rp2845
g13
I1
ssg14
g13
sbssbsS'16-SEP-2009'
p2846
(idecision_tree
decision_tree_leaf
p2847
(dp2848
g8
g9
(g10
tp2849
Rp2850
g13
I2
ssg14
g13
sbsS'31-MAY-2009'
p2851
(idecision_tree
decision_tree_leaf
p2852
(dp2853
g8
g9
(g10
tp2854
Rp2855
g13
I1
ssg14
g13
sbsS'18-JUL-2009'
p2856
(idecision_tree
decision_tree_leaf
p2857
(dp2858
g8
g9
(g10
tp2859
Rp2860
g13
I4
ssg14
g13
sbsS'03-JUN-2009'
p2861
(idecision_tree
decision_tree_leaf
p2862
(dp2863
g8
g9
(g10
tp2864
Rp2865
g13
I5
ssg14
g13
sbsS'29-APR-2009'
p2866
(idecision_tree
decision_tree_leaf
p2867
(dp2868
g8
g9
(g10
tp2869
Rp2870
g13
I3
ssg14
g13
sbsS'11-SEP-2009'
p2871
(idecision_tree
decision_tree_leaf
p2872
(dp2873
g8
g9
(g10
tp2874
Rp2875
g13
I4
ssg14
g13
sbsS'04-JAN-2009'
p2876
(idecision_tree
decision_tree
p2877
(dp2878
g2
I13
sg3
(dp2879
S'Z1530'
p2880
(idecision_tree
decision_tree
p2881
(dp2882
g2
I1
sg3
(dp2883
g13
(idecision_tree
decision_tree_leaf
p2884
(dp2885
g8
g9
(g10
tp2886
Rp2887
S'PKP'
p2888
I1
ssg14
g2888
sbsS'Pn'
p2889
(idecision_tree
decision_tree_leaf
p2890
(dp2891
g8
g9
(g10
tp2892
Rp2893
g13
I1
ssg14
g13
sbssbsS'Z1020'
p2894
(idecision_tree
decision_tree_leaf
p2895
(dp2896
g8
g9
(g10
tp2897
Rp2898
g13
I6
ssg14
g13
sbsS'Z0515'
p2899
(idecision_tree
decision_tree_leaf
p2900
(dp2901
g8
g9
(g10
tp2902
Rp2903
g13
I2
ssg14
g13
sbsS'Z2040'
p2904
(idecision_tree
decision_tree_leaf
p2905
(dp2906
g8
g9
(g10
tp2907
Rp2908
g13
I1
ssg14
g13
sbssbsS'02-MAY-2009'
p2909
(idecision_tree
decision_tree_leaf
p2910
(dp2911
g8
g9
(g10
tp2912
Rp2913
g13
I3
ssg14
g13
sbsS'01-AUG-2009'
p2914
(idecision_tree
decision_tree_leaf
p2915
(dp2916
g8
g9
(g10
tp2917
Rp2918
g13
I2
ssg14
g13
sbsS'20-JAN-2009'
p2919
(idecision_tree
decision_tree
p2920
(dp2921
g2
I13
sg3
(dp2922
S'Z0515'
p2923
(idecision_tree
decision_tree_leaf
p2924
(dp2925
g8
g9
(g10
tp2926
Rp2927
g229
I1
ssg14
g229
sbsS'Z1020'
p2928
(idecision_tree
decision_tree_leaf
p2929
(dp2930
g8
g9
(g10
tp2931
Rp2932
g13
I5
ssg14
g13
sbsS'Z1530'
p2933
(idecision_tree
decision_tree_leaf
p2934
(dp2935
g8
g9
(g10
tp2936
Rp2937
g13
I3
ssg14
g13
sbsS'Z2040'
p2938
(idecision_tree
decision_tree_leaf
p2939
(dp2940
g8
g9
(g10
tp2941
Rp2942
g13
I1
ssg14
g13
sbssbsS'12-JAN-2009'
p2943
(idecision_tree
decision_tree_leaf
p2944
(dp2945
g8
g9
(g10
tp2946
Rp2947
g13
I2
ssg14
g13
sbsS'25-OCT-2009'
p2948
(idecision_tree
decision_tree
p2949
(dp2950
g2
I14
sg3
(dp2951
S'coh'
p2952
(idecision_tree
decision_tree_leaf
p2953
(dp2954
g8
g9
(g10
tp2955
Rp2956
g13
I13
ssg14
g13
sbsS'inc'
p2957
(idecision_tree
decision_tree_leaf
p2958
(dp2959
g8
g9
(g10
tp2960
Rp2961
g229
I1
ssg14
g229
sbssbsS'28-SEP-2009'
p2962
(idecision_tree
continuous_decision_tree
p2963
(dp2964
g42
F-179.0
sg2
I67
sg43
(idecision_tree
decision_tree
p2965
(dp2966
g2
I14
sg3
(dp2967
S'coh'
p2968
(idecision_tree
decision_tree_leaf
p2969
(dp2970
g8
g9
(g10
tp2971
Rp2972
S'Pn'
p2973
I1
ssg14
g2973
sbsS'inc'
p2974
(idecision_tree
decision_tree_leaf
p2975
(dp2976
g8
g9
(g10
tp2977
Rp2978
g229
I1
ssg14
g229
sbssbsg48
(idecision_tree
decision_tree_leaf
p2979
(dp2980
g8
g9
(g10
tp2981
Rp2982
g13
I1
ssg14
g13
sbsbsS'17-JUL-2009'
p2983
(idecision_tree
decision_tree_leaf
p2984
(dp2985
g8
g9
(g10
tp2986
Rp2987
g13
I6
ssg14
g13
sbsS'14-APR-2009'
p2988
(idecision_tree
decision_tree_leaf
p2989
(dp2990
g8
g9
(g10
tp2991
Rp2992
g13
I7
ssg14
g13
sbsS'25-APR-2009'
p2993
(idecision_tree
decision_tree_leaf
p2994
(dp2995
g8
g9
(g10
tp2996
Rp2997
g13
I10
ssg14
g13
sbsS'26-SEP-2009'
p2998
(idecision_tree
decision_tree_leaf
p2999
(dp3000
g8
g9
(g10
tp3001
Rp3002
g13
I2
ssg14
g13
sbsS'07-FEB-2009'
p3003
(idecision_tree
decision_tree_leaf
p3004
(dp3005
g8
g9
(g10
tp3006
Rp3007
g13
I4
sS'Pn'
p3008
I1
sS'Lg'
p3009
I1
ssg14
g13
sbsS'22-APR-2009'
p3010
(idecision_tree
continuous_decision_tree
p3011
(dp3012
g42
F282.158
sg2
I43
sg43
(idecision_tree
decision_tree
p3013
(dp3014
g2
I13
sg3
(dp3015
S'Z1020'
p3016
(idecision_tree
decision_tree_leaf
p3017
(dp3018
g8
g9
(g10
tp3019
Rp3020
g13
I1
ssg14
g13
sbsS'Z0515'
p3021
(idecision_tree
decision_tree_leaf
p3022
(dp3023
g8
g9
(g10
tp3024
Rp3025
g229
I1
ssg14
g229
sbssbsg48
(idecision_tree
decision_tree_leaf
p3026
(dp3027
g8
g9
(g10
tp3028
Rp3029
g13
I1
ssg14
g13
sbsbsS'25-NOV-2009'
p3030
(idecision_tree
decision_tree_leaf
p3031
(dp3032
g8
g9
(g10
tp3033
Rp3034
g13
I9
ssg14
g13
sbsS'01-APR-2009'
p3035
(idecision_tree
decision_tree
p3036
(dp3037
g2
I14
sg3
(dp3038
S'coh'
p3039
(idecision_tree
decision_tree_leaf
p3040
(dp3041
g8
g9
(g10
tp3042
Rp3043
g13
I10
ssg14
g13
sbsS'inc'
p3044
(idecision_tree
decision_tree_leaf
p3045
(dp3046
g8
g9
(g10
tp3047
Rp3048
g229
I1
ssg14
g229
sbssbsS'10-MAR-2009'
p3049
(idecision_tree
decision_tree
p3050
(dp3051
g2
I13
sg3
(dp3052
S'Z1020'
p3053
(idecision_tree
continuous_decision_tree
p3054
(dp3055
g42
F1.0721815000000001
sg2
I49
sg43
(idecision_tree
decision_tree_leaf
p3056
(dp3057
g8
g9
(g10
tp3058
Rp3059
g13
I1
ssg14
g13
sbsg48
(idecision_tree
decision_tree_leaf
p3060
(dp3061
g8
g9
(g10
tp3062
Rp3063
g13
I6
sS'PKP'
p3064
I1
ssg14
g13
sbsbsS'Z1530'
p3065
(idecision_tree
decision_tree_leaf
p3066
(dp3067
g8
g9
(g10
tp3068
Rp3069
g13
I2
ssg14
g13
sbsS'Z2040'
p3070
(idecision_tree
decision_tree_leaf
p3071
(dp3072
g8
g9
(g10
tp3073
Rp3074
g13
I2
ssg14
g13
sbssbsS'27-MAR-2009'
p3075
(idecision_tree
continuous_decision_tree
p3076
(dp3077
g42
F-14.45
sg2
I67
sg43
(idecision_tree
continuous_decision_tree
p3078
(dp3079
g42
F134.75
sg2
I67
sg43
(idecision_tree
decision_tree_leaf
p3080
(dp3081
g8
g9
(g10
tp3082
Rp3083
g13
I1
ssg14
g13
sbsg48
(idecision_tree
decision_tree_leaf
p3084
(dp3085
g8
g9
(g10
tp3086
Rp3087
S'Pn'
p3088
I1
ssg14
g3088
sbsbsg48
(idecision_tree
decision_tree_leaf
p3089
(dp3090
g8
g9
(g10
tp3091
Rp3092
S'PKP'
p3093
I1
ssg14
g3093
sbsbsS'03-JUL-2009'
p3094
(idecision_tree
decision_tree_leaf
p3095
(dp3096
g8
g9
(g10
tp3097
Rp3098
g13
I4
ssg14
g13
sbsS'29-SEP-2009'
p3099
(idecision_tree
decision_tree_leaf
p3100
(dp3101
g8
g9
(g10
tp3102
Rp3103
g13
I10
ssg14
g13
sbsS'07-DEC-2009'
p3104
(idecision_tree
decision_tree_leaf
p3105
(dp3106
g8
g9
(g10
tp3107
Rp3108
g13
I7
ssg14
g13
sbsS'07-APR-2009'
p3109
(idecision_tree
decision_tree
p3110
(dp3111
g2
I13
sg3
(dp3112
S'Z1020'
p3113
(idecision_tree
decision_tree_leaf
p3114
(dp3115
g8
g9
(g10
tp3116
Rp3117
S'PKP'
p3118
I1
ssg14
g3118
sbsS'Z1530'
p3119
(idecision_tree
decision_tree_leaf
p3120
(dp3121
g8
g9
(g10
tp3122
Rp3123
g13
I2
ssg14
g13
sbsS'Z2040'
p3124
(idecision_tree
decision_tree_leaf
p3125
(dp3126
g8
g9
(g10
tp3127
Rp3128
g13
I1
ssg14
g13
sbssbsS'25-JUN-2009'
p3129
(idecision_tree
decision_tree_leaf
p3130
(dp3131
g8
g9
(g10
tp3132
Rp3133
g13
I5
ssg14
g13
sbsS'18-APR-2009'
p3134
(idecision_tree
decision_tree_leaf
p3135
(dp3136
g8
g9
(g10
tp3137
Rp3138
g13
I6
ssg14
g13
sbsS'29-JUL-2009'
p3139
(idecision_tree
decision_tree
p3140
(dp3141
g2
I13
sg3
(dp3142
S'Z1530'
p3143
(idecision_tree
decision_tree_leaf
p3144
(dp3145
g8
g9
(g10
tp3146
Rp3147
g13
I5
ssg14
g13
sbsS'Z1020'
p3148
(idecision_tree
decision_tree_leaf
p3149
(dp3150
g8
g9
(g10
tp3151
Rp3152
g13
I1
ssg14
g13
sbsS'Z0515'
p3153
(idecision_tree
decision_tree_leaf
p3154
(dp3155
g8
g9
(g10
tp3156
Rp3157
S'Pn'
p3158
I1
ssg14
g3158
sbssbsS'03-APR-2009'
p3159
(idecision_tree
decision_tree_leaf
p3160
(dp3161
g8
g9
(g10
tp3162
Rp3163
g13
I10
ssg14
g13
sbsS'03-SEP-2009'
p3164
(idecision_tree
decision_tree_leaf
p3165
(dp3166
g8
g9
(g10
tp3167
Rp3168
g13
I8
ssg14
g13
sbsS'04-APR-2009'
p3169
(idecision_tree
decision_tree_leaf
p3170
(dp3171
g8
g9
(g10
tp3172
Rp3173
g13
I8
ssg14
g13
sbsS'29-MAY-2009'
p3174
(idecision_tree
continuous_decision_tree
p3175
(dp3176
g42
F0.8364825
sg2
I49
sg43
(idecision_tree
continuous_decision_tree
p3177
(dp3178
g42
F-154.975
sg2
I67
sg43
(idecision_tree
decision_tree
p3179
(dp3180
g2
I13
sg3
(dp3181
S'Z1530'
p3182
(idecision_tree
decision_tree_leaf
p3183
(dp3184
g8
g9
(g10
tp3185
Rp3186
g13
I1
ssg14
g13
sbsS'Z0515'
p3187
(idecision_tree
decision_tree_leaf
p3188
(dp3189
g8
g9
(g10
tp3190
Rp3191
S'Lg'
p3192
I1
ssg14
g3192
sbssbsg48
(idecision_tree
decision_tree_leaf
p3193
(dp3194
g8
g9
(g10
tp3195
Rp3196
g13
I1
ssg14
g13
sbsbsg48
(idecision_tree
continuous_decision_tree
p3197
(dp3198
g42
F0.530349
sg2
I48
sg43
(idecision_tree
decision_tree_leaf
p3199
(dp3200
g8
g9
(g10
tp3201
Rp3202
g13
I2
sS'Pn'
p3203
I1
ssg14
g13
sbsg48
(idecision_tree
decision_tree_leaf
p3204
(dp3205
g8
g9
(g10
tp3206
Rp3207
g13
I2
sS'Sn'
p3208
I1
ssg14
g13
sbsbsbsS'18-DEC-2009'
p3209
(idecision_tree
decision_tree_leaf
p3210
(dp3211
g8
g9
(g10
tp3212
Rp3213
g13
I7
ssg14
g13
sbsS'03-NOV-2009'
p3214
(idecision_tree
decision_tree_leaf
p3215
(dp3216
g8
g9
(g10
tp3217
Rp3218
g13
I2
ssg14
g13
sbsS'01-JUN-2009'
p3219
(idecision_tree
decision_tree_leaf
p3220
(dp3221
g8
g9
(g10
tp3222
Rp3223
g13
I2
ssg14
g13
sbsS'27-AUG-2009'
p3224
(idecision_tree
decision_tree_leaf
p3225
(dp3226
g8
g9
(g10
tp3227
Rp3228
g13
I6
sS'PKP'
p3229
I1
ssg14
g13
sbsS'06-FEB-2009'
p3230
(idecision_tree
decision_tree_leaf
p3231
(dp3232
g8
g9
(g10
tp3233
Rp3234
g13
I3
ssg14
g13
sbsS'10-MAY-2009'
p3235
(idecision_tree
decision_tree_leaf
p3236
(dp3237
g8
g9
(g10
tp3238
Rp3239
g13
I4
ssg14
g13
sbsS'17-DEC-2009'
p3240
(idecision_tree
decision_tree_leaf
p3241
(dp3242
g8
g9
(g10
tp3243
Rp3244
g13
I5
ssg14
g13
sbsS'13-JAN-2009'
p3245
(idecision_tree
decision_tree_leaf
p3246
(dp3247
g8
g9
(g10
tp3248
Rp3249
g13
I3
ssg14
g13
sbsS'29-JUN-2009'
p3250
(idecision_tree
decision_tree_leaf
p3251
(dp3252
g8
g9
(g10
tp3253
Rp3254
g13
I9
ssg14
g13
sbsS'14-OCT-2009'
p3255
(idecision_tree
decision_tree_leaf
p3256
(dp3257
g8
g9
(g10
tp3258
Rp3259
g13
I15
ssg14
g13
sbsS'27-APR-2009'
p3260
(idecision_tree
continuous_decision_tree
p3261
(dp3262
g42
F0.32076550000000004
sg2
I51
sg43
(idecision_tree
continuous_decision_tree
p3263
(dp3264
g42
F0.5343979999999999
sg2
I48
sg43
(idecision_tree
continuous_decision_tree
p3265
(dp3266
g42
F91.5
sg2
I67
sg43
(idecision_tree
decision_tree_leaf
p3267
(dp3268
g8
g9
(g10
tp3269
Rp3270
g13
I1
ssg14
g13
sbsg48
(idecision_tree
decision_tree_leaf
p3271
(dp3272
g8
g9
(g10
tp3273
Rp3274
S'Pn'
p3275
I1
ssg14
g3275
sbsbsg48
(idecision_tree
decision_tree_leaf
p3276
(dp3277
g8
g9
(g10
tp3278
Rp3279
g13
I1
ssg14
g13
sbsbsg48
(idecision_tree
continuous_decision_tree
p3280
(dp3281
g42
F0.3423615
sg2
I52
sg43
(idecision_tree
decision_tree
p3282
(dp3283
g2
I13
sg3
(dp3284
S'Z1020'
p3285
(idecision_tree
decision_tree_leaf
p3286
(dp3287
g8
g9
(g10
tp3288
Rp3289
S'PKP'
p3290
I1
ssg14
g3290
sbsS'Z1530'
p3291
(idecision_tree
decision_tree_leaf
p3292
(dp3293
g8
g9
(g10
tp3294
Rp3295
g13
I1
ssg14
g13
sbssbsg48
(idecision_tree
decision_tree_leaf
p3296
(dp3297
g8
g9
(g10
tp3298
Rp3299
g13
I1
ssg14
g13
sbsbsbsS'17-JAN-2009'
p3300
(idecision_tree
decision_tree_leaf
p3301
(dp3302
g8
g9
(g10
tp3303
Rp3304
g13
I7
sS'PKP'
p3305
I1
ssg14
g13
sbsS'03-AUG-2009'
p3306
(idecision_tree
decision_tree_leaf
p3307
(dp3308
g8
g9
(g10
tp3309
Rp3310
g13
I5
ssg14
g13
sbsS'19-MAR-2009'
p3311
(idecision_tree
decision_tree
p3312
(dp3313
g2
I14
sg3
(dp3314
S'coh'
p3315
(idecision_tree
decision_tree_leaf
p3316
(dp3317
g8
g9
(g10
tp3318
Rp3319
g13
I23
ssg14
g13
sbsS'inc'
p3320
(idecision_tree
decision_tree_leaf
p3321
(dp3322
g8
g9
(g10
tp3323
Rp3324
g229
I1
ssg14
g229
sbssbsS'25-JUL-2009'
p3325
(idecision_tree
decision_tree
p3326
(dp3327
g2
I13
sg3
(dp3328
S'Z1020'
p3329
(idecision_tree
decision_tree_leaf
p3330
(dp3331
g8
g9
(g10
tp3332
Rp3333
S'Pn'
p3334
I1
ssg14
g3334
sbsS'Z1530'
p3335
(idecision_tree
decision_tree_leaf
p3336
(dp3337
g8
g9
(g10
tp3338
Rp3339
g13
I6
ssg14
g13
sbsS'Z2040'
p3340
(idecision_tree
decision_tree_leaf
p3341
(dp3342
g8
g9
(g10
tp3343
Rp3344
g13
I1
ssg14
g13
sbssbsS'02-JUL-2009'
p3345
(idecision_tree
continuous_decision_tree
p3346
(dp3347
g42
F-133.375
sg2
I67
sg43
(idecision_tree
continuous_decision_tree
p3348
(dp3349
g42
F0.5
sg2
I53
sg43
(idecision_tree
continuous_decision_tree
p3350
(dp3351
g42
F0.3037295
sg2
I49
sg43
(idecision_tree
continuous_decision_tree
p3352
(dp3353
g42
F1.0
sg2
I66
sg43
(idecision_tree
continuous_decision_tree
p3354
(dp3355
g42
F69.82695
sg2
I40
sg43
(idecision_tree
continuous_decision_tree
p3356
(dp3357
g42
F-45.125
sg2
I67
sg43
(idecision_tree
decision_tree_leaf
p3358
(dp3359
g8
g9
(g10
tp3360
Rp3361
g13
I1
ssg14
g13
sbsg48
(idecision_tree
decision_tree_leaf
p3362
(dp3363
g8
g9
(g10
tp3364
Rp3365
S'PKP'
p3366
I1
ssg14
g3366
sbsbsg48
(idecision_tree
decision_tree_leaf
p3367
(dp3368
g8
g9
(g10
tp3369
Rp3370
g13
I1
ssg14
g13
sbsbsg48
(idecision_tree
decision_tree_leaf
p3371
(dp3372
g8
g9
(g10
tp3373
Rp3374
g13
I1
ssg14
g13
sbsbsg48
(idecision_tree
decision_tree_leaf
p3375
(dp3376
g8
g9
(g10
tp3377
Rp3378
g13
I1
ssg14
g13
sbsbsg48
(idecision_tree
decision_tree_leaf
p3379
(dp3380
g8
g9
(g10
tp3381
Rp3382
g13
I1
ssg14
g13
sbsbsg48
(idecision_tree
decision_tree_leaf
p3383
(dp3384
g8
g9
(g10
tp3385
Rp3386
g13
I1
ssg14
g13
sbsbsS'09-SEP-2009'
p3387
(idecision_tree
decision_tree
p3388
(dp3389
g2
I14
sg3
(dp3390
S'coh'
p3391
(idecision_tree
decision_tree_leaf
p3392
(dp3393
g8
g9
(g10
tp3394
Rp3395
g13
I12
ssg14
g13
sbsS'inc'
p3396
(idecision_tree
decision_tree_leaf
p3397
(dp3398
g8
g9
(g10
tp3399
Rp3400
g229
I1
ssg14
g229
sbssbsS'05-JUL-2009'
p3401
(idecision_tree
continuous_decision_tree
p3402
(dp3403
g42
F-28.75
sg2
I59
sg43
(idecision_tree
continuous_decision_tree
p3404
(dp3405
g42
F-65.0
sg2
I67
sg43
(idecision_tree
decision_tree_leaf
p3406
(dp3407
g8
g9
(g10
tp3408
Rp3409
g13
I4
sS'PKP'
p3410
I1
ssg14
g13
sbsg48
(idecision_tree
decision_tree_leaf
p3411
(dp3412
g8
g9
(g10
tp3413
Rp3414
g13
I1
ssg14
g13
sbsbsg48
(idecision_tree
decision_tree_leaf
p3415
(dp3416
g8
g9
(g10
tp3417
Rp3418
g13
I1
ssg14
g13
sbsbsS'21-DEC-2009'
p3419
(idecision_tree
decision_tree_leaf
p3420
(dp3421
g8
g9
(g10
tp3422
Rp3423
g13
I5
sS'Pn'
p3424
I1
ssg14
g13
sbsS'09-MAY-2009'
p3425
(idecision_tree
decision_tree_leaf
p3426
(dp3427
g8
g9
(g10
tp3428
Rp3429
g13
I2
ssg14
g13
sbsS'21-APR-2009'
p3430
(idecision_tree
decision_tree
p3431
(dp3432
g2
I1
sg3
(dp3433
g13
(idecision_tree
decision_tree_leaf
p3434
(dp3435
g8
g9
(g10
tp3436
Rp3437
g13
I10
ssg14
g13
sbsS'Pn'
p3438
(idecision_tree
decision_tree_leaf
p3439
(dp3440
g8
g9
(g10
tp3441
Rp3442
g13
I2
ssg14
g13
sbsS'tx'
p3443
(idecision_tree
decision_tree_leaf
p3444
(dp3445
g8
g9
(g10
tp3446
Rp3447
g13
I1
ssg14
g13
sbsg1117
(idecision_tree
decision_tree
p3448
(dp3449
g2
I13
sg3
(dp3450
S'Z1020'
p3451
(idecision_tree
decision_tree_leaf
p3452
(dp3453
g8
g9
(g10
tp3454
Rp3455
S'Lg'
p3456
I1
ssg14
g3456
sbsS'Z1530'
p3457
(idecision_tree
decision_tree_leaf
p3458
(dp3459
g8
g9
(g10
tp3460
Rp3461
g13
I1
ssg14
g13
sbssbssbsS'19-APR-2009'
p3462
(idecision_tree
decision_tree_leaf
p3463
(dp3464
g8
g9
(g10
tp3465
Rp3466
g13
I5
ssg14
g13
sbsS'28-AUG-2009'
p3467
(idecision_tree
decision_tree_leaf
p3468
(dp3469
g8
g9
(g10
tp3470
Rp3471
g13
I5
sS'Pn'
p3472
I1
ssg14
g13
sbsS'07-OCT-2009'
p3473
(idecision_tree
continuous_decision_tree
p3474
(dp3475
g42
F-61.3335
sg2
I67
sg43
(idecision_tree
continuous_decision_tree
p3476
(dp3477
g42
F281.371
sg2
I43
sg43
(idecision_tree
decision_tree_leaf
p3478
(dp3479
g8
g9
(g10
tp3480
Rp3481
g13
I1
ssg14
g13
sbsg48
(idecision_tree
continuous_decision_tree
p3482
(dp3483
g42
F-26.5
sg2
I63
sg43
(idecision_tree
continuous_decision_tree
p3484
(dp3485
g42
F0.43535199999999996
sg2
I51
sg43
(idecision_tree
decision_tree_leaf
p3486
(dp3487
g8
g9
(g10
tp3488
Rp3489
g13
I1
ssg14
g13
sbsg48
(idecision_tree
continuous_decision_tree
p3490
(dp3491
g42
F0.25895100000000004
sg2
I49
sg43
(idecision_tree
decision_tree
p3492
(dp3493
g2
I13
sg3
(dp3494
S'Z1020'
p3495
(idecision_tree
decision_tree_leaf
p3496
(dp3497
g8
g9
(g10
tp3498
Rp3499
S'Pn'
p3500
I1
ssg14
g3500
sbsS'Z1530'
p3501
(idecision_tree
decision_tree_leaf
p3502
(dp3503
g8
g9
(g10
tp3504
Rp3505
g13
I1
ssg14
g13
sbssbsg48
(idecision_tree
decision_tree_leaf
p3506
(dp3507
g8
g9
(g10
tp3508
Rp3509
g13
I1
ssg14
g13
sbsbsbsg48
(idecision_tree
decision_tree_leaf
p3510
(dp3511
g8
g9
(g10
tp3512
Rp3513
g13
I1
ssg14
g13
sbsbsbsg48
(idecision_tree
decision_tree_leaf
p3514
(dp3515
g8
g9
(g10
tp3516
Rp3517
g13
I1
ssg14
g13
sbsbsS'12-APR-2009'
p3518
(idecision_tree
decision_tree_leaf
p3519
(dp3520
g8
g9
(g10
tp3521
Rp3522
g13
I1
ssg14
g13
sbsS'22-AUG-2009'
p3523
(idecision_tree
decision_tree
p3524
(dp3525
g2
I13
sg3
(dp3526
S'Z1530'
p3527
(idecision_tree
decision_tree_leaf
p3528
(dp3529
g8
g9
(g10
tp3530
Rp3531
g13
I4
ssg14
g13
sbsS'Z1020'
p3532
(idecision_tree
continuous_decision_tree
p3533
(dp3534
g42
F206.5
sg2
I67
sg43
(idecision_tree
decision_tree_leaf
p3535
(dp3536
g8
g9
(g10
tp3537
Rp3538
g13
I1
ssg14
g13
sbsg48
(idecision_tree
continuous_decision_tree
p3539
(dp3540
g42
F2.0
sg2
I66
sg43
(idecision_tree
continuous_decision_tree
p3541
(dp3542
g42
F88.0
sg2
I67
sg43
(idecision_tree
decision_tree_leaf
p3543
(dp3544
g8
g9
(g10
tp3545
Rp3546
S'Pn'
p3547
I1
ssg14
g3547
sbsg48
(idecision_tree
decision_tree_leaf
p3548
(dp3549
g8
g9
(g10
tp3550
Rp3551
g13
I1
ssg14
g13
sbsbsg48
(idecision_tree
decision_tree_leaf
p3552
(dp3553
g8
g9
(g10
tp3554
Rp3555
g13
I2
ssg14
g13
sbsbsbsS'Z0515'
p3556
(idecision_tree
decision_tree_leaf
p3557
(dp3558
g8
g9
(g10
tp3559
Rp3560
g13
I1
ssg14
g13
sbssbsS'10-JAN-2009'
p3561
(idecision_tree
decision_tree_leaf
p3562
(dp3563
g8
g9
(g10
tp3564
Rp3565
g13
I4
ssg14
g13
sbsS'25-SEP-2009'
p3566
(idecision_tree
decision_tree
p3567
(dp3568
g2
I13
sg3
(dp3569
S'Z0515'
p3570
(idecision_tree
decision_tree_leaf
p3571
(dp3572
g8
g9
(g10
tp3573
Rp3574
g229
I1
ssg14
g229
sbsS'Z1020'
p3575
(idecision_tree
decision_tree_leaf
p3576
(dp3577
g8
g9
(g10
tp3578
Rp3579
g13
I3
ssg14
g13
sbsS'Z1530'
p3580
(idecision_tree
decision_tree_leaf
p3581
(dp3582
g8
g9
(g10
tp3583
Rp3584
g13
I2
ssg14
g13
sbssbsS'15-APR-2009'
p3585
(idecision_tree
decision_tree_leaf
p3586
(dp3587
g8
g9
(g10
tp3588
Rp3589
g13
I10
ssg14
g13
sbsS'27-JUN-2009'
p3590
(idecision_tree
decision_tree_leaf
p3591
(dp3592
g8
g9
(g10
tp3593
Rp3594
g13
I4
ssg14
g13
sbsS'31-OCT-2009'
p3595
(idecision_tree
decision_tree_leaf
p3596
(dp3597
g8
g9
(g10
tp3598
Rp3599
g13
I4
ssg14
g13
sbsS'31-MAR-2009'
p3600
(idecision_tree
decision_tree_leaf
p3601
(dp3602
g8
g9
(g10
tp3603
Rp3604
g13
I12
ssg14
g13
sbsS'26-JUN-2009'
p3605
(idecision_tree
decision_tree_leaf
p3606
(dp3607
g8
g9
(g10
tp3608
Rp3609
g13
I1
ssg14
g13
sbsS'20-FEB-2009'
p3610
(idecision_tree
continuous_decision_tree
p3611
(dp3612
g42
F-3.75
sg2
I67
sg43
(idecision_tree
continuous_decision_tree
p3613
(dp3614
g42
F2.75
sg2
I67
sg43
(idecision_tree
continuous_decision_tree
p3615
(dp3616
g42
F40.0
sg2
I67
sg43
(idecision_tree
decision_tree_leaf
p3617
(dp3618
g8
g9
(g10
tp3619
Rp3620
g13
I1
ssg14
g13
sbsg48
(idecision_tree
decision_tree_leaf
p3621
(dp3622
g8
g9
(g10
tp3623
Rp3624
S'Pn'
p3625
I1
ssg14
g3625
sbsbsg48
(idecision_tree
decision_tree_leaf
p3626
(dp3627
g8
g9
(g10
tp3628
Rp3629
g13
I1
ssg14
g13
sbsbsg48
(idecision_tree
decision_tree
p3630
(dp3631
g2
I14
sg3
(dp3632
S'coh'
p3633
(idecision_tree
decision_tree_leaf
p3634
(dp3635
g8
g9
(g10
tp3636
Rp3637
g13
I3
ssg14
g13
sbsS'inc'
p3638
(idecision_tree
decision_tree_leaf
p3639
(dp3640
g8
g9
(g10
tp3641
Rp3642
g229
I1
ssg14
g229
sbssbsbsS'15-SEP-2009'
p3643
(idecision_tree
decision_tree_leaf
p3644
(dp3645
g8
g9
(g10
tp3646
Rp3647
g13
I4
ssg14
g13
sbsS'02-MAR-2009'
p3648
(idecision_tree
decision_tree_leaf
p3649
(dp3650
g8
g9
(g10
tp3651
Rp3652
g13
I6
ssg14
g13
sbsS'07-MAY-2009'
p3653
(idecision_tree
decision_tree_leaf
p3654
(dp3655
g8
g9
(g10
tp3656
Rp3657
g13
I4
ssg14
g13
sbsS'10-APR-2009'
p3658
(idecision_tree
decision_tree_leaf
p3659
(dp3660
g8
g9
(g10
tp3661
Rp3662
g13
I5
ssg14
g13
sbsS'02-FEB-2009'
p3663
(idecision_tree
decision_tree
p3664
(dp3665
g2
I13
sg3
(dp3666
S'Z1020'
p3667
(idecision_tree
decision_tree_leaf
p3668
(dp3669
g8
g9
(g10
tp3670
Rp3671
S'Pn'
p3672
I1
ssg14
g3672
sbsS'Z1530'
p3673
(idecision_tree
decision_tree_leaf
p3674
(dp3675
g8
g9
(g10
tp3676
Rp3677
g13
I1
ssg14
g13
sbsS'Z2040'
p3678
(idecision_tree
decision_tree_leaf
p3679
(dp3680
g8
g9
(g10
tp3681
Rp3682
g13
I2
ssg14
g13
sbssbsS'08-JAN-2009'
p3683
(idecision_tree
decision_tree_leaf
p3684
(dp3685
g8
g9
(g10
tp3686
Rp3687
g13
I6
ssg14
g13
sbsS'12-JUN-2009'
p3688
(idecision_tree
decision_tree_leaf
p3689
(dp3690
g8
g9
(g10
tp3691
Rp3692
g13
I10
ssg14
g13
sbsS'24-JUL-2009'
p3693
(idecision_tree
decision_tree_leaf
p3694
(dp3695
g8
g9
(g10
tp3696
Rp3697
g13
I1
ssg14
g13
sbsS'28-APR-2009'
p3698
(idecision_tree
decision_tree_leaf
p3699
(dp3700
g8
g9
(g10
tp3701
Rp3702
g13
I1
ssg14
g13
sbsS'01-FEB-2009'
p3703
(idecision_tree
decision_tree_leaf
p3704
(dp3705
g8
g9
(g10
tp3706
Rp3707
g13
I3
ssg14
g13
sbsS'06-MAY-2009'
p3708
(idecision_tree
continuous_decision_tree
p3709
(dp3710
g42
F-117.33314999999999
sg2
I67
sg43
(idecision_tree
decision_tree_leaf
p3711
(dp3712
g8
g9
(g10
tp3713
Rp3714
g13
I4
sS'Pn'
p3715
I1
ssg14
g13
sbsg48
(idecision_tree
decision_tree_leaf
p3716
(dp3717
g8
g9
(g10
tp3718
Rp3719
g13
I1
ssg14
g13
sbsbsS'09-NOV-2009'
p3720
(idecision_tree
decision_tree_leaf
p3721
(dp3722
g8
g9
(g10
tp3723
Rp3724
g13
I9
ssg14
g13
sbsS'07-MAR-2009'
p3725
(idecision_tree
decision_tree_leaf
p3726
(dp3727
g8
g9
(g10
tp3728
Rp3729
g13
I2
ssg14
g13
sbsS'17-AUG-2009'
p3730
(idecision_tree
decision_tree
p3731
(dp3732
g2
I13
sg3
(dp3733
S'Z1530'
p3734
(idecision_tree
decision_tree_leaf
p3735
(dp3736
g8
g9
(g10
tp3737
Rp3738
g13
I7
ssg14
g13
sbsS'Z1020'
p3739
(idecision_tree
decision_tree_leaf
p3740
(dp3741
g8
g9
(g10
tp3742
Rp3743
g13
I8
sS'Pn'
p3744
I1
ssg14
g13
sbsS'Z0515'
p3745
(idecision_tree
decision_tree_leaf
p3746
(dp3747
g8
g9
(g10
tp3748
Rp3749
S'Lg'
p3750
I1
ssg14
g3750
sbssbsS'23-JUL-2009'
p3751
(idecision_tree
decision_tree_leaf
p3752
(dp3753
g8
g9
(g10
tp3754
Rp3755
g13
I4
ssg14
g13
sbsS'05-APR-2009'
p3756
(idecision_tree
decision_tree
p3757
(dp3758
g2
I13
sg3
(dp3759
S'Z1530'
p3760
(idecision_tree
decision_tree_leaf
p3761
(dp3762
g8
g9
(g10
tp3763
Rp3764
g13
I4
ssg14
g13
sbsS'Z1020'
p3765
(idecision_tree
decision_tree_leaf
p3766
(dp3767
g8
g9
(g10
tp3768
Rp3769
g13
I2
sS'Pn'
p3770
I1
ssg14
g13
sbsS'Z0515'
p3771
(idecision_tree
decision_tree_leaf
p3772
(dp3773
g8
g9
(g10
tp3774
Rp3775
g13
I1
ssg14
g13
sbssbsS'26-APR-2009'
p3776
(idecision_tree
decision_tree
p3777
(dp3778
g2
I13
sg3
(dp3779
S'Z1020'
p3780
(idecision_tree
decision_tree
p3781
(dp3782
g2
I1
sg3
(dp3783
g13
(idecision_tree
decision_tree
p3784
(dp3785
g2
I27
sg3
(dp3786
S'26-APR-2009'
p3787
(idecision_tree
decision_tree
p3788
(dp3789
g2
I14
sg3
(dp3790
S'coh'
p3791
(idecision_tree
decision_tree
p3792
(dp3793
g2
I10
sg3
(dp3794
S'26-APR-2009'
p3795
(idecision_tree
decision_tree
p3796
(dp3797
g2
I9
sg3
(dp3798
S'-999'
p3799
(idecision_tree
continuous_decision_tree
p3800
(dp3801
g42
F2.0
sg2
I66
sg43
(idecision_tree
decision_tree_leaf
p3802
(dp3803
g8
g9
(g10
tp3804
Rp3805
g13
I2
sS'PKP'
p3806
I1
ssg14
g13
sbsg48
(idecision_tree
decision_tree_leaf
p3807
(dp3808
g8
g9
(g10
tp3809
Rp3810
g13
I8
ssg14
g13
sbsbssbssbssbssbsg1117
(idecision_tree
decision_tree_leaf
p3811
(dp3812
g8
g9
(g10
tp3813
Rp3814
g13
I3
ssg14
g13
sbssbsS'Z1530'
p3815
(idecision_tree
decision_tree_leaf
p3816
(dp3817
g8
g9
(g10
tp3818
Rp3819
g13
I10
ssg14
g13
sbssbsS'12-DEC-2009'
p3820
(idecision_tree
decision_tree_leaf
p3821
(dp3822
g8
g9
(g10
tp3823
Rp3824
g13
I7
ssg14
g13
sbsS'13-SEP-2009'
p3825
(idecision_tree
decision_tree_leaf
p3826
(dp3827
g8
g9
(g10
tp3828
Rp3829
g13
I3
ssg14
g13
sbsS'04-FEB-2009'
p3830
(idecision_tree
decision_tree_leaf
p3831
(dp3832
g8
g9
(g10
tp3833
Rp3834
g13
I2
ssg14
g13
sbsS'24-MAY-2009'
p3835
(idecision_tree
decision_tree
p3836
(dp3837
g2
I13
sg3
(dp3838
S'Z1020'
p3839
(idecision_tree
continuous_decision_tree
p3840
(dp3841
g42
F201.484
sg2
I42
sg43
(idecision_tree
continuous_decision_tree
p3842
(dp3843
g42
F4.75
sg2
I67
sg43
(idecision_tree
decision_tree_leaf
p3844
(dp3845
g8
g9
(g10
tp3846
Rp3847
g13
I1
ssg14
g13
sbsg48
(idecision_tree
decision_tree_leaf
p3848
(dp3849
g8
g9
(g10
tp3850
Rp3851
S'PKP'
p3852
I1
ssg14
g3852
sbsbsg48
(idecision_tree
decision_tree_leaf
p3853
(dp3854
g8
g9
(g10
tp3855
Rp3856
g13
I1
ssg14
g13
sbsbsS'Z1530'
p3857
(idecision_tree
decision_tree_leaf
p3858
(dp3859
g8
g9
(g10
tp3860
Rp3861
g13
I8
ssg14
g13
sbsS'Z2040'
p3862
(idecision_tree
decision_tree_leaf
p3863
(dp3864
g8
g9
(g10
tp3865
Rp3866
g13
I1
ssg14
g13
sbssbsS'15-DEC-2009'
p3867
(idecision_tree
decision_tree_leaf
p3868
(dp3869
g8
g9
(g10
tp3870
Rp3871
g13
I2
ssg14
g13
sbsS'01-MAY-2009'
p3872
(idecision_tree
continuous_decision_tree
p3873
(dp3874
g42
F-0.5
sg2
I66
sg43
(idecision_tree
continuous_decision_tree
p3875
(dp3876
g42
F-23.5
sg2
I67
sg43
(idecision_tree
continuous_decision_tree
p3877
(dp3878
g42
F-1.041665
sg2
I63
sg43
(idecision_tree
continuous_decision_tree
p3879
(dp3880
g42
F11163500.0
sg2
I64
sg43
(idecision_tree
decision_tree_leaf
p3881
(dp3882
g8
g9
(g10
tp3883
Rp3884
g13
I1
ssg14
g13
sbsg48
(idecision_tree
continuous_decision_tree
p3885
(dp3886
g42
F0.186582
sg2
I52
sg43
(idecision_tree
decision_tree
p3887
(dp3888
g2
I13
sg3
(dp3889
S'Z1530'
p3890
(idecision_tree
decision_tree_leaf
p3891
(dp3892
g8
g9
(g10
tp3893
Rp3894
S'PKP'
p3895
I1
ssg14
g3895
sbsS'Z0515'
p3896
(idecision_tree
decision_tree_leaf
p3897
(dp3898
g8
g9
(g10
tp3899
Rp3900
g13
I1
ssg14
g13
sbssbsg48
(idecision_tree
decision_tree_leaf
p3901
(dp3902
g8
g9
(g10
tp3903
Rp3904
g13
I1
ssg14
g13
sbsbsbsg48
(idecision_tree
decision_tree_leaf
p3905
(dp3906
g8
g9
(g10
tp3907
Rp3908
g13
I1
ssg14
g13
sbsbsg48
(idecision_tree
decision_tree_leaf
p3909
(dp3910
g8
g9
(g10
tp3911
Rp3912
g13
I1
ssg14
g13
sbsbsg48
(idecision_tree
decision_tree_leaf
p3913
(dp3914
g8
g9
(g10
tp3915
Rp3916
g13
I1
ssg14
g13
sbsbsS'02-JAN-2009'
p3917
(idecision_tree
decision_tree_leaf
p3918
(dp3919
g8
g9
(g10
tp3920
Rp3921
g13
I7
ssg14
g13
sbsS'26-AUG-2009'
p3922
(idecision_tree
decision_tree_leaf
p3923
(dp3924
g8
g9
(g10
tp3925
Rp3926
g13
I4
sS'Pn'
p3927
I2
sS'Lg'
p3928
I1
ssg14
g13
sbsS'24-MAR-2009'
p3929
(idecision_tree
decision_tree_leaf
p3930
(dp3931
g8
g9
(g10
tp3932
Rp3933
g13
I3
ssg14
g13
sbsS'21-MAY-2009'
p3934
(idecision_tree
decision_tree_leaf
p3935
(dp3936
g8
g9
(g10
tp3937
Rp3938
g13
I7
ssg14
g13
sbsS'13-APR-2009'
p3939
(idecision_tree
decision_tree_leaf
p3940
(dp3941
g8
g9
(g10
tp3942
Rp3943
g13
I6
ssg14
g13
sbsS'24-FEB-2009'
p3944
(idecision_tree
decision_tree_leaf
p3945
(dp3946
g8
g9
(g10
tp3947
Rp3948
g13
I12
ssg14
g13
sbsS'08-SEP-2009'
p3949
(idecision_tree
decision_tree_leaf
p3950
(dp3951
g8
g9
(g10
tp3952
Rp3953
g13
I6
sS'Pn'
p3954
I1
ssg14
g13
sbsS'27-FEB-2009'
p3955
(idecision_tree
decision_tree_leaf
p3956
(dp3957
g8
g9
(g10
tp3958
Rp3959
g13
I5
ssg14
g13
sbsS'26-NOV-2009'
p3960
(idecision_tree
continuous_decision_tree
p3961
(dp3962
g42
F0.49560400000000004
sg2
I48
sg43
(idecision_tree
continuous_decision_tree
p3963
(dp3964
g42
F-38.42855
sg2
I67
sg43
(idecision_tree
continuous_decision_tree
p3965
(dp3966
g42
F-0.5
sg2
I66
sg43
(idecision_tree
decision_tree_leaf
p3967
(dp3968
g8
g9
(g10
tp3969
Rp3970
g13
I3
sS'PKP'
p3971
I1
ssg14
g13
sbsg48
(idecision_tree
decision_tree_leaf
p3972
(dp3973
g8
g9
(g10
tp3974
Rp3975
g13
I1
ssg14
g13
sbsbsg48
(idecision_tree
decision_tree_leaf
p3976
(dp3977
g8
g9
(g10
tp3978
Rp3979
g13
I1
ssg14
g13
sbsbsg48
(idecision_tree
decision_tree
p3980
(dp3981
g2
I13
sg3
(dp3982
S'Z1530'
p3983
(idecision_tree
decision_tree_leaf
p3984
(dp3985
g8
g9
(g10
tp3986
Rp3987
g13
I2
ssg14
g13
sbsS'Z1020'
p3988
(idecision_tree
decision_tree_leaf
p3989
(dp3990
g8
g9
(g10
tp3991
Rp3992
g13
I1
ssg14
g13
sbsS'H1020'
p3993
(idecision_tree
decision_tree_leaf
p3994
(dp3995
g8
g9
(g10
tp3996
Rp3997
g13
I1
ssg14
g13
sbsS'Z0515'
p3998
(idecision_tree
decision_tree_leaf
p3999
(dp4000
g8
g9
(g10
tp4001
Rp4002
S'Lg'
p4003
I1
ssg14
g4003
sbssbsbsS'21-MAR-2009'
p4004
(idecision_tree
decision_tree_leaf
p4005
(dp4006
g8
g9
(g10
tp4007
Rp4008
g13
I19
ssg14
g13
sbsS'18-OCT-2009'
p4009
(idecision_tree
decision_tree_leaf
p4010
(dp4011
g8
g9
(g10
tp4012
Rp4013
g13
I6
ssg14
g13
sbsS'05-AUG-2009'
p4014
(idecision_tree
decision_tree_leaf
p4015
(dp4016
g8
g9
(g10
tp4017
Rp4018
g13
I3
ssg14
g13
sbsS'22-FEB-2009'
p4019
(idecision_tree
decision_tree_leaf
p4020
(dp4021
g8
g9
(g10
tp4022
Rp4023
g13
I7
ssg14
g13
sbsS'18-JAN-2009'
p4024
(idecision_tree
decision_tree_leaf
p4025
(dp4026
g8
g9
(g10
tp4027
Rp4028
g13
I9
ssg14
g13
sbsS'25-AUG-2009'
p4029
(idecision_tree
continuous_decision_tree
p4030
(dp4031
g42
F11.5
sg2
I67
sg43
(idecision_tree
continuous_decision_tree
p4032
(dp4033
g42
F29.7
sg2
I67
sg43
(idecision_tree
continuous_decision_tree
p4034
(dp4035
g42
F67.7
sg2
I67
sg43
(idecision_tree
decision_tree_leaf
p4036
(dp4037
g8
g9
(g10
tp4038
Rp4039
S'PKP'
p4040
I1
ssg14
g4040
sbsg48
(idecision_tree
decision_tree_leaf
p4041
(dp4042
g8
g9
(g10
tp4043
Rp4044
g13
I1
ssg14
g13
sbsbsg48
(idecision_tree
decision_tree_leaf
p4045
(dp4046
g8
g9
(g10
tp4047
Rp4048
S'Pn'
p4049
I1
ssg14
g4049
sbsbsg48
(idecision_tree
continuous_decision_tree
p4050
(dp4051
g42
F-8.0
sg2
I67
sg43
(idecision_tree
decision_tree_leaf
p4052
(dp4053
g8
g9
(g10
tp4054
Rp4055
g13
I1
ssg14
g13
sbsg48
(idecision_tree
decision_tree_leaf
p4056
(dp4057
g8
g9
(g10
tp4058
Rp4059
S'Pn'
p4060
I1
ssg14
g4060
sbsbsbsS'15-OCT-2009'
p4061
(idecision_tree
decision_tree_leaf
p4062
(dp4063
g8
g9
(g10
tp4064
Rp4065
g13
I16
ssg14
g13
sbsS'05-NOV-2009'
p4066
(idecision_tree
decision_tree_leaf
p4067
(dp4068
g8
g9
(g10
tp4069
Rp4070
g13
I10
ssg14
g13
sbsS'24-JAN-2009'
p4071
(idecision_tree
decision_tree
p4072
(dp4073
g2
I14
sg3
(dp4074
S'coh'
p4075
(idecision_tree
decision_tree_leaf
p4076
(dp4077
g8
g9
(g10
tp4078
Rp4079
g13
I11
ssg14
g13
sbsS'inc'
p4080
(idecision_tree
decision_tree_leaf
p4081
(dp4082
g8
g9
(g10
tp4083
Rp4084
g229
I1
ssg14
g229
sbssbsS'28-NOV-2009'
p4085
(idecision_tree
decision_tree_leaf
p4086
(dp4087
g8
g9
(g10
tp4088
Rp4089
g13
I7
ssg14
g13
sbsS'16-APR-2009'
p4090
(idecision_tree
continuous_decision_tree
p4091
(dp4092
g42
F225.1665
sg2
I67
sg43
(idecision_tree
decision_tree_leaf
p4093
(dp4094
g8
g9
(g10
tp4095
Rp4096
g13
I1
ssg14
g13
sbsg48
(idecision_tree
continuous_decision_tree
p4097
(dp4098
g42
F0.5
sg2
I66
sg43
(idecision_tree
continuous_decision_tree
p4099
(dp4100
g42
F-10.375
sg2
I63
sg43
(idecision_tree
continuous_decision_tree
p4101
(dp4102
g42
F147.5
sg2
I67
sg43
(idecision_tree
decision_tree_leaf
p4103
(dp4104
g8
g9
(g10
tp4105
Rp4106
S'Pn'
p4107
I1
ssg14
g4107
sbsg48
(idecision_tree
decision_tree_leaf
p4108
(dp4109
g8
g9
(g10
tp4110
Rp4111
g13
I1
ssg14
g13
sbsbsg48
(idecision_tree
decision_tree_leaf
p4112
(dp4113
g8
g9
(g10
tp4114
Rp4115
g13
I1
ssg14
g13
sbsbsg48
(idecision_tree
decision_tree_leaf
p4116
(dp4117
g8
g9
(g10
tp4118
Rp4119
g13
I1
ssg14
g13
sbsbsbsS'15-NOV-2009'
p4120
(idecision_tree
continuous_decision_tree
p4121
(dp4122
g42
F-24.25
sg2
I67
sg43
(idecision_tree
decision_tree_leaf
p4123
(dp4124
g8
g9
(g10
tp4125
Rp4126
g13
I1
ssg14
g13
sbsg48
(idecision_tree
decision_tree_leaf
p4127
(dp4128
g8
g9
(g10
tp4129
Rp4130
g13
I3
sS'Pn'
p4131
I1
ssg14
g13
sbsbsS'29-AUG-2009'
p4132
(idecision_tree
decision_tree_leaf
p4133
(dp4134
g8
g9
(g10
tp4135
Rp4136
g13
I6
ssg14
g13
sbsS'07-JAN-2009'
p4137
(idecision_tree
decision_tree
p4138
(dp4139
g2
I14
sg3
(dp4140
S'coh'
p4141
(idecision_tree
decision_tree_leaf
p4142
(dp4143
g8
g9
(g10
tp4144
Rp4145
g13
I10
ssg14
g13
sbsS'inc'
p4146
(idecision_tree
decision_tree_leaf
p4147
(dp4148
g8
g9
(g10
tp4149
Rp4150
g229
I1
ssg14
g229
sbssbsS'05-OCT-2009'
p4151
(idecision_tree
decision_tree_leaf
p4152
(dp4153
g8
g9
(g10
tp4154
Rp4155
g13
I4
ssg14
g13
sbsS'05-MAY-2009'
p4156
(idecision_tree
decision_tree_leaf
p4157
(dp4158
g8
g9
(g10
tp4159
Rp4160
g13
I3
ssg14
g13
sbsS'14-JUN-2009'
p4161
(idecision_tree
decision_tree_leaf
p4162
(dp4163
g8
g9
(g10
tp4164
Rp4165
g13
I9
ssg14
g13
sbsS'09-AUG-2009'
p4166
(idecision_tree
decision_tree
p4167
(dp4168
g2
I14
sg3
(dp4169
S'coh'
p4170
(idecision_tree
decision_tree_leaf
p4171
(dp4172
g8
g9
(g10
tp4173
Rp4174
g13
I3
ssg14
g13
sbsS'inc'
p4175
(idecision_tree
decision_tree_leaf
p4176
(dp4177
g8
g9
(g10
tp4178
Rp4179
g229
I1
ssg14
g229
sbssbsS'03-DEC-2009'
p4180
(idecision_tree
decision_tree_leaf
p4181
(dp4182
g8
g9
(g10
tp4183
Rp4184
g13
I3
ssg14
g13
sbsS'23-NOV-2009'
p4185
(idecision_tree
decision_tree
p4186
(dp4187
g2
I14
sg3
(dp4188
S'coh'
p4189
(idecision_tree
decision_tree_leaf
p4190
(dp4191
g8
g9
(g10
tp4192
Rp4193
g13
I5
ssg14
g13
sbsS'inc'
p4194
(idecision_tree
decision_tree_leaf
p4195
(dp4196
g8
g9
(g10
tp4197
Rp4198
g229
I1
ssg14
g229
sbssbsS'28-JUN-2009'
p4199
(idecision_tree
decision_tree_leaf
p4200
(dp4201
g8
g9
(g10
tp4202
Rp4203
g13
I9
ssg14
g13
sbsS'15-MAR-2009'
p4204
(idecision_tree
decision_tree
p4205
(dp4206
g2
I13
sg3
(dp4207
S'Z1020'
p4208
(idecision_tree
decision_tree
p4209
(dp4210
g2
I1
sg3
(dp4211
g13
(idecision_tree
decision_tree_leaf
p4212
(dp4213
g8
g9
(g10
tp4214
Rp4215
S'PKP'
p4216
I1
ssg14
g4216
sbsS'tx'
p4217
(idecision_tree
decision_tree_leaf
p4218
(dp4219
g8
g9
(g10
tp4220
Rp4221
g13
I1
ssg14
g13
sbssbsS'Z1530'
p4222
(idecision_tree
decision_tree_leaf
p4223
(dp4224
g8
g9
(g10
tp4225
Rp4226
g13
I4
ssg14
g13
sbsS'Z2040'
p4227
(idecision_tree
decision_tree_leaf
p4228
(dp4229
g8
g9
(g10
tp4230
Rp4231
g13
I2
ssg14
g13
sbssbsS'08-MAY-2009'
p4232
(idecision_tree
decision_tree_leaf
p4233
(dp4234
g8
g9
(g10
tp4235
Rp4236
g13
I3
ssg14
g13
sbsS'28-JAN-2009'
p4237
(idecision_tree
decision_tree
p4238
(dp4239
g2
I13
sg3
(dp4240
S'Z0515'
p4241
(idecision_tree
decision_tree
p4242
(dp4243
g2
I1
sg3
(dp4244
g13
(idecision_tree
decision_tree_leaf
p4245
(dp4246
g8
g9
(g10
tp4247
Rp4248
g13
I1
ssg14
g13
sbsS'Pn'
p4249
(idecision_tree
decision_tree_leaf
p4250
(dp4251
g8
g9
(g10
tp4252
Rp4253
S'Lg'
p4254
I1
ssg14
g4254
sbssbsS'Z1020'
p4255
(idecision_tree
decision_tree_leaf
p4256
(dp4257
g8
g9
(g10
tp4258
Rp4259
g13
I3
ssg14
g13
sbsS'Z1530'
p4260
(idecision_tree
decision_tree_leaf
p4261
(dp4262
g8
g9
(g10
tp4263
Rp4264
g13
I3
ssg14
g13
sbsS'Z2040'
p4265
(idecision_tree
decision_tree_leaf
p4266
(dp4267
g8
g9
(g10
tp4268
Rp4269
g13
I1
ssg14
g13
sbssbsS'23-AUG-2009'
p4270
(idecision_tree
continuous_decision_tree
p4271
(dp4272
g42
F64.0
sg2
I67
sg43
(idecision_tree
continuous_decision_tree
p4273
(dp4274
g42
F102.66665
sg2
I67
sg43
(idecision_tree
continuous_decision_tree
p4275
(dp4276
g42
F-1.0
sg2
I63
sg43
(idecision_tree
continuous_decision_tree
p4277
(dp4278
g42
F118.0
sg2
I67
sg43
(idecision_tree
decision_tree_leaf
p4279
(dp4280
g8
g9
(g10
tp4281
Rp4282
S'Pn'
p4283
I1
ssg14
g4283
sbsg48
(idecision_tree
decision_tree_leaf
p4284
(dp4285
g8
g9
(g10
tp4286
Rp4287
g13
I1
ssg14
g13
sbsbsg48
(idecision_tree
decision_tree_leaf
p4288
(dp4289
g8
g9
(g10
tp4290
Rp4291
g13
I1
ssg14
g13
sbsbsg48
(idecision_tree
continuous_decision_tree
p4292
(dp4293
g42
F57.666650000000004
sg2
I63
sg43
(idecision_tree
decision_tree_leaf
p4294
(dp4295
g8
g9
(g10
tp4296
Rp4297
g13
I1
sS'Pn'
p4298
I1
ssg14
g13
sbsg48
(idecision_tree
decision_tree_leaf
p4299
(dp4300
g8
g9
(g10
tp4301
Rp4302
g13
I2
sS'Pn'
p4303
I1
ssg14
g13
sbsbsbsg48
(idecision_tree
decision_tree_leaf
p4304
(dp4305
g8
g9
(g10
tp4306
Rp4307
g13
I5
sS'Pn'
p4308
I1
ssg14
g13
sbsbsS'02-OCT-2009'
p4309
(idecision_tree
continuous_decision_tree
p4310
(dp4311
g42
F0.670772
sg2
I49
sg43
(idecision_tree
decision_tree
p4312
(dp4313
g2
I13
sg3
(dp4314
S'Z0515'
p4315
(idecision_tree
decision_tree_leaf
p4316
(dp4317
g8
g9
(g10
tp4318
Rp4319
S'Lg'
p4320
I1
ssg14
g4320
sbsS'Z1020'
p4321
(idecision_tree
decision_tree_leaf
p4322
(dp4323
g8
g9
(g10
tp4324
Rp4325
g13
I3
ssg14
g13
sbsS'Z1530'
p4326
(idecision_tree
decision_tree_leaf
p4327
(dp4328
g8
g9
(g10
tp4329
Rp4330
g13
I2
ssg14
g13
sbssbsg48
(idecision_tree
continuous_decision_tree
p4331
(dp4332
g42
F26.8
sg2
I67
sg43
(idecision_tree
decision_tree
p4333
(dp4334
g2
I13
sg3
(dp4335
S'Z1530'
p4336
(idecision_tree
decision_tree_leaf
p4337
(dp4338
g8
g9
(g10
tp4339
Rp4340
g13
I1
ssg14
g13
sbsS'Z1020'
p4341
(idecision_tree
decision_tree_leaf
p4342
(dp4343
g8
g9
(g10
tp4344
Rp4345
g13
I3
ssg14
g13
sbsS'Z0515'
p4346
(idecision_tree
decision_tree_leaf
p4347
(dp4348
g8
g9
(g10
tp4349
Rp4350
S'Pn'
p4351
I1
ssg14
g4351
sbssbsg48
(idecision_tree
continuous_decision_tree
p4352
(dp4353
g42
F-172.75
sg2
I67
sg43
(idecision_tree
continuous_decision_tree
p4354
(dp4355
g42
F3.0
sg2
I66
sg43
(idecision_tree
decision_tree
p4356
(dp4357
g2
I13
sg3
(dp4358
S'Z1020'
p4359
(idecision_tree
decision_tree_leaf
p4360
(dp4361
g8
g9
(g10
tp4362
Rp4363
S'Pn'
p4364
I1
ssg14
g4364
sbsS'Z0515'
p4365
(idecision_tree
decision_tree_leaf
p4366
(dp4367
g8
g9
(g10
tp4368
Rp4369
g13
I1
ssg14
g13
sbssbsg48
(idecision_tree
decision_tree_leaf
p4370
(dp4371
g8
g9
(g10
tp4372
Rp4373
g13
I4
ssg14
g13
sbsbsg48
(idecision_tree
decision_tree_leaf
p4374
(dp4375
g8
g9
(g10
tp4376
Rp4377
g13
I1
ssg14
g13
sbsbsbsbsS'19-FEB-2009'
p4378
(idecision_tree
decision_tree
p4379
(dp4380
g2
I14
sg3
(dp4381
S'coh'
p4382
(idecision_tree
decision_tree_leaf
p4383
(dp4384
g8
g9
(g10
tp4385
Rp4386
g13
I8
ssg14
g13
sbsS'inc'
p4387
(idecision_tree
decision_tree_leaf
p4388
(dp4389
g8
g9
(g10
tp4390
Rp4391
g229
I1
ssg14
g229
sbssbsS'30-AUG-2009'
p4392
(idecision_tree
decision_tree_leaf
p4393
(dp4394
g8
g9
(g10
tp4395
Rp4396
g13
I8
ssg14
g13
sbsS'31-JAN-2009'
p4397
(idecision_tree
decision_tree_leaf
p4398
(dp4399
g8
g9
(g10
tp4400
Rp4401
g13
I6
ssg14
g13
sbsS'14-NOV-2009'
p4402
(idecision_tree
decision_tree_leaf
p4403
(dp4404
g8
g9
(g10
tp4405
Rp4406
g13
I3
ssg14
g13
sbsS'05-DEC-2009'
p4407
(idecision_tree
decision_tree
p4408
(dp4409
g2
I13
sg3
(dp4410
S'Z1020'
p4411
(idecision_tree
decision_tree_leaf
p4412
(dp4413
g8
g9
(g10
tp4414
Rp4415
g13
I2
ssg14
g13
sbsS'Z1530'
p4416
(idecision_tree
decision_tree_leaf
p4417
(dp4418
g8
g9
(g10
tp4419
Rp4420
g13
I1
ssg14
g13
sbsS'Z2040'
p4421
(idecision_tree
decision_tree_leaf
p4422
(dp4423
g8
g9
(g10
tp4424
Rp4425
S'Pn'
p4426
I1
ssg14
g4426
sbssbsS'02-JUN-2009'
p4427
(idecision_tree
decision_tree_leaf
p4428
(dp4429
g8
g9
(g10
tp4430
Rp4431
g13
I13
ssg14
g13
sbsS'21-JAN-2009'
p4432
(idecision_tree
continuous_decision_tree
p4433
(dp4434
g42
F3.0
sg2
I66
sg43
(idecision_tree
decision_tree_leaf
p4435
(dp4436
g8
g9
(g10
tp4437
Rp4438
g13
I3
sS'Pn'
p4439
I1
sS'Lg'
p4440
I1
ssg14
g13
sbsg48
(idecision_tree
decision_tree_leaf
p4441
(dp4442
g8
g9
(g10
tp4443
Rp4444
g13
I4
ssg14
g13
sbsbsS'23-OCT-2009'
p4445
(idecision_tree
decision_tree_leaf
p4446
(dp4447
g8
g9
(g10
tp4448
Rp4449
g13
I6
ssg14
g13
sbsS'23-MAY-2009'
p4450
(idecision_tree
continuous_decision_tree
p4451
(dp4452
g42
F0.0
sg2
I59
sg43
(idecision_tree
continuous_decision_tree
p4453
(dp4454
g42
F2.5
sg2
I67
sg43
(idecision_tree
continuous_decision_tree
p4455
(dp4456
g42
F0.36014250000000003
sg2
I52
sg43
(idecision_tree
continuous_decision_tree
p4457
(dp4458
g42
F35.5
sg2
I67
sg43
(idecision_tree
decision_tree_leaf
p4459
(dp4460
g8
g9
(g10
tp4461
Rp4462
g13
I1
ssg14
g13
sbsg48
(idecision_tree
decision_tree_leaf
p4463
(dp4464
g8
g9
(g10
tp4465
Rp4466
S'PKP'
p4467
I1
ssg14
g4467
sbsbsg48
(idecision_tree
decision_tree_leaf
p4468
(dp4469
g8
g9
(g10
tp4470
Rp4471
g13
I1
ssg14
g13
sbsbsg48
(idecision_tree
decision_tree
p4472
(dp4473
g2
I14
sg3
(dp4474
S'coh'
p4475
(idecision_tree
decision_tree_leaf
p4476
(dp4477
g8
g9
(g10
tp4478
Rp4479
g13
I1
ssg14
g13
sbsS'inc'
p4480
(idecision_tree
decision_tree_leaf
p4481
(dp4482
g8
g9
(g10
tp4483
Rp4484
g229
I1
ssg14
g229
sbssbsbsg48
(idecision_tree
decision_tree_leaf
p4485
(dp4486
g8
g9
(g10
tp4487
Rp4488
g13
I3
ssg14
g13
sbsbsS'17-SEP-2009'
p4489
(idecision_tree
decision_tree_leaf
p4490
(dp4491
g8
g9
(g10
tp4492
Rp4493
g13
I5
ssg14
g13
sbssb.