(idecision_tree
continuous_decision_tree
p0
(dp1
S'split_point'
p2
F41.25
sS'attribute'
p3
I63
sS'gt_subtree'
p4
(idecision_tree
decision_tree_leaf
p5
(dp6
S'counts'
p7
ccollections
defaultdict
p8
(c__builtin__
int
p9
tp10
Rp11
S'Lg'
p12
I9
sS'PKP'
p13
I6
sS'P'
p14
I131
sS'S'
p15
I30
sS'Sn'
p16
I6
sS'Pn'
p17
I42
sS'Pg'
p18
I10
ssS'value'
p19
g14
sbsS'lt_subtree'
p20
(idecision_tree
continuous_decision_tree
p21
(dp22
g2
F32.0
sg3
I67
sg4
(idecision_tree
decision_tree_leaf
p23
(dp24
g7
g8
(g9
tp25
Rp26
S'Lg'
p27
I16
sS'PKP'
p28
I23
sg14
I253
sg15
I25
sS'Sn'
p29
I13
sS'Pn'
p30
I106
sS'Pg'
p31
I14
ssg19
g14
sbsg20
(idecision_tree
continuous_decision_tree
p32
(dp33
g2
F2.2481999999999998
sg3
I48
sg4
(idecision_tree
decision_tree_leaf
p34
(dp35
g7
g8
(g9
tp36
Rp37
S'Lg'
p38
I9
sS'PKP'
p39
I5
sg14
I52
sg15
I14
sS'Sn'
p40
I1
sS'Pn'
p41
I11
sS'Pg'
p42
I1
ssg19
g14
sbsg20
(idecision_tree
continuous_decision_tree
p43
(dp44
g2
F0.8000605000000001
sg3
I35
sg4
(idecision_tree
continuous_decision_tree
p45
(dp46
g2
F3.0
sg3
I62
sg4
(idecision_tree
decision_tree_leaf
p47
(dp48
g7
g8
(g9
tp49
Rp50
S'Lg'
p51
I5
sS'PKP'
p52
I3
sg14
I78
sg15
I2
sS'Pg'
p53
I4
sS'Pn'
p54
I44
sS'Sn'
p55
I2
ssg19
g14
sbsg20
(idecision_tree
continuous_decision_tree
p56
(dp57
g2
F10.825
sg3
I59
sg4
(idecision_tree
continuous_decision_tree
p58
(dp59
g2
F33.666650000000004
sg3
I59
sg4
(idecision_tree
continuous_decision_tree
p60
(dp61
g2
F-101.16685
sg3
I67
sg4
(idecision_tree
continuous_decision_tree
p62
(dp63
g2
F-47.208349999999996
sg3
I67
sg4
(idecision_tree
continuous_decision_tree
p64
(dp65
g2
F1.0
sg3
I66
sg4
(idecision_tree
decision_tree_leaf
p66
(dp67
g7
g8
(g9
tp68
Rp69
g14
I2
sS'Pn'
p70
I1
sS'Lg'
p71
I1
ssg19
g14
sbsg20
(idecision_tree
decision_tree_leaf
p72
(dp73
g7
g8
(g9
tp74
Rp75
g14
I1
ssg19
g14
sbsbsg20
(idecision_tree
decision_tree
p76
(dp77
g3
I14
sS'value_to_tree'
p78
(dp79
S'coh'
p80
(idecision_tree
decision_tree_leaf
p81
(dp82
g7
g8
(g9
tp83
Rp84
g14
I1
ssg19
g14
sbsS'inc'
p85
(idecision_tree
decision_tree_leaf
p86
(dp87
g7
g8
(g9
tp88
Rp89
g15
I1
ssg19
g15
sbssbsbsg20
(idecision_tree
decision_tree
p90
(dp91
g3
I47
sg78
(dp92
S'26-APR-2009'
p93
(idecision_tree
decision_tree_leaf
p94
(dp95
g7
g8
(g9
tp96
Rp97
g14
I1
ssg19
g14
sbsS'13-AUG-2009'
p98
(idecision_tree
decision_tree_leaf
p99
(dp100
g7
g8
(g9
tp101
Rp102
S'PKP'
p103
I1
ssg19
g103
sbssbsbsg20
(idecision_tree
decision_tree_leaf
p104
(dp105
g7
g8
(g9
tp106
Rp107
S'Lg'
p108
I11
sS'PKP'
p109
I6
sg14
I62
sg15
I12
sS'Pg'
p110
I3
sS'Pn'
p111
I11
sS'Sn'
p112
I6
ssg19
g14
sbsbsg20
(idecision_tree
decision_tree_leaf
p113
(dp114
g7
g8
(g9
tp115
Rp116
S'Lg'
p117
I64
sS'PKP'
p118
I35
sg14
I531
sg15
I153
sS'Pg'
p119
I6
sS'Pn'
p120
I115
sS'Sn'
p121
I47
ssg19
g14
sbsbsbsg20
(idecision_tree
continuous_decision_tree
p122
(dp123
g2
F1.0
sg3
I58
sg4
(idecision_tree
continuous_decision_tree
p124
(dp125
g2
F1.0
sg3
I66
sg4
(idecision_tree
continuous_decision_tree
p126
(dp127
g2
F2.0
sg3
I66
sg4
(idecision_tree
continuous_decision_tree
p128
(dp129
g2
F14.05
sg3
I67
sg4
(idecision_tree
decision_tree_leaf
p130
(dp131
g7
g8
(g9
tp132
Rp133
g14
I9
sS'Pn'
p134
I5
sS'Pg'
p135
I1
sS'Sn'
p136
I1
sS'Lg'
p137
I1
ssg19
g14
sbsg20
(idecision_tree
decision_tree_leaf
p138
(dp139
g7
g8
(g9
tp140
Rp141
g14
I9
sS'Pn'
p142
I6
sS'Sn'
p143
I2
ssg19
g14
sbsbsg20
(idecision_tree
continuous_decision_tree
p144
(dp145
g2
F-6.5625
sg3
I63
sg4
(idecision_tree
continuous_decision_tree
p146
(dp147
g2
F0.9527205
sg3
I49
sg4
(idecision_tree
continuous_decision_tree
p148
(dp149
g2
F4.75
sg3
I67
sg4
(idecision_tree
decision_tree
p150
(dp151
g3
I47
sg78
(dp152
S'18-JUN-2009'
p153
(idecision_tree
decision_tree_leaf
p154
(dp155
g7
g8
(g9
tp156
Rp157
g14
I1
ssg19
g14
sbsS'10-MAY-2009'
p158
(idecision_tree
decision_tree_leaf
p159
(dp160
g7
g8
(g9
tp161
Rp162
S'Sn'
p163
I1
ssg19
g163
sbssbsg20
(idecision_tree
decision_tree_leaf
p164
(dp165
g7
g8
(g9
tp166
Rp167
g14
I1
ssg19
g14
sbsbsg20
(idecision_tree
continuous_decision_tree
p168
(dp169
g2
F72.55215
sg3
I42
sg4
(idecision_tree
decision_tree_leaf
p170
(dp171
g7
g8
(g9
tp172
Rp173
g14
I13
sS'Pn'
p174
I4
sS'Lg'
p175
I3
ssg19
g14
sbsg20
(idecision_tree
continuous_decision_tree
p176
(dp177
g2
F6.25
sg3
I67
sg4
(idecision_tree
decision_tree
p178
(dp179
g3
I47
sg78
(dp180
S'31-JAN-2009'
p181
(idecision_tree
decision_tree_leaf
p182
(dp183
g7
g8
(g9
tp184
Rp185
g14
I1
ssg19
g14
sbsS'05-MAY-2009'
p186
(idecision_tree
decision_tree_leaf
p187
(dp188
g7
g8
(g9
tp189
Rp190
S'Pn'
p191
I1
ssg19
g191
sbssbsg20
(idecision_tree
decision_tree_leaf
p192
(dp193
g7
g8
(g9
tp194
Rp195
g14
I1
ssg19
g14
sbsbsbsbsg20
(idecision_tree
continuous_decision_tree
p196
(dp197
g2
F0.789608
sg3
I50
sg4
(idecision_tree
decision_tree
p198
(dp199
g3
I47
sg78
(dp200
S'08-APR-2009'
p201
(idecision_tree
decision_tree_leaf
p202
(dp203
g7
g8
(g9
tp204
Rp205
g14
I1
ssg19
g14
sbsS'01-MAR-2009'
p206
(idecision_tree
decision_tree_leaf
p207
(dp208
g7
g8
(g9
tp209
Rp210
S'Sn'
p211
I1
ssg19
g211
sbssbsg20
(idecision_tree
decision_tree_leaf
p212
(dp213
g7
g8
(g9
tp214
Rp215
g14
I1
ssg19
g14
sbsbsbsbsg20
(idecision_tree
continuous_decision_tree
p216
(dp217
g2
F-2.5
sg3
I66
sg4
(idecision_tree
decision_tree_leaf
p218
(dp219
g7
g8
(g9
tp220
Rp221
S'Lg'
p222
I2
sg15
I2
sg14
I4
ssg19
g14
sbsg20
(idecision_tree
decision_tree
p223
(dp224
g3
I47
sg78
(dp225
S'17-FEB-2009'
p226
(idecision_tree
decision_tree_leaf
p227
(dp228
g7
g8
(g9
tp229
Rp230
g14
I1
ssg19
g14
sbsS'02-JUL-2009'
p231
(idecision_tree
decision_tree_leaf
p232
(dp233
g7
g8
(g9
tp234
Rp235
S'Lg'
p236
I1
ssg19
g236
sbssbsbsbsg20
(idecision_tree
continuous_decision_tree
p237
(dp238
g2
F0.840803
sg3
I36
sg4
(idecision_tree
continuous_decision_tree
p239
(dp240
g2
F181.6815
sg3
I42
sg4
(idecision_tree
continuous_decision_tree
p241
(dp242
g2
F-73.58335
sg3
I67
sg4
(idecision_tree
continuous_decision_tree
p243
(dp244
g2
F0.0
sg3
I67
sg4
(idecision_tree
continuous_decision_tree
p245
(dp246
g2
F273.994
sg3
I42
sg4
(idecision_tree
decision_tree_leaf
p247
(dp248
g7
g8
(g9
tp249
Rp250
g14
I8
sS'Pn'
p251
I2
sS'Pg'
p252
I1
ssg19
g14
sbsg20
(idecision_tree
decision_tree_leaf
p253
(dp254
g7
g8
(g9
tp255
Rp256
g14
I8
sg15
I2
sS'Sn'
p257
I1
ssg19
g14
sbsbsg20
(idecision_tree
continuous_decision_tree
p258
(dp259
g2
F-31.875
sg3
I67
sg4
(idecision_tree
decision_tree_leaf
p260
(dp261
g7
g8
(g9
tp262
Rp263
g14
I5
sg15
I2
sS'Sn'
p264
I2
sS'Lg'
p265
I1
ssg19
g14
sbsg20
(idecision_tree
continuous_decision_tree
p266
(dp267
g2
F-64.9722
sg3
I67
sg4
(idecision_tree
continuous_decision_tree
p268
(dp269
g2
F-2.5
sg3
I66
sg4
(idecision_tree
decision_tree
p270
(dp271
g3
I47
sg78
(dp272
S'13-SEP-2009'
p273
(idecision_tree
decision_tree_leaf
p274
(dp275
g7
g8
(g9
tp276
Rp277
g15
I1
ssg19
g15
sbsS'26-FEB-2009'
p278
(idecision_tree
decision_tree_leaf
p279
(dp280
g7
g8
(g9
tp281
Rp282
S'Pn'
p283
I1
ssg19
g283
sbssbsg20
(idecision_tree
decision_tree
p284
(dp285
g3
I47
sg78
(dp286
S'31-MAY-2009'
p287
(idecision_tree
decision_tree_leaf
p288
(dp289
g7
g8
(g9
tp290
Rp291
S'Lg'
p292
I1
ssg19
g292
sbsS'03-APR-2009'
p293
(idecision_tree
decision_tree_leaf
p294
(dp295
g7
g8
(g9
tp296
Rp297
g15
I1
ssg19
g15
sbssbsbsg20
(idecision_tree
decision_tree
p298
(dp299
g3
I47
sg78
(dp300
S'26-MAY-2009'
p301
(idecision_tree
decision_tree_leaf
p302
(dp303
g7
g8
(g9
tp304
Rp305
S'Sn'
p306
I1
ssg19
g306
sbsS'09-APR-2009'
p307
(idecision_tree
decision_tree_leaf
p308
(dp309
g7
g8
(g9
tp310
Rp311
g15
I1
ssg19
g15
sbssbsbsbsbsg20
(idecision_tree
continuous_decision_tree
p312
(dp313
g2
F-125.5
sg3
I67
sg4
(idecision_tree
continuous_decision_tree
p314
(dp315
g2
F-80.83335
sg3
I67
sg4
(idecision_tree
decision_tree
p316
(dp317
g3
I47
sg78
(dp318
S'29-NOV-2009'
p319
(idecision_tree
decision_tree_leaf
p320
(dp321
g7
g8
(g9
tp322
Rp323
g15
I1
ssg19
g15
sbsS'11-FEB-2009'
p324
(idecision_tree
decision_tree_leaf
p325
(dp326
g7
g8
(g9
tp327
Rp328
g14
I1
ssg19
g14
sbssbsg20
(idecision_tree
continuous_decision_tree
p329
(dp330
g2
F-109.625
sg3
I67
sg4
(idecision_tree
decision_tree
p331
(dp332
g3
I47
sg78
(dp333
S'09-APR-2009'
p334
(idecision_tree
decision_tree_leaf
p335
(dp336
g7
g8
(g9
tp337
Rp338
S'PKP'
p339
I1
ssg19
g339
sbsS'27-OCT-2009'
p340
(idecision_tree
decision_tree_leaf
p341
(dp342
g7
g8
(g9
tp343
Rp344
g14
I1
ssg19
g14
sbssbsg20
(idecision_tree
continuous_decision_tree
p345
(dp346
g2
F-3.0
sg3
I66
sg4
(idecision_tree
decision_tree
p347
(dp348
g3
I47
sg78
(dp349
S'10-OCT-2009'
p350
(idecision_tree
decision_tree_leaf
p351
(dp352
g7
g8
(g9
tp353
Rp354
g14
I1
ssg19
g14
sbsS'06-JUN-2009'
p355
(idecision_tree
decision_tree_leaf
p356
(dp357
g7
g8
(g9
tp358
Rp359
S'Pn'
p360
I1
ssg19
g360
sbssbsg20
(idecision_tree
decision_tree_leaf
p361
(dp362
g7
g8
(g9
tp363
Rp364
g14
I1
ssg19
g14
sbsbsbsbsg20
(idecision_tree
decision_tree
p365
(dp366
g3
I47
sg78
(dp367
S'04-MAR-2009'
p368
(idecision_tree
decision_tree_leaf
p369
(dp370
g7
g8
(g9
tp371
Rp372
g14
I1
ssg19
g14
sbsS'05-JUN-2009'
p373
(idecision_tree
decision_tree_leaf
p374
(dp375
g7
g8
(g9
tp376
Rp377
S'Pg'
p378
I1
ssg19
g378
sbssbsbsbsg20
(idecision_tree
decision_tree_leaf
p379
(dp380
g7
g8
(g9
tp381
Rp382
S'Lg'
p383
I11
sS'PKP'
p384
I1
sg14
I31
sg15
I5
sS'Sn'
p385
I6
sS'Pn'
p386
I2
ssg19
g14
sbsbsg20
(idecision_tree
continuous_decision_tree
p387
(dp388
g2
F253.628
sg3
I43
sg4
(idecision_tree
continuous_decision_tree
p389
(dp390
g2
F-57.0
sg3
I67
sg4
(idecision_tree
continuous_decision_tree
p391
(dp392
g2
F107.7585
sg3
I42
sg4
(idecision_tree
continuous_decision_tree
p393
(dp394
g2
F274.255
sg3
I43
sg4
(idecision_tree
continuous_decision_tree
p395
(dp396
g2
F0.3963265
sg3
I49
sg4
(idecision_tree
continuous_decision_tree
p397
(dp398
g2
F-22.1667
sg3
I67
sg4
(idecision_tree
continuous_decision_tree
p399
(dp400
g2
F0.9855335000000001
sg3
I52
sg4
(idecision_tree
decision_tree
p401
(dp402
g3
I47
sg78
(dp403
S'18-MAR-2009'
p404
(idecision_tree
decision_tree_leaf
p405
(dp406
g7
g8
(g9
tp407
Rp408
S'Lg'
p409
I1
ssg19
g409
sbsS'07-DEC-2009'
p410
(idecision_tree
decision_tree_leaf
p411
(dp412
g7
g8
(g9
tp413
Rp414
g14
I1
ssg19
g14
sbssbsg20
(idecision_tree
continuous_decision_tree
p415
(dp416
g2
F0.0
sg3
I67
sg4
(idecision_tree
continuous_decision_tree
p417
(dp418
g2
F0.7417395
sg3
I49
sg4
(idecision_tree
decision_tree_leaf
p419
(dp420
g7
g8
(g9
tp421
Rp422
g14
I2
sS'PKP'
p423
I1
ssg19
g14
sbsg20
(idecision_tree
decision_tree_leaf
p424
(dp425
g7
g8
(g9
tp426
Rp427
g14
I2
sS'PKP'
p428
I1
ssg19
g14
sbsbsg20
(idecision_tree
decision_tree_leaf
p429
(dp430
g7
g8
(g9
tp431
Rp432
S'PKP'
p433
I1
ssg19
g433
sbsbsbsg20
(idecision_tree
decision_tree
p434
(dp435
g3
I47
sg78
(dp436
S'14-MAY-2009'
p437
(idecision_tree
decision_tree_leaf
p438
(dp439
g7
g8
(g9
tp440
Rp441
S'Sn'
p442
I1
ssg19
g442
sbsS'27-SEP-2009'
p443
(idecision_tree
decision_tree_leaf
p444
(dp445
g7
g8
(g9
tp446
Rp447
g14
I1
ssg19
g14
sbssbsbsg20
(idecision_tree
decision_tree_leaf
p448
(dp449
g7
g8
(g9
tp450
Rp451
g14
I5
sg15
I1
sS'Pn'
p452
I1
sS'Sn'
p453
I1
sS'PKP'
p454
I1
ssg19
g14
sbsbsg20
(idecision_tree
decision_tree_leaf
p455
(dp456
g7
g8
(g9
tp457
Rp458
g15
I1
sg14
I5
sS'PKP'
p459
I1
sS'Sn'
p460
I2
ssg19
g14
sbsbsg20
(idecision_tree
continuous_decision_tree
p461
(dp462
g2
F4.0
sg3
I59
sg4
(idecision_tree
decision_tree
p463
(dp464
g3
I47
sg78
(dp465
S'26-JUL-2009'
p466
(idecision_tree
decision_tree_leaf
p467
(dp468
g7
g8
(g9
tp469
Rp470
g14
I1
ssg19
g14
sbsS'19-AUG-2009'
p471
(idecision_tree
decision_tree_leaf
p472
(dp473
g7
g8
(g9
tp474
Rp475
g15
I1
ssg19
g15
sbssbsg20
(idecision_tree
continuous_decision_tree
p476
(dp477
g2
F0.0
sg3
I67
sg4
(idecision_tree
continuous_decision_tree
p478
(dp479
g2
F0.541261
sg3
I49
sg4
(idecision_tree
decision_tree_leaf
p480
(dp481
g7
g8
(g9
tp482
Rp483
g14
I2
sg15
I1
ssg19
g14
sbsg20
(idecision_tree
decision_tree
p484
(dp485
g3
I47
sg78
(dp486
S'09-SEP-2009'
p487
(idecision_tree
decision_tree_leaf
p488
(dp489
g7
g8
(g9
tp490
Rp491
S'PKP'
p492
I1
ssg19
g492
sbsS'24-JUN-2009'
p493
(idecision_tree
decision_tree_leaf
p494
(dp495
g7
g8
(g9
tp496
Rp497
g14
I1
ssg19
g14
sbsS'26-JUL-2009'
p498
(idecision_tree
decision_tree_leaf
p499
(dp500
g7
g8
(g9
tp501
Rp502
g14
I1
ssg19
g14
sbssbsbsg20
(idecision_tree
decision_tree_leaf
p503
(dp504
g7
g8
(g9
tp505
Rp506
g15
I1
ssg19
g15
sbsbsbsbsg20
(idecision_tree
decision_tree_leaf
p507
(dp508
g7
g8
(g9
tp509
Rp510
g14
I5
sg15
I2
sS'Sn'
p511
I1
sS'Lg'
p512
I1
ssg19
g14
sbsbsg20
(idecision_tree
decision_tree_leaf
p513
(dp514
g7
g8
(g9
tp515
Rp516
S'Lg'
p517
I11
sS'PKP'
p518
I1
sg14
I31
sg15
I4
sS'Sn'
p519
I6
sS'Pn'
p520
I3
ssg19
g14
sbsbsbsbsbsbsbsb.