(idecision_tree
continuous_decision_tree
p0
(dp1
S'split_point'
p2
F8.8432
sS'attribute'
p3
I51
sS'gt_subtree'
p4
(idecision_tree
continuous_decision_tree
p5
(dp6
g2
F-2.0
sg3
I62
sg4
(idecision_tree
continuous_decision_tree
p7
(dp8
g2
F3.0
sg3
I62
sg4
(idecision_tree
continuous_decision_tree
p9
(dp10
g2
F-3.5
sg3
I66
sg4
(idecision_tree
decision_tree_leaf
p11
(dp12
S'counts'
p13
ccollections
defaultdict
p14
(c__builtin__
int
p15
tp16
Rp17
S'P'
p18
I20
sS'PKP'
p19
I1
sS'Pn'
p20
I16
sS'S'
p21
I1
sS'Sn'
p22
I1
ssS'value'
p23
g18
sbsS'lt_subtree'
p24
(idecision_tree
decision_tree
p25
(dp26
g3
I47
sS'value_to_tree'
p27
(dp28
S'20-JUL-2009'
p29
(idecision_tree
decision_tree_leaf
p30
(dp31
g13
g14
(g15
tp32
Rp33
S'Sn'
p34
I1
ssg23
g34
sbsS'25-JUL-2009'
p35
(idecision_tree
decision_tree_leaf
p36
(dp37
g13
g14
(g15
tp38
Rp39
g18
I1
ssg23
g18
sbssbsbsg24
(idecision_tree
continuous_decision_tree
p40
(dp41
g2
F-5.0
sg3
I66
sg4
(idecision_tree
continuous_decision_tree
p42
(dp43
g2
F0.0
sg3
I62
sg4
(idecision_tree
continuous_decision_tree
p44
(dp45
g2
F2.75
sg3
I59
sg4
(idecision_tree
continuous_decision_tree
p46
(dp47
g2
F-70.77275
sg3
I67
sg4
(idecision_tree
continuous_decision_tree
p48
(dp49
g2
F18.375
sg3
I63
sg4
(idecision_tree
continuous_decision_tree
p50
(dp51
g2
F-24.207700000000003
sg3
I67
sg4
(idecision_tree
continuous_decision_tree
p52
(dp53
g2
F12.08335
sg3
I59
sg4
(idecision_tree
decision_tree
p54
(dp55
g3
I47
sg27
(dp56
S'05-JUL-2009'
p57
(idecision_tree
decision_tree_leaf
p58
(dp59
g13
g14
(g15
tp60
Rp61
S'Pn'
p62
I1
ssg23
g62
sbsS'14-OCT-2009'
p63
(idecision_tree
decision_tree_leaf
p64
(dp65
g13
g14
(g15
tp66
Rp67
g18
I1
ssg23
g18
sbssbsg24
(idecision_tree
decision_tree_leaf
p68
(dp69
g13
g14
(g15
tp70
Rp71
g18
I1
ssg23
g18
sbsbsg24
(idecision_tree
decision_tree
p72
(dp73
g3
I47
sg27
(dp74
S'05-JUL-2009'
p75
(idecision_tree
decision_tree_leaf
p76
(dp77
g13
g14
(g15
tp78
Rp79
g18
I1
ssg23
g18
sbsS'07-JUL-2009'
p80
(idecision_tree
decision_tree_leaf
p81
(dp82
g13
g14
(g15
tp83
Rp84
S'Sn'
p85
I1
ssg23
g85
sbssbsbsg24
(idecision_tree
continuous_decision_tree
p86
(dp87
g2
F3.4365072
sg3
I67
sg4
(idecision_tree
continuous_decision_tree
p88
(dp89
g2
F28.8389
sg3
I67
sg4
(idecision_tree
decision_tree
p90
(dp91
g3
I47
sg27
(dp92
S'13-JUL-2009'
p93
(idecision_tree
decision_tree_leaf
p94
(dp95
g13
g14
(g15
tp96
Rp97
S'Pn'
p98
I1
ssg23
g98
sbsS'18-SEP-2009'
p99
(idecision_tree
decision_tree_leaf
p100
(dp101
g13
g14
(g15
tp102
Rp103
g18
I1
ssg23
g18
sbssbsg24
(idecision_tree
continuous_decision_tree
p104
(dp105
g2
F1.5
sg3
I66
sg4
(idecision_tree
decision_tree
p106
(dp107
g3
I47
sg27
(dp108
S'01-JUL-2009'
p109
(idecision_tree
decision_tree_leaf
p110
(dp111
g13
g14
(g15
tp112
Rp113
g21
I1
ssg23
g21
sbsS'21-AUG-2009'
p114
(idecision_tree
decision_tree_leaf
p115
(dp116
g13
g14
(g15
tp117
Rp118
g18
I1
ssg23
g18
sbssbsg24
(idecision_tree
decision_tree_leaf
p119
(dp120
g13
g14
(g15
tp121
Rp122
g18
I1
ssg23
g18
sbsbsbsg24
(idecision_tree
continuous_decision_tree
p123
(dp124
g2
F-3.0
sg3
I66
sg4
(idecision_tree
continuous_decision_tree
p125
(dp126
g2
F-22.610599999999998
sg3
I67
sg4
(idecision_tree
decision_tree_leaf
p127
(dp128
g13
g14
(g15
tp129
Rp130
g18
I2
sg21
I1
ssg23
g18
sbsg24
(idecision_tree
decision_tree
p131
(dp132
g3
I47
sg27
(dp133
S'20-MAR-2009'
p134
(idecision_tree
decision_tree_leaf
p135
(dp136
g13
g14
(g15
tp137
Rp138
S'Sn'
p139
I1
ssg23
g139
sbsS'17-JUL-2009'
p140
(idecision_tree
decision_tree_leaf
p141
(dp142
g13
g14
(g15
tp143
Rp144
g18
I1
ssg23
g18
sbssbsbsg24
(idecision_tree
decision_tree
p145
(dp146
g3
I47
sg27
(dp147
S'06-JUL-2009'
p148
(idecision_tree
decision_tree_leaf
p149
(dp150
g13
g14
(g15
tp151
Rp152
S'Pn'
p153
I1
ssg23
g153
sbsS'09-OCT-2009'
p154
(idecision_tree
decision_tree_leaf
p155
(dp156
g13
g14
(g15
tp157
Rp158
g18
I1
ssg23
g18
sbssbsbsbsbsg24
(idecision_tree
continuous_decision_tree
p159
(dp160
g2
F-2.5
sg3
I66
sg4
(idecision_tree
decision_tree_leaf
p161
(dp162
g13
g14
(g15
tp163
Rp164
g18
I2
sg21
I1
ssg23
g18
sbsg24
(idecision_tree
decision_tree
p165
(dp166
g3
I47
sg27
(dp167
S'01-JUL-2009'
p168
(idecision_tree
decision_tree_leaf
p169
(dp170
g13
g14
(g15
tp171
Rp172
g18
I1
ssg23
g18
sbsS'17-JUL-2009'
p173
(idecision_tree
decision_tree_leaf
p174
(dp175
g13
g14
(g15
tp176
Rp177
S'Pn'
p178
I1
ssg23
g178
sbssbsbsbsg24
(idecision_tree
continuous_decision_tree
p179
(dp180
g2
F5.0
sg3
I66
sg4
(idecision_tree
continuous_decision_tree
p181
(dp182
g2
F28.9238
sg3
I67
sg4
(idecision_tree
continuous_decision_tree
p183
(dp184
g2
F49.642849999999996
sg3
I67
sg4
(idecision_tree
decision_tree
p185
(dp186
g3
I47
sg27
(dp187
S'12-JUL-2009'
p188
(idecision_tree
decision_tree_leaf
p189
(dp190
g13
g14
(g15
tp191
Rp192
S'Sn'
p193
I1
ssg23
g193
sbsS'15-JUL-2009'
p194
(idecision_tree
decision_tree_leaf
p195
(dp196
g13
g14
(g15
tp197
Rp198
g18
I1
ssg23
g18
sbssbsg24
(idecision_tree
decision_tree_leaf
p199
(dp200
g13
g14
(g15
tp201
Rp202
g18
I1
ssg23
g18
sbsbsg24
(idecision_tree
continuous_decision_tree
p203
(dp204
g2
F7.0
sg3
I66
sg4
(idecision_tree
decision_tree
p205
(dp206
g3
I47
sg27
(dp207
S'16-JUL-2009'
p208
(idecision_tree
decision_tree_leaf
p209
(dp210
g13
g14
(g15
tp211
Rp212
g18
I1
ssg23
g18
sbsS'02-JUL-2009'
p213
(idecision_tree
decision_tree_leaf
p214
(dp215
g13
g14
(g15
tp216
Rp217
S'Pn'
p218
I1
ssg23
g218
sbssbsg24
(idecision_tree
decision_tree_leaf
p219
(dp220
g13
g14
(g15
tp221
Rp222
g18
I1
ssg23
g18
sbsbsbsg24
(idecision_tree
continuous_decision_tree
p223
(dp224
g2
F0.5
sg3
I66
sg4
(idecision_tree
continuous_decision_tree
p225
(dp226
g2
F2.5
sg3
I66
sg4
(idecision_tree
decision_tree_leaf
p227
(dp228
g13
g14
(g15
tp229
Rp230
g18
I4
sS'Pn'
p231
I1
sS'Sn'
p232
I2
ssg23
g18
sbsg24
(idecision_tree
continuous_decision_tree
p233
(dp234
g2
F82.33335
sg3
I67
sg4
(idecision_tree
decision_tree
p235
(dp236
g3
I47
sg27
(dp237
S'16-OCT-2009'
p238
(idecision_tree
decision_tree_leaf
p239
(dp240
g13
g14
(g15
tp241
Rp242
S'Sn'
p243
I1
ssg23
g243
sbsS'18-JUL-2009'
p244
(idecision_tree
decision_tree_leaf
p245
(dp246
g13
g14
(g15
tp247
Rp248
g18
I1
ssg23
g18
sbssbsg24
(idecision_tree
decision_tree_leaf
p249
(dp250
g13
g14
(g15
tp251
Rp252
g18
I3
sg21
I2
ssg23
g18
sbsbsbsg24
(idecision_tree
continuous_decision_tree
p253
(dp254
g2
F-3.0
sg3
I66
sg4
(idecision_tree
decision_tree_leaf
p255
(dp256
g13
g14
(g15
tp257
Rp258
g18
I3
sg21
I1
sS'Pn'
p259
I1
sS'Sn'
p260
I1
ssg23
g18
sbsg24
(idecision_tree
decision_tree_leaf
p261
(dp262
g13
g14
(g15
tp263
Rp264
g18
I1
ssg23
g18
sbsbsbsbsbsg24
(idecision_tree
continuous_decision_tree
p265
(dp266
g2
F-60.066649999999996
sg3
I67
sg4
(idecision_tree
continuous_decision_tree
p267
(dp268
g2
F-36.7121
sg3
I67
sg4
(idecision_tree
decision_tree_leaf
p269
(dp270
g13
g14
(g15
tp271
Rp272
g18
I16
sg21
I1
sS'Pn'
p273
I8
sS'Sn'
p274
I7
ssg23
g18
sbsg24
(idecision_tree
decision_tree
p275
(dp276
g3
I47
sg27
(dp277
S'15-JUL-2009'
p278
(idecision_tree
decision_tree_leaf
p279
(dp280
g13
g14
(g15
tp281
Rp282
g18
I1
ssg23
g18
sbsS'02-JUL-2009'
p283
(idecision_tree
decision_tree_leaf
p284
(dp285
g13
g14
(g15
tp286
Rp287
S'Pn'
p288
I1
ssg23
g288
sbssbsbsg24
(idecision_tree
decision_tree_leaf
p289
(dp290
g13
g14
(g15
tp291
Rp292
g18
I1
sg21
I1
sS'Sn'
p293
I2
ssg23
g293
sbsbsbsg24
(idecision_tree
continuous_decision_tree
p294
(dp295
g2
F-17.77065
sg3
I67
sg4
(idecision_tree
continuous_decision_tree
p296
(dp297
g2
F-3.9523600000000005
sg3
I67
sg4
(idecision_tree
decision_tree
p298
(dp299
g3
I47
sg27
(dp300
S'24-JUL-2009'
p301
(idecision_tree
decision_tree_leaf
p302
(dp303
g13
g14
(g15
tp304
Rp305
S'Pn'
p306
I1
ssg23
g306
sbsS'07-JUL-2009'
p307
(idecision_tree
decision_tree_leaf
p308
(dp309
g13
g14
(g15
tp310
Rp311
g18
I1
ssg23
g18
sbssbsg24
(idecision_tree
decision_tree_leaf
p312
(dp313
g13
g14
(g15
tp314
Rp315
g18
I1
ssg23
g18
sbsbsg24
(idecision_tree
continuous_decision_tree
p316
(dp317
g2
F-8.0
sg3
I66
sg4
(idecision_tree
continuous_decision_tree
p318
(dp319
g2
F-7.5
sg3
I66
sg4
(idecision_tree
decision_tree_leaf
p320
(dp321
g13
g14
(g15
tp322
Rp323
g18
I3
sg21
I1
sS'Sn'
p324
I1
ssg23
g18
sbsg24
(idecision_tree
decision_tree
p325
(dp326
g3
I47
sg27
(dp327
S'28-JUL-2009'
p328
(idecision_tree
decision_tree_leaf
p329
(dp330
g13
g14
(g15
tp331
Rp332
g18
I1
ssg23
g18
sbsS'04-JUL-2009'
p333
(idecision_tree
decision_tree_leaf
p334
(dp335
g13
g14
(g15
tp336
Rp337
g21
I1
ssg23
g21
sbssbsbsg24
(idecision_tree
decision_tree_leaf
p338
(dp339
g13
g14
(g15
tp340
Rp341
g18
I2
ssg23
g18
sbsbsbsbsbsg24
(idecision_tree
decision_tree_leaf
p342
(dp343
g13
g14
(g15
tp344
Rp345
g18
I17
sg21
I5
sS'Pn'
p346
I6
sS'Sn'
p347
I8
ssg23
g18
sbsbsg24
(idecision_tree
continuous_decision_tree
p348
(dp349
g2
F-43.0
sg3
I63
sg4
(idecision_tree
continuous_decision_tree
p350
(dp351
g2
F17.37645
sg3
I30
sg4
(idecision_tree
continuous_decision_tree
p352
(dp353
g2
F49.02975
sg3
I44
sg4
(idecision_tree
continuous_decision_tree
p354
(dp355
g2
F2.006335
sg3
I51
sg4
(idecision_tree
continuous_decision_tree
p356
(dp357
g2
F2.0
sg3
I58
sg4
(idecision_tree
continuous_decision_tree
p358
(dp359
g2
F4.5
sg3
I66
sg4
(idecision_tree
continuous_decision_tree
p360
(dp361
g2
F53.5875
sg3
I63
sg4
(idecision_tree
decision_tree
p362
(dp363
g3
I47
sg27
(dp364
S'18-JAN-2009'
p365
(idecision_tree
decision_tree_leaf
p366
(dp367
g13
g14
(g15
tp368
Rp369
S'Pn'
p370
I1
ssg23
g370
sbsS'25-NOV-2009'
p371
(idecision_tree
decision_tree_leaf
p372
(dp373
g13
g14
(g15
tp374
Rp375
g18
I1
ssg23
g18
sbssbsg24
(idecision_tree
decision_tree_leaf
p376
(dp377
g13
g14
(g15
tp378
Rp379
g18
I5
sS'Pn'
p380
I4
ssg23
g18
sbsbsg24
(idecision_tree
continuous_decision_tree
p381
(dp382
g2
F-186.79149999999998
sg3
I67
sg4
(idecision_tree
continuous_decision_tree
p383
(dp384
g2
F-91.66665
sg3
I67
sg4
(idecision_tree
decision_tree_leaf
p385
(dp386
g13
g14
(g15
tp387
Rp388
g18
I3
sS'Pn'
p389
I2
ssg23
g18
sbsg24
(idecision_tree
decision_tree
p390
(dp391
g3
I47
sg27
(dp392
S'18-JUN-2009'
p393
(idecision_tree
decision_tree_leaf
p394
(dp395
g13
g14
(g15
tp396
Rp397
g18
I1
ssg23
g18
sbsS'09-SEP-2009'
p398
(idecision_tree
decision_tree_leaf
p399
(dp400
g13
g14
(g15
tp401
Rp402
S'Pn'
p403
I1
ssg23
g403
sbssbsbsg24
(idecision_tree
decision_tree
p404
(dp405
g3
I47
sg27
(dp406
S'29-MAY-2009'
p407
(idecision_tree
decision_tree_leaf
p408
(dp409
g13
g14
(g15
tp410
Rp411
S'Pn'
p412
I1
ssg23
g412
sbsS'03-NOV-2009'
p413
(idecision_tree
decision_tree_leaf
p414
(dp415
g13
g14
(g15
tp416
Rp417
g18
I1
ssg23
g18
sbssbsbsbsg24
(idecision_tree
continuous_decision_tree
p418
(dp419
g2
F226.5895
sg3
I67
sg4
(idecision_tree
decision_tree
p420
(dp421
g3
I47
sg27
(dp422
S'13-AUG-2009'
p423
(idecision_tree
decision_tree_leaf
p424
(dp425
g13
g14
(g15
tp426
Rp427
g18
I1
ssg23
g18
sbsS'14-DEC-2009'
p428
(idecision_tree
decision_tree_leaf
p429
(dp430
g13
g14
(g15
tp431
Rp432
S'Pn'
p433
I1
ssg23
g433
sbssbsg24
(idecision_tree
continuous_decision_tree
p434
(dp435
g2
F192.79149999999998
sg3
I67
sg4
(idecision_tree
decision_tree
p436
(dp437
g3
I47
sg27
(dp438
S'09-JUN-2009'
p439
(idecision_tree
decision_tree_leaf
p440
(dp441
g13
g14
(g15
tp442
Rp443
S'Pn'
p444
I1
ssg23
g444
sbsS'19-MAR-2009'
p445
(idecision_tree
decision_tree_leaf
p446
(dp447
g13
g14
(g15
tp448
Rp449
g18
I1
ssg23
g18
sbssbsg24
(idecision_tree
continuous_decision_tree
p450
(dp451
g2
F138.309
sg3
I67
sg4
(idecision_tree
decision_tree
p452
(dp453
g3
I47
sg27
(dp454
S'03-OCT-2009'
p455
(idecision_tree
decision_tree_leaf
p456
(dp457
g13
g14
(g15
tp458
Rp459
S'Pn'
p460
I1
ssg23
g460
sbsS'07-DEC-2009'
p461
(idecision_tree
decision_tree_leaf
p462
(dp463
g13
g14
(g15
tp464
Rp465
g18
I1
ssg23
g18
sbssbsg24
(idecision_tree
continuous_decision_tree
p466
(dp467
g2
F4.24525
sg3
I51
sg4
(idecision_tree
decision_tree
p468
(dp469
g3
I47
sg27
(dp470
S'23-JAN-2009'
p471
(idecision_tree
decision_tree_leaf
p472
(dp473
g13
g14
(g15
tp474
Rp475
g18
I1
ssg23
g18
sbsS'30-SEP-2009'
p476
(idecision_tree
decision_tree_leaf
p477
(dp478
g13
g14
(g15
tp479
Rp480
S'Pn'
p481
I1
ssg23
g481
sbssbsg24
(idecision_tree
continuous_decision_tree
p482
(dp483
g2
F5.0
sg3
I66
sg4
(idecision_tree
decision_tree
p484
(dp485
g3
I47
sg27
(dp486
S'21-APR-2009'
p487
(idecision_tree
decision_tree_leaf
p488
(dp489
g13
g14
(g15
tp490
Rp491
S'Pn'
p492
I1
ssg23
g492
sbsS'31-OCT-2009'
p493
(idecision_tree
decision_tree_leaf
p494
(dp495
g13
g14
(g15
tp496
Rp497
g18
I1
ssg23
g18
sbssbsg24
(idecision_tree
continuous_decision_tree
p498
(dp499
g2
F3.0
sg3
I66
sg4
(idecision_tree
continuous_decision_tree
p500
(dp501
g2
F2.5104000000000006
sg3
I67
sg4
(idecision_tree
decision_tree
p502
(dp503
g3
I47
sg27
(dp504
S'04-MAR-2009'
p505
(idecision_tree
decision_tree_leaf
p506
(dp507
g13
g14
(g15
tp508
Rp509
S'Pn'
p510
I1
ssg23
g510
sbsS'21-APR-2009'
p511
(idecision_tree
decision_tree_leaf
p512
(dp513
g13
g14
(g15
tp514
Rp515
g18
I1
ssg23
g18
sbssbsg24
(idecision_tree
decision_tree_leaf
p516
(dp517
g13
g14
(g15
tp518
Rp519
S'Pn'
p520
I1
ssg23
g520
sbsbsg24
(idecision_tree
continuous_decision_tree
p521
(dp522
g2
F-15.0
sg3
I67
sg4
(idecision_tree
continuous_decision_tree
p523
(dp524
g2
F-0.5
sg3
I62
sg4
(idecision_tree
continuous_decision_tree
p525
(dp526
g2
F3.350335
sg3
I51
sg4
(idecision_tree
decision_tree
p527
(dp528
g3
I47
sg27
(dp529
S'29-SEP-2009'
p530
(idecision_tree
decision_tree_leaf
p531
(dp532
g13
g14
(g15
tp533
Rp534
g18
I1
ssg23
g18
sbsS'25-MAY-2009'
p535
(idecision_tree
decision_tree_leaf
p536
(dp537
g13
g14
(g15
tp538
Rp539
S'Pn'
p540
I1
ssg23
g540
sbssbsg24
(idecision_tree
continuous_decision_tree
p541
(dp542
g2
F0.9184824999999999
sg3
I50
sg4
(idecision_tree
continuous_decision_tree
p543
(dp544
g2
F0.5
sg3
I66
sg4
(idecision_tree
decision_tree
p545
(dp546
g3
I47
sg27
(dp547
S'12-OCT-2009'
p548
(idecision_tree
decision_tree_leaf
p549
(dp550
g13
g14
(g15
tp551
Rp552
S'Pn'
p553
I1
ssg23
g553
sbsS'29-OCT-2009'
p554
(idecision_tree
decision_tree_leaf
p555
(dp556
g13
g14
(g15
tp557
Rp558
g18
I1
ssg23
g18
sbssbsg24
(idecision_tree
continuous_decision_tree
p559
(dp560
g2
F0.61008
sg3
I52
sg4
(idecision_tree
decision_tree
p561
(dp562
g3
I47
sg27
(dp563
S'27-AUG-2009'
p564
(idecision_tree
decision_tree_leaf
p565
(dp566
g13
g14
(g15
tp567
Rp568
g18
I1
ssg23
g18
sbsS'08-APR-2009'
p569
(idecision_tree
decision_tree_leaf
p570
(dp571
g13
g14
(g15
tp572
Rp573
S'Pn'
p574
I1
ssg23
g574
sbssbsg24
(idecision_tree
decision_tree_leaf
p575
(dp576
g13
g14
(g15
tp577
Rp578
g18
I1
ssg23
g18
sbsbsbsg24
(idecision_tree
decision_tree
p579
(dp580
g3
I47
sg27
(dp581
S'04-MAY-2009'
p582
(idecision_tree
decision_tree_leaf
p583
(dp584
g13
g14
(g15
tp585
Rp586
g18
I1
ssg23
g18
sbsS'01-MAY-2009'
p587
(idecision_tree
decision_tree_leaf
p588
(dp589
g13
g14
(g15
tp590
Rp591
S'Pn'
p592
I1
ssg23
g592
sbssbsbsbsg24
(idecision_tree
decision_tree
p593
(dp594
g3
I47
sg27
(dp595
S'29-SEP-2009'
p596
(idecision_tree
decision_tree_leaf
p597
(dp598
g13
g14
(g15
tp599
Rp600
g18
I1
ssg23
g18
sbsS'01-MAR-2009'
p601
(idecision_tree
decision_tree_leaf
p602
(dp603
g13
g14
(g15
tp604
Rp605
S'Pn'
p606
I1
ssg23
g606
sbssbsbsg24
(idecision_tree
continuous_decision_tree
p607
(dp608
g2
F-1.0
sg3
I62
sg4
(idecision_tree
continuous_decision_tree
p609
(dp610
g2
F-73.5
sg3
I67
sg4
(idecision_tree
decision_tree
p611
(dp612
g3
I47
sg27
(dp613
S'07-MAY-2009'
p614
(idecision_tree
decision_tree_leaf
p615
(dp616
g13
g14
(g15
tp617
Rp618
g18
I1
ssg23
g18
sbsS'07-JUN-2009'
p619
(idecision_tree
decision_tree_leaf
p620
(dp621
g13
g14
(g15
tp622
Rp623
S'Pn'
p624
I1
ssg23
g624
sbssbsg24
(idecision_tree
continuous_decision_tree
p625
(dp626
g2
F-1.916665
sg3
I63
sg4
(idecision_tree
continuous_decision_tree
p627
(dp628
g2
F2.19969
sg3
I50
sg4
(idecision_tree
decision_tree
p629
(dp630
g3
I47
sg27
(dp631
S'04-DEC-2009'
p632
(idecision_tree
decision_tree_leaf
p633
(dp634
g13
g14
(g15
tp635
Rp636
g18
I1
ssg23
g18
sbsS'11-OCT-2009'
p637
(idecision_tree
decision_tree_leaf
p638
(dp639
g13
g14
(g15
tp640
Rp641
S'Pn'
p642
I1
ssg23
g642
sbssbsg24
(idecision_tree
decision_tree
p643
(dp644
g3
I47
sg27
(dp645
S'14-FEB-2009'
p646
(idecision_tree
decision_tree_leaf
p647
(dp648
g13
g14
(g15
tp649
Rp650
g18
I1
ssg23
g18
sbsS'16-FEB-2009'
p651
(idecision_tree
decision_tree_leaf
p652
(dp653
g13
g14
(g15
tp654
Rp655
S'Pn'
p656
I1
ssg23
g656
sbssbsbsg24
(idecision_tree
decision_tree
p657
(dp658
g3
I47
sg27
(dp659
S'21-APR-2009'
p660
(idecision_tree
decision_tree_leaf
p661
(dp662
g13
g14
(g15
tp663
Rp664
S'Pn'
p665
I1
ssg23
g665
sbsS'30-NOV-2009'
p666
(idecision_tree
decision_tree_leaf
p667
(dp668
g13
g14
(g15
tp669
Rp670
g18
I1
ssg23
g18
sbssbsbsbsg24
(idecision_tree
decision_tree_leaf
p671
(dp672
g13
g14
(g15
tp673
Rp674
g18
I1
ssg23
g18
sbsbsbsbsbsbsbsbsbsbsg24
(idecision_tree
continuous_decision_tree
p675
(dp676
g2
F36.7923
sg3
I7
sg4
(idecision_tree
continuous_decision_tree
p677
(dp678
g2
F0.0
sg3
I62
sg4
(idecision_tree
continuous_decision_tree
p679
(dp680
g2
F27.025
sg3
I67
sg4
(idecision_tree
continuous_decision_tree
p681
(dp682
g2
F7.0
sg3
I62
sg4
(idecision_tree
decision_tree_leaf
p683
(dp684
g13
g14
(g15
tp685
Rp686
g18
I1
sS'Pn'
p687
I2
ssg23
g687
sbsg24
(idecision_tree
decision_tree_leaf
p688
(dp689
g13
g14
(g15
tp690
Rp691
g18
I8
sS'Pn'
p692
I6
ssg23
g18
sbsbsg24
(idecision_tree
continuous_decision_tree
p693
(dp694
g2
F15.83335
sg3
I59
sg4
(idecision_tree
continuous_decision_tree
p695
(dp696
g2
F22.7
sg3
I67
sg4
(idecision_tree
decision_tree
p697
(dp698
g3
I47
sg27
(dp699
S'14-FEB-2009'
p700
(idecision_tree
decision_tree_leaf
p701
(dp702
g13
g14
(g15
tp703
Rp704
g18
I1
ssg23
g18
sbsS'16-FEB-2009'
p705
(idecision_tree
decision_tree_leaf
p706
(dp707
g13
g14
(g15
tp708
Rp709
S'Pn'
p710
I1
ssg23
g710
sbssbsg24
(idecision_tree
continuous_decision_tree
p711
(dp712
g2
F1.5
sg3
I62
sg4
(idecision_tree
continuous_decision_tree
p713
(dp714
g2
F1.0
sg3
I66
sg4
(idecision_tree
decision_tree_leaf
p715
(dp716
g13
g14
(g15
tp717
Rp718
g18
I5
sS'Pn'
p719
I5
ssg23
g18
sbsg24
(idecision_tree
decision_tree_leaf
p720
(dp721
g13
g14
(g15
tp722
Rp723
g18
I1
ssg23
g18
sbsbsg24
(idecision_tree
decision_tree
p724
(dp725
g3
I47
sg27
(dp726
S'07-JAN-2009'
p727
(idecision_tree
decision_tree_leaf
p728
(dp729
g13
g14
(g15
tp730
Rp731
g18
I1
ssg23
g18
sbsS'04-JUN-2009'
p732
(idecision_tree
decision_tree_leaf
p733
(dp734
g13
g14
(g15
tp735
Rp736
S'Pn'
p737
I1
ssg23
g737
sbssbsbsbsg24
(idecision_tree
continuous_decision_tree
p738
(dp739
g2
F-155.00900000000001
sg3
I67
sg4
(idecision_tree
continuous_decision_tree
p740
(dp741
g2
F0.0
sg3
I66
sg4
(idecision_tree
decision_tree_leaf
p742
(dp743
g13
g14
(g15
tp744
Rp745
g18
I7
sS'Pn'
p746
I7
ssg23
g18
sbsg24
(idecision_tree
decision_tree_leaf
p747
(dp748
g13
g14
(g15
tp749
Rp750
g18
I1
ssg23
g18
sbsbsg24
(idecision_tree
decision_tree
p751
(dp752
g3
I47
sg27
(dp753
S'27-APR-2009'
p754
(idecision_tree
decision_tree_leaf
p755
(dp756
g13
g14
(g15
tp757
Rp758
S'Pn'
p759
I1
ssg23
g759
sbsS'10-OCT-2009'
p760
(idecision_tree
decision_tree_leaf
p761
(dp762
g13
g14
(g15
tp763
Rp764
g18
I1
ssg23
g18
sbssbsbsbsbsg24
(idecision_tree
continuous_decision_tree
p765
(dp766
g2
F1.902875
sg3
I50
sg4
(idecision_tree
decision_tree
p767
(dp768
g3
I47
sg27
(dp769
S'17-FEB-2009'
p770
(idecision_tree
decision_tree_leaf
p771
(dp772
g13
g14
(g15
tp773
Rp774
g18
I1
ssg23
g18
sbsS'29-JUL-2009'
p775
(idecision_tree
decision_tree_leaf
p776
(dp777
g13
g14
(g15
tp778
Rp779
S'Pn'
p780
I1
ssg23
g780
sbssbsg24
(idecision_tree
decision_tree
p781
(dp782
g3
I47
sg27
(dp783
S'11-JUN-2009'
p784
(idecision_tree
decision_tree_leaf
p785
(dp786
g13
g14
(g15
tp787
Rp788
g18
I1
ssg23
g18
sbsS'01-OCT-2009'
p789
(idecision_tree
decision_tree_leaf
p790
(dp791
g13
g14
(g15
tp792
Rp793
S'Pn'
p794
I1
ssg23
g794
sbssbsbsbsg24
(idecision_tree
continuous_decision_tree
p795
(dp796
g2
F1.693895
sg3
I52
sg4
(idecision_tree
continuous_decision_tree
p797
(dp798
g2
F-123.5835
sg3
I67
sg4
(idecision_tree
decision_tree_leaf
p799
(dp800
g13
g14
(g15
tp801
Rp802
g18
I8
sS'Pn'
p803
I7
ssg23
g18
sbsg24
(idecision_tree
decision_tree
p804
(dp805
g3
I47
sg27
(dp806
S'05-OCT-2009'
p807
(idecision_tree
decision_tree_leaf
p808
(dp809
g13
g14
(g15
tp810
Rp811
g18
I1
ssg23
g18
sbsS'03-MAY-2009'
p812
(idecision_tree
decision_tree_leaf
p813
(dp814
g13
g14
(g15
tp815
Rp816
S'Pn'
p817
I1
ssg23
g817
sbssbsbsg24
(idecision_tree
continuous_decision_tree
p818
(dp819
g2
F-35.816649999999996
sg3
I67
sg4
(idecision_tree
continuous_decision_tree
p820
(dp821
g2
F1.3321749999999999
sg3
I51
sg4
(idecision_tree
continuous_decision_tree
p822
(dp823
g2
F5.0
sg3
I66
sg4
(idecision_tree
decision_tree_leaf
p824
(dp825
g13
g14
(g15
tp826
Rp827
g18
I1
sS'Pn'
p828
I2
ssg23
g828
sbsg24
(idecision_tree
continuous_decision_tree
p829
(dp830
g2
F0.925948
sg3
I36
sg4
(idecision_tree
continuous_decision_tree
p831
(dp832
g2
F-2.791665
sg3
I67
sg4
(idecision_tree
continuous_decision_tree
p833
(dp834
g2
F18.825
sg3
I67
sg4
(idecision_tree
continuous_decision_tree
p835
(dp836
g2
F42.625
sg3
I67
sg4
(idecision_tree
decision_tree
p837
(dp838
g3
I47
sg27
(dp839
S'17-JAN-2009'
p840
(idecision_tree
decision_tree_leaf
p841
(dp842
g13
g14
(g15
tp843
Rp844
S'Pg'
p845
I1
ssg23
g845
sbsS'01-MAY-2009'
p846
(idecision_tree
decision_tree_leaf
p847
(dp848
g13
g14
(g15
tp849
Rp850
g18
I1
ssg23
g18
sbssbsg24
(idecision_tree
decision_tree_leaf
p851
(dp852
g13
g14
(g15
tp853
Rp854
g18
I1
ssg23
g18
sbsbsg24
(idecision_tree
decision_tree
p855
(dp856
g3
I47
sg27
(dp857
S'25-MAR-2009'
p858
(idecision_tree
decision_tree_leaf
p859
(dp860
g13
g14
(g15
tp861
Rp862
S'Pn'
p863
I1
ssg23
g863
sbsS'13-NOV-2009'
p864
(idecision_tree
decision_tree_leaf
p865
(dp866
g13
g14
(g15
tp867
Rp868
g18
I1
ssg23
g18
sbssbsbsg24
(idecision_tree
decision_tree
p869
(dp870
g3
I47
sg27
(dp871
S'25-MAR-2009'
p872
(idecision_tree
decision_tree_leaf
p873
(dp874
g13
g14
(g15
tp875
Rp876
S'Pn'
p877
I1
ssg23
g877
sbsS'15-SEP-2009'
p878
(idecision_tree
decision_tree_leaf
p879
(dp880
g13
g14
(g15
tp881
Rp882
g18
I1
ssg23
g18
sbssbsbsg24
(idecision_tree
decision_tree_leaf
p883
(dp884
g13
g14
(g15
tp885
Rp886
g18
I4
sS'Pn'
p887
I3
ssg23
g18
sbsbsbsg24
(idecision_tree
decision_tree_leaf
p888
(dp889
g13
g14
(g15
tp890
Rp891
g18
I10
sS'Pn'
p892
I9
ssg23
g18
sbsbsg24
(idecision_tree
continuous_decision_tree
p893
(dp894
g2
F1.772605
sg3
I51
sg4
(idecision_tree
decision_tree
p895
(dp896
g3
I47
sg27
(dp897
S'22-JAN-2009'
p898
(idecision_tree
decision_tree_leaf
p899
(dp900
g13
g14
(g15
tp901
Rp902
g18
I1
ssg23
g18
sbsS'09-OCT-2009'
p903
(idecision_tree
decision_tree_leaf
p904
(dp905
g13
g14
(g15
tp906
Rp907
S'Pn'
p908
I1
ssg23
g908
sbssbsg24
(idecision_tree
decision_tree_leaf
p909
(dp910
g13
g14
(g15
tp911
Rp912
g18
I8
sS'Pn'
p913
I7
ssg23
g18
sbsbsbsbsbsbsg24
(idecision_tree
continuous_decision_tree
p914
(dp915
g2
F25.0
sg3
I63
sg4
(idecision_tree
decision_tree_leaf
p916
(dp917
g13
g14
(g15
tp918
Rp919
g18
I9
sS'Pn'
p920
I8
ssg23
g18
sbsg24
(idecision_tree
continuous_decision_tree
p921
(dp922
g2
F0.5
sg3
I66
sg4
(idecision_tree
decision_tree_leaf
p923
(dp924
g13
g14
(g15
tp925
Rp926
g18
I9
sS'Pn'
p927
I8
ssg23
g18
sbsg24
(idecision_tree
continuous_decision_tree
p928
(dp929
g2
F-4.0
sg3
I66
sg4
(idecision_tree
continuous_decision_tree
p930
(dp931
g2
F-83.96965
sg3
I67
sg4
(idecision_tree
continuous_decision_tree
p932
(dp933
g2
F-28.3125
sg3
I67
sg4
(idecision_tree
continuous_decision_tree
p934
(dp935
g2
F-5.5
sg3
I67
sg4
(idecision_tree
continuous_decision_tree
p936
(dp937
g2
F0.722431
sg3
I52
sg4
(idecision_tree
continuous_decision_tree
p938
(dp939
g2
F0.987908
sg3
I50
sg4
(idecision_tree
decision_tree
p940
(dp941
g3
I47
sg27
(dp942
S'21-JAN-2009'
p943
(idecision_tree
decision_tree_leaf
p944
(dp945
g13
g14
(g15
tp946
Rp947
S'Pn'
p948
I1
ssg23
g948
sbsS'26-AUG-2009'
p949
(idecision_tree
decision_tree_leaf
p950
(dp951
g13
g14
(g15
tp952
Rp953
g18
I1
ssg23
g18
sbssbsg24
(idecision_tree
decision_tree
p954
(dp955
g3
I47
sg27
(dp956
S'12-FEB-2009'
p957
(idecision_tree
decision_tree_leaf
p958
(dp959
g13
g14
(g15
tp960
Rp961
S'Pn'
p962
I1
ssg23
g962
sbsS'16-MAY-2009'
p963
(idecision_tree
decision_tree_leaf
p964
(dp965
g13
g14
(g15
tp966
Rp967
g18
I1
ssg23
g18
sbssbsbsg24
(idecision_tree
decision_tree
p968
(dp969
g3
I47
sg27
(dp970
S'04-OCT-2009'
p971
(idecision_tree
decision_tree_leaf
p972
(dp973
g13
g14
(g15
tp974
Rp975
g18
I1
ssg23
g18
sbsS'28-JAN-2009'
p976
(idecision_tree
decision_tree_leaf
p977
(dp978
g13
g14
(g15
tp979
Rp980
S'Pn'
p981
I1
ssg23
g981
sbssbsbsg24
(idecision_tree
continuous_decision_tree
p982
(dp983
g2
F-1.5
sg3
I66
sg4
(idecision_tree
decision_tree
p984
(dp985
g3
I47
sg27
(dp986
S'25-APR-2009'
p987
(idecision_tree
decision_tree_leaf
p988
(dp989
g13
g14
(g15
tp990
Rp991
S'Pn'
p992
I1
ssg23
g992
sbsS'23-FEB-2009'
p993
(idecision_tree
decision_tree_leaf
p994
(dp995
g13
g14
(g15
tp996
Rp997
g18
I1
ssg23
g18
sbssbsg24
(idecision_tree
decision_tree
p998
(dp999
g3
I47
sg27
(dp1000
S'28-NOV-2009'
p1001
(idecision_tree
decision_tree_leaf
p1002
(dp1003
g13
g14
(g15
tp1004
Rp1005
S'Pn'
p1006
I1
ssg23
g1006
sbsS'12-FEB-2009'
p1007
(idecision_tree
decision_tree_leaf
p1008
(dp1009
g13
g14
(g15
tp1010
Rp1011
g18
I1
ssg23
g18
sbssbsbsbsg24
(idecision_tree
decision_tree
p1012
(dp1013
g3
I47
sg27
(dp1014
S'29-JAN-2009'
p1015
(idecision_tree
decision_tree_leaf
p1016
(dp1017
g13
g14
(g15
tp1018
Rp1019
g18
I1
ssg23
g18
sbsS'22-JAN-2009'
p1020
(idecision_tree
decision_tree_leaf
p1021
(dp1022
g13
g14
(g15
tp1023
Rp1024
S'Pn'
p1025
I1
ssg23
g1025
sbssbsbsg24
(idecision_tree
continuous_decision_tree
p1026
(dp1027
g2
F11.5
sg3
I63
sg4
(idecision_tree
decision_tree
p1028
(dp1029
g3
I47
sg27
(dp1030
S'14-MAY-2009'
p1031
(idecision_tree
decision_tree_leaf
p1032
(dp1033
g13
g14
(g15
tp1034
Rp1035
S'Pn'
p1036
I1
ssg23
g1036
sbsS'26-APR-2009'
p1037
(idecision_tree
decision_tree_leaf
p1038
(dp1039
g13
g14
(g15
tp1040
Rp1041
g18
I1
ssg23
g18
sbssbsg24
(idecision_tree
continuous_decision_tree
p1042
(dp1043
g2
F0.7420644999999999
sg3
I50
sg4
(idecision_tree
decision_tree
p1044
(dp1045
g3
I47
sg27
(dp1046
S'27-JUL-2009'
p1047
(idecision_tree
decision_tree_leaf
p1048
(dp1049
g13
g14
(g15
tp1050
Rp1051
S'Pn'
p1052
I1
ssg23
g1052
sbsS'10-AUG-2009'
p1053
(idecision_tree
decision_tree_leaf
p1054
(dp1055
g13
g14
(g15
tp1056
Rp1057
g18
I1
ssg23
g18
sbssbsg24
(idecision_tree
decision_tree
p1058
(dp1059
g3
I47
sg27
(dp1060
S'17-APR-2009'
p1061
(idecision_tree
decision_tree_leaf
p1062
(dp1063
g13
g14
(g15
tp1064
Rp1065
g18
I1
ssg23
g18
sbsS'07-AUG-2009'
p1066
(idecision_tree
decision_tree_leaf
p1067
(dp1068
g13
g14
(g15
tp1069
Rp1070
S'Pn'
p1071
I1
ssg23
g1071
sbssbsbsbsbsg24
(idecision_tree
decision_tree_leaf
p1072
(dp1073
g13
g14
(g15
tp1074
Rp1075
g18
I1
ssg23
g18
sbsbsbsbsbsg24
(idecision_tree
continuous_decision_tree
p1076
(dp1077
g2
F-57.3333
sg3
I67
sg4
(idecision_tree
continuous_decision_tree
p1078
(dp1079
g2
F46.7857
sg3
I63
sg4
(idecision_tree
continuous_decision_tree
p1080
(dp1081
g2
F262.0705
sg3
I43
sg4
(idecision_tree
continuous_decision_tree
p1082
(dp1083
g2
F1.5
sg3
I62
sg4
(idecision_tree
continuous_decision_tree
p1084
(dp1085
g2
F6.071449999999999
sg3
I67
sg4
(idecision_tree
continuous_decision_tree
p1086
(dp1087
g2
F51.4281
sg3
I67
sg4
(idecision_tree
continuous_decision_tree
p1088
(dp1089
g2
F1.0
sg3
I53
sg4
(idecision_tree
decision_tree_leaf
p1090
(dp1091
g13
g14
(g15
tp1092
Rp1093
g18
I4
sS'Pn'
p1094
I3
ssg23
g18
sbsg24
(idecision_tree
continuous_decision_tree
p1095
(dp1096
g2
F79.2625
sg3
I67
sg4
(idecision_tree
decision_tree
p1097
(dp1098
g3
I47
sg27
(dp1099
S'12-JUN-2009'
p1100
(idecision_tree
decision_tree_leaf
p1101
(dp1102
g13
g14
(g15
tp1103
Rp1104
S'Pn'
p1105
I1
ssg23
g1105
sbsS'07-MAR-2009'
p1106
(idecision_tree
decision_tree_leaf
p1107
(dp1108
g13
g14
(g15
tp1109
Rp1110
g18
I1
ssg23
g18
sbssbsg24
(idecision_tree
continuous_decision_tree
p1111
(dp1112
g2
F0.7471615
sg3
I52
sg4
(idecision_tree
decision_tree
p1113
(dp1114
g3
I47
sg27
(dp1115
S'03-JUN-2009'
p1116
(idecision_tree
decision_tree_leaf
p1117
(dp1118
g13
g14
(g15
tp1119
Rp1120
S'Pn'
p1121
I1
ssg23
g1121
sbsS'12-FEB-2009'
p1122
(idecision_tree
decision_tree_leaf
p1123
(dp1124
g13
g14
(g15
tp1125
Rp1126
g18
I1
ssg23
g18
sbssbsg24
(idecision_tree
decision_tree
p1127
(dp1128
g3
I47
sg27
(dp1129
S'01-APR-2009'
p1130
(idecision_tree
decision_tree_leaf
p1131
(dp1132
g13
g14
(g15
tp1133
Rp1134
g18
I1
ssg23
g18
sbsS'02-APR-2009'
p1135
(idecision_tree
decision_tree_leaf
p1136
(dp1137
g13
g14
(g15
tp1138
Rp1139
S'Pn'
p1140
I1
ssg23
g1140
sbssbsbsbsbsg24
(idecision_tree
decision_tree
p1141
(dp1142
g3
I47
sg27
(dp1143
S'07-JAN-2009'
p1144
(idecision_tree
decision_tree_leaf
p1145
(dp1146
g13
g14
(g15
tp1147
Rp1148
g18
I1
ssg23
g18
sbsS'04-AUG-2009'
p1149
(idecision_tree
decision_tree_leaf
p1150
(dp1151
g13
g14
(g15
tp1152
Rp1153
S'Pn'
p1154
I1
ssg23
g1154
sbssbsbsg24
(idecision_tree
decision_tree
p1155
(dp1156
g3
I47
sg27
(dp1157
S'25-FEB-2009'
p1158
(idecision_tree
decision_tree_leaf
p1159
(dp1160
g13
g14
(g15
tp1161
Rp1162
S'Pn'
p1163
I1
ssg23
g1163
sbsS'13-FEB-2009'
p1164
(idecision_tree
decision_tree_leaf
p1165
(dp1166
g13
g14
(g15
tp1167
Rp1168
g18
I1
ssg23
g18
sbssbsbsg24
(idecision_tree
continuous_decision_tree
p1169
(dp1170
g2
F-2.0
sg3
I66
sg4
(idecision_tree
continuous_decision_tree
p1171
(dp1172
g2
F-17.75
sg3
I59
sg4
(idecision_tree
continuous_decision_tree
p1173
(dp1174
g2
F1.0
sg3
I62
sg4
(idecision_tree
continuous_decision_tree
p1175
(dp1176
g2
F3.0
sg3
I66
sg4
(idecision_tree
decision_tree
p1177
(dp1178
g3
I47
sg27
(dp1179
S'25-MAR-2009'
p1180
(idecision_tree
decision_tree_leaf
p1181
(dp1182
g13
g14
(g15
tp1183
Rp1184
S'Pn'
p1185
I1
ssg23
g1185
sbsS'20-MAY-2009'
p1186
(idecision_tree
decision_tree_leaf
p1187
(dp1188
g13
g14
(g15
tp1189
Rp1190
g18
I1
ssg23
g18
sbsS'26-MAR-2009'
p1191
(idecision_tree
decision_tree_leaf
p1192
(dp1193
g13
g14
(g15
tp1194
Rp1195
g18
I1
ssg23
g18
sbsS'01-MAR-2009'
p1196
(idecision_tree
decision_tree_leaf
p1197
(dp1198
g13
g14
(g15
tp1199
Rp1200
g18
I1
ssg23
g18
sbssbsg24
(idecision_tree
continuous_decision_tree
p1201
(dp1202
g2
F0.0
sg3
I58
sg4
(idecision_tree
decision_tree
p1203
(dp1204
g3
I47
sg27
(dp1205
S'11-FEB-2009'
p1206
(idecision_tree
decision_tree_leaf
p1207
(dp1208
g13
g14
(g15
tp1209
Rp1210
g18
I1
ssg23
g18
sbsS'10-AUG-2009'
p1211
(idecision_tree
decision_tree_leaf
p1212
(dp1213
g13
g14
(g15
tp1214
Rp1215
g18
I1
ssg23
g18
sbsS'09-OCT-2009'
p1216
(idecision_tree
decision_tree_leaf
p1217
(dp1218
g13
g14
(g15
tp1219
Rp1220
g18
I1
ssg23
g18
sbsS'27-APR-2009'
p1221
(idecision_tree
decision_tree_leaf
p1222
(dp1223
g13
g14
(g15
tp1224
Rp1225
g18
I1
ssg23
g18
sbsS'22-OCT-2009'
p1226
(idecision_tree
decision_tree_leaf
p1227
(dp1228
g13
g14
(g15
tp1229
Rp1230
S'Pn'
p1231
I1
ssg23
g1231
sbsS'20-FEB-2009'
p1232
(idecision_tree
decision_tree_leaf
p1233
(dp1234
g13
g14
(g15
tp1235
Rp1236
g18
I1
ssg23
g18
sbssbsg24
(idecision_tree
decision_tree_leaf
p1237
(dp1238
g13
g14
(g15
tp1239
Rp1240
S'Pn'
p1241
I1
ssg23
g1241
sbsbsbsg24
(idecision_tree
decision_tree_leaf
p1242
(dp1243
g13
g14
(g15
tp1244
Rp1245
S'Pn'
p1246
I4
ssg23
g1246
sbsbsg24
(idecision_tree
decision_tree
p1247
(dp1248
g3
I47
sg27
(dp1249
S'12-FEB-2009'
p1250
(idecision_tree
decision_tree_leaf
p1251
(dp1252
g13
g14
(g15
tp1253
Rp1254
g18
I1
ssg23
g18
sbsS'14-DEC-2009'
p1255
(idecision_tree
decision_tree_leaf
p1256
(dp1257
g13
g14
(g15
tp1258
Rp1259
S'Pn'
p1260
I1
ssg23
g1260
sbssbsbsg24
(idecision_tree
decision_tree
p1261
(dp1262
g3
I47
sg27
(dp1263
S'14-SEP-2009'
p1264
(idecision_tree
decision_tree_leaf
p1265
(dp1266
g13
g14
(g15
tp1267
Rp1268
g18
I1
ssg23
g18
sbsS'14-OCT-2009'
p1269
(idecision_tree
decision_tree_leaf
p1270
(dp1271
g13
g14
(g15
tp1272
Rp1273
S'Pn'
p1274
I1
ssg23
g1274
sbssbsbsbsg24
(idecision_tree
decision_tree_leaf
p1275
(dp1276
g13
g14
(g15
tp1277
Rp1278
g18
I47
sg21
I4
sS'Pn'
p1279
I33
sS'Sn'
p1280
I4
sS'PKP'
p1281
I1
ssg23
g18
sbsbsg24
(idecision_tree
continuous_decision_tree
p1282
(dp1283
g2
F263.2905
sg3
I43
sg4
(idecision_tree
continuous_decision_tree
p1284
(dp1285
g2
F42.0
sg3
I67
sg4
(idecision_tree
continuous_decision_tree
p1286
(dp1287
g2
F4.48853
sg3
I7
sg4
(idecision_tree
continuous_decision_tree
p1288
(dp1289
g2
F104.9165
sg3
I67
sg4
(idecision_tree
continuous_decision_tree
p1290
(dp1291
g2
F-1.0
sg3
I66
sg4
(idecision_tree
continuous_decision_tree
p1292
(dp1293
g2
F-23.125
sg3
I63
sg4
(idecision_tree
continuous_decision_tree
p1294
(dp1295
g2
F-1.5
sg3
I62
sg4
(idecision_tree
decision_tree_leaf
p1296
(dp1297
g13
g14
(g15
tp1298
Rp1299
g18
I6
sS'Pn'
p1300
I5
ssg23
g18
sbsg24
(idecision_tree
decision_tree
p1301
(dp1302
g3
I47
sg27
(dp1303
S'01-OCT-2009'
p1304
(idecision_tree
decision_tree_leaf
p1305
(dp1306
g13
g14
(g15
tp1307
Rp1308
g18
I1
ssg23
g18
sbsS'18-NOV-2009'
p1309
(idecision_tree
decision_tree_leaf
p1310
(dp1311
g13
g14
(g15
tp1312
Rp1313
S'Sn'
p1314
I1
ssg23
g1314
sbssbsbsg24
(idecision_tree
decision_tree
p1315
(dp1316
g3
I47
sg27
(dp1317
S'21-JAN-2009'
p1318
(idecision_tree
decision_tree_leaf
p1319
(dp1320
g13
g14
(g15
tp1321
Rp1322
S'Pn'
p1323
I1
ssg23
g1323
sbsS'12-FEB-2009'
p1324
(idecision_tree
decision_tree_leaf
p1325
(dp1326
g13
g14
(g15
tp1327
Rp1328
g18
I1
ssg23
g18
sbssbsbsg24
(idecision_tree
decision_tree
p1329
(dp1330
g3
I47
sg27
(dp1331
S'12-FEB-2009'
p1332
(idecision_tree
decision_tree_leaf
p1333
(dp1334
g13
g14
(g15
tp1335
Rp1336
g18
I1
ssg23
g18
sbsS'20-MAR-2009'
p1337
(idecision_tree
decision_tree_leaf
p1338
(dp1339
g13
g14
(g15
tp1340
Rp1341
g21
I1
ssg23
g21
sbssbsbsg24
(idecision_tree
continuous_decision_tree
p1342
(dp1343
g2
F-4.5
sg3
I66
sg4
(idecision_tree
continuous_decision_tree
p1344
(dp1345
g2
F4.0
sg3
I62
sg4
(idecision_tree
decision_tree
p1346
(dp1347
g3
I47
sg27
(dp1348
S'27-NOV-2009'
p1349
(idecision_tree
decision_tree_leaf
p1350
(dp1351
g13
g14
(g15
tp1352
Rp1353
g18
I1
ssg23
g18
sbsS'05-JUN-2009'
p1354
(idecision_tree
decision_tree_leaf
p1355
(dp1356
g13
g14
(g15
tp1357
Rp1358
S'Pn'
p1359
I1
ssg23
g1359
sbssbsg24
(idecision_tree
continuous_decision_tree
p1360
(dp1361
g2
F3.0
sg3
I62
sg4
(idecision_tree
decision_tree_leaf
p1362
(dp1363
g13
g14
(g15
tp1364
Rp1365
g18
I2
sS'Pn'
p1366
I1
ssg23
g18
sbsg24
(idecision_tree
continuous_decision_tree
p1367
(dp1368
g2
F60.333349999999996
sg3
I67
sg4
(idecision_tree
decision_tree_leaf
p1369
(dp1370
g13
g14
(g15
tp1371
Rp1372
g18
I3
sS'Pn'
p1373
I1
sS'Sn'
p1374
I2
ssg23
g18
sbsg24
(idecision_tree
continuous_decision_tree
p1375
(dp1376
g2
F2.0
sg3
I66
sg4
(idecision_tree
continuous_decision_tree
p1377
(dp1378
g2
F3.0
sg3
I66
sg4
(idecision_tree
continuous_decision_tree
p1379
(dp1380
g2
F0.527459
sg3
I49
sg4
(idecision_tree
decision_tree
p1381
(dp1382
g3
I47
sg27
(dp1383
S'11-FEB-2009'
p1384
(idecision_tree
decision_tree_leaf
p1385
(dp1386
g13
g14
(g15
tp1387
Rp1388
g18
I1
ssg23
g18
sbsS'19-OCT-2009'
p1389
(idecision_tree
decision_tree_leaf
p1390
(dp1391
g13
g14
(g15
tp1392
Rp1393
S'Pn'
p1394
I1
ssg23
g1394
sbssbsg24
(idecision_tree
decision_tree_leaf
p1395
(dp1396
g13
g14
(g15
tp1397
Rp1398
g18
I1
ssg23
g18
sbsbsg24
(idecision_tree
decision_tree
p1399
(dp1400
g3
I47
sg27
(dp1401
S'05-NOV-2009'
p1402
(idecision_tree
decision_tree_leaf
p1403
(dp1404
g13
g14
(g15
tp1405
Rp1406
S'Pn'
p1407
I1
ssg23
g1407
sbsS'13-AUG-2009'
p1408
(idecision_tree
decision_tree_leaf
p1409
(dp1410
g13
g14
(g15
tp1411
Rp1412
g18
I1
ssg23
g18
sbssbsbsg24
(idecision_tree
decision_tree_leaf
p1413
(dp1414
g13
g14
(g15
tp1415
Rp1416
S'Pn'
p1417
I1
ssg23
g1417
sbsbsbsbsbsg24
(idecision_tree
decision_tree
p1418
(dp1419
g3
I47
sg27
(dp1420
S'29-JUL-2009'
p1421
(idecision_tree
decision_tree_leaf
p1422
(dp1423
g13
g14
(g15
tp1424
Rp1425
g18
I1
ssg23
g18
sbsS'08-OCT-2009'
p1426
(idecision_tree
decision_tree_leaf
p1427
(dp1428
g13
g14
(g15
tp1429
Rp1430
S'Pn'
p1431
I1
ssg23
g1431
sbssbsbsbsg24
(idecision_tree
continuous_decision_tree
p1432
(dp1433
g2
F0.6226805
sg3
I49
sg4
(idecision_tree
continuous_decision_tree
p1434
(dp1435
g2
F0.25
sg3
I63
sg4
(idecision_tree
continuous_decision_tree
p1436
(dp1437
g2
F5.5
sg3
I66
sg4
(idecision_tree
decision_tree
p1438
(dp1439
g3
I47
sg27
(dp1440
S'08-JAN-2009'
p1441
(idecision_tree
decision_tree_leaf
p1442
(dp1443
g13
g14
(g15
tp1444
Rp1445
g18
I1
ssg23
g18
sbsS'23-OCT-2009'
p1446
(idecision_tree
decision_tree_leaf
p1447
(dp1448
g13
g14
(g15
tp1449
Rp1450
S'Pn'
p1451
I1
ssg23
g1451
sbssbsg24
(idecision_tree
decision_tree_leaf
p1452
(dp1453
g13
g14
(g15
tp1454
Rp1455
g18
I8
sS'Pn'
p1456
I7
ssg23
g18
sbsbsg24
(idecision_tree
continuous_decision_tree
p1457
(dp1458
g2
F270.875
sg3
I67
sg4
(idecision_tree
decision_tree
p1459
(dp1460
g3
I47
sg27
(dp1461
S'24-FEB-2009'
p1462
(idecision_tree
decision_tree_leaf
p1463
(dp1464
g13
g14
(g15
tp1465
Rp1466
S'Pn'
p1467
I1
ssg23
g1467
sbsS'04-AUG-2009'
p1468
(idecision_tree
decision_tree_leaf
p1469
(dp1470
g13
g14
(g15
tp1471
Rp1472
g18
I1
ssg23
g18
sbssbsg24
(idecision_tree
decision_tree_leaf
p1473
(dp1474
g13
g14
(g15
tp1475
Rp1476
g18
I9
sS'Pn'
p1477
I8
ssg23
g18
sbsbsbsg24
(idecision_tree
continuous_decision_tree
p1478
(dp1479
g2
F2.86379
sg3
I51
sg4
(idecision_tree
decision_tree
p1480
(dp1481
g3
I47
sg27
(dp1482
S'15-OCT-2009'
p1483
(idecision_tree
decision_tree_leaf
p1484
(dp1485
g13
g14
(g15
tp1486
Rp1487
S'Pn'
p1488
I1
ssg23
g1488
sbsS'03-SEP-2009'
p1489
(idecision_tree
decision_tree_leaf
p1490
(dp1491
g13
g14
(g15
tp1492
Rp1493
g18
I1
ssg23
g18
sbssbsg24
(idecision_tree
continuous_decision_tree
p1494
(dp1495
g2
F0.25566
sg3
I50
sg4
(idecision_tree
continuous_decision_tree
p1496
(dp1497
g2
F0.3373145
sg3
I50
sg4
(idecision_tree
continuous_decision_tree
p1498
(dp1499
g2
F61.8688
sg3
I44
sg4
(idecision_tree
continuous_decision_tree
p1500
(dp1501
g2
F1.74227
sg3
I51
sg4
(idecision_tree
decision_tree
p1502
(dp1503
g3
I47
sg27
(dp1504
S'26-APR-2009'
p1505
(idecision_tree
decision_tree_leaf
p1506
(dp1507
g13
g14
(g15
tp1508
Rp1509
g18
I1
ssg23
g18
sbsS'08-OCT-2009'
p1510
(idecision_tree
decision_tree_leaf
p1511
(dp1512
g13
g14
(g15
tp1513
Rp1514
S'Pn'
p1515
I1
ssg23
g1515
sbssbsg24
(idecision_tree
continuous_decision_tree
p1516
(dp1517
g2
F104.0355
sg3
I67
sg4
(idecision_tree
decision_tree_leaf
p1518
(dp1519
g13
g14
(g15
tp1520
Rp1521
g18
I4
sS'Pn'
p1522
I3
ssg23
g18
sbsg24
(idecision_tree
decision_tree
p1523
(dp1524
g3
I47
sg27
(dp1525
S'04-FEB-2009'
p1526
(idecision_tree
decision_tree_leaf
p1527
(dp1528
g13
g14
(g15
tp1529
Rp1530
g18
I1
ssg23
g18
sbsS'22-OCT-2009'
p1531
(idecision_tree
decision_tree_leaf
p1532
(dp1533
g13
g14
(g15
tp1534
Rp1535
S'Pn'
p1536
I1
ssg23
g1536
sbssbsbsbsg24
(idecision_tree
decision_tree
p1537
(dp1538
g3
I47
sg27
(dp1539
S'10-JUN-2009'
p1540
(idecision_tree
decision_tree_leaf
p1541
(dp1542
g13
g14
(g15
tp1543
Rp1544
g18
I1
ssg23
g18
sbsS'11-OCT-2009'
p1545
(idecision_tree
decision_tree_leaf
p1546
(dp1547
g13
g14
(g15
tp1548
Rp1549
S'Pn'
p1550
I1
ssg23
g1550
sbssbsbsg24
(idecision_tree
decision_tree
p1551
(dp1552
g3
I47
sg27
(dp1553
S'22-APR-2009'
p1554
(idecision_tree
decision_tree_leaf
p1555
(dp1556
g13
g14
(g15
tp1557
Rp1558
g18
I1
ssg23
g18
sbsS'09-OCT-2009'
p1559
(idecision_tree
decision_tree_leaf
p1560
(dp1561
g13
g14
(g15
tp1562
Rp1563
S'Pn'
p1564
I1
ssg23
g1564
sbssbsbsg24
(idecision_tree
decision_tree
p1565
(dp1566
g3
I47
sg27
(dp1567
S'15-OCT-2009'
p1568
(idecision_tree
decision_tree_leaf
p1569
(dp1570
g13
g14
(g15
tp1571
Rp1572
S'Pn'
p1573
I1
ssg23
g1573
sbsS'12-FEB-2009'
p1574
(idecision_tree
decision_tree_leaf
p1575
(dp1576
g13
g14
(g15
tp1577
Rp1578
g18
I1
ssg23
g18
sbssbsbsbsbsbsg24
(idecision_tree
continuous_decision_tree
p1579
(dp1580
g2
F2.48848
sg3
I30
sg4
(idecision_tree
continuous_decision_tree
p1581
(dp1582
g2
F293.27700000000004
sg3
I43
sg4
(idecision_tree
decision_tree_leaf
p1583
(dp1584
g13
g14
(g15
tp1585
Rp1586
g18
I19
sg21
I1
sS'Pn'
p1587
I16
ssg23
g18
sbsg24
(idecision_tree
continuous_decision_tree
p1588
(dp1589
g2
F0.8331955
sg3
I34
sg4
(idecision_tree
continuous_decision_tree
p1590
(dp1591
g2
F1.046995
sg3
I52
sg4
(idecision_tree
continuous_decision_tree
p1592
(dp1593
g2
F-48.63335
sg3
I67
sg4
(idecision_tree
continuous_decision_tree
p1594
(dp1595
g2
F4.5
sg3
I66
sg4
(idecision_tree
decision_tree
p1596
(dp1597
g3
I47
sg27
(dp1598
S'30-AUG-2009'
p1599
(idecision_tree
decision_tree_leaf
p1600
(dp1601
g13
g14
(g15
tp1602
Rp1603
g18
I1
ssg23
g18
sbsS'14-OCT-2009'
p1604
(idecision_tree
decision_tree_leaf
p1605
(dp1606
g13
g14
(g15
tp1607
Rp1608
S'Pn'
p1609
I1
ssg23
g1609
sbssbsg24
(idecision_tree
continuous_decision_tree
p1610
(dp1611
g2
F-15.5625
sg3
I63
sg4
(idecision_tree
continuous_decision_tree
p1612
(dp1613
g2
F-16.7857
sg3
I67
sg4
(idecision_tree
decision_tree_leaf
p1614
(dp1615
g13
g14
(g15
tp1616
Rp1617
g18
I6
sg21
I2
sS'Pn'
p1618
I2
sS'Sn'
p1619
I1
ssg23
g18
sbsg24
(idecision_tree
decision_tree
p1620
(dp1621
g3
I47
sg27
(dp1622
S'19-DEC-2009'
p1623
(idecision_tree
decision_tree_leaf
p1624
(dp1625
g13
g14
(g15
tp1626
Rp1627
S'Sn'
p1628
I1
ssg23
g1628
sbsS'23-SEP-2009'
p1629
(idecision_tree
decision_tree_leaf
p1630
(dp1631
g13
g14
(g15
tp1632
Rp1633
g18
I1
ssg23
g18
sbssbsbsg24
(idecision_tree
decision_tree
p1634
(dp1635
g3
I47
sg27
(dp1636
S'21-NOV-2009'
p1637
(idecision_tree
decision_tree_leaf
p1638
(dp1639
g13
g14
(g15
tp1640
Rp1641
g18
I1
ssg23
g18
sbsS'11-MAR-2009'
p1642
(idecision_tree
decision_tree_leaf
p1643
(dp1644
g13
g14
(g15
tp1645
Rp1646
S'Pn'
p1647
I1
ssg23
g1647
sbssbsbsbsg24
(idecision_tree
decision_tree
p1648
(dp1649
g3
I47
sg27
(dp1650
S'16-OCT-2009'
p1651
(idecision_tree
decision_tree_leaf
p1652
(dp1653
g13
g14
(g15
tp1654
Rp1655
g18
I1
ssg23
g18
sbsS'08-OCT-2009'
p1656
(idecision_tree
decision_tree_leaf
p1657
(dp1658
g13
g14
(g15
tp1659
Rp1660
S'Pn'
p1661
I1
ssg23
g1661
sbssbsbsg24
(idecision_tree
continuous_decision_tree
p1662
(dp1663
g2
F-21.5
sg3
I67
sg4
(idecision_tree
decision_tree_leaf
p1664
(dp1665
g13
g14
(g15
tp1666
Rp1667
g18
I8
sg21
I1
sS'Pn'
p1668
I6
ssg23
g18
sbsg24
(idecision_tree
decision_tree
p1669
(dp1670
g3
I47
sg27
(dp1671
S'26-AUG-2009'
p1672
(idecision_tree
decision_tree_leaf
p1673
(dp1674
g13
g14
(g15
tp1675
Rp1676
S'Pn'
p1677
I1
ssg23
g1677
sbsS'03-SEP-2009'
p1678
(idecision_tree
decision_tree_leaf
p1679
(dp1680
g13
g14
(g15
tp1681
Rp1682
g18
I1
ssg23
g18
sbssbsbsbsg24
(idecision_tree
continuous_decision_tree
p1683
(dp1684
g2
F-25.625
sg3
I67
sg4
(idecision_tree
continuous_decision_tree
p1685
(dp1686
g2
F-1.5
sg3
I66
sg4
(idecision_tree
decision_tree_leaf
p1687
(dp1688
g13
g14
(g15
tp1689
Rp1690
g18
I7
sS'Pn'
p1691
I5
sS'Sn'
p1692
I1
ssg23
g18
sbsg24
(idecision_tree
decision_tree
p1693
(dp1694
g3
I47
sg27
(dp1695
S'25-FEB-2009'
p1696
(idecision_tree
decision_tree_leaf
p1697
(dp1698
g13
g14
(g15
tp1699
Rp1700
S'Sn'
p1701
I1
ssg23
g1701
sbsS'19-JAN-2009'
p1702
(idecision_tree
decision_tree_leaf
p1703
(dp1704
g13
g14
(g15
tp1705
Rp1706
g18
I1
ssg23
g18
sbssbsbsg24
(idecision_tree
decision_tree
p1707
(dp1708
g3
I47
sg27
(dp1709
S'12-FEB-2009'
p1710
(idecision_tree
decision_tree_leaf
p1711
(dp1712
g13
g14
(g15
tp1713
Rp1714
g18
I1
ssg23
g18
sbsS'19-JAN-2009'
p1715
(idecision_tree
decision_tree_leaf
p1716
(dp1717
g13
g14
(g15
tp1718
Rp1719
S'Sn'
p1720
I1
ssg23
g1720
sbssbsbsbsbsg24
(idecision_tree
continuous_decision_tree
p1721
(dp1722
g2
F1.0
sg3
I62
sg4
(idecision_tree
decision_tree_leaf
p1723
(dp1724
g13
g14
(g15
tp1725
Rp1726
g18
I11
sS'PKP'
p1727
I1
sS'Pn'
p1728
I5
sS'Sn'
p1729
I3
ssg23
g18
sbsg24
(idecision_tree
continuous_decision_tree
p1730
(dp1731
g2
F0.0
sg3
I62
sg4
(idecision_tree
continuous_decision_tree
p1732
(dp1733
g2
F1.0
sg3
I53
sg4
(idecision_tree
continuous_decision_tree
p1734
(dp1735
g2
F0.0
sg3
I67
sg4
(idecision_tree
decision_tree_leaf
p1736
(dp1737
g13
g14
(g15
tp1738
Rp1739
g18
I3
sS'Sn'
p1740
I2
ssg23
g18
sbsg24
(idecision_tree
decision_tree_leaf
p1741
(dp1742
g13
g14
(g15
tp1743
Rp1744
S'Sn'
p1745
I1
ssg23
g1745
sbsbsg24
(idecision_tree
continuous_decision_tree
p1746
(dp1747
g2
F0.579323
sg3
I49
sg4
(idecision_tree
continuous_decision_tree
p1748
(dp1749
g2
F0.0
sg3
I66
sg4
(idecision_tree
continuous_decision_tree
p1750
(dp1751
g2
F0.0
sg3
I67
sg4
(idecision_tree
decision_tree_leaf
p1752
(dp1753
g13
g14
(g15
tp1754
Rp1755
g18
I10
sg21
I1
sS'Pn'
p1756
I1
ssg23
g18
sbsg24
(idecision_tree
decision_tree_leaf
p1757
(dp1758
g13
g14
(g15
tp1759
Rp1760
S'Pn'
p1761
I2
ssg23
g1761
sbsbsg24
(idecision_tree
decision_tree_leaf
p1762
(dp1763
g13
g14
(g15
tp1764
Rp1765
S'Pn'
p1766
I2
ssg23
g1766
sbsbsg24
(idecision_tree
continuous_decision_tree
p1767
(dp1768
g2
F1.0692465
sg3
I50
sg4
(idecision_tree
continuous_decision_tree
p1769
(dp1770
g2
F0.0
sg3
I66
sg4
(idecision_tree
decision_tree
p1771
(dp1772
g3
I47
sg27
(dp1773
S'12-FEB-2009'
p1774
(idecision_tree
decision_tree_leaf
p1775
(dp1776
g13
g14
(g15
tp1777
Rp1778
g18
I1
ssg23
g18
sbsS'17-OCT-2009'
p1779
(idecision_tree
decision_tree_leaf
p1780
(dp1781
g13
g14
(g15
tp1782
Rp1783
S'Pn'
p1784
I1
ssg23
g1784
sbsS'16-APR-2009'
p1785
(idecision_tree
decision_tree_leaf
p1786
(dp1787
g13
g14
(g15
tp1788
Rp1789
g18
I1
ssg23
g18
sbsS'10-NOV-2009'
p1790
(idecision_tree
decision_tree_leaf
p1791
(dp1792
g13
g14
(g15
tp1793
Rp1794
g18
I1
ssg23
g18
sbssbsg24
(idecision_tree
decision_tree_leaf
p1795
(dp1796
g13
g14
(g15
tp1797
Rp1798
g21
I1
ssg23
g21
sbsbsg24
(idecision_tree
continuous_decision_tree
p1799
(dp1800
g2
F0.670659
sg3
I52
sg4
(idecision_tree
decision_tree
p1801
(dp1802
g3
I47
sg27
(dp1803
S'26-JUL-2009'
p1804
(idecision_tree
decision_tree_leaf
p1805
(dp1806
g13
g14
(g15
tp1807
Rp1808
g18
I1
ssg23
g18
sbsS'08-OCT-2009'
p1809
(idecision_tree
decision_tree_leaf
p1810
(dp1811
g13
g14
(g15
tp1812
Rp1813
S'Pn'
p1814
I1
ssg23
g1814
sbssbsg24
(idecision_tree
decision_tree_leaf
p1815
(dp1816
g13
g14
(g15
tp1817
Rp1818
g18
I1
ssg23
g18
sbsbsbsbsbsg24
(idecision_tree
continuous_decision_tree
p1819
(dp1820
g2
F-33.875
sg3
I67
sg4
(idecision_tree
continuous_decision_tree
p1821
(dp1822
g2
F-26.13335
sg3
I67
sg4
(idecision_tree
continuous_decision_tree
p1823
(dp1824
g2
F-11.3214
sg3
I63
sg4
(idecision_tree
decision_tree_leaf
p1825
(dp1826
g13
g14
(g15
tp1827
Rp1828
g18
I4
sS'Pn'
p1829
I1
sS'Sn'
p1830
I5
ssg23
g1830
sbsg24
(idecision_tree
continuous_decision_tree
p1831
(dp1832
g2
F-3.0
sg3
I66
sg4
(idecision_tree
decision_tree
p1833
(dp1834
g3
I47
sg27
(dp1835
S'25-FEB-2009'
p1836
(idecision_tree
decision_tree_leaf
p1837
(dp1838
g13
g14
(g15
tp1839
Rp1840
S'Sn'
p1841
I1
ssg23
g1841
sbsS'18-AUG-2009'
p1842
(idecision_tree
decision_tree_leaf
p1843
(dp1844
g13
g14
(g15
tp1845
Rp1846
g18
I1
ssg23
g18
sbssbsg24
(idecision_tree
decision_tree
p1847
(dp1848
g3
I47
sg27
(dp1849
S'16-NOV-2009'
p1850
(idecision_tree
decision_tree_leaf
p1851
(dp1852
g13
g14
(g15
tp1853
Rp1854
S'Sn'
p1855
I1
ssg23
g1855
sbsS'15-AUG-2009'
p1856
(idecision_tree
decision_tree_leaf
p1857
(dp1858
g13
g14
(g15
tp1859
Rp1860
g18
I1
ssg23
g18
sbssbsbsbsg24
(idecision_tree
decision_tree
p1861
(dp1862
g3
I47
sg27
(dp1863
S'22-JAN-2009'
p1864
(idecision_tree
decision_tree_leaf
p1865
(dp1866
g13
g14
(g15
tp1867
Rp1868
S'Sn'
p1869
I1
ssg23
g1869
sbsS'31-OCT-2009'
p1870
(idecision_tree
decision_tree_leaf
p1871
(dp1872
g13
g14
(g15
tp1873
Rp1874
g21
I1
ssg23
g21
sbssbsbsg24
(idecision_tree
continuous_decision_tree
p1875
(dp1876
g2
F-38.125
sg3
I67
sg4
(idecision_tree
decision_tree
p1877
(dp1878
g3
I47
sg27
(dp1879
S'09-MAY-2009'
p1880
(idecision_tree
decision_tree_leaf
p1881
(dp1882
g13
g14
(g15
tp1883
Rp1884
g21
I1
ssg23
g21
sbsS'06-SEP-2009'
p1885
(idecision_tree
decision_tree_leaf
p1886
(dp1887
g13
g14
(g15
tp1888
Rp1889
g18
I1
ssg23
g18
sbssbsg24
(idecision_tree
decision_tree
p1890
(dp1891
g3
I47
sg27
(dp1892
S'07-DEC-2009'
p1893
(idecision_tree
decision_tree_leaf
p1894
(dp1895
g13
g14
(g15
tp1896
Rp1897
g18
I1
ssg23
g18
sbsS'14-AUG-2009'
p1898
(idecision_tree
decision_tree_leaf
p1899
(dp1900
g13
g14
(g15
tp1901
Rp1902
S'Pn'
p1903
I1
ssg23
g1903
sbssbsbsbsbsbsbsbsg24
(idecision_tree
continuous_decision_tree
p1904
(dp1905
g2
F1.65138
sg3
I39
sg4
(idecision_tree
decision_tree_leaf
p1906
(dp1907
g13
g14
(g15
tp1908
Rp1909
g18
I481
sg21
I53
sS'Pn'
p1910
I198
sS'Sn'
p1911
I177
sS'PKP'
p1912
I2
ssg23
g18
sbsg24
(idecision_tree
continuous_decision_tree
p1913
(dp1914
g2
F-25.49375
sg3
I67
sg4
(idecision_tree
continuous_decision_tree
p1915
(dp1916
g2
F1.0
sg3
I53
sg4
(idecision_tree
continuous_decision_tree
p1917
(dp1918
g2
F29.1905
sg3
I67
sg4
(idecision_tree
continuous_decision_tree
p1919
(dp1920
g2
F25.5
sg3
I63
sg4
(idecision_tree
decision_tree
p1921
(dp1922
g3
I47
sg27
(dp1923
S'27-APR-2009'
p1924
(idecision_tree
decision_tree_leaf
p1925
(dp1926
g13
g14
(g15
tp1927
Rp1928
g18
I1
ssg23
g18
sbsS'09-DEC-2009'
p1929
(idecision_tree
decision_tree_leaf
p1930
(dp1931
g13
g14
(g15
tp1932
Rp1933
S'Pn'
p1934
I1
ssg23
g1934
sbssbsg24
(idecision_tree
continuous_decision_tree
p1935
(dp1936
g2
F7.7
sg3
I63
sg4
(idecision_tree
decision_tree
p1937
(dp1938
g3
I47
sg27
(dp1939
S'26-MAY-2009'
p1940
(idecision_tree
decision_tree_leaf
p1941
(dp1942
g13
g14
(g15
tp1943
Rp1944
g18
I1
ssg23
g18
sbsS'08-OCT-2009'
p1945
(idecision_tree
decision_tree_leaf
p1946
(dp1947
g13
g14
(g15
tp1948
Rp1949
S'Pn'
p1950
I1
ssg23
g1950
sbssbsg24
(idecision_tree
continuous_decision_tree
p1951
(dp1952
g2
F0.867747
sg3
I52
sg4
(idecision_tree
decision_tree
p1953
(dp1954
g3
I47
sg27
(dp1955
S'12-FEB-2009'
p1956
(idecision_tree
decision_tree_leaf
p1957
(dp1958
g13
g14
(g15
tp1959
Rp1960
g18
I1
ssg23
g18
sbsS'02-JUN-2009'
p1961
(idecision_tree
decision_tree_leaf
p1962
(dp1963
g13
g14
(g15
tp1964
Rp1965
S'Pn'
p1966
I1
ssg23
g1966
sbssbsg24
(idecision_tree
decision_tree_leaf
p1967
(dp1968
g13
g14
(g15
tp1969
Rp1970
g18
I1
ssg23
g18
sbsbsbsbsg24
(idecision_tree
continuous_decision_tree
p1971
(dp1972
g2
F-0.3333335
sg3
I59
sg4
(idecision_tree
continuous_decision_tree
p1973
(dp1974
g2
F221.945
sg3
I43
sg4
(idecision_tree
decision_tree
p1975
(dp1976
g3
I47
sg27
(dp1977
S'04-JUN-2009'
p1978
(idecision_tree
decision_tree_leaf
p1979
(dp1980
g13
g14
(g15
tp1981
Rp1982
S'Pn'
p1983
I1
ssg23
g1983
sbsS'17-APR-2009'
p1984
(idecision_tree
decision_tree_leaf
p1985
(dp1986
g13
g14
(g15
tp1987
Rp1988
g18
I1
ssg23
g18
sbssbsg24
(idecision_tree
continuous_decision_tree
p1989
(dp1990
g2
F1.044929
sg3
I52
sg4
(idecision_tree
decision_tree
p1991
(dp1992
g3
I47
sg27
(dp1993
S'26-JAN-2009'
p1994
(idecision_tree
decision_tree_leaf
p1995
(dp1996
g13
g14
(g15
tp1997
Rp1998
S'Pn'
p1999
I1
ssg23
g1999
sbsS'12-FEB-2009'
p2000
(idecision_tree
decision_tree_leaf
p2001
(dp2002
g13
g14
(g15
tp2003
Rp2004
g18
I1
ssg23
g18
sbssbsg24
(idecision_tree
decision_tree_leaf
p2005
(dp2006
g13
g14
(g15
tp2007
Rp2008
g18
I3
sS'Pn'
p2009
I2
ssg23
g18
sbsbsbsg24
(idecision_tree
continuous_decision_tree
p2010
(dp2011
g2
F5.83335
sg3
I67
sg4
(idecision_tree
decision_tree
p2012
(dp2013
g3
I47
sg27
(dp2014
S'18-JUN-2009'
p2015
(idecision_tree
decision_tree_leaf
p2016
(dp2017
g13
g14
(g15
tp2018
Rp2019
S'Pn'
p2020
I1
ssg23
g2020
sbsS'18-AUG-2009'
p2021
(idecision_tree
decision_tree_leaf
p2022
(dp2023
g13
g14
(g15
tp2024
Rp2025
g18
I1
ssg23
g18
sbssbsg24
(idecision_tree
continuous_decision_tree
p2026
(dp2027
g2
F-0.5
sg3
I66
sg4
(idecision_tree
decision_tree_leaf
p2028
(dp2029
g13
g14
(g15
tp2030
Rp2031
g18
I2
sS'Sn'
p2032
I1
ssg23
g18
sbsg24
(idecision_tree
decision_tree
p2033
(dp2034
g3
I47
sg27
(dp2035
S'06-OCT-2009'
p2036
(idecision_tree
decision_tree_leaf
p2037
(dp2038
g13
g14
(g15
tp2039
Rp2040
S'Sn'
p2041
I1
ssg23
g2041
sbsS'18-AUG-2009'
p2042
(idecision_tree
decision_tree_leaf
p2043
(dp2044
g13
g14
(g15
tp2045
Rp2046
g18
I1
ssg23
g18
sbssbsbsbsbsbsg24
(idecision_tree
continuous_decision_tree
p2047
(dp2048
g2
F-17.39285
sg3
I67
sg4
(idecision_tree
continuous_decision_tree
p2049
(dp2050
g2
F7.5
sg3
I66
sg4
(idecision_tree
decision_tree
p2051
(dp2052
g3
I47
sg27
(dp2053
S'18-SEP-2009'
p2054
(idecision_tree
decision_tree_leaf
p2055
(dp2056
g13
g14
(g15
tp2057
Rp2058
g18
I1
ssg23
g18
sbsS'27-OCT-2009'
p2059
(idecision_tree
decision_tree_leaf
p2060
(dp2061
g13
g14
(g15
tp2062
Rp2063
S'Pn'
p2064
I1
ssg23
g2064
sbssbsg24
(idecision_tree
decision_tree_leaf
p2065
(dp2066
g13
g14
(g15
tp2067
Rp2068
g18
I22
sg21
I1
sS'Pn'
p2069
I17
sS'Sn'
p2070
I3
ssg23
g18
sbsbsg24
(idecision_tree
decision_tree
p2071
(dp2072
g3
I47
sg27
(dp2073
S'12-FEB-2009'
p2074
(idecision_tree
decision_tree_leaf
p2075
(dp2076
g13
g14
(g15
tp2077
Rp2078
g18
I1
ssg23
g18
sbsS'15-JAN-2009'
p2079
(idecision_tree
decision_tree_leaf
p2080
(dp2081
g13
g14
(g15
tp2082
Rp2083
S'Sn'
p2084
I1
ssg23
g2084
sbssbsbsbsg24
(idecision_tree
continuous_decision_tree
p2085
(dp2086
g2
F16.40625
sg3
I63
sg4
(idecision_tree
decision_tree
p2087
(dp2088
g3
I47
sg27
(dp2089
S'17-MAR-2009'
p2090
(idecision_tree
decision_tree_leaf
p2091
(dp2092
g13
g14
(g15
tp2093
Rp2094
g18
I1
ssg23
g18
sbsS'19-JAN-2009'
p2095
(idecision_tree
decision_tree_leaf
p2096
(dp2097
g13
g14
(g15
tp2098
Rp2099
S'Sn'
p2100
I1
ssg23
g2100
sbssbsg24
(idecision_tree
continuous_decision_tree
p2101
(dp2102
g2
F1.0
sg3
I66
sg4
(idecision_tree
decision_tree
p2103
(dp2104
g3
I47
sg27
(dp2105
S'30-SEP-2009'
p2106
(idecision_tree
decision_tree_leaf
p2107
(dp2108
g13
g14
(g15
tp2109
Rp2110
g18
I1
ssg23
g18
sbsS'12-FEB-2009'
p2111
(idecision_tree
decision_tree_leaf
p2112
(dp2113
g13
g14
(g15
tp2114
Rp2115
g18
I1
ssg23
g18
sbsS'13-NOV-2009'
p2116
(idecision_tree
decision_tree_leaf
p2117
(dp2118
g13
g14
(g15
tp2119
Rp2120
S'Pn'
p2121
I1
ssg23
g2121
sbsS'03-OCT-2009'
p2122
(idecision_tree
decision_tree_leaf
p2123
(dp2124
g13
g14
(g15
tp2125
Rp2126
g18
I1
ssg23
g18
sbssbsg24
(idecision_tree
continuous_decision_tree
p2127
(dp2128
g2
F-5.0
sg3
I66
sg4
(idecision_tree
continuous_decision_tree
p2129
(dp2130
g2
F-1.0
sg3
I66
sg4
(idecision_tree
decision_tree_leaf
p2131
(dp2132
g13
g14
(g15
tp2133
Rp2134
g18
I2
sS'Sn'
p2135
I2
ssg23
g18
sbsg24
(idecision_tree
continuous_decision_tree
p2136
(dp2137
g2
F-3.0
sg3
I62
sg4
(idecision_tree
continuous_decision_tree
p2138
(dp2139
g2
F-6.25
sg3
I59
sg4
(idecision_tree
decision_tree
p2140
(dp2141
g3
I47
sg27
(dp2142
S'12-FEB-2009'
p2143
(idecision_tree
decision_tree_leaf
p2144
(dp2145
g13
g14
(g15
tp2146
Rp2147
g18
I1
ssg23
g18
sbsS'19-JAN-2009'
p2148
(idecision_tree
decision_tree_leaf
p2149
(dp2150
g13
g14
(g15
tp2151
Rp2152
S'Sn'
p2153
I1
ssg23
g2153
sbssbsg24
(idecision_tree
decision_tree_leaf
p2154
(dp2155
g13
g14
(g15
tp2156
Rp2157
g18
I2
sS'Sn'
p2158
I2
ssg23
g18
sbsbsg24
(idecision_tree
decision_tree_leaf
p2159
(dp2160
g13
g14
(g15
tp2161
Rp2162
g18
I1
ssg23
g18
sbsbsbsg24
(idecision_tree
decision_tree
p2163
(dp2164
g3
I47
sg27
(dp2165
S'17-FEB-2009'
p2166
(idecision_tree
decision_tree_leaf
p2167
(dp2168
g13
g14
(g15
tp2169
Rp2170
g21
I1
ssg23
g21
sbsS'22-NOV-2009'
p2171
(idecision_tree
decision_tree_leaf
p2172
(dp2173
g13
g14
(g15
tp2174
Rp2175
S'Sn'
p2176
I1
ssg23
g2176
sbssbsbsbsbsbsbsbsbsg24
(idecision_tree
continuous_decision_tree
p2177
(dp2178
g2
F-37.0
sg3
I63
sg4
(idecision_tree
decision_tree_leaf
p2179
(dp2180
g13
g14
(g15
tp2181
Rp2182
g18
I234
sg21
I24
sS'Pn'
p2183
I131
sS'Sn'
p2184
I50
sS'PKP'
p2185
I2
ssg23
g18
sbsg24
(idecision_tree
continuous_decision_tree
p2186
(dp2187
g2
F-74.9028
sg3
I67
sg4
(idecision_tree
continuous_decision_tree
p2188
(dp2189
g2
F-60.38095
sg3
I67
sg4
(idecision_tree
decision_tree
p2190
(dp2191
g3
I47
sg27
(dp2192
S'24-OCT-2009'
p2193
(idecision_tree
decision_tree_leaf
p2194
(dp2195
g13
g14
(g15
tp2196
Rp2197
g18
I1
ssg23
g18
sbsS'09-OCT-2009'
p2198
(idecision_tree
decision_tree_leaf
p2199
(dp2200
g13
g14
(g15
tp2201
Rp2202
S'Pn'
p2203
I1
ssg23
g2203
sbssbsg24
(idecision_tree
decision_tree
p2204
(dp2205
g3
I47
sg27
(dp2206
S'06-SEP-2009'
p2207
(idecision_tree
decision_tree_leaf
p2208
(dp2209
g13
g14
(g15
tp2210
Rp2211
g18
I1
ssg23
g18
sbsS'19-JAN-2009'
p2212
(idecision_tree
decision_tree_leaf
p2213
(dp2214
g13
g14
(g15
tp2215
Rp2216
S'Pn'
p2217
I1
ssg23
g2217
sbssbsbsg24
(idecision_tree
continuous_decision_tree
p2218
(dp2219
g2
F-6.0
sg3
I66
sg4
(idecision_tree
decision_tree_leaf
p2220
(dp2221
g13
g14
(g15
tp2222
Rp2223
g18
I5
sg21
I2
sS'Pn'
p2224
I3
ssg23
g18
sbsg24
(idecision_tree
decision_tree
p2225
(dp2226
g3
I47
sg27
(dp2227
S'23-JUN-2009'
p2228
(idecision_tree
decision_tree_leaf
p2229
(dp2230
g13
g14
(g15
tp2231
Rp2232
g18
I1
ssg23
g18
sbsS'21-AUG-2009'
p2233
(idecision_tree
decision_tree_leaf
p2234
(dp2235
g13
g14
(g15
tp2236
Rp2237
S'Pn'
p2238
I1
ssg23
g2238
sbssbsbsbsbsbsbsg24
(idecision_tree
continuous_decision_tree
p2239
(dp2240
g2
F-14.25
sg3
I59
sg4
(idecision_tree
continuous_decision_tree
p2241
(dp2242
g2
F-90.0
sg3
I63
sg4
(idecision_tree
decision_tree_leaf
p2243
(dp2244
g13
g14
(g15
tp2245
Rp2246
g18
I49
sg21
I4
sS'Pn'
p2247
I32
sS'Sn'
p2248
I5
ssg23
g18
sbsg24
(idecision_tree
continuous_decision_tree
p2249
(dp2250
g2
F1.245435
sg3
I51
sg4
(idecision_tree
continuous_decision_tree
p2251
(dp2252
g2
F-1.0
sg3
I66
sg4
(idecision_tree
decision_tree_leaf
p2253
(dp2254
g13
g14
(g15
tp2255
Rp2256
g18
I2
sS'Pn'
p2257
I3
ssg23
g2257
sbsg24
(idecision_tree
decision_tree
p2258
(dp2259
g3
I47
sg27
(dp2260
S'28-AUG-2009'
p2261
(idecision_tree
decision_tree_leaf
p2262
(dp2263
g13
g14
(g15
tp2264
Rp2265
S'Pn'
p2266
I1
ssg23
g2266
sbsS'04-AUG-2009'
p2267
(idecision_tree
decision_tree_leaf
p2268
(dp2269
g13
g14
(g15
tp2270
Rp2271
g18
I1
ssg23
g18
sbssbsbsg24
(idecision_tree
continuous_decision_tree
p2272
(dp2273
g2
F3.0
sg3
I66
sg4
(idecision_tree
decision_tree
p2274
(dp2275
g3
I47
sg27
(dp2276
S'08-JAN-2009'
p2277
(idecision_tree
decision_tree_leaf
p2278
(dp2279
g13
g14
(g15
tp2280
Rp2281
g18
I1
ssg23
g18
sbsS'15-AUG-2009'
p2282
(idecision_tree
decision_tree_leaf
p2283
(dp2284
g13
g14
(g15
tp2285
Rp2286
S'Pn'
p2287
I1
ssg23
g2287
sbssbsg24
(idecision_tree
continuous_decision_tree
p2288
(dp2289
g2
F0.5
sg3
I53
sg4
(idecision_tree
decision_tree
p2290
(dp2291
g3
I47
sg27
(dp2292
S'05-MAY-2009'
p2293
(idecision_tree
decision_tree_leaf
p2294
(dp2295
g13
g14
(g15
tp2296
Rp2297
g18
I1
ssg23
g18
sbsS'12-JUN-2009'
p2298
(idecision_tree
decision_tree_leaf
p2299
(dp2300
g13
g14
(g15
tp2301
Rp2302
S'Pn'
p2303
I1
ssg23
g2303
sbsS'09-OCT-2009'
p2304
(idecision_tree
decision_tree_leaf
p2305
(dp2306
g13
g14
(g15
tp2307
Rp2308
S'Pn'
p2309
I1
ssg23
g2309
sbssbsg24
(idecision_tree
decision_tree
p2310
(dp2311
g3
I47
sg27
(dp2312
S'12-OCT-2009'
p2313
(idecision_tree
decision_tree_leaf
p2314
(dp2315
g13
g14
(g15
tp2316
Rp2317
S'Pn'
p2318
I1
ssg23
g2318
sbsS'01-MAR-2009'
p2319
(idecision_tree
decision_tree_leaf
p2320
(dp2321
g13
g14
(g15
tp2322
Rp2323
g18
I1
ssg23
g18
sbssbsbsbsbsbsg24
(idecision_tree
continuous_decision_tree
p2324
(dp2325
g2
F0.33679749999999997
sg3
I48
sg4
(idecision_tree
continuous_decision_tree
p2326
(dp2327
g2
F-29.5
sg3
I59
sg4
(idecision_tree
continuous_decision_tree
p2328
(dp2329
g2
F-2.0
sg3
I66
sg4
(idecision_tree
decision_tree
p2330
(dp2331
g3
I47
sg27
(dp2332
S'12-FEB-2009'
p2333
(idecision_tree
decision_tree_leaf
p2334
(dp2335
g13
g14
(g15
tp2336
Rp2337
g18
I1
ssg23
g18
sbsS'26-NOV-2009'
p2338
(idecision_tree
decision_tree_leaf
p2339
(dp2340
g13
g14
(g15
tp2341
Rp2342
g18
I1
ssg23
g18
sbsS'08-JUN-2009'
p2343
(idecision_tree
decision_tree_leaf
p2344
(dp2345
g13
g14
(g15
tp2346
Rp2347
g18
I1
ssg23
g18
sbsS'13-OCT-2009'
p2348
(idecision_tree
decision_tree_leaf
p2349
(dp2350
g13
g14
(g15
tp2351
Rp2352
S'Pn'
p2353
I1
ssg23
g2353
sbsS'12-OCT-2009'
p2354
(idecision_tree
decision_tree_leaf
p2355
(dp2356
g13
g14
(g15
tp2357
Rp2358
g18
I1
ssg23
g18
sbssbsg24
(idecision_tree
continuous_decision_tree
p2359
(dp2360
g2
F-73.41665
sg3
I67
sg4
(idecision_tree
continuous_decision_tree
p2361
(dp2362
g2
F-44.4
sg3
I67
sg4
(idecision_tree
decision_tree_leaf
p2363
(dp2364
g13
g14
(g15
tp2365
Rp2366
g18
I3
sg21
I1
sS'Sn'
p2367
I2
ssg23
g18
sbsg24
(idecision_tree
continuous_decision_tree
p2368
(dp2369
g2
F-4.5
sg3
I66
sg4
(idecision_tree
decision_tree
p2370
(dp2371
g3
I47
sg27
(dp2372
S'12-FEB-2009'
p2373
(idecision_tree
decision_tree_leaf
p2374
(dp2375
g13
g14
(g15
tp2376
Rp2377
g18
I1
ssg23
g18
sbsS'28-MAR-2009'
p2378
(idecision_tree
decision_tree_leaf
p2379
(dp2380
g13
g14
(g15
tp2381
Rp2382
S'Sn'
p2383
I1
ssg23
g2383
sbssbsg24
(idecision_tree
decision_tree
p2384
(dp2385
g3
I47
sg27
(dp2386
S'09-JUN-2009'
p2387
(idecision_tree
decision_tree_leaf
p2388
(dp2389
g13
g14
(g15
tp2390
Rp2391
g18
I1
ssg23
g18
sbsS'08-OCT-2009'
p2392
(idecision_tree
decision_tree_leaf
p2393
(dp2394
g13
g14
(g15
tp2395
Rp2396
S'Sn'
p2397
I1
ssg23
g2397
sbssbsbsbsg24
(idecision_tree
decision_tree
p2398
(dp2399
g3
I47
sg27
(dp2400
S'27-JAN-2009'
p2401
(idecision_tree
decision_tree_leaf
p2402
(dp2403
g13
g14
(g15
tp2404
Rp2405
g21
I1
ssg23
g21
sbsS'04-NOV-2009'
p2406
(idecision_tree
decision_tree_leaf
p2407
(dp2408
g13
g14
(g15
tp2409
Rp2410
S'Pn'
p2411
I1
ssg23
g2411
sbssbsbsbsg24
(idecision_tree
continuous_decision_tree
p2412
(dp2413
g2
F-48.916650000000004
sg3
I67
sg4
(idecision_tree
continuous_decision_tree
p2414
(dp2415
g2
F-45.916650000000004
sg3
I67
sg4
(idecision_tree
continuous_decision_tree
p2416
(dp2417
g2
F-5.5
sg3
I66
sg4
(idecision_tree
decision_tree_leaf
p2418
(dp2419
g13
g14
(g15
tp2420
Rp2421
g18
I8
sg21
I4
sS'Pn'
p2422
I3
ssg23
g18
sbsg24
(idecision_tree
decision_tree
p2423
(dp2424
g3
I47
sg27
(dp2425
S'30-SEP-2009'
p2426
(idecision_tree
decision_tree_leaf
p2427
(dp2428
g13
g14
(g15
tp2429
Rp2430
g18
I1
ssg23
g18
sbsS'05-JUN-2009'
p2431
(idecision_tree
decision_tree_leaf
p2432
(dp2433
g13
g14
(g15
tp2434
Rp2435
S'Sn'
p2436
I1
ssg23
g2436
sbssbsbsg24
(idecision_tree
decision_tree
p2437
(dp2438
g3
I47
sg27
(dp2439
S'05-MAR-2009'
p2440
(idecision_tree
decision_tree_leaf
p2441
(dp2442
g13
g14
(g15
tp2443
Rp2444
S'Sn'
p2445
I1
ssg23
g2445
sbsS'29-MAR-2009'
p2446
(idecision_tree
decision_tree_leaf
p2447
(dp2448
g13
g14
(g15
tp2449
Rp2450
g18
I1
ssg23
g18
sbssbsbsg24
(idecision_tree
continuous_decision_tree
p2451
(dp2452
g2
F-1.0
sg3
I66
sg4
(idecision_tree
decision_tree_leaf
p2453
(dp2454
g13
g14
(g15
tp2455
Rp2456
g18
I2
sg21
I1
ssg23
g18
sbsg24
(idecision_tree
continuous_decision_tree
p2457
(dp2458
g2
F-55.5
sg3
I67
sg4
(idecision_tree
continuous_decision_tree
p2459
(dp2460
g2
F-52.25
sg3
I67
sg4
(idecision_tree
decision_tree_leaf
p2461
(dp2462
g13
g14
(g15
tp2463
Rp2464
g18
I1
sS'Pn'
p2465
I1
sS'Sn'
p2466
I1
ssg23
g18
sbsg24
(idecision_tree
decision_tree_leaf
p2467
(dp2468
g13
g14
(g15
tp2469
Rp2470
g18
I1
ssg23
g18
sbsbsg24
(idecision_tree
continuous_decision_tree
p2471
(dp2472
g2
F-66.90625
sg3
I63
sg4
(idecision_tree
continuous_decision_tree
p2473
(dp2474
g2
F-1.0
sg3
I58
sg4
(idecision_tree
decision_tree_leaf
p2475
(dp2476
g13
g14
(g15
tp2477
Rp2478
g18
I3
sS'Pn'
p2479
I2
ssg23
g18
sbsg24
(idecision_tree
continuous_decision_tree
p2480
(dp2481
g2
F-48.0
sg3
I59
sg4
(idecision_tree
decision_tree
p2482
(dp2483
g3
I47
sg27
(dp2484
S'25-FEB-2009'
p2485
(idecision_tree
decision_tree_leaf
p2486
(dp2487
g13
g14
(g15
tp2488
Rp2489
S'Sn'
p2490
I1
ssg23
g2490
sbsS'23-OCT-2009'
p2491
(idecision_tree
decision_tree_leaf
p2492
(dp2493
g13
g14
(g15
tp2494
Rp2495
g18
I1
ssg23
g18
sbssbsg24
(idecision_tree
decision_tree_leaf
p2496
(dp2497
g13
g14
(g15
tp2498
Rp2499
S'Sn'
p2500
I1
ssg23
g2500
sbsbsbsg24
(idecision_tree
decision_tree
p2501
(dp2502
g3
I47
sg27
(dp2503
S'25-MAY-2009'
p2504
(idecision_tree
decision_tree_leaf
p2505
(dp2506
g13
g14
(g15
tp2507
Rp2508
g18
I1
ssg23
g18
sbsS'06-SEP-2009'
p2509
(idecision_tree
decision_tree_leaf
p2510
(dp2511
g13
g14
(g15
tp2512
Rp2513
S'Sn'
p2514
I1
ssg23
g2514
sbssbsbsbsbsbsbsg24
(idecision_tree
continuous_decision_tree
p2515
(dp2516
g2
F-108.83335
sg3
I67
sg4
(idecision_tree
continuous_decision_tree
p2517
(dp2518
g2
F162.65
sg3
I67
sg4
(idecision_tree
decision_tree
p2519
(dp2520
g3
I47
sg27
(dp2521
S'20-AUG-2009'
p2522
(idecision_tree
decision_tree_leaf
p2523
(dp2524
g13
g14
(g15
tp2525
Rp2526
S'Pn'
p2527
I1
ssg23
g2527
sbsS'10-APR-2009'
p2528
(idecision_tree
decision_tree_leaf
p2529
(dp2530
g13
g14
(g15
tp2531
Rp2532
g18
I1
ssg23
g18
sbssbsg24
(idecision_tree
continuous_decision_tree
p2533
(dp2534
g2
F120.925
sg3
I67
sg4
(idecision_tree
decision_tree_leaf
p2535
(dp2536
g13
g14
(g15
tp2537
Rp2538
g18
I2
sg21
I1
ssg23
g18
sbsg24
(idecision_tree
continuous_decision_tree
p2539
(dp2540
g2
F-6.5
sg3
I66
sg4
(idecision_tree
continuous_decision_tree
p2541
(dp2542
g2
F-51.25
sg3
I67
sg4
(idecision_tree
continuous_decision_tree
p2543
(dp2544
g2
F-45.0
sg3
I67
sg4
(idecision_tree
decision_tree
p2545
(dp2546
g3
I47
sg27
(dp2547
S'07-SEP-2009'
p2548
(idecision_tree
decision_tree_leaf
p2549
(dp2550
g13
g14
(g15
tp2551
Rp2552
g18
I1
ssg23
g18
sbsS'24-SEP-2009'
p2553
(idecision_tree
decision_tree_leaf
p2554
(dp2555
g13
g14
(g15
tp2556
Rp2557
S'Pn'
p2558
I1
ssg23
g2558
sbssbsg24
(idecision_tree
decision_tree
p2559
(dp2560
g3
I47
sg27
(dp2561
S'17-DEC-2009'
p2562
(idecision_tree
decision_tree_leaf
p2563
(dp2564
g13
g14
(g15
tp2565
Rp2566
g18
I1
ssg23
g18
sbsS'21-OCT-2009'
p2567
(idecision_tree
decision_tree_leaf
p2568
(dp2569
g13
g14
(g15
tp2570
Rp2571
S'Pn'
p2572
I1
ssg23
g2572
sbssbsbsg24
(idecision_tree
continuous_decision_tree
p2573
(dp2574
g2
F-43.0
sg3
I59
sg4
(idecision_tree
decision_tree
p2575
(dp2576
g3
I47
sg27
(dp2577
S'20-JAN-2009'
p2578
(idecision_tree
decision_tree_leaf
p2579
(dp2580
g13
g14
(g15
tp2581
Rp2582
g21
I1
ssg23
g21
sbsS'02-DEC-2009'
p2583
(idecision_tree
decision_tree_leaf
p2584
(dp2585
g13
g14
(g15
tp2586
Rp2587
g18
I1
ssg23
g18
sbssbsg24
(idecision_tree
decision_tree
p2588
(dp2589
g3
I47
sg27
(dp2590
S'28-OCT-2009'
p2591
(idecision_tree
decision_tree_leaf
p2592
(dp2593
g13
g14
(g15
tp2594
Rp2595
g18
I1
ssg23
g18
sbsS'20-JUN-2009'
p2596
(idecision_tree
decision_tree_leaf
p2597
(dp2598
g13
g14
(g15
tp2599
Rp2600
g21
I1
ssg23
g21
sbssbsbsbsg24
(idecision_tree
decision_tree
p2601
(dp2602
g3
I47
sg27
(dp2603
S'16-JAN-2009'
p2604
(idecision_tree
decision_tree_leaf
p2605
(dp2606
g13
g14
(g15
tp2607
Rp2608
g21
I1
ssg23
g21
sbsS'11-AUG-2009'
p2609
(idecision_tree
decision_tree_leaf
p2610
(dp2611
g13
g14
(g15
tp2612
Rp2613
g18
I1
ssg23
g18
sbssbsbsbsbsg24
(idecision_tree
decision_tree
p2614
(dp2615
g3
I47
sg27
(dp2616
S'08-APR-2009'
p2617
(idecision_tree
decision_tree_leaf
p2618
(dp2619
g13
g14
(g15
tp2620
Rp2621
S'Pn'
p2622
I1
ssg23
g2622
sbsS'05-OCT-2009'
p2623
(idecision_tree
decision_tree_leaf
p2624
(dp2625
g13
g14
(g15
tp2626
Rp2627
g18
I1
ssg23
g18
sbssbsbsbsbsbsb.