(idecision_tree
continuous_decision_tree
p0
(dp1
S'split_point'
p2
F1.177605
sS'attribute'
p3
I22
sS'gt_subtree'
p4
(idecision_tree
continuous_decision_tree
p5
(dp6
g2
F2.8002000000000002
sg3
I31
sg4
(idecision_tree
continuous_decision_tree
p7
(dp8
g2
F8.99294
sg3
I32
sg4
(idecision_tree
continuous_decision_tree
p9
(dp10
g2
F11.4759
sg3
I18
sg4
(idecision_tree
continuous_decision_tree
p11
(dp12
g2
F67.43705
sg3
I31
sg4
(idecision_tree
continuous_decision_tree
p13
(dp14
g2
F290.082
sg3
I42
sg4
(idecision_tree
continuous_decision_tree
p15
(dp16
g2
F-52.0
sg3
I67
sg4
(idecision_tree
decision_tree_leaf
p17
(dp18
S'counts'
p19
ccollections
defaultdict
p20
(c__builtin__
int
p21
tp22
Rp23
S'P'
p24
I5
sS'S'
p25
I2
sS'Sn'
p26
I1
ssS'value'
p27
g24
sbsS'lt_subtree'
p28
(idecision_tree
continuous_decision_tree
p29
(dp30
g2
F-1.0
sg3
I66
sg4
(idecision_tree
decision_tree
p31
(dp32
g3
I47
sS'value_to_tree'
p33
(dp34
S'16-OCT-2009'
p35
(idecision_tree
decision_tree_leaf
p36
(dp37
g19
g20
(g21
tp38
Rp39
S'Lg'
p40
I1
ssg27
g40
sbsS'09-OCT-2009'
p41
(idecision_tree
decision_tree_leaf
p42
(dp43
g19
g20
(g21
tp44
Rp45
g24
I1
ssg27
g24
sbssbsg28
(idecision_tree
decision_tree_leaf
p46
(dp47
g19
g20
(g21
tp48
Rp49
g24
I1
ssg27
g24
sbsbsbsg28
(idecision_tree
continuous_decision_tree
p50
(dp51
g2
F1.5
sg3
I66
sg4
(idecision_tree
decision_tree_leaf
p52
(dp53
g19
g20
(g21
tp54
Rp55
g24
I5
sg25
I2
sS'Lg'
p56
I1
ssg27
g24
sbsg28
(idecision_tree
continuous_decision_tree
p57
(dp58
g2
F-44.083349999999996
sg3
I67
sg4
(idecision_tree
continuous_decision_tree
p59
(dp60
g2
F0.0
sg3
I58
sg4
(idecision_tree
decision_tree
p61
(dp62
g3
I47
sg33
(dp63
S'29-MAY-2009'
p64
(idecision_tree
decision_tree_leaf
p65
(dp66
g19
g20
(g21
tp67
Rp68
g24
I1
ssg27
g24
sbsS'15-DEC-2009'
p69
(idecision_tree
decision_tree_leaf
p70
(dp71
g19
g20
(g21
tp72
Rp73
S'Lg'
p74
I1
ssg27
g74
sbsS'27-SEP-2009'
p75
(idecision_tree
decision_tree_leaf
p76
(dp77
g19
g20
(g21
tp78
Rp79
g24
I1
ssg27
g24
sbsS'25-JAN-2009'
p80
(idecision_tree
decision_tree_leaf
p81
(dp82
g19
g20
(g21
tp83
Rp84
g24
I1
ssg27
g24
sbsS'20-DEC-2009'
p85
(idecision_tree
decision_tree_leaf
p86
(dp87
g19
g20
(g21
tp88
Rp89
g24
I1
ssg27
g24
sbssbsg28
(idecision_tree
continuous_decision_tree
p90
(dp91
g2
F-1.5
sg3
I66
sg4
(idecision_tree
decision_tree
p92
(dp93
g3
I47
sg33
(dp94
S'27-SEP-2009'
p95
(idecision_tree
decision_tree_leaf
p96
(dp97
g19
g20
(g21
tp98
Rp99
g25
I1
ssg27
g25
sbsS'25-APR-2009'
p100
(idecision_tree
decision_tree_leaf
p101
(dp102
g19
g20
(g21
tp103
Rp104
g24
I1
ssg27
g24
sbssbsg28
(idecision_tree
decision_tree_leaf
p105
(dp106
g19
g20
(g21
tp107
Rp108
g25
I1
ssg27
g25
sbsbsbsg28
(idecision_tree
continuous_decision_tree
p109
(dp110
g2
F-0.5
sg3
I66
sg4
(idecision_tree
decision_tree
p111
(dp112
g3
I47
sg33
(dp113
S'07-JAN-2009'
p114
(idecision_tree
decision_tree_leaf
p115
(dp116
g19
g20
(g21
tp117
Rp118
g24
I1
ssg27
g24
sbsS'12-MAY-2009'
p119
(idecision_tree
decision_tree_leaf
p120
(dp121
g19
g20
(g21
tp122
Rp123
g25
I1
ssg27
g25
sbssbsg28
(idecision_tree
decision_tree_leaf
p124
(dp125
g19
g20
(g21
tp126
Rp127
g24
I1
ssg27
g24
sbsbsbsbsbsg28
(idecision_tree
continuous_decision_tree
p128
(dp129
g2
F85.0389
sg3
I42
sg4
(idecision_tree
continuous_decision_tree
p130
(dp131
g2
F-45.75
sg3
I67
sg4
(idecision_tree
continuous_decision_tree
p132
(dp133
g2
F0.9914075
sg3
I36
sg4
(idecision_tree
continuous_decision_tree
p134
(dp135
g2
F22.25
sg3
I67
sg4
(idecision_tree
continuous_decision_tree
p136
(dp137
g2
F102.75
sg3
I67
sg4
(idecision_tree
continuous_decision_tree
p138
(dp139
g2
F-19.5
sg3
I63
sg4
(idecision_tree
continuous_decision_tree
p140
(dp141
g2
F0.0
sg3
I59
sg4
(idecision_tree
continuous_decision_tree
p142
(dp143
g2
F0.178864
sg3
I51
sg4
(idecision_tree
decision_tree
p144
(dp145
g3
I47
sg33
(dp146
S'26-AUG-2009'
p147
(idecision_tree
decision_tree_leaf
p148
(dp149
g19
g20
(g21
tp150
Rp151
S'PKP'
p152
I1
ssg27
g152
sbsS'16-APR-2009'
p153
(idecision_tree
decision_tree_leaf
p154
(dp155
g19
g20
(g21
tp156
Rp157
g24
I1
ssg27
g24
sbsS'07-JUL-2009'
p158
(idecision_tree
decision_tree_leaf
p159
(dp160
g19
g20
(g21
tp161
Rp162
g24
I1
ssg27
g24
sbssbsg28
(idecision_tree
continuous_decision_tree
p163
(dp164
g2
F127.344
sg3
I67
sg4
(idecision_tree
decision_tree
p165
(dp166
g3
I47
sg33
(dp167
S'22-FEB-2009'
p168
(idecision_tree
decision_tree_leaf
p169
(dp170
g19
g20
(g21
tp171
Rp172
S'PKP'
p173
I1
ssg27
g173
sbsS'28-JAN-2009'
p174
(idecision_tree
decision_tree_leaf
p175
(dp176
g19
g20
(g21
tp177
Rp178
g24
I1
ssg27
g24
sbssbsg28
(idecision_tree
decision_tree_leaf
p179
(dp180
g19
g20
(g21
tp181
Rp182
g24
I1
ssg27
g24
sbsbsbsg28
(idecision_tree
decision_tree
p183
(dp184
g3
I47
sg33
(dp185
S'24-MAR-2009'
p186
(idecision_tree
decision_tree_leaf
p187
(dp188
g19
g20
(g21
tp189
Rp190
S'PKP'
p191
I1
ssg27
g191
sbsS'18-NOV-2009'
p192
(idecision_tree
decision_tree_leaf
p193
(dp194
g19
g20
(g21
tp195
Rp196
g24
I1
ssg27
g24
sbssbsbsg28
(idecision_tree
decision_tree
p197
(dp198
g3
I47
sg33
(dp199
S'23-OCT-2009'
p200
(idecision_tree
decision_tree_leaf
p201
(dp202
g19
g20
(g21
tp203
Rp204
S'PKP'
p205
I1
ssg27
g205
sbsS'26-MAR-2009'
p206
(idecision_tree
decision_tree_leaf
p207
(dp208
g19
g20
(g21
tp209
Rp210
g24
I1
ssg27
g24
sbsS'29-JUL-2009'
p211
(idecision_tree
decision_tree_leaf
p212
(dp213
g19
g20
(g21
tp214
Rp215
g24
I1
ssg27
g24
sbssbsbsg28
(idecision_tree
continuous_decision_tree
p216
(dp217
g2
F0.1602625
sg3
I51
sg4
(idecision_tree
continuous_decision_tree
p218
(dp219
g2
F6.75
sg3
I59
sg4
(idecision_tree
continuous_decision_tree
p220
(dp221
g2
F3.5
sg3
I66
sg4
(idecision_tree
decision_tree
p222
(dp223
g3
I47
sg33
(dp224
S'16-OCT-2009'
p225
(idecision_tree
decision_tree_leaf
p226
(dp227
g19
g20
(g21
tp228
Rp229
S'PKP'
p230
I1
ssg27
g230
sbsS'07-AUG-2009'
p231
(idecision_tree
decision_tree_leaf
p232
(dp233
g19
g20
(g21
tp234
Rp235
g24
I1
ssg27
g24
sbssbsg28
(idecision_tree
decision_tree_leaf
p236
(dp237
g19
g20
(g21
tp238
Rp239
g24
I1
ssg27
g24
sbsbsg28
(idecision_tree
decision_tree
p240
(dp241
g3
I47
sg33
(dp242
S'28-MAR-2009'
p243
(idecision_tree
decision_tree_leaf
p244
(dp245
g19
g20
(g21
tp246
Rp247
g24
I1
ssg27
g24
sbsS'18-SEP-2009'
p248
(idecision_tree
decision_tree_leaf
p249
(dp250
g19
g20
(g21
tp251
Rp252
S'PKP'
p253
I1
ssg27
g253
sbssbsbsg28
(idecision_tree
continuous_decision_tree
p254
(dp255
g2
F36.6607
sg3
I67
sg4
(idecision_tree
decision_tree
p256
(dp257
g3
I47
sg33
(dp258
S'01-JUL-2009'
p259
(idecision_tree
decision_tree_leaf
p260
(dp261
g19
g20
(g21
tp262
Rp263
S'PKP'
p264
I1
ssg27
g264
sbsS'23-AUG-2009'
p265
(idecision_tree
decision_tree_leaf
p266
(dp267
g19
g20
(g21
tp268
Rp269
g24
I1
ssg27
g24
sbssbsg28
(idecision_tree
decision_tree_leaf
p270
(dp271
g19
g20
(g21
tp272
Rp273
g24
I1
ssg27
g24
sbsbsbsbsg28
(idecision_tree
continuous_decision_tree
p274
(dp275
g2
F13.33335
sg3
I67
sg4
(idecision_tree
continuous_decision_tree
p276
(dp277
g2
F0.1149718
sg3
I52
sg4
(idecision_tree
decision_tree
p278
(dp279
g3
I47
sg33
(dp280
S'08-SEP-2009'
p281
(idecision_tree
decision_tree_leaf
p282
(dp283
g19
g20
(g21
tp284
Rp285
g24
I1
ssg27
g24
sbsS'29-OCT-2009'
p286
(idecision_tree
decision_tree_leaf
p287
(dp288
g19
g20
(g21
tp289
Rp290
S'PKP'
p291
I1
ssg27
g291
sbssbsg28
(idecision_tree
decision_tree_leaf
p292
(dp293
g19
g20
(g21
tp294
Rp295
g24
I1
ssg27
g24
sbsbsg28
(idecision_tree
continuous_decision_tree
p296
(dp297
g2
F0.0
sg3
I67
sg4
(idecision_tree
continuous_decision_tree
p298
(dp299
g2
F3.333335
sg3
I67
sg4
(idecision_tree
decision_tree
p300
(dp301
g3
I47
sg33
(dp302
S'09-APR-2009'
p303
(idecision_tree
decision_tree_leaf
p304
(dp305
g19
g20
(g21
tp306
Rp307
S'PKP'
p308
I1
ssg27
g308
sbsS'02-DEC-2009'
p309
(idecision_tree
decision_tree_leaf
p310
(dp311
g19
g20
(g21
tp312
Rp313
g24
I1
ssg27
g24
sbssbsg28
(idecision_tree
decision_tree
p314
(dp315
g3
I47
sg33
(dp316
S'07-APR-2009'
p317
(idecision_tree
decision_tree_leaf
p318
(dp319
g19
g20
(g21
tp320
Rp321
g24
I1
ssg27
g24
sbsS'03-JAN-2009'
p322
(idecision_tree
decision_tree_leaf
p323
(dp324
g19
g20
(g21
tp325
Rp326
S'PKP'
p327
I1
ssg27
g327
sbssbsbsg28
(idecision_tree
decision_tree
p328
(dp329
g3
I47
sg33
(dp330
S'12-AUG-2009'
p331
(idecision_tree
decision_tree_leaf
p332
(dp333
g19
g20
(g21
tp334
Rp335
S'PKP'
p336
I1
ssg27
g336
sbsS'13-JAN-2009'
p337
(idecision_tree
decision_tree_leaf
p338
(dp339
g19
g20
(g21
tp340
Rp341
g24
I1
ssg27
g24
sbsS'25-JUL-2009'
p342
(idecision_tree
decision_tree_leaf
p343
(dp344
g19
g20
(g21
tp345
Rp346
g24
I1
ssg27
g24
sbsS'24-OCT-2009'
p347
(idecision_tree
decision_tree_leaf
p348
(dp349
g19
g20
(g21
tp350
Rp351
g24
I1
ssg27
g24
sbssbsbsbsbsg28
(idecision_tree
decision_tree_leaf
p352
(dp353
g19
g20
(g21
tp354
Rp355
S'Lg'
p356
I3
sS'PKP'
p357
I3
sg24
I50
sg25
I18
sS'Pg'
p358
I1
sS'Pn'
p359
I3
sS'Sn'
p360
I1
ssg27
g24
sbsbsg28
(idecision_tree
continuous_decision_tree
p361
(dp362
g2
F-3.0
sg3
I66
sg4
(idecision_tree
decision_tree_leaf
p363
(dp364
g19
g20
(g21
tp365
Rp366
g24
I15
sS'PKP'
p367
I3
sS'Pn'
p368
I2
sg25
I3
ssg27
g24
sbsg28
(idecision_tree
continuous_decision_tree
p369
(dp370
g2
F-173.3
sg3
I67
sg4
(idecision_tree
continuous_decision_tree
p371
(dp372
g2
F-35.4
sg3
I63
sg4
(idecision_tree
decision_tree
p373
(dp374
g3
I47
sg33
(dp375
S'13-MAY-2009'
p376
(idecision_tree
decision_tree_leaf
p377
(dp378
g19
g20
(g21
tp379
Rp380
g24
I1
ssg27
g24
sbsS'17-MAY-2009'
p381
(idecision_tree
decision_tree_leaf
p382
(dp383
g19
g20
(g21
tp384
Rp385
g25
I1
ssg27
g25
sbssbsg28
(idecision_tree
continuous_decision_tree
p386
(dp387
g2
F-8.0
sg3
I66
sg4
(idecision_tree
decision_tree
p388
(dp389
g3
I47
sg33
(dp390
S'07-DEC-2009'
p391
(idecision_tree
decision_tree_leaf
p392
(dp393
g19
g20
(g21
tp394
Rp395
g24
I1
ssg27
g24
sbsS'23-SEP-2009'
p396
(idecision_tree
decision_tree_leaf
p397
(dp398
g19
g20
(g21
tp399
Rp400
g25
I1
ssg27
g25
sbssbsg28
(idecision_tree
decision_tree_leaf
p401
(dp402
g19
g20
(g21
tp403
Rp404
g24
I1
ssg27
g24
sbsbsbsg28
(idecision_tree
decision_tree
p405
(dp406
g3
I47
sg33
(dp407
S'25-JAN-2009'
p408
(idecision_tree
decision_tree_leaf
p409
(dp410
g19
g20
(g21
tp411
Rp412
g24
I1
ssg27
g24
sbsS'14-JUL-2009'
p413
(idecision_tree
decision_tree_leaf
p414
(dp415
g19
g20
(g21
tp416
Rp417
S'PKP'
p418
I1
ssg27
g418
sbssbsbsbsbsg28
(idecision_tree
decision_tree_leaf
p419
(dp420
g19
g20
(g21
tp421
Rp422
g24
I19
sg25
I4
sS'Pn'
p423
I6
sS'Sn'
p424
I1
ssg27
g24
sbsbsbsg28
(idecision_tree
continuous_decision_tree
p425
(dp426
g2
F327.02750000000003
sg3
I41
sg4
(idecision_tree
continuous_decision_tree
p427
(dp428
g2
F-18.58335
sg3
I67
sg4
(idecision_tree
decision_tree_leaf
p429
(dp430
g19
g20
(g21
tp431
Rp432
g24
I12
sg25
I4
sS'PKP'
p433
I1
sS'Sn'
p434
I2
ssg27
g24
sbsg28
(idecision_tree
continuous_decision_tree
p435
(dp436
g2
F-2.0
sg3
I58
sg4
(idecision_tree
continuous_decision_tree
p437
(dp438
g2
F-128.0
sg3
I67
sg4
(idecision_tree
decision_tree_leaf
p439
(dp440
g19
g20
(g21
tp441
Rp442
g24
I2
sg25
I1
ssg27
g24
sbsg28
(idecision_tree
continuous_decision_tree
p443
(dp444
g2
F0.7065435
sg3
I48
sg4
(idecision_tree
decision_tree
p445
(dp446
g3
I47
sg33
(dp447
S'10-MAY-2009'
p448
(idecision_tree
decision_tree_leaf
p449
(dp450
g19
g20
(g21
tp451
Rp452
g24
I1
ssg27
g24
sbsS'12-JAN-2009'
p453
(idecision_tree
decision_tree_leaf
p454
(dp455
g19
g20
(g21
tp456
Rp457
g25
I1
ssg27
g25
sbsS'24-JAN-2009'
p458
(idecision_tree
decision_tree_leaf
p459
(dp460
g19
g20
(g21
tp461
Rp462
g24
I1
ssg27
g24
sbssbsg28
(idecision_tree
decision_tree
p463
(dp464
g3
I47
sg33
(dp465
S'29-JAN-2009'
p466
(idecision_tree
decision_tree_leaf
p467
(dp468
g19
g20
(g21
tp469
Rp470
g24
I1
ssg27
g24
sbsS'17-JUL-2009'
p471
(idecision_tree
decision_tree_leaf
p472
(dp473
g19
g20
(g21
tp474
Rp475
g24
I1
ssg27
g24
sbsS'16-SEP-2009'
p476
(idecision_tree
decision_tree_leaf
p477
(dp478
g19
g20
(g21
tp479
Rp480
S'Pn'
p481
I1
ssg27
g481
sbssbsbsbsg28
(idecision_tree
decision_tree
p482
(dp483
g3
I47
sg33
(dp484
S'31-JUL-2009'
p485
(idecision_tree
decision_tree_leaf
p486
(dp487
g19
g20
(g21
tp488
Rp489
g25
I1
ssg27
g25
sbsS'20-APR-2009'
p490
(idecision_tree
decision_tree_leaf
p491
(dp492
g19
g20
(g21
tp493
Rp494
g24
I1
ssg27
g24
sbssbsbsbsg28
(idecision_tree
continuous_decision_tree
p495
(dp496
g2
F26.6667
sg3
I59
sg4
(idecision_tree
continuous_decision_tree
p497
(dp498
g2
F20.5
sg3
I67
sg4
(idecision_tree
continuous_decision_tree
p499
(dp500
g2
F0.28424000000000005
sg3
I49
sg4
(idecision_tree
continuous_decision_tree
p501
(dp502
g2
F31.16665
sg3
I63
sg4
(idecision_tree
continuous_decision_tree
p503
(dp504
g2
F37.416650000000004
sg3
I63
sg4
(idecision_tree
continuous_decision_tree
p505
(dp506
g2
F42.0
sg3
I67
sg4
(idecision_tree
decision_tree
p507
(dp508
g3
I47
sg33
(dp509
S'09-JUN-2009'
p510
(idecision_tree
decision_tree_leaf
p511
(dp512
g19
g20
(g21
tp513
Rp514
g25
I1
ssg27
g25
sbsS'07-AUG-2009'
p515
(idecision_tree
decision_tree_leaf
p516
(dp517
g19
g20
(g21
tp518
Rp519
g24
I1
ssg27
g24
sbssbsg28
(idecision_tree
decision_tree_leaf
p520
(dp521
g19
g20
(g21
tp522
Rp523
g24
I1
ssg27
g24
sbsbsg28
(idecision_tree
continuous_decision_tree
p524
(dp525
g2
F1.5
sg3
I66
sg4
(idecision_tree
decision_tree_leaf
p526
(dp527
g19
g20
(g21
tp528
Rp529
g24
I2
sg25
I1
ssg27
g24
sbsg28
(idecision_tree
decision_tree
p530
(dp531
g3
I47
sg33
(dp532
S'07-SEP-2009'
p533
(idecision_tree
decision_tree_leaf
p534
(dp535
g19
g20
(g21
tp536
Rp537
g24
I1
ssg27
g24
sbsS'24-FEB-2009'
p538
(idecision_tree
decision_tree_leaf
p539
(dp540
g19
g20
(g21
tp541
Rp542
g25
I1
ssg27
g25
sbssbsbsbsg28
(idecision_tree
continuous_decision_tree
p543
(dp544
g2
F3.5
sg3
I66
sg4
(idecision_tree
continuous_decision_tree
p545
(dp546
g2
F0.11203975
sg3
I51
sg4
(idecision_tree
decision_tree
p547
(dp548
g3
I47
sg33
(dp549
S'14-APR-2009'
p550
(idecision_tree
decision_tree_leaf
p551
(dp552
g19
g20
(g21
tp553
Rp554
S'Pn'
p555
I1
ssg27
g555
sbsS'12-JUL-2009'
p556
(idecision_tree
decision_tree_leaf
p557
(dp558
g19
g20
(g21
tp559
Rp560
g24
I1
ssg27
g24
sbssbsg28
(idecision_tree
decision_tree_leaf
p561
(dp562
g19
g20
(g21
tp563
Rp564
g24
I1
ssg27
g24
sbsbsg28
(idecision_tree
continuous_decision_tree
p565
(dp566
g2
F30.0
sg3
I67
sg4
(idecision_tree
decision_tree_leaf
p567
(dp568
g19
g20
(g21
tp569
Rp570
g24
I1
sg25
I1
sS'Pn'
p571
I1
ssg27
g24
sbsg28
(idecision_tree
decision_tree_leaf
p572
(dp573
g19
g20
(g21
tp574
Rp575
g24
I2
ssg27
g24
sbsbsbsbsg28
(idecision_tree
decision_tree_leaf
p576
(dp577
g19
g20
(g21
tp578
Rp579
g24
I5
sS'Pn'
p580
I3
ssg27
g24
sbsbsg28
(idecision_tree
continuous_decision_tree
p581
(dp582
g2
F1.0
sg3
I62
sg4
(idecision_tree
continuous_decision_tree
p583
(dp584
g2
F2.0
sg3
I62
sg4
(idecision_tree
decision_tree
p585
(dp586
g3
I47
sg33
(dp587
S'10-MAR-2009'
p588
(idecision_tree
decision_tree_leaf
p589
(dp590
g19
g20
(g21
tp591
Rp592
g24
I1
ssg27
g24
sbsS'12-APR-2009'
p593
(idecision_tree
decision_tree_leaf
p594
(dp595
g19
g20
(g21
tp596
Rp597
g24
I1
ssg27
g24
sbsS'29-JUL-2009'
p598
(idecision_tree
decision_tree_leaf
p599
(dp600
g19
g20
(g21
tp601
Rp602
S'Pn'
p603
I1
ssg27
g603
sbsS'13-APR-2009'
p604
(idecision_tree
decision_tree_leaf
p605
(dp606
g19
g20
(g21
tp607
Rp608
g24
I1
ssg27
g24
sbssbsg28
(idecision_tree
decision_tree
p609
(dp610
g3
I47
sg33
(dp611
S'10-AUG-2009'
p612
(idecision_tree
decision_tree_leaf
p613
(dp614
g19
g20
(g21
tp615
Rp616
g24
I1
ssg27
g24
sbsS'13-JUN-2009'
p617
(idecision_tree
decision_tree_leaf
p618
(dp619
g19
g20
(g21
tp620
Rp621
g24
I1
ssg27
g24
sbsS'05-SEP-2009'
p622
(idecision_tree
decision_tree_leaf
p623
(dp624
g19
g20
(g21
tp625
Rp626
g25
I1
ssg27
g25
sbssbsbsg28
(idecision_tree
decision_tree_leaf
p627
(dp628
g19
g20
(g21
tp629
Rp630
g25
I1
ssg27
g25
sbsbsbsg28
(idecision_tree
decision_tree_leaf
p631
(dp632
g19
g20
(g21
tp633
Rp634
S'Lg'
p635
I5
sS'PKP'
p636
I6
sg24
I213
sg25
I66
sS'Sn'
p637
I5
sS'Pn'
p638
I40
sS'Pg'
p639
I1
ssg27
g24
sbsbsbsbsg28
(idecision_tree
continuous_decision_tree
p640
(dp641
g2
F0.0
sg3
I62
sg4
(idecision_tree
continuous_decision_tree
p642
(dp643
g2
F151.91449999999998
sg3
I42
sg4
(idecision_tree
continuous_decision_tree
p644
(dp645
g2
F4.1203199999999995
sg3
I31
sg4
(idecision_tree
continuous_decision_tree
p646
(dp647
g2
F0.0
sg3
I66
sg4
(idecision_tree
continuous_decision_tree
p648
(dp649
g2
F1.75
sg3
I67
sg4
(idecision_tree
continuous_decision_tree
p650
(dp651
g2
F141.8
sg3
I67
sg4
(idecision_tree
continuous_decision_tree
p652
(dp653
g2
F218.5
sg3
I67
sg4
(idecision_tree
decision_tree_leaf
p654
(dp655
g19
g20
(g21
tp656
Rp657
g24
I2
sS'PKP'
p658
I1
ssg27
g24
sbsg28
(idecision_tree
continuous_decision_tree
p659
(dp660
g2
F2.5
sg3
I66
sg4
(idecision_tree
decision_tree
p661
(dp662
g3
I47
sg33
(dp663
S'22-FEB-2009'
p664
(idecision_tree
decision_tree_leaf
p665
(dp666
g19
g20
(g21
tp667
Rp668
S'Lg'
p669
I1
ssg27
g669
sbsS'05-JUN-2009'
p670
(idecision_tree
decision_tree_leaf
p671
(dp672
g19
g20
(g21
tp673
Rp674
g24
I1
ssg27
g24
sbssbsg28
(idecision_tree
decision_tree_leaf
p675
(dp676
g19
g20
(g21
tp677
Rp678
g24
I1
ssg27
g24
sbsbsbsg28
(idecision_tree
decision_tree_leaf
p679
(dp680
g19
g20
(g21
tp681
Rp682
g24
I26
sS'PKP'
p683
I6
sg25
I7
ssg27
g24
sbsbsg28
(idecision_tree
decision_tree_leaf
p684
(dp685
g19
g20
(g21
tp686
Rp687
g24
I22
sg25
I2
sS'Pn'
p688
I3
sS'PKP'
p689
I5
sS'Lg'
p690
I1
ssg27
g24
sbsbsg28
(idecision_tree
continuous_decision_tree
p691
(dp692
g2
F-146.08350000000002
sg3
I67
sg4
(idecision_tree
decision_tree
p693
(dp694
g3
I47
sg33
(dp695
S'10-MAY-2009'
p696
(idecision_tree
decision_tree_leaf
p697
(dp698
g19
g20
(g21
tp699
Rp700
S'Lg'
p701
I1
ssg27
g701
sbsS'02-MAY-2009'
p702
(idecision_tree
decision_tree_leaf
p703
(dp704
g19
g20
(g21
tp705
Rp706
g24
I1
ssg27
g24
sbssbsg28
(idecision_tree
continuous_decision_tree
p707
(dp708
g2
F0.5
sg3
I53
sg4
(idecision_tree
decision_tree
p709
(dp710
g3
I47
sg33
(dp711
S'02-OCT-2009'
p712
(idecision_tree
decision_tree_leaf
p713
(dp714
g19
g20
(g21
tp715
Rp716
S'PKP'
p717
I1
ssg27
g717
sbsS'06-SEP-2009'
p718
(idecision_tree
decision_tree_leaf
p719
(dp720
g19
g20
(g21
tp721
Rp722
g24
I1
ssg27
g24
sbssbsg28
(idecision_tree
decision_tree
p723
(dp724
g3
I47
sg33
(dp725
S'06-MAR-2009'
p726
(idecision_tree
decision_tree_leaf
p727
(dp728
g19
g20
(g21
tp729
Rp730
g24
I1
ssg27
g24
sbsS'18-OCT-2009'
p731
(idecision_tree
decision_tree_leaf
p732
(dp733
g19
g20
(g21
tp734
Rp735
S'Sn'
p736
I1
ssg27
g736
sbssbsbsbsbsg28
(idecision_tree
decision_tree_leaf
p737
(dp738
g19
g20
(g21
tp739
Rp740
S'Lg'
p741
I1
sS'PKP'
p742
I12
sg24
I55
sg25
I6
sS'Sn'
p743
I1
sS'Pn'
p744
I9
ssg27
g24
sbsbsg28
(idecision_tree
decision_tree_leaf
p745
(dp746
g19
g20
(g21
tp747
Rp748
g24
I91
sS'PKP'
p749
I16
sS'Pn'
p750
I23
sg25
I8
sS'Lg'
p751
I1
ssg27
g24
sbsbsg28
(idecision_tree
continuous_decision_tree
p752
(dp753
g2
F0.99344
sg3
I36
sg4
(idecision_tree
continuous_decision_tree
p754
(dp755
g2
F-44.75
sg3
I67
sg4
(idecision_tree
decision_tree_leaf
p756
(dp757
g19
g20
(g21
tp758
Rp759
g24
I7
sS'PKP'
p760
I5
ssg27
g24
sbsg28
(idecision_tree
continuous_decision_tree
p761
(dp762
g2
F-73.16665
sg3
I67
sg4
(idecision_tree
decision_tree
p763
(dp764
g3
I47
sg33
(dp765
S'10-OCT-2009'
p766
(idecision_tree
decision_tree_leaf
p767
(dp768
g19
g20
(g21
tp769
Rp770
g24
I1
ssg27
g24
sbsS'21-JUN-2009'
p771
(idecision_tree
decision_tree_leaf
p772
(dp773
g19
g20
(g21
tp774
Rp775
S'Pn'
p776
I1
ssg27
g776
sbssbsg28
(idecision_tree
continuous_decision_tree
p777
(dp778
g2
F-2.5
sg3
I66
sg4
(idecision_tree
decision_tree
p779
(dp780
g3
I47
sg33
(dp781
S'21-APR-2009'
p782
(idecision_tree
decision_tree_leaf
p783
(dp784
g19
g20
(g21
tp785
Rp786
S'PKP'
p787
I1
ssg27
g787
sbsS'24-JUN-2009'
p788
(idecision_tree
decision_tree_leaf
p789
(dp790
g19
g20
(g21
tp791
Rp792
g24
I1
ssg27
g24
sbssbsg28
(idecision_tree
continuous_decision_tree
p793
(dp794
g2
F-49.916700000000006
sg3
I63
sg4
(idecision_tree
decision_tree
p795
(dp796
g3
I47
sg33
(dp797
S'16-MAR-2009'
p798
(idecision_tree
decision_tree_leaf
p799
(dp800
g19
g20
(g21
tp801
Rp802
S'PKP'
p803
I1
ssg27
g803
sbsS'22-MAY-2009'
p804
(idecision_tree
decision_tree_leaf
p805
(dp806
g19
g20
(g21
tp807
Rp808
g24
I1
ssg27
g24
sbssbsg28
(idecision_tree
decision_tree_leaf
p809
(dp810
g19
g20
(g21
tp811
Rp812
g24
I1
ssg27
g24
sbsbsbsbsbsg28
(idecision_tree
continuous_decision_tree
p813
(dp814
g2
F318.3295
sg3
I41
sg4
(idecision_tree
continuous_decision_tree
p815
(dp816
g2
F2.516065
sg3
I33
sg4
(idecision_tree
continuous_decision_tree
p817
(dp818
g2
F-10.875
sg3
I67
sg4
(idecision_tree
continuous_decision_tree
p819
(dp820
g2
F-1.0
sg3
I66
sg4
(idecision_tree
continuous_decision_tree
p821
(dp822
g2
F98.5
sg3
I67
sg4
(idecision_tree
continuous_decision_tree
p823
(dp824
g2
F-2.0
sg3
I62
sg4
(idecision_tree
decision_tree
p825
(dp826
g3
I47
sg33
(dp827
S'15-MAR-2009'
p828
(idecision_tree
decision_tree_leaf
p829
(dp830
g19
g20
(g21
tp831
Rp832
g25
I1
ssg27
g25
sbsS'23-MAY-2009'
p833
(idecision_tree
decision_tree_leaf
p834
(dp835
g19
g20
(g21
tp836
Rp837
g24
I1
ssg27
g24
sbssbsg28
(idecision_tree
decision_tree_leaf
p838
(dp839
g19
g20
(g21
tp840
Rp841
g24
I1
ssg27
g24
sbsbsg28
(idecision_tree
decision_tree_leaf
p842
(dp843
g19
g20
(g21
tp844
Rp845
g24
I2
sg25
I1
ssg27
g24
sbsbsg28
(idecision_tree
decision_tree_leaf
p846
(dp847
g19
g20
(g21
tp848
Rp849
g25
I1
ssg27
g25
sbsbsg28
(idecision_tree
continuous_decision_tree
p850
(dp851
g2
F-3.0
sg3
I66
sg4
(idecision_tree
continuous_decision_tree
p852
(dp853
g2
F-70.5
sg3
I67
sg4
(idecision_tree
decision_tree
p854
(dp855
g3
I47
sg33
(dp856
S'13-JAN-2009'
p857
(idecision_tree
decision_tree_leaf
p858
(dp859
g19
g20
(g21
tp860
Rp861
g24
I1
ssg27
g24
sbsS'10-OCT-2009'
p862
(idecision_tree
decision_tree_leaf
p863
(dp864
g19
g20
(g21
tp865
Rp866
g25
I1
ssg27
g25
sbssbsg28
(idecision_tree
decision_tree_leaf
p867
(dp868
g19
g20
(g21
tp869
Rp870
g24
I1
ssg27
g24
sbsbsg28
(idecision_tree
decision_tree
p871
(dp872
g3
I47
sg33
(dp873
S'24-JUN-2009'
p874
(idecision_tree
decision_tree_leaf
p875
(dp876
g19
g20
(g21
tp877
Rp878
g24
I1
ssg27
g24
sbsS'13-AUG-2009'
p879
(idecision_tree
decision_tree_leaf
p880
(dp881
g19
g20
(g21
tp882
Rp883
g25
I1
ssg27
g25
sbssbsbsbsg28
(idecision_tree
decision_tree_leaf
p884
(dp885
g19
g20
(g21
tp886
Rp887
g24
I4
sg25
I2
sS'Pn'
p888
I1
ssg27
g24
sbsbsg28
(idecision_tree
continuous_decision_tree
p889
(dp890
g2
F-1.0
sg3
I58
sg4
(idecision_tree
continuous_decision_tree
p891
(dp892
g2
F-92.675
sg3
I67
sg4
(idecision_tree
continuous_decision_tree
p893
(dp894
g2
F118.3055
sg3
I42
sg4
(idecision_tree
continuous_decision_tree
p895
(dp896
g2
F-1.0
sg3
I66
sg4
(idecision_tree
continuous_decision_tree
p897
(dp898
g2
F2.5
sg3
I66
sg4
(idecision_tree
decision_tree
p899
(dp900
g3
I47
sg33
(dp901
S'03-JUL-2009'
p902
(idecision_tree
decision_tree_leaf
p903
(dp904
g19
g20
(g21
tp905
Rp906
g24
I1
ssg27
g24
sbsS'02-JUL-2009'
p907
(idecision_tree
decision_tree_leaf
p908
(dp909
g19
g20
(g21
tp910
Rp911
S'Pn'
p912
I1
ssg27
g912
sbssbsg28
(idecision_tree
decision_tree_leaf
p913
(dp914
g19
g20
(g21
tp915
Rp916
g24
I5
sS'PKP'
p917
I3
sS'Pn'
p918
I1
ssg27
g24
sbsbsg28
(idecision_tree
continuous_decision_tree
p919
(dp920
g2
F-59.625
sg3
I67
sg4
(idecision_tree
continuous_decision_tree
p921
(dp922
g2
F-45.7619
sg3
I67
sg4
(idecision_tree
decision_tree
p923
(dp924
g3
I47
sg33
(dp925
S'01-JUL-2009'
p926
(idecision_tree
decision_tree_leaf
p927
(dp928
g19
g20
(g21
tp929
Rp930
g24
I1
ssg27
g24
sbsS'04-JUL-2009'
p931
(idecision_tree
decision_tree_leaf
p932
(dp933
g19
g20
(g21
tp934
Rp935
S'PKP'
p936
I1
ssg27
g936
sbssbsg28
(idecision_tree
decision_tree_leaf
p937
(dp938
g19
g20
(g21
tp939
Rp940
g24
I1
ssg27
g24
sbsbsg28
(idecision_tree
continuous_decision_tree
p941
(dp942
g2
F291.5685
sg3
I43
sg4
(idecision_tree
continuous_decision_tree
p943
(dp944
g2
F-3.0
sg3
I59
sg4
(idecision_tree
decision_tree
p945
(dp946
g3
I47
sg33
(dp947
S'08-APR-2009'
p948
(idecision_tree
decision_tree_leaf
p949
(dp950
g19
g20
(g21
tp951
Rp952
g24
I1
ssg27
g24
sbsS'28-APR-2009'
p953
(idecision_tree
decision_tree_leaf
p954
(dp955
g19
g20
(g21
tp956
Rp957
g25
I1
ssg27
g25
sbssbsg28
(idecision_tree
decision_tree_leaf
p958
(dp959
g19
g20
(g21
tp960
Rp961
g24
I1
ssg27
g24
sbsbsg28
(idecision_tree
decision_tree
p962
(dp963
g3
I47
sg33
(dp964
S'28-OCT-2009'
p965
(idecision_tree
decision_tree_leaf
p966
(dp967
g19
g20
(g21
tp968
Rp969
g24
I1
ssg27
g24
sbsS'03-MAR-2009'
p970
(idecision_tree
decision_tree_leaf
p971
(dp972
g19
g20
(g21
tp973
Rp974
g24
I1
ssg27
g24
sbsS'05-DEC-2009'
p975
(idecision_tree
decision_tree_leaf
p976
(dp977
g19
g20
(g21
tp978
Rp979
g24
I1
ssg27
g24
sbsS'26-APR-2009'
p980
(idecision_tree
decision_tree_leaf
p981
(dp982
g19
g20
(g21
tp983
Rp984
g25
I1
ssg27
g25
sbssbsbsbsbsg28
(idecision_tree
decision_tree_leaf
p985
(dp986
g19
g20
(g21
tp987
Rp988
g24
I5
sg25
I3
ssg27
g24
sbsbsg28
(idecision_tree
continuous_decision_tree
p989
(dp990
g2
F-143.75
sg3
I67
sg4
(idecision_tree
continuous_decision_tree
p991
(dp992
g2
F-123.17150000000001
sg3
I67
sg4
(idecision_tree
decision_tree
p993
(dp994
g3
I47
sg33
(dp995
S'08-JAN-2009'
p996
(idecision_tree
decision_tree_leaf
p997
(dp998
g19
g20
(g21
tp999
Rp1000
g24
I1
ssg27
g24
sbsS'09-OCT-2009'
p1001
(idecision_tree
decision_tree_leaf
p1002
(dp1003
g19
g20
(g21
tp1004
Rp1005
S'Pn'
p1006
I1
ssg27
g1006
sbssbsg28
(idecision_tree
continuous_decision_tree
p1007
(dp1008
g2
F-7.5
sg3
I66
sg4
(idecision_tree
decision_tree
p1009
(dp1010
g3
I47
sg33
(dp1011
S'16-OCT-2009'
p1012
(idecision_tree
decision_tree_leaf
p1013
(dp1014
g19
g20
(g21
tp1015
Rp1016
g24
I1
ssg27
g24
sbsS'28-MAY-2009'
p1017
(idecision_tree
decision_tree_leaf
p1018
(dp1019
g19
g20
(g21
tp1020
Rp1021
g25
I1
ssg27
g25
sbssbsg28
(idecision_tree
decision_tree_leaf
p1022
(dp1023
g19
g20
(g21
tp1024
Rp1025
g24
I1
ssg27
g24
sbsbsbsg28
(idecision_tree
decision_tree_leaf
p1026
(dp1027
g19
g20
(g21
tp1028
Rp1029
g24
I2
sS'Pn'
p1030
I1
ssg27
g24
sbsbsbsg28
(idecision_tree
continuous_decision_tree
p1031
(dp1032
g2
F0.296227
sg3
I48
sg4
(idecision_tree
continuous_decision_tree
p1033
(dp1034
g2
F72.73235
sg3
I40
sg4
(idecision_tree
decision_tree_leaf
p1035
(dp1036
g19
g20
(g21
tp1037
Rp1038
g24
I13
sS'PKP'
p1039
I2
sS'Pn'
p1040
I1
sg25
I8
ssg27
g24
sbsg28
(idecision_tree
continuous_decision_tree
p1041
(dp1042
g2
F-1.0
sg3
I66
sg4
(idecision_tree
decision_tree_leaf
p1043
(dp1044
g19
g20
(g21
tp1045
Rp1046
g24
I2
sg25
I1
ssg27
g24
sbsg28
(idecision_tree
decision_tree_leaf
p1047
(dp1048
g19
g20
(g21
tp1049
Rp1050
g24
I4
sg25
I4
ssg27
g24
sbsbsbsg28
(idecision_tree
continuous_decision_tree
p1051
(dp1052
g2
F39.616665000000005
sg3
I67
sg4
(idecision_tree
decision_tree
p1053
(dp1054
g3
I47
sg33
(dp1055
S'14-MAY-2009'
p1056
(idecision_tree
decision_tree_leaf
p1057
(dp1058
g19
g20
(g21
tp1059
Rp1060
g24
I1
ssg27
g24
sbsS'15-AUG-2009'
p1061
(idecision_tree
decision_tree_leaf
p1062
(dp1063
g19
g20
(g21
tp1064
Rp1065
S'PKP'
p1066
I1
ssg27
g1066
sbssbsg28
(idecision_tree
decision_tree_leaf
p1067
(dp1068
g19
g20
(g21
tp1069
Rp1070
g24
I5
sg25
I4
ssg27
g24
sbsbsbsbsbsbsbsbsg28
(idecision_tree
decision_tree_leaf
p1071
(dp1072
g19
g20
(g21
tp1073
Rp1074
g24
I523
sS'PKP'
p1075
I237
sS'Pn'
p1076
I47
sg25
I19
ssg27
g24
sbsbsg28
(idecision_tree
continuous_decision_tree
p1077
(dp1078
g2
F0.0
sg3
I58
sg4
(idecision_tree
decision_tree_leaf
p1079
(dp1080
g19
g20
(g21
tp1081
Rp1082
S'Lg'
p1083
I1
sS'PKP'
p1084
I142
sg24
I328
sg25
I5
sS'Pg'
p1085
I1
sS'Pn'
p1086
I34
ssg27
g24
sbsg28
(idecision_tree
continuous_decision_tree
p1087
(dp1088
g2
F1.468775
sg3
I39
sg4
(idecision_tree
continuous_decision_tree
p1089
(dp1090
g2
F-13.5
sg3
I67
sg4
(idecision_tree
continuous_decision_tree
p1091
(dp1092
g2
F1.0
sg3
I53
sg4
(idecision_tree
continuous_decision_tree
p1093
(dp1094
g2
F253.33350000000002
sg3
I67
sg4
(idecision_tree
continuous_decision_tree
p1095
(dp1096
g2
F0.17365350000000002
sg3
I51
sg4
(idecision_tree
decision_tree
p1097
(dp1098
g3
I47
sg33
(dp1099
S'05-AUG-2009'
p1100
(idecision_tree
decision_tree_leaf
p1101
(dp1102
g19
g20
(g21
tp1103
Rp1104
g24
I1
ssg27
g24
sbsS'27-NOV-2009'
p1105
(idecision_tree
decision_tree_leaf
p1106
(dp1107
g19
g20
(g21
tp1108
Rp1109
S'PKP'
p1110
I1
ssg27
g1110
sbssbsg28
(idecision_tree
decision_tree_leaf
p1111
(dp1112
g19
g20
(g21
tp1113
Rp1114
g24
I1
ssg27
g24
sbsbsg28
(idecision_tree
decision_tree_leaf
p1115
(dp1116
g19
g20
(g21
tp1117
Rp1118
g24
I21
sS'PKP'
p1119
I10
sS'Pn'
p1120
I1
ssg27
g24
sbsbsg28
(idecision_tree
continuous_decision_tree
p1121
(dp1122
g2
F-0.5
sg3
I66
sg4
(idecision_tree
decision_tree
p1123
(dp1124
g3
I47
sg33
(dp1125
S'31-MAR-2009'
p1126
(idecision_tree
decision_tree_leaf
p1127
(dp1128
g19
g20
(g21
tp1129
Rp1130
g25
I1
ssg27
g25
sbsS'08-JUN-2009'
p1131
(idecision_tree
decision_tree_leaf
p1132
(dp1133
g19
g20
(g21
tp1134
Rp1135
g24
I1
ssg27
g24
sbssbsg28
(idecision_tree
decision_tree_leaf
p1136
(dp1137
g19
g20
(g21
tp1138
Rp1139
g24
I1
sg25
I1
sS'Pn'
p1140
I3
ssg27
g1140
sbsbsbsg28
(idecision_tree
continuous_decision_tree
p1141
(dp1142
g2
F-1.0
sg3
I62
sg4
(idecision_tree
continuous_decision_tree
p1143
(dp1144
g2
F0.230741
sg3
I51
sg4
(idecision_tree
continuous_decision_tree
p1145
(dp1146
g2
F-33.0
sg3
I67
sg4
(idecision_tree
continuous_decision_tree
p1147
(dp1148
g2
F-25.875
sg3
I67
sg4
(idecision_tree
decision_tree
p1149
(dp1150
g3
I47
sg33
(dp1151
S'24-JAN-2009'
p1152
(idecision_tree
decision_tree_leaf
p1153
(dp1154
g19
g20
(g21
tp1155
Rp1156
S'PKP'
p1157
I1
ssg27
g1157
sbsS'17-NOV-2009'
p1158
(idecision_tree
decision_tree_leaf
p1159
(dp1160
g19
g20
(g21
tp1161
Rp1162
g24
I1
ssg27
g24
sbssbsg28
(idecision_tree
decision_tree_leaf
p1163
(dp1164
g19
g20
(g21
tp1165
Rp1166
g24
I1
ssg27
g24
sbsbsg28
(idecision_tree
decision_tree_leaf
p1167
(dp1168
g19
g20
(g21
tp1169
Rp1170
g24
I3
sS'PKP'
p1171
I2
ssg27
g24
sbsbsg28
(idecision_tree
continuous_decision_tree
p1172
(dp1173
g2
F0.365225
sg3
I52
sg4
(idecision_tree
continuous_decision_tree
p1174
(dp1175
g2
F-19.5
sg3
I63
sg4
(idecision_tree
decision_tree_leaf
p1176
(dp1177
g19
g20
(g21
tp1178
Rp1179
g24
I2
sS'PKP'
p1180
I1
ssg27
g24
sbsg28
(idecision_tree
decision_tree
p1181
(dp1182
g3
I47
sg33
(dp1183
S'16-APR-2009'
p1184
(idecision_tree
decision_tree_leaf
p1185
(dp1186
g19
g20
(g21
tp1187
Rp1188
g24
I1
ssg27
g24
sbsS'21-JUL-2009'
p1189
(idecision_tree
decision_tree_leaf
p1190
(dp1191
g19
g20
(g21
tp1192
Rp1193
S'PKP'
p1194
I1
ssg27
g1194
sbssbsbsg28
(idecision_tree
continuous_decision_tree
p1195
(dp1196
g2
F-38.5
sg3
I67
sg4
(idecision_tree
decision_tree
p1197
(dp1198
g3
I47
sg33
(dp1199
S'08-APR-2009'
p1200
(idecision_tree
decision_tree_leaf
p1201
(dp1202
g19
g20
(g21
tp1203
Rp1204
g24
I1
ssg27
g24
sbsS'09-OCT-2009'
p1205
(idecision_tree
decision_tree_leaf
p1206
(dp1207
g19
g20
(g21
tp1208
Rp1209
S'PKP'
p1210
I1
ssg27
g1210
sbssbsg28
(idecision_tree
decision_tree_leaf
p1211
(dp1212
g19
g20
(g21
tp1213
Rp1214
g24
I1
ssg27
g24
sbsbsbsbsg28
(idecision_tree
continuous_decision_tree
p1215
(dp1216
g2
F-51.791650000000004
sg3
I67
sg4
(idecision_tree
continuous_decision_tree
p1217
(dp1218
g2
F-27.25
sg3
I67
sg4
(idecision_tree
continuous_decision_tree
p1219
(dp1220
g2
F-2.0
sg3
I66
sg4
(idecision_tree
decision_tree_leaf
p1221
(dp1222
g19
g20
(g21
tp1223
Rp1224
g24
I4
sS'Pn'
p1225
I2
ssg27
g24
sbsg28
(idecision_tree
decision_tree_leaf
p1226
(dp1227
g19
g20
(g21
tp1228
Rp1229
S'Pn'
p1230
I1
ssg27
g1230
sbsbsg28
(idecision_tree
continuous_decision_tree
p1231
(dp1232
g2
F-47.333349999999996
sg3
I67
sg4
(idecision_tree
continuous_decision_tree
p1233
(dp1234
g2
F0.1651545
sg3
I51
sg4
(idecision_tree
decision_tree
p1235
(dp1236
g3
I47
sg33
(dp1237
S'03-MAY-2009'
p1238
(idecision_tree
decision_tree_leaf
p1239
(dp1240
g19
g20
(g21
tp1241
Rp1242
g24
I1
ssg27
g24
sbsS'17-AUG-2009'
p1243
(idecision_tree
decision_tree_leaf
p1244
(dp1245
g19
g20
(g21
tp1246
Rp1247
S'PKP'
p1248
I1
ssg27
g1248
sbssbsg28
(idecision_tree
continuous_decision_tree
p1249
(dp1250
g2
F-42.333349999999996
sg3
I67
sg4
(idecision_tree
decision_tree
p1251
(dp1252
g3
I47
sg33
(dp1253
S'23-NOV-2009'
p1254
(idecision_tree
decision_tree_leaf
p1255
(dp1256
g19
g20
(g21
tp1257
Rp1258
g24
I1
ssg27
g24
sbsS'11-AUG-2009'
p1259
(idecision_tree
decision_tree_leaf
p1260
(dp1261
g19
g20
(g21
tp1262
Rp1263
S'PKP'
p1264
I1
ssg27
g1264
sbssbsg28
(idecision_tree
decision_tree_leaf
p1265
(dp1266
g19
g20
(g21
tp1267
Rp1268
g24
I1
ssg27
g24
sbsbsbsg28
(idecision_tree
decision_tree
p1269
(dp1270
g3
I47
sg33
(dp1271
S'26-MAY-2009'
p1272
(idecision_tree
decision_tree_leaf
p1273
(dp1274
g19
g20
(g21
tp1275
Rp1276
g24
I1
ssg27
g24
sbsS'02-JUN-2009'
p1277
(idecision_tree
decision_tree_leaf
p1278
(dp1279
g19
g20
(g21
tp1280
Rp1281
S'PKP'
p1282
I1
ssg27
g1282
sbssbsbsbsg28
(idecision_tree
continuous_decision_tree
p1283
(dp1284
g2
F-29.59375
sg3
I63
sg4
(idecision_tree
decision_tree
p1285
(dp1286
g3
I47
sg33
(dp1287
S'11-JAN-2009'
p1288
(idecision_tree
decision_tree_leaf
p1289
(dp1290
g19
g20
(g21
tp1291
Rp1292
g24
I1
ssg27
g24
sbsS'22-NOV-2009'
p1293
(idecision_tree
decision_tree_leaf
p1294
(dp1295
g19
g20
(g21
tp1296
Rp1297
S'PKP'
p1298
I1
ssg27
g1298
sbssbsg28
(idecision_tree
continuous_decision_tree
p1299
(dp1300
g2
F-77.75
sg3
I67
sg4
(idecision_tree
continuous_decision_tree
p1301
(dp1302
g2
F-6.5
sg3
I66
sg4
(idecision_tree
decision_tree
p1303
(dp1304
g3
I47
sg33
(dp1305
S'25-MAY-2009'
p1306
(idecision_tree
decision_tree_leaf
p1307
(dp1308
g19
g20
(g21
tp1309
Rp1310
g24
I1
ssg27
g24
sbsS'08-OCT-2009'
p1311
(idecision_tree
decision_tree_leaf
p1312
(dp1313
g19
g20
(g21
tp1314
Rp1315
S'PKP'
p1316
I1
ssg27
g1316
sbssbsg28
(idecision_tree
decision_tree_leaf
p1317
(dp1318
g19
g20
(g21
tp1319
Rp1320
g24
I1
ssg27
g24
sbsbsg28
(idecision_tree
decision_tree
p1321
(dp1322
g3
I47
sg33
(dp1323
S'12-AUG-2009'
p1324
(idecision_tree
decision_tree_leaf
p1325
(dp1326
g19
g20
(g21
tp1327
Rp1328
S'PKP'
p1329
I1
ssg27
g1329
sbsS'13-SEP-2009'
p1330
(idecision_tree
decision_tree_leaf
p1331
(dp1332
g19
g20
(g21
tp1333
Rp1334
g24
I1
ssg27
g24
sbssbsbsbsbsbsbsg28
(idecision_tree
continuous_decision_tree
p1335
(dp1336
g2
F-4.5
sg3
I63
sg4
(idecision_tree
continuous_decision_tree
p1337
(dp1338
g2
F-25.25
sg3
I67
sg4
(idecision_tree
continuous_decision_tree
p1339
(dp1340
g2
F0.2752075
sg3
I51
sg4
(idecision_tree
decision_tree
p1341
(dp1342
g3
I47
sg33
(dp1343
S'27-MAY-2009'
p1344
(idecision_tree
decision_tree_leaf
p1345
(dp1346
g19
g20
(g21
tp1347
Rp1348
g24
I1
ssg27
g24
sbsS'31-OCT-2009'
p1349
(idecision_tree
decision_tree_leaf
p1350
(dp1351
g19
g20
(g21
tp1352
Rp1353
S'PKP'
p1354
I1
ssg27
g1354
sbssbsg28
(idecision_tree
decision_tree_leaf
p1355
(dp1356
g19
g20
(g21
tp1357
Rp1358
g24
I1
ssg27
g24
sbsbsg28
(idecision_tree
decision_tree
p1359
(dp1360
g3
I47
sg33
(dp1361
S'03-DEC-2009'
p1362
(idecision_tree
decision_tree_leaf
p1363
(dp1364
g19
g20
(g21
tp1365
Rp1366
S'PKP'
p1367
I1
ssg27
g1367
sbsS'05-AUG-2009'
p1368
(idecision_tree
decision_tree_leaf
p1369
(dp1370
g19
g20
(g21
tp1371
Rp1372
g24
I1
ssg27
g24
sbssbsbsg28
(idecision_tree
continuous_decision_tree
p1373
(dp1374
g2
F-1.0
sg3
I66
sg4
(idecision_tree
continuous_decision_tree
p1375
(dp1376
g2
F-17.0
sg3
I63
sg4
(idecision_tree
continuous_decision_tree
p1377
(dp1378
g2
F77.5
sg3
I67
sg4
(idecision_tree
decision_tree
p1379
(dp1380
g3
I47
sg33
(dp1381
S'22-MAR-2009'
p1382
(idecision_tree
decision_tree_leaf
p1383
(dp1384
g19
g20
(g21
tp1385
Rp1386
g24
I1
ssg27
g24
sbsS'10-JUN-2009'
p1387
(idecision_tree
decision_tree_leaf
p1388
(dp1389
g19
g20
(g21
tp1390
Rp1391
S'PKP'
p1392
I1
ssg27
g1392
sbssbsg28
(idecision_tree
decision_tree_leaf
p1393
(dp1394
g19
g20
(g21
tp1395
Rp1396
g24
I3
sS'PKP'
p1397
I1
sS'Pn'
p1398
I1
ssg27
g24
sbsbsg28
(idecision_tree
decision_tree_leaf
p1399
(dp1400
g19
g20
(g21
tp1401
Rp1402
g24
I5
sS'PKP'
p1403
I3
sS'Pn'
p1404
I1
ssg27
g24
sbsbsg28
(idecision_tree
continuous_decision_tree
p1405
(dp1406
g2
F-19.6
sg3
I67
sg4
(idecision_tree
decision_tree_leaf
p1407
(dp1408
g19
g20
(g21
tp1409
Rp1410
g24
I5
sS'PKP'
p1411
I2
sS'Pn'
p1412
I1
ssg27
g24
sbsg28
(idecision_tree
continuous_decision_tree
p1413
(dp1414
g2
F-92.5
sg3
I67
sg4
(idecision_tree
continuous_decision_tree
p1415
(dp1416
g2
F-3.0
sg3
I66
sg4
(idecision_tree
decision_tree_leaf
p1417
(dp1418
g19
g20
(g21
tp1419
Rp1420
g24
I1
sS'PKP'
p1421
I2
ssg27
g1421
sbsg28
(idecision_tree
decision_tree_leaf
p1422
(dp1423
g19
g20
(g21
tp1424
Rp1425
g24
I2
ssg27
g24
sbsbsg28
(idecision_tree
continuous_decision_tree
p1426
(dp1427
g2
F-4.5
sg3
I66
sg4
(idecision_tree
decision_tree
p1428
(dp1429
g3
I47
sg33
(dp1430
S'02-JUN-2009'
p1431
(idecision_tree
decision_tree_leaf
p1432
(dp1433
g19
g20
(g21
tp1434
Rp1435
g24
I1
ssg27
g24
sbsS'14-AUG-2009'
p1436
(idecision_tree
decision_tree_leaf
p1437
(dp1438
g19
g20
(g21
tp1439
Rp1440
S'PKP'
p1441
I1
ssg27
g1441
sbssbsg28
(idecision_tree
decision_tree_leaf
p1442
(dp1443
g19
g20
(g21
tp1444
Rp1445
g24
I1
ssg27
g24
sbsbsbsbsbsbsbsbsb.