(idecision_tree
continuous_decision_tree
p0
(dp1
S'split_point'
p2
F0.649768
sS'attribute'
p3
I48
sS'gt_subtree'
p4
(idecision_tree
continuous_decision_tree
p5
(dp6
g2
F3.5
sg3
I67
sg4
(idecision_tree
continuous_decision_tree
p7
(dp8
g2
F4.202525
sg3
I39
sg4
(idecision_tree
continuous_decision_tree
p9
(dp10
g2
F6.0
sg3
I63
sg4
(idecision_tree
continuous_decision_tree
p11
(dp12
g2
F5.544285
sg3
I39
sg4
(idecision_tree
continuous_decision_tree
p13
(dp14
g2
F30.10415
sg3
I63
sg4
(idecision_tree
continuous_decision_tree
p15
(dp16
g2
F4.5
sg3
I66
sg4
(idecision_tree
decision_tree_leaf
p17
(dp18
S'counts'
p19
ccollections
defaultdict
p20
(c__builtin__
int
p21
tp22
Rp23
S'P'
p24
I1
ssS'value'
p25
g24
sbsS'lt_subtree'
p26
(idecision_tree
continuous_decision_tree
p27
(dp28
g2
F41.333349999999996
sg3
I59
sg4
(idecision_tree
decision_tree_leaf
p29
(dp30
g19
g20
(g21
tp31
Rp32
g24
I1
ssg25
g24
sbsg26
(idecision_tree
continuous_decision_tree
p33
(dp34
g2
F54.45835
sg3
I67
sg4
(idecision_tree
decision_tree_leaf
p35
(dp36
g19
g20
(g21
tp37
Rp38
g24
I2
ssg25
g24
sbsg26
(idecision_tree
decision_tree_leaf
p39
(dp40
g19
g20
(g21
tp41
Rp42
S'Lg'
p43
I1
ssg25
g43
sbsbsbsbsg26
(idecision_tree
continuous_decision_tree
p44
(dp45
g2
F3.0
sg3
I62
sg4
(idecision_tree
continuous_decision_tree
p46
(dp47
g2
F3.141535
sg3
I48
sg4
(idecision_tree
continuous_decision_tree
p48
(dp49
g2
F0.17451650000000002
sg3
I52
sg4
(idecision_tree
continuous_decision_tree
p50
(dp51
g2
F52.327799999999996
sg3
I67
sg4
(idecision_tree
decision_tree_leaf
p52
(dp53
g19
g20
(g21
tp54
Rp55
S'Pn'
p56
I1
ssg25
g56
sbsg26
(idecision_tree
decision_tree_leaf
p57
(dp58
g19
g20
(g21
tp59
Rp60
g24
I1
ssg25
g24
sbsbsg26
(idecision_tree
decision_tree_leaf
p61
(dp62
g19
g20
(g21
tp63
Rp64
g24
I1
ssg25
g24
sbsbsg26
(idecision_tree
decision_tree_leaf
p65
(dp66
g19
g20
(g21
tp67
Rp68
g24
I3
sS'Pn'
p69
I1
ssg25
g24
sbsbsg26
(idecision_tree
continuous_decision_tree
p70
(dp71
g2
F0.572523
sg3
I49
sg4
(idecision_tree
continuous_decision_tree
p72
(dp73
g2
F39.3125
sg3
I67
sg4
(idecision_tree
decision_tree_leaf
p74
(dp75
g19
g20
(g21
tp76
Rp77
g24
I1
ssg25
g24
sbsg26
(idecision_tree
continuous_decision_tree
p78
(dp79
g2
F1.49085
sg3
I51
sg4
(idecision_tree
decision_tree_leaf
p80
(dp81
g19
g20
(g21
tp82
Rp83
g24
I1
ssg25
g24
sbsg26
(idecision_tree
continuous_decision_tree
p84
(dp85
g2
F2.0
sg3
I66
sg4
(idecision_tree
continuous_decision_tree
p86
(dp87
g2
F19.5
sg3
I67
sg4
(idecision_tree
decision_tree_leaf
p88
(dp89
g19
g20
(g21
tp90
Rp91
S'S'
p92
I1
ssg25
g92
sbsg26
(idecision_tree
decision_tree_leaf
p93
(dp94
g19
g20
(g21
tp95
Rp96
g24
I1
ssg25
g24
sbsbsg26
(idecision_tree
decision_tree_leaf
p97
(dp98
g19
g20
(g21
tp99
Rp100
g24
I2
ssg25
g24
sbsbsbsbsg26
(idecision_tree
decision_tree_leaf
p101
(dp102
g19
g20
(g21
tp103
Rp104
g24
I5
sS'Pn'
p105
I1
ssg25
g24
sbsbsbsbsg26
(idecision_tree
continuous_decision_tree
p106
(dp107
g2
F100.8335
sg3
I67
sg4
(idecision_tree
continuous_decision_tree
p108
(dp109
g2
F105.9585
sg3
I67
sg4
(idecision_tree
continuous_decision_tree
p110
(dp111
g2
F28.0
sg3
I59
sg4
(idecision_tree
decision_tree_leaf
p112
(dp113
g19
g20
(g21
tp114
Rp115
g24
I1
ssg25
g24
sbsg26
(idecision_tree
continuous_decision_tree
p116
(dp117
g2
F0.3494225
sg3
I51
sg4
(idecision_tree
continuous_decision_tree
p118
(dp119
g2
F111.9165
sg3
I67
sg4
(idecision_tree
decision_tree_leaf
p120
(dp121
g19
g20
(g21
tp122
Rp123
g24
I1
ssg25
g24
sbsg26
(idecision_tree
decision_tree_leaf
p124
(dp125
g19
g20
(g21
tp126
Rp127
S'Pn'
p128
I1
ssg25
g128
sbsbsg26
(idecision_tree
decision_tree_leaf
p129
(dp130
g19
g20
(g21
tp131
Rp132
g24
I1
ssg25
g24
sbsbsbsg26
(idecision_tree
decision_tree_leaf
p133
(dp134
g19
g20
(g21
tp135
Rp136
g24
I1
ssg25
g24
sbsbsg26
(idecision_tree
continuous_decision_tree
p137
(dp138
g2
F4.0
sg3
I66
sg4
(idecision_tree
continuous_decision_tree
p139
(dp140
g2
F2.0
sg3
I62
sg4
(idecision_tree
decision_tree_leaf
p141
(dp142
g19
g20
(g21
tp143
Rp144
g24
I3
sS'Pn'
p145
I2
ssg25
g24
sbsg26
(idecision_tree
decision_tree_leaf
p146
(dp147
g19
g20
(g21
tp148
Rp149
g24
I1
ssg25
g24
sbsbsg26
(idecision_tree
continuous_decision_tree
p150
(dp151
g2
F16.5
sg3
I63
sg4
(idecision_tree
continuous_decision_tree
p152
(dp153
g2
F0.7406255
sg3
I49
sg4
(idecision_tree
decision_tree_leaf
p154
(dp155
g19
g20
(g21
tp156
Rp157
g24
I1
ssg25
g24
sbsg26
(idecision_tree
continuous_decision_tree
p158
(dp159
g2
F1.5
sg3
I58
sg4
(idecision_tree
decision_tree_leaf
p160
(dp161
g19
g20
(g21
tp162
Rp163
g24
I1
ssg25
g24
sbsg26
(idecision_tree
continuous_decision_tree
p164
(dp165
g2
F1.5
sg3
I62
sg4
(idecision_tree
decision_tree_leaf
p166
(dp167
g19
g20
(g21
tp168
Rp169
g24
I1
ssg25
g24
sbsg26
(idecision_tree
continuous_decision_tree
p170
(dp171
g2
F64.66665
sg3
I67
sg4
(idecision_tree
decision_tree_leaf
p172
(dp173
g19
g20
(g21
tp174
Rp175
g24
I1
ssg25
g24
sbsg26
(idecision_tree
continuous_decision_tree
p176
(dp177
g2
F0.27082249999999997
sg3
I52
sg4
(idecision_tree
continuous_decision_tree
p178
(dp179
g2
F45.166650000000004
sg3
I67
sg4
(idecision_tree
decision_tree_leaf
p180
(dp181
g19
g20
(g21
tp182
Rp183
S'Pn'
p184
I1
ssg25
g184
sbsg26
(idecision_tree
decision_tree_leaf
p185
(dp186
g19
g20
(g21
tp187
Rp188
g24
I1
ssg25
g24
sbsbsg26
(idecision_tree
decision_tree_leaf
p189
(dp190
g19
g20
(g21
tp191
Rp192
g24
I1
ssg25
g24
sbsbsbsbsbsbsg26
(idecision_tree
continuous_decision_tree
p193
(dp194
g2
F7.5
sg3
I67
sg4
(idecision_tree
continuous_decision_tree
p195
(dp196
g2
F0.43457049999999997
sg3
I52
sg4
(idecision_tree
decision_tree_leaf
p197
(dp198
g19
g20
(g21
tp199
Rp200
g24
I1
ssg25
g24
sbsg26
(idecision_tree
continuous_decision_tree
p201
(dp202
g2
F2.5
sg3
I66
sg4
(idecision_tree
decision_tree_leaf
p203
(dp204
g19
g20
(g21
tp205
Rp206
g24
I1
ssg25
g24
sbsg26
(idecision_tree
continuous_decision_tree
p207
(dp208
g2
F0.9928215
sg3
I49
sg4
(idecision_tree
continuous_decision_tree
p209
(dp210
g2
F10.66665
sg3
I67
sg4
(idecision_tree
decision_tree_leaf
p211
(dp212
g19
g20
(g21
tp213
Rp214
g24
I1
ssg25
g24
sbsg26
(idecision_tree
decision_tree_leaf
p215
(dp216
g19
g20
(g21
tp217
Rp218
S'Pn'
p219
I1
ssg25
g219
sbsbsg26
(idecision_tree
decision_tree_leaf
p220
(dp221
g19
g20
(g21
tp222
Rp223
g24
I1
ssg25
g24
sbsbsbsbsg26
(idecision_tree
decision_tree_leaf
p224
(dp225
g19
g20
(g21
tp226
Rp227
g24
I1
ssg25
g24
sbsbsbsbsbsbsg26
(idecision_tree
continuous_decision_tree
p228
(dp229
g2
F73.98235
sg3
I40
sg4
(idecision_tree
continuous_decision_tree
p230
(dp231
g2
F-1.0
sg3
I62
sg4
(idecision_tree
continuous_decision_tree
p232
(dp233
g2
F154.031
sg3
I67
sg4
(idecision_tree
continuous_decision_tree
p234
(dp235
g2
F218.3595
sg3
I67
sg4
(idecision_tree
continuous_decision_tree
p236
(dp237
g2
F0.2968825
sg3
I50
sg4
(idecision_tree
continuous_decision_tree
p238
(dp239
g2
F262.3595
sg3
I67
sg4
(idecision_tree
decision_tree_leaf
p240
(dp241
g19
g20
(g21
tp242
Rp243
g24
I1
ssg25
g24
sbsg26
(idecision_tree
decision_tree_leaf
p244
(dp245
g19
g20
(g21
tp246
Rp247
S'Lg'
p248
I1
ssg25
g248
sbsbsg26
(idecision_tree
decision_tree_leaf
p249
(dp250
g19
g20
(g21
tp251
Rp252
g24
I1
ssg25
g24
sbsbsg26
(idecision_tree
continuous_decision_tree
p253
(dp254
g2
F2.5
sg3
I66
sg4
(idecision_tree
decision_tree_leaf
p255
(dp256
g19
g20
(g21
tp257
Rp258
g24
I2
sS'Pn'
p259
I1
ssg25
g24
sbsg26
(idecision_tree
continuous_decision_tree
p260
(dp261
g2
F0.812972
sg3
I48
sg4
(idecision_tree
continuous_decision_tree
p262
(dp263
g2
F4.609705
sg3
I39
sg4
(idecision_tree
continuous_decision_tree
p264
(dp265
g2
F166.5
sg3
I67
sg4
(idecision_tree
decision_tree_leaf
p266
(dp267
g19
g20
(g21
tp268
Rp269
S'PKP'
p270
I1
ssg25
g270
sbsg26
(idecision_tree
decision_tree_leaf
p271
(dp272
g19
g20
(g21
tp273
Rp274
g24
I1
ssg25
g24
sbsbsg26
(idecision_tree
decision_tree_leaf
p275
(dp276
g19
g20
(g21
tp277
Rp278
g24
I1
ssg25
g24
sbsbsg26
(idecision_tree
decision_tree_leaf
p279
(dp280
g19
g20
(g21
tp281
Rp282
g24
I1
ssg25
g24
sbsbsbsbsg26
(idecision_tree
continuous_decision_tree
p283
(dp284
g2
F1.5
sg3
I66
sg4
(idecision_tree
continuous_decision_tree
p285
(dp286
g2
F15.470849999999999
sg3
I67
sg4
(idecision_tree
continuous_decision_tree
p287
(dp288
g2
F65.27085
sg3
I67
sg4
(idecision_tree
decision_tree_leaf
p289
(dp290
g19
g20
(g21
tp291
Rp292
g24
I2
ssg25
g24
sbsg26
(idecision_tree
decision_tree_leaf
p293
(dp294
g19
g20
(g21
tp295
Rp296
S'PKP'
p297
I1
ssg25
g297
sbsbsg26
(idecision_tree
decision_tree_leaf
p298
(dp299
g19
g20
(g21
tp300
Rp301
g24
I1
ssg25
g24
sbsbsg26
(idecision_tree
decision_tree_leaf
p302
(dp303
g19
g20
(g21
tp304
Rp305
g24
I2
sS'Sn'
p306
I1
ssg25
g24
sbsbsbsg26
(idecision_tree
decision_tree_leaf
p307
(dp308
g19
g20
(g21
tp309
Rp310
g24
I6
ssg25
g24
sbsbsg26
(idecision_tree
continuous_decision_tree
p311
(dp312
g2
F-5.75
sg3
I63
sg4
(idecision_tree
continuous_decision_tree
p313
(dp314
g2
F189.41649999999998
sg3
I67
sg4
(idecision_tree
decision_tree_leaf
p315
(dp316
g19
g20
(g21
tp317
Rp318
g24
I1
ssg25
g24
sbsg26
(idecision_tree
continuous_decision_tree
p319
(dp320
g2
F2.5
sg3
I66
sg4
(idecision_tree
decision_tree_leaf
p321
(dp322
g19
g20
(g21
tp323
Rp324
g24
I1
ssg25
g24
sbsg26
(idecision_tree
continuous_decision_tree
p325
(dp326
g2
F0.4487555
sg3
I49
sg4
(idecision_tree
continuous_decision_tree
p327
(dp328
g2
F122.6875
sg3
I67
sg4
(idecision_tree
decision_tree_leaf
p329
(dp330
g19
g20
(g21
tp331
Rp332
S'Pn'
p333
I1
ssg25
g333
sbsg26
(idecision_tree
decision_tree_leaf
p334
(dp335
g19
g20
(g21
tp336
Rp337
g24
I1
ssg25
g24
sbsbsg26
(idecision_tree
decision_tree_leaf
p338
(dp339
g19
g20
(g21
tp340
Rp341
g24
I1
ssg25
g24
sbsbsbsbsg26
(idecision_tree
continuous_decision_tree
p342
(dp343
g2
F-21.85415
sg3
I63
sg4
(idecision_tree
continuous_decision_tree
p344
(dp345
g2
F112.5
sg3
I67
sg4
(idecision_tree
continuous_decision_tree
p346
(dp347
g2
F217.3595
sg3
I67
sg4
(idecision_tree
decision_tree_leaf
p348
(dp349
g19
g20
(g21
tp350
Rp351
S'Pn'
p352
I1
ssg25
g352
sbsg26
(idecision_tree
decision_tree_leaf
p353
(dp354
g19
g20
(g21
tp355
Rp356
g24
I1
ssg25
g24
sbsbsg26
(idecision_tree
decision_tree_leaf
p357
(dp358
g19
g20
(g21
tp359
Rp360
g24
I1
ssg25
g24
sbsbsg26
(idecision_tree
decision_tree_leaf
p361
(dp362
g19
g20
(g21
tp363
Rp364
g24
I1
ssg25
g24
sbsbsbsbsbsg26
(idecision_tree
continuous_decision_tree
p365
(dp366
g2
F95.125
sg3
I67
sg4
(idecision_tree
continuous_decision_tree
p367
(dp368
g2
F0.666667
sg3
I8
sg4
(idecision_tree
continuous_decision_tree
p369
(dp370
g2
F0.0
sg3
I63
sg4
(idecision_tree
continuous_decision_tree
p371
(dp372
g2
F0.291057
sg3
I50
sg4
(idecision_tree
continuous_decision_tree
p373
(dp374
g2
F104.3665
sg3
I67
sg4
(idecision_tree
continuous_decision_tree
p375
(dp376
g2
F272.0625
sg3
I67
sg4
(idecision_tree
continuous_decision_tree
p377
(dp378
g2
F0.6433495
sg3
I52
sg4
(idecision_tree
decision_tree_leaf
p379
(dp380
g19
g20
(g21
tp381
Rp382
g24
I1
ssg25
g24
sbsg26
(idecision_tree
continuous_decision_tree
p383
(dp384
g2
F0.9019299999999999
sg3
I49
sg4
(idecision_tree
decision_tree_leaf
p385
(dp386
g19
g20
(g21
tp387
Rp388
g24
I1
ssg25
g24
sbsg26
(idecision_tree
continuous_decision_tree
p389
(dp390
g2
F0.9131684999999999
sg3
I48
sg4
(idecision_tree
continuous_decision_tree
p391
(dp392
g2
F281.5625
sg3
I67
sg4
(idecision_tree
decision_tree_leaf
p393
(dp394
g19
g20
(g21
tp395
Rp396
g24
I1
ssg25
g24
sbsg26
(idecision_tree
decision_tree_leaf
p397
(dp398
g19
g20
(g21
tp399
Rp400
S'PKP'
p401
I1
ssg25
g401
sbsbsg26
(idecision_tree
decision_tree_leaf
p402
(dp403
g19
g20
(g21
tp404
Rp405
g24
I1
ssg25
g24
sbsbsbsbsg26
(idecision_tree
continuous_decision_tree
p406
(dp407
g2
F253.75
sg3
I67
sg4
(idecision_tree
continuous_decision_tree
p408
(dp409
g2
F3.77122
sg3
I48
sg4
(idecision_tree
decision_tree_leaf
p410
(dp411
g19
g20
(g21
tp412
Rp413
g24
I1
ssg25
g24
sbsg26
(idecision_tree
continuous_decision_tree
p414
(dp415
g2
F267.1405
sg3
I67
sg4
(idecision_tree
decision_tree_leaf
p416
(dp417
g19
g20
(g21
tp418
Rp419
g24
I1
ssg25
g24
sbsg26
(idecision_tree
continuous_decision_tree
p420
(dp421
g2
F0.26930699999999996
sg3
I51
sg4
(idecision_tree
continuous_decision_tree
p422
(dp423
g2
F263.6405
sg3
I67
sg4
(idecision_tree
decision_tree_leaf
p424
(dp425
g19
g20
(g21
tp426
Rp427
S'PKP'
p428
I1
ssg25
g428
sbsg26
(idecision_tree
decision_tree_leaf
p429
(dp430
g19
g20
(g21
tp431
Rp432
g24
I1
ssg25
g24
sbsbsg26
(idecision_tree
decision_tree_leaf
p433
(dp434
g19
g20
(g21
tp435
Rp436
g24
I1
ssg25
g24
sbsbsbsbsg26
(idecision_tree
continuous_decision_tree
p437
(dp438
g2
F0.85246
sg3
I52
sg4
(idecision_tree
continuous_decision_tree
p439
(dp440
g2
F40.0
sg3
I63
sg4
(idecision_tree
decision_tree_leaf
p441
(dp442
g19
g20
(g21
tp443
Rp444
g24
I1
ssg25
g24
sbsg26
(idecision_tree
continuous_decision_tree
p445
(dp446
g2
F1.5
sg3
I66
sg4
(idecision_tree
decision_tree_leaf
p447
(dp448
g19
g20
(g21
tp449
Rp450
g24
I1
ssg25
g24
sbsg26
(idecision_tree
continuous_decision_tree
p451
(dp452
g2
F1.2153575
sg3
I48
sg4
(idecision_tree
continuous_decision_tree
p453
(dp454
g2
F224.0
sg3
I67
sg4
(idecision_tree
decision_tree_leaf
p455
(dp456
g19
g20
(g21
tp457
Rp458
S'PKP'
p459
I1
ssg25
g459
sbsg26
(idecision_tree
decision_tree_leaf
p460
(dp461
g19
g20
(g21
tp462
Rp463
g24
I1
ssg25
g24
sbsbsg26
(idecision_tree
decision_tree_leaf
p464
(dp465
g19
g20
(g21
tp466
Rp467
g24
I1
ssg25
g24
sbsbsbsbsg26
(idecision_tree
continuous_decision_tree
p468
(dp469
g2
F0.450935
sg3
I49
sg4
(idecision_tree
continuous_decision_tree
p470
(dp471
g2
F54.674800000000005
sg3
I40
sg4
(idecision_tree
continuous_decision_tree
p472
(dp473
g2
F17.0
sg3
I63
sg4
(idecision_tree
continuous_decision_tree
p474
(dp475
g2
F7.0
sg3
I66
sg4
(idecision_tree
decision_tree_leaf
p476
(dp477
g19
g20
(g21
tp478
Rp479
g24
I1
ssg25
g24
sbsg26
(idecision_tree
continuous_decision_tree
p480
(dp481
g2
F0.5183665
sg3
I52
sg4
(idecision_tree
decision_tree_leaf
p482
(dp483
g19
g20
(g21
tp484
Rp485
g24
I1
ssg25
g24
sbsg26
(idecision_tree
continuous_decision_tree
p486
(dp487
g2
F0.6567125
sg3
I49
sg4
(idecision_tree
continuous_decision_tree
p488
(dp489
g2
F135.0
sg3
I67
sg4
(idecision_tree
decision_tree_leaf
p490
(dp491
g19
g20
(g21
tp492
Rp493
g24
I1
ssg25
g24
sbsg26
(idecision_tree
decision_tree_leaf
p494
(dp495
g19
g20
(g21
tp496
Rp497
S'Pn'
p498
I1
ssg25
g498
sbsbsg26
(idecision_tree
decision_tree_leaf
p499
(dp500
g19
g20
(g21
tp501
Rp502
g24
I1
ssg25
g24
sbsbsbsbsg26
(idecision_tree
continuous_decision_tree
p503
(dp504
g2
F146.66649999999998
sg3
I67
sg4
(idecision_tree
continuous_decision_tree
p505
(dp506
g2
F3.0
sg3
I66
sg4
(idecision_tree
continuous_decision_tree
p507
(dp508
g2
F0.5608465
sg3
I50
sg4
(idecision_tree
continuous_decision_tree
p509
(dp510
g2
F3.25
sg3
I63
sg4
(idecision_tree
continuous_decision_tree
p511
(dp512
g2
F160.906
sg3
I67
sg4
(idecision_tree
decision_tree_leaf
p513
(dp514
g19
g20
(g21
tp515
Rp516
g24
I1
ssg25
g24
sbsg26
(idecision_tree
decision_tree_leaf
p517
(dp518
g19
g20
(g21
tp519
Rp520
S'Pn'
p521
I1
ssg25
g521
sbsbsg26
(idecision_tree
decision_tree_leaf
p522
(dp523
g19
g20
(g21
tp524
Rp525
g24
I1
ssg25
g24
sbsbsg26
(idecision_tree
continuous_decision_tree
p526
(dp527
g2
F80.23179999999999
sg3
I40
sg4
(idecision_tree
continuous_decision_tree
p528
(dp529
g2
F173.833
sg3
I67
sg4
(idecision_tree
decision_tree_leaf
p530
(dp531
g19
g20
(g21
tp532
Rp533
g24
I1
ssg25
g24
sbsg26
(idecision_tree
decision_tree_leaf
p534
(dp535
g19
g20
(g21
tp536
Rp537
S'Pn'
p538
I1
ssg25
g538
sbsbsg26
(idecision_tree
decision_tree_leaf
p539
(dp540
g19
g20
(g21
tp541
Rp542
g24
I1
ssg25
g24
sbsbsbsg26
(idecision_tree
decision_tree_leaf
p543
(dp544
g19
g20
(g21
tp545
Rp546
g24
I5
ssg25
g24
sbsbsg26
(idecision_tree
continuous_decision_tree
p547
(dp548
g2
F108.25
sg3
I67
sg4
(idecision_tree
continuous_decision_tree
p549
(dp550
g2
F3.5
sg3
I66
sg4
(idecision_tree
decision_tree_leaf
p551
(dp552
g19
g20
(g21
tp553
Rp554
g24
I1
ssg25
g24
sbsg26
(idecision_tree
continuous_decision_tree
p555
(dp556
g2
F0.29597450000000003
sg3
I52
sg4
(idecision_tree
continuous_decision_tree
p557
(dp558
g2
F123.25
sg3
I67
sg4
(idecision_tree
decision_tree_leaf
p559
(dp560
g19
g20
(g21
tp561
Rp562
g24
I1
ssg25
g24
sbsg26
(idecision_tree
decision_tree_leaf
p563
(dp564
g19
g20
(g21
tp565
Rp566
S'Pn'
p567
I1
ssg25
g567
sbsbsg26
(idecision_tree
decision_tree_leaf
p568
(dp569
g19
g20
(g21
tp570
Rp571
g24
I1
ssg25
g24
sbsbsbsg26
(idecision_tree
decision_tree_leaf
p572
(dp573
g19
g20
(g21
tp574
Rp575
g24
I1
ssg25
g24
sbsbsbsbsg26
(idecision_tree
continuous_decision_tree
p576
(dp577
g2
F2.5
sg3
I66
sg4
(idecision_tree
continuous_decision_tree
p578
(dp579
g2
F0.3388015
sg3
I52
sg4
(idecision_tree
continuous_decision_tree
p580
(dp581
g2
F0.5482385
sg3
I50
sg4
(idecision_tree
continuous_decision_tree
p582
(dp583
g2
F111.4645
sg3
I67
sg4
(idecision_tree
decision_tree_leaf
p584
(dp585
g19
g20
(g21
tp586
Rp587
g24
I1
ssg25
g24
sbsg26
(idecision_tree
decision_tree_leaf
p588
(dp589
g19
g20
(g21
tp590
Rp591
S'Pn'
p592
I1
ssg25
g592
sbsbsg26
(idecision_tree
decision_tree_leaf
p593
(dp594
g19
g20
(g21
tp595
Rp596
g24
I1
ssg25
g24
sbsbsg26
(idecision_tree
decision_tree_leaf
p597
(dp598
g19
g20
(g21
tp599
Rp600
g24
I1
ssg25
g24
sbsbsg26
(idecision_tree
decision_tree_leaf
p601
(dp602
g19
g20
(g21
tp603
Rp604
g24
I1
ssg25
g24
sbsbsbsg26
(idecision_tree
continuous_decision_tree
p605
(dp606
g2
F0.188124
sg3
I52
sg4
(idecision_tree
continuous_decision_tree
p607
(dp608
g2
F0.6299845
sg3
I51
sg4
(idecision_tree
decision_tree_leaf
p609
(dp610
g19
g20
(g21
tp611
Rp612
g24
I1
ssg25
g24
sbsg26
(idecision_tree
continuous_decision_tree
p613
(dp614
g2
F0.3651495
sg3
I50
sg4
(idecision_tree
continuous_decision_tree
p615
(dp616
g2
F211.0
sg3
I67
sg4
(idecision_tree
decision_tree_leaf
p617
(dp618
g19
g20
(g21
tp619
Rp620
S'Pn'
p621
I1
ssg25
g621
sbsg26
(idecision_tree
decision_tree_leaf
p622
(dp623
g19
g20
(g21
tp624
Rp625
g24
I1
ssg25
g24
sbsbsg26
(idecision_tree
decision_tree_leaf
p626
(dp627
g19
g20
(g21
tp628
Rp629
g24
I1
ssg25
g24
sbsbsbsg26
(idecision_tree
decision_tree_leaf
p630
(dp631
g19
g20
(g21
tp632
Rp633
g24
I1
ssg25
g24
sbsbsbsbsbsbsg26
(idecision_tree
continuous_decision_tree
p634
(dp635
g2
F7.0
sg3
I66
sg4
(idecision_tree
decision_tree_leaf
p636
(dp637
g19
g20
(g21
tp638
Rp639
g24
I1
ssg25
g24
sbsg26
(idecision_tree
continuous_decision_tree
p640
(dp641
g2
F60.666650000000004
sg3
I63
sg4
(idecision_tree
decision_tree_leaf
p642
(dp643
g19
g20
(g21
tp644
Rp645
g24
I1
ssg25
g24
sbsg26
(idecision_tree
continuous_decision_tree
p646
(dp647
g2
F0.6245185
sg3
I51
sg4
(idecision_tree
continuous_decision_tree
p648
(dp649
g2
F99.33840000000001
sg3
I67
sg4
(idecision_tree
decision_tree_leaf
p650
(dp651
g19
g20
(g21
tp652
Rp653
S'Pn'
p654
I1
ssg25
g654
sbsg26
(idecision_tree
decision_tree_leaf
p655
(dp656
g19
g20
(g21
tp657
Rp658
g24
I1
ssg25
g24
sbsbsg26
(idecision_tree
decision_tree_leaf
p659
(dp660
g19
g20
(g21
tp661
Rp662
g24
I1
ssg25
g24
sbsbsbsbsbsg26
(idecision_tree
continuous_decision_tree
p663
(dp664
g2
F104.5
sg3
I67
sg4
(idecision_tree
continuous_decision_tree
p665
(dp666
g2
F126.1
sg3
I67
sg4
(idecision_tree
continuous_decision_tree
p667
(dp668
g2
F3.90956
sg3
I48
sg4
(idecision_tree
continuous_decision_tree
p669
(dp670
g2
F0.14848215
sg3
I51
sg4
(idecision_tree
continuous_decision_tree
p671
(dp672
g2
F0.8392825
sg3
I49
sg4
(idecision_tree
continuous_decision_tree
p673
(dp674
g2
F2.18531
sg3
I39
sg4
(idecision_tree
continuous_decision_tree
p675
(dp676
g2
F214.91649999999998
sg3
I67
sg4
(idecision_tree
decision_tree_leaf
p677
(dp678
g19
g20
(g21
tp679
Rp680
g24
I1
ssg25
g24
sbsg26
(idecision_tree
decision_tree_leaf
p681
(dp682
g19
g20
(g21
tp683
Rp684
S'PKP'
p685
I1
ssg25
g685
sbsbsg26
(idecision_tree
decision_tree_leaf
p686
(dp687
g19
g20
(g21
tp688
Rp689
g24
I1
ssg25
g24
sbsbsg26
(idecision_tree
decision_tree_leaf
p690
(dp691
g19
g20
(g21
tp692
Rp693
g24
I1
ssg25
g24
sbsbsg26
(idecision_tree
decision_tree_leaf
p694
(dp695
g19
g20
(g21
tp696
Rp697
g24
I1
ssg25
g24
sbsbsg26
(idecision_tree
continuous_decision_tree
p698
(dp699
g2
F0.8067759999999999
sg3
I35
sg4
(idecision_tree
continuous_decision_tree
p700
(dp701
g2
F1.0
sg3
I66
sg4
(idecision_tree
decision_tree_leaf
p702
(dp703
g19
g20
(g21
tp704
Rp705
g24
I24
sS'PKP'
p706
I5
sS'Pn'
p707
I1
ssg25
g24
sbsg26
(idecision_tree
decision_tree_leaf
p708
(dp709
g19
g20
(g21
tp710
Rp711
g24
I1
ssg25
g24
sbsbsg26
(idecision_tree
continuous_decision_tree
p712
(dp713
g2
F0.2075725
sg3
I51
sg4
(idecision_tree
continuous_decision_tree
p714
(dp715
g2
F0.466064
sg3
I52
sg4
(idecision_tree
continuous_decision_tree
p716
(dp717
g2
F0.20370149999999998
sg3
I50
sg4
(idecision_tree
continuous_decision_tree
p718
(dp719
g2
F185.0
sg3
I67
sg4
(idecision_tree
decision_tree_leaf
p720
(dp721
g19
g20
(g21
tp722
Rp723
g24
I1
ssg25
g24
sbsg26
(idecision_tree
decision_tree_leaf
p724
(dp725
g19
g20
(g21
tp726
Rp727
S'PKP'
p728
I1
ssg25
g728
sbsbsg26
(idecision_tree
decision_tree_leaf
p729
(dp730
g19
g20
(g21
tp731
Rp732
g24
I1
ssg25
g24
sbsbsg26
(idecision_tree
decision_tree_leaf
p733
(dp734
g19
g20
(g21
tp735
Rp736
g24
I1
ssg25
g24
sbsbsg26
(idecision_tree
decision_tree_leaf
p737
(dp738
g19
g20
(g21
tp739
Rp740
g24
I1
ssg25
g24
sbsbsbsbsg26
(idecision_tree
continuous_decision_tree
p741
(dp742
g2
F106.5535
sg3
I67
sg4
(idecision_tree
continuous_decision_tree
p743
(dp744
g2
F8.5
sg3
I59
sg4
(idecision_tree
continuous_decision_tree
p745
(dp746
g2
F0.3798935
sg3
I52
sg4
(idecision_tree
continuous_decision_tree
p747
(dp748
g2
F113.02850000000001
sg3
I67
sg4
(idecision_tree
decision_tree_leaf
p749
(dp750
g19
g20
(g21
tp751
Rp752
g24
I1
ssg25
g24
sbsg26
(idecision_tree
decision_tree_leaf
p753
(dp754
g19
g20
(g21
tp755
Rp756
S'Pn'
p757
I1
ssg25
g757
sbsbsg26
(idecision_tree
decision_tree_leaf
p758
(dp759
g19
g20
(g21
tp760
Rp761
g24
I1
ssg25
g24
sbsbsg26
(idecision_tree
decision_tree_leaf
p762
(dp763
g19
g20
(g21
tp764
Rp765
g24
I1
ssg25
g24
sbsbsg26
(idecision_tree
decision_tree_leaf
p766
(dp767
g19
g20
(g21
tp768
Rp769
g24
I1
ssg25
g24
sbsbsbsg26
(idecision_tree
decision_tree_leaf
p770
(dp771
g19
g20
(g21
tp772
Rp773
g24
I4
sS'PKP'
p774
I1
ssg25
g24
sbsbsbsg26
(idecision_tree
continuous_decision_tree
p775
(dp776
g2
F140.5
sg3
I67
sg4
(idecision_tree
continuous_decision_tree
p777
(dp778
g2
F160.5985
sg3
I67
sg4
(idecision_tree
continuous_decision_tree
p779
(dp780
g2
F211.375
sg3
I67
sg4
(idecision_tree
continuous_decision_tree
p781
(dp782
g2
F237.16649999999998
sg3
I67
sg4
(idecision_tree
continuous_decision_tree
p783
(dp784
g2
F-18.83335
sg3
I63
sg4
(idecision_tree
decision_tree_leaf
p785
(dp786
g19
g20
(g21
tp787
Rp788
g24
I3
sS'PKP'
p789
I1
ssg25
g24
sbsg26
(idecision_tree
decision_tree_leaf
p790
(dp791
g19
g20
(g21
tp792
Rp793
g24
I1
ssg25
g24
sbsbsg26
(idecision_tree
continuous_decision_tree
p794
(dp795
g2
F-1.5
sg3
I62
sg4
(idecision_tree
continuous_decision_tree
p796
(dp797
g2
F1.1048035
sg3
I52
sg4
(idecision_tree
decision_tree_leaf
p798
(dp799
g19
g20
(g21
tp800
Rp801
g24
I1
ssg25
g24
sbsg26
(idecision_tree
continuous_decision_tree
p802
(dp803
g2
F2.10229
sg3
I39
sg4
(idecision_tree
continuous_decision_tree
p804
(dp805
g2
F218.375
sg3
I67
sg4
(idecision_tree
decision_tree_leaf
p806
(dp807
g19
g20
(g21
tp808
Rp809
g24
I1
ssg25
g24
sbsg26
(idecision_tree
decision_tree_leaf
p810
(dp811
g19
g20
(g21
tp812
Rp813
S'PKP'
p814
I1
ssg25
g814
sbsbsg26
(idecision_tree
decision_tree_leaf
p815
(dp816
g19
g20
(g21
tp817
Rp818
g24
I1
ssg25
g24
sbsbsbsg26
(idecision_tree
decision_tree_leaf
p819
(dp820
g19
g20
(g21
tp821
Rp822
g24
I1
ssg25
g24
sbsbsbsg26
(idecision_tree
continuous_decision_tree
p823
(dp824
g2
F27.97055
sg3
I44
sg4
(idecision_tree
continuous_decision_tree
p825
(dp826
g2
F-24.25
sg3
I59
sg4
(idecision_tree
continuous_decision_tree
p827
(dp828
g2
F-46.75
sg3
I63
sg4
(idecision_tree
continuous_decision_tree
p829
(dp830
g2
F0.23860750000000003
sg3
I52
sg4
(idecision_tree
continuous_decision_tree
p831
(dp832
g2
F183.93200000000002
sg3
I67
sg4
(idecision_tree
decision_tree_leaf
p833
(dp834
g19
g20
(g21
tp835
Rp836
g24
I1
ssg25
g24
sbsg26
(idecision_tree
decision_tree_leaf
p837
(dp838
g19
g20
(g21
tp839
Rp840
S'Pn'
p841
I1
ssg25
g841
sbsbsg26
(idecision_tree
decision_tree_leaf
p842
(dp843
g19
g20
(g21
tp844
Rp845
g24
I1
ssg25
g24
sbsbsg26
(idecision_tree
decision_tree_leaf
p846
(dp847
g19
g20
(g21
tp848
Rp849
g24
I1
ssg25
g24
sbsbsg26
(idecision_tree
decision_tree_leaf
p850
(dp851
g19
g20
(g21
tp852
Rp853
g24
I1
ssg25
g24
sbsbsg26
(idecision_tree
continuous_decision_tree
p854
(dp855
g2
F167.875
sg3
I67
sg4
(idecision_tree
continuous_decision_tree
p856
(dp857
g2
F-1.0
sg3
I62
sg4
(idecision_tree
decision_tree_leaf
p858
(dp859
g19
g20
(g21
tp860
Rp861
g24
I2
sS'Lg'
p862
I1
ssg25
g24
sbsg26
(idecision_tree
decision_tree_leaf
p863
(dp864
g19
g20
(g21
tp865
Rp866
g24
I1
ssg25
g24
sbsbsg26
(idecision_tree
decision_tree_leaf
p867
(dp868
g19
g20
(g21
tp869
Rp870
g24
I1
ssg25
g24
sbsbsbsbsg26
(idecision_tree
continuous_decision_tree
p871
(dp872
g2
F-8.125
sg3
I59
sg4
(idecision_tree
continuous_decision_tree
p873
(dp874
g2
F-29.125
sg3
I63
sg4
(idecision_tree
continuous_decision_tree
p875
(dp876
g2
F0.5
sg3
I66
sg4
(idecision_tree
continuous_decision_tree
p877
(dp878
g2
F77.13765000000001
sg3
I40
sg4
(idecision_tree
continuous_decision_tree
p879
(dp880
g2
F158.0
sg3
I67
sg4
(idecision_tree
decision_tree_leaf
p881
(dp882
g19
g20
(g21
tp883
Rp884
g92
I1
ssg25
g92
sbsg26
(idecision_tree
decision_tree_leaf
p885
(dp886
g19
g20
(g21
tp887
Rp888
g24
I1
ssg25
g24
sbsbsg26
(idecision_tree
decision_tree_leaf
p889
(dp890
g19
g20
(g21
tp891
Rp892
g24
I1
ssg25
g24
sbsbsg26
(idecision_tree
decision_tree_leaf
p893
(dp894
g19
g20
(g21
tp895
Rp896
g24
I1
ssg25
g24
sbsbsg26
(idecision_tree
decision_tree_leaf
p897
(dp898
g19
g20
(g21
tp899
Rp900
g24
I1
ssg25
g24
sbsbsg26
(idecision_tree
continuous_decision_tree
p901
(dp902
g2
F-32.0
sg3
I63
sg4
(idecision_tree
continuous_decision_tree
p903
(dp904
g2
F1.5860400000000001
sg3
I48
sg4
(idecision_tree
continuous_decision_tree
p905
(dp906
g2
F142.375
sg3
I67
sg4
(idecision_tree
decision_tree_leaf
p907
(dp908
g19
g20
(g21
tp909
Rp910
g24
I2
ssg25
g24
sbsg26
(idecision_tree
decision_tree_leaf
p911
(dp912
g19
g20
(g21
tp913
Rp914
S'Sn'
p915
I1
ssg25
g915
sbsbsg26
(idecision_tree
decision_tree_leaf
p916
(dp917
g19
g20
(g21
tp918
Rp919
g24
I1
ssg25
g24
sbsbsg26
(idecision_tree
decision_tree_leaf
p920
(dp921
g19
g20
(g21
tp922
Rp923
g24
I1
ssg25
g24
sbsbsbsbsg26
(idecision_tree
continuous_decision_tree
p924
(dp925
g2
F-17.6875
sg3
I63
sg4
(idecision_tree
continuous_decision_tree
p926
(dp927
g2
F0.954058
sg3
I35
sg4
(idecision_tree
continuous_decision_tree
p928
(dp929
g2
F-12.5
sg3
I63
sg4
(idecision_tree
decision_tree_leaf
p930
(dp931
g19
g20
(g21
tp932
Rp933
g24
I3
sS'PKP'
p934
I1
ssg25
g24
sbsg26
(idecision_tree
decision_tree_leaf
p935
(dp936
g19
g20
(g21
tp937
Rp938
g24
I1
ssg25
g24
sbsbsg26
(idecision_tree
continuous_decision_tree
p939
(dp940
g2
F134.58350000000002
sg3
I67
sg4
(idecision_tree
decision_tree_leaf
p941
(dp942
g19
g20
(g21
tp943
Rp944
g24
I1
ssg25
g24
sbsg26
(idecision_tree
continuous_decision_tree
p945
(dp946
g2
F0.125319
sg3
I51
sg4
(idecision_tree
continuous_decision_tree
p947
(dp948
g2
F0.5235265
sg3
I49
sg4
(idecision_tree
continuous_decision_tree
p949
(dp950
g2
F129.83350000000002
sg3
I67
sg4
(idecision_tree
decision_tree_leaf
p951
(dp952
g19
g20
(g21
tp953
Rp954
S'PKP'
p955
I1
ssg25
g955
sbsg26
(idecision_tree
decision_tree_leaf
p956
(dp957
g19
g20
(g21
tp958
Rp959
g24
I1
ssg25
g24
sbsbsg26
(idecision_tree
decision_tree_leaf
p960
(dp961
g19
g20
(g21
tp962
Rp963
g24
I1
ssg25
g24
sbsbsg26
(idecision_tree
decision_tree_leaf
p964
(dp965
g19
g20
(g21
tp966
Rp967
g24
I1
ssg25
g24
sbsbsbsbsg26
(idecision_tree
continuous_decision_tree
p968
(dp969
g2
F-20.597900000000003
sg3
I59
sg4
(idecision_tree
decision_tree_leaf
p970
(dp971
g19
g20
(g21
tp972
Rp973
g24
I4
sS'PKP'
p974
I1
ssg25
g24
sbsg26
(idecision_tree
continuous_decision_tree
p975
(dp976
g2
F0.710719
sg3
I48
sg4
(idecision_tree
continuous_decision_tree
p977
(dp978
g2
F111.85
sg3
I67
sg4
(idecision_tree
decision_tree_leaf
p979
(dp980
g19
g20
(g21
tp981
Rp982
g24
I3
ssg25
g24
sbsg26
(idecision_tree
decision_tree_leaf
p983
(dp984
g19
g20
(g21
tp985
Rp986
S'Sn'
p987
I1
ssg25
g987
sbsbsg26
(idecision_tree
decision_tree_leaf
p988
(dp989
g19
g20
(g21
tp990
Rp991
g24
I1
ssg25
g24
sbsbsbsbsbsbsg26
(idecision_tree
continuous_decision_tree
p992
(dp993
g2
F174.5
sg3
I67
sg4
(idecision_tree
continuous_decision_tree
p994
(dp995
g2
F1.5
sg3
I66
sg4
(idecision_tree
continuous_decision_tree
p996
(dp997
g2
F0.0
sg3
I63
sg4
(idecision_tree
continuous_decision_tree
p998
(dp999
g2
F257.625
sg3
I67
sg4
(idecision_tree
decision_tree_leaf
p1000
(dp1001
g19
g20
(g21
tp1002
Rp1003
S'PKP'
p1004
I1
ssg25
g1004
sbsg26
(idecision_tree
decision_tree_leaf
p1005
(dp1006
g19
g20
(g21
tp1007
Rp1008
g24
I1
ssg25
g24
sbsbsg26
(idecision_tree
decision_tree_leaf
p1009
(dp1010
g19
g20
(g21
tp1011
Rp1012
g24
I2
ssg25
g24
sbsbsg26
(idecision_tree
continuous_decision_tree
p1013
(dp1014
g2
F203.875
sg3
I67
sg4
(idecision_tree
continuous_decision_tree
p1015
(dp1016
g2
F0.7188395000000001
sg3
I52
sg4
(idecision_tree
decision_tree_leaf
p1017
(dp1018
g19
g20
(g21
tp1019
Rp1020
g24
I1
ssg25
g24
sbsg26
(idecision_tree
continuous_decision_tree
p1021
(dp1022
g2
F0.31275600000000003
sg3
I50
sg4
(idecision_tree
continuous_decision_tree
p1023
(dp1024
g2
F240.625
sg3
I67
sg4
(idecision_tree
decision_tree_leaf
p1025
(dp1026
g19
g20
(g21
tp1027
Rp1028
S'PKP'
p1029
I1
ssg25
g1029
sbsg26
(idecision_tree
decision_tree_leaf
p1030
(dp1031
g19
g20
(g21
tp1032
Rp1033
g24
I1
ssg25
g24
sbsbsg26
(idecision_tree
decision_tree_leaf
p1034
(dp1035
g19
g20
(g21
tp1036
Rp1037
g24
I1
ssg25
g24
sbsbsbsg26
(idecision_tree
continuous_decision_tree
p1038
(dp1039
g2
F0.0
sg3
I66
sg4
(idecision_tree
continuous_decision_tree
p1040
(dp1041
g2
F0.5
sg3
I66
sg4
(idecision_tree
continuous_decision_tree
p1042
(dp1043
g2
F0.202669
sg3
I50
sg4
(idecision_tree
continuous_decision_tree
p1044
(dp1045
g2
F194.25
sg3
I67
sg4
(idecision_tree
decision_tree_leaf
p1046
(dp1047
g19
g20
(g21
tp1048
Rp1049
S'PKP'
p1050
I1
ssg25
g1050
sbsg26
(idecision_tree
decision_tree_leaf
p1051
(dp1052
g19
g20
(g21
tp1053
Rp1054
g24
I1
ssg25
g24
sbsbsg26
(idecision_tree
decision_tree_leaf
p1055
(dp1056
g19
g20
(g21
tp1057
Rp1058
g24
I1
ssg25
g24
sbsbsg26
(idecision_tree
decision_tree_leaf
p1059
(dp1060
g19
g20
(g21
tp1061
Rp1062
g24
I2
sS'PKP'
p1063
I1
ssg25
g24
sbsbsg26
(idecision_tree
decision_tree_leaf
p1064
(dp1065
g19
g20
(g21
tp1066
Rp1067
g24
I1
ssg25
g24
sbsbsbsbsg26
(idecision_tree
continuous_decision_tree
p1068
(dp1069
g2
F0.0
sg3
I62
sg4
(idecision_tree
continuous_decision_tree
p1070
(dp1071
g2
F156.0
sg3
I67
sg4
(idecision_tree
continuous_decision_tree
p1072
(dp1073
g2
F161.5
sg3
I67
sg4
(idecision_tree
continuous_decision_tree
p1074
(dp1075
g2
F170.0
sg3
I67
sg4
(idecision_tree
decision_tree_leaf
p1076
(dp1077
g19
g20
(g21
tp1078
Rp1079
g24
I1
ssg25
g24
sbsg26
(idecision_tree
decision_tree_leaf
p1080
(dp1081
g19
g20
(g21
tp1082
Rp1083
S'Pn'
p1084
I1
ssg25
g1084
sbsbsg26
(idecision_tree
decision_tree_leaf
p1085
(dp1086
g19
g20
(g21
tp1087
Rp1088
g24
I1
ssg25
g24
sbsbsg26
(idecision_tree
decision_tree_leaf
p1089
(dp1090
g19
g20
(g21
tp1091
Rp1092
g24
I8
sg92
I1
sS'Pn'
p1093
I3
ssg25
g24
sbsbsg26
(idecision_tree
continuous_decision_tree
p1094
(dp1095
g2
F2.141585
sg3
I39
sg4
(idecision_tree
continuous_decision_tree
p1096
(dp1097
g2
F160.333
sg3
I67
sg4
(idecision_tree
decision_tree_leaf
p1098
(dp1099
g19
g20
(g21
tp1100
Rp1101
g24
I1
ssg25
g24
sbsg26
(idecision_tree
continuous_decision_tree
p1102
(dp1103
g2
F-1.0
sg3
I62
sg4
(idecision_tree
decision_tree_leaf
p1104
(dp1105
g19
g20
(g21
tp1106
Rp1107
g24
I2
sg92
I1
ssg25
g24
sbsg26
(idecision_tree
decision_tree_leaf
p1108
(dp1109
g19
g20
(g21
tp1110
Rp1111
g24
I1
ssg25
g24
sbsbsbsg26
(idecision_tree
continuous_decision_tree
p1112
(dp1113
g2
F-1.0
sg3
I62
sg4
(idecision_tree
decision_tree_leaf
p1114
(dp1115
g19
g20
(g21
tp1116
Rp1117
g24
I2
sS'Pn'
p1118
I1
ssg25
g24
sbsg26
(idecision_tree
decision_tree_leaf
p1119
(dp1120
g19
g20
(g21
tp1121
Rp1122
g24
I3
ssg25
g24
sbsbsbsbsbsbsg26
(idecision_tree
continuous_decision_tree
p1123
(dp1124
g2
F1.82592
sg3
I39
sg4
(idecision_tree
continuous_decision_tree
p1125
(dp1126
g2
F2.0
sg3
I62
sg4
(idecision_tree
continuous_decision_tree
p1127
(dp1128
g2
F27.4
sg3
I59
sg4
(idecision_tree
continuous_decision_tree
p1129
(dp1130
g2
F31.20835
sg3
I67
sg4
(idecision_tree
continuous_decision_tree
p1131
(dp1132
g2
F0.6588745
sg3
I50
sg4
(idecision_tree
decision_tree_leaf
p1133
(dp1134
g19
g20
(g21
tp1135
Rp1136
g24
I1
ssg25
g24
sbsg26
(idecision_tree
continuous_decision_tree
p1137
(dp1138
g2
F0.5664645
sg3
I52
sg4
(idecision_tree
decision_tree_leaf
p1139
(dp1140
g19
g20
(g21
tp1141
Rp1142
g24
I1
ssg25
g24
sbsg26
(idecision_tree
continuous_decision_tree
p1143
(dp1144
g2
F0.22195700000000002
sg3
I49
sg4
(idecision_tree
continuous_decision_tree
p1145
(dp1146
g2
F63.5
sg3
I67
sg4
(idecision_tree
decision_tree_leaf
p1147
(dp1148
g19
g20
(g21
tp1149
Rp1150
S'Pn'
p1151
I1
ssg25
g1151
sbsg26
(idecision_tree
decision_tree_leaf
p1152
(dp1153
g19
g20
(g21
tp1154
Rp1155
g24
I1
ssg25
g24
sbsbsg26
(idecision_tree
decision_tree_leaf
p1156
(dp1157
g19
g20
(g21
tp1158
Rp1159
g24
I1
ssg25
g24
sbsbsbsbsg26
(idecision_tree
continuous_decision_tree
p1160
(dp1161
g2
F4.0
sg3
I66
sg4
(idecision_tree
decision_tree_leaf
p1162
(dp1163
g19
g20
(g21
tp1164
Rp1165
g24
I1
ssg25
g24
sbsg26
(idecision_tree
continuous_decision_tree
p1166
(dp1167
g2
F0.3493255
sg3
I50
sg4
(idecision_tree
continuous_decision_tree
p1168
(dp1169
g2
F29.4167
sg3
I67
sg4
(idecision_tree
decision_tree_leaf
p1170
(dp1171
g19
g20
(g21
tp1172
Rp1173
S'Pn'
p1174
I1
ssg25
g1174
sbsg26
(idecision_tree
decision_tree_leaf
p1175
(dp1176
g19
g20
(g21
tp1177
Rp1178
g24
I1
ssg25
g24
sbsbsg26
(idecision_tree
decision_tree_leaf
p1179
(dp1180
g19
g20
(g21
tp1181
Rp1182
g24
I1
ssg25
g24
sbsbsbsbsg26
(idecision_tree
continuous_decision_tree
p1183
(dp1184
g2
F0.327393
sg3
I52
sg4
(idecision_tree
continuous_decision_tree
p1185
(dp1186
g2
F14.6667
sg3
I67
sg4
(idecision_tree
continuous_decision_tree
p1187
(dp1188
g2
F5.0
sg3
I66
sg4
(idecision_tree
decision_tree_leaf
p1189
(dp1190
g19
g20
(g21
tp1191
Rp1192
g24
I3
sg92
I2
ssg25
g24
sbsg26
(idecision_tree
continuous_decision_tree
p1193
(dp1194
g2
F20.4375
sg3
I63
sg4
(idecision_tree
continuous_decision_tree
p1195
(dp1196
g2
F29.66665
sg3
I67
sg4
(idecision_tree
continuous_decision_tree
p1197
(dp1198
g2
F65.625
sg3
I67
sg4
(idecision_tree
decision_tree_leaf
p1199
(dp1200
g19
g20
(g21
tp1201
Rp1202
g24
I1
ssg25
g24
sbsg26
(idecision_tree
continuous_decision_tree
p1203
(dp1204
g2
F2.5
sg3
I66
sg4
(idecision_tree
decision_tree_leaf
p1205
(dp1206
g19
g20
(g21
tp1207
Rp1208
g24
I1
ssg25
g24
sbsg26
(idecision_tree
continuous_decision_tree
p1209
(dp1210
g2
F-14.75
sg3
I59
sg4
(idecision_tree
continuous_decision_tree
p1211
(dp1212
g2
F49.625
sg3
I67
sg4
(idecision_tree
decision_tree_leaf
p1213
(dp1214
g19
g20
(g21
tp1215
Rp1216
g92
I1
ssg25
g92
sbsg26
(idecision_tree
decision_tree_leaf
p1217
(dp1218
g19
g20
(g21
tp1219
Rp1220
g24
I1
ssg25
g24
sbsbsg26
(idecision_tree
decision_tree_leaf
p1221
(dp1222
g19
g20
(g21
tp1223
Rp1224
g24
I1
ssg25
g24
sbsbsbsbsg26
(idecision_tree
continuous_decision_tree
p1225
(dp1226
g2
F3.0
sg3
I66
sg4
(idecision_tree
continuous_decision_tree
p1227
(dp1228
g2
F0.1659205
sg3
I50
sg4
(idecision_tree
continuous_decision_tree
p1229
(dp1230
g2
F4.0
sg3
I66
sg4
(idecision_tree
decision_tree_leaf
p1231
(dp1232
g19
g20
(g21
tp1233
Rp1234
g24
I2
sg92
I1
ssg25
g24
sbsg26
(idecision_tree
decision_tree_leaf
p1235
(dp1236
g19
g20
(g21
tp1237
Rp1238
g24
I1
ssg25
g24
sbsbsg26
(idecision_tree
decision_tree_leaf
p1239
(dp1240
g19
g20
(g21
tp1241
Rp1242
g24
I2
sS'PKP'
p1243
I1
ssg25
g24
sbsbsg26
(idecision_tree
decision_tree_leaf
p1244
(dp1245
g19
g20
(g21
tp1246
Rp1247
g24
I2
ssg25
g24
sbsbsbsg26
(idecision_tree
continuous_decision_tree
p1248
(dp1249
g2
F3.0
sg3
I62
sg4
(idecision_tree
continuous_decision_tree
p1250
(dp1251
g2
F0.9551959999999999
sg3
I35
sg4
(idecision_tree
continuous_decision_tree
p1252
(dp1253
g2
F39.682249999999996
sg3
I67
sg4
(idecision_tree
decision_tree_leaf
p1254
(dp1255
g19
g20
(g21
tp1256
Rp1257
g24
I1
ssg25
g24
sbsg26
(idecision_tree
continuous_decision_tree
p1258
(dp1259
g2
F0.7351719999999999
sg3
I48
sg4
(idecision_tree
continuous_decision_tree
p1260
(dp1261
g2
F17.41665
sg3
I67
sg4
(idecision_tree
decision_tree_leaf
p1262
(dp1263
g19
g20
(g21
tp1264
Rp1265
g92
I1
ssg25
g92
sbsg26
(idecision_tree
decision_tree_leaf
p1266
(dp1267
g19
g20
(g21
tp1268
Rp1269
g24
I1
ssg25
g24
sbsbsg26
(idecision_tree
decision_tree_leaf
p1270
(dp1271
g19
g20
(g21
tp1272
Rp1273
g24
I1
ssg25
g24
sbsbsbsg26
(idecision_tree
decision_tree_leaf
p1274
(dp1275
g19
g20
(g21
tp1276
Rp1277
g24
I3
sS'PKP'
p1278
I1
ssg25
g24
sbsbsg26
(idecision_tree
continuous_decision_tree
p1279
(dp1280
g2
F2.5
sg3
I66
sg4
(idecision_tree
continuous_decision_tree
p1281
(dp1282
g2
F15.25
sg3
I63
sg4
(idecision_tree
decision_tree_leaf
p1283
(dp1284
g19
g20
(g21
tp1285
Rp1286
g24
I1
ssg25
g24
sbsg26
(idecision_tree
continuous_decision_tree
p1287
(dp1288
g2
F2.376755
sg3
I39
sg4
(idecision_tree
continuous_decision_tree
p1289
(dp1290
g2
F0.9612105
sg3
I35
sg4
(idecision_tree
continuous_decision_tree
p1291
(dp1292
g2
F66.75
sg3
I67
sg4
(idecision_tree
decision_tree_leaf
p1293
(dp1294
g19
g20
(g21
tp1295
Rp1296
S'PKP'
p1297
I1
ssg25
g1297
sbsg26
(idecision_tree
decision_tree_leaf
p1298
(dp1299
g19
g20
(g21
tp1300
Rp1301
g24
I1
ssg25
g24
sbsbsg26
(idecision_tree
decision_tree_leaf
p1302
(dp1303
g19
g20
(g21
tp1304
Rp1305
g24
I1
ssg25
g24
sbsbsg26
(idecision_tree
decision_tree_leaf
p1306
(dp1307
g19
g20
(g21
tp1308
Rp1309
g24
I1
ssg25
g24
sbsbsbsg26
(idecision_tree
decision_tree_leaf
p1310
(dp1311
g19
g20
(g21
tp1312
Rp1313
g24
I1
ssg25
g24
sbsbsbsbsbsg26
(idecision_tree
continuous_decision_tree
p1314
(dp1315
g2
F0.9057345
sg3
I34
sg4
(idecision_tree
continuous_decision_tree
p1316
(dp1317
g2
F10.52085
sg3
I67
sg4
(idecision_tree
decision_tree_leaf
p1318
(dp1319
g19
g20
(g21
tp1320
Rp1321
g24
I1
ssg25
g24
sbsg26
(idecision_tree
continuous_decision_tree
p1322
(dp1323
g2
F0.9182235
sg3
I52
sg4
(idecision_tree
decision_tree_leaf
p1324
(dp1325
g19
g20
(g21
tp1326
Rp1327
g24
I2
ssg25
g24
sbsg26
(idecision_tree
decision_tree_leaf
p1328
(dp1329
g19
g20
(g21
tp1330
Rp1331
g24
I3
sg92
I1
ssg25
g24
sbsbsbsg26
(idecision_tree
decision_tree_leaf
p1332
(dp1333
g19
g20
(g21
tp1334
Rp1335
g24
I1
ssg25
g24
sbsbsbsg26
(idecision_tree
continuous_decision_tree
p1336
(dp1337
g2
F1.9542199999999998
sg3
I48
sg4
(idecision_tree
continuous_decision_tree
p1338
(dp1339
g2
F3.0
sg3
I66
sg4
(idecision_tree
decision_tree_leaf
p1340
(dp1341
g19
g20
(g21
tp1342
Rp1343
g24
I4
sS'Pn'
p1344
I1
ssg25
g24
sbsg26
(idecision_tree
continuous_decision_tree
p1345
(dp1346
g2
F26.75
sg3
I67
sg4
(idecision_tree
decision_tree_leaf
p1347
(dp1348
g19
g20
(g21
tp1349
Rp1350
g24
I1
ssg25
g24
sbsg26
(idecision_tree
decision_tree_leaf
p1351
(dp1352
g19
g20
(g21
tp1353
Rp1354
g24
I2
sS'Pn'
p1355
I1
ssg25
g24
sbsbsbsg26
(idecision_tree
continuous_decision_tree
p1356
(dp1357
g2
F0.9345855000000001
sg3
I35
sg4
(idecision_tree
continuous_decision_tree
p1358
(dp1359
g2
F4.0
sg3
I62
sg4
(idecision_tree
continuous_decision_tree
p1360
(dp1361
g2
F0.3472915
sg3
I49
sg4
(idecision_tree
continuous_decision_tree
p1362
(dp1363
g2
F21.5625
sg3
I63
sg4
(idecision_tree
continuous_decision_tree
p1364
(dp1365
g2
F39.583349999999996
sg3
I67
sg4
(idecision_tree
decision_tree_leaf
p1366
(dp1367
g19
g20
(g21
tp1368
Rp1369
S'Pn'
p1370
I1
ssg25
g1370
sbsg26
(idecision_tree
decision_tree_leaf
p1371
(dp1372
g19
g20
(g21
tp1373
Rp1374
g24
I1
ssg25
g24
sbsbsg26
(idecision_tree
decision_tree_leaf
p1375
(dp1376
g19
g20
(g21
tp1377
Rp1378
g24
I1
ssg25
g24
sbsbsg26
(idecision_tree
continuous_decision_tree
p1379
(dp1380
g2
F4.5
sg3
I66
sg4
(idecision_tree
continuous_decision_tree
p1381
(dp1382
g2
F34.75
sg3
I67
sg4
(idecision_tree
decision_tree_leaf
p1383
(dp1384
g19
g20
(g21
tp1385
Rp1386
g24
I1
ssg25
g24
sbsg26
(idecision_tree
decision_tree_leaf
p1387
(dp1388
g19
g20
(g21
tp1389
Rp1390
S'Pn'
p1391
I1
ssg25
g1391
sbsbsg26
(idecision_tree
decision_tree_leaf
p1392
(dp1393
g19
g20
(g21
tp1394
Rp1395
g24
I1
ssg25
g24
sbsbsbsg26
(idecision_tree
continuous_decision_tree
p1396
(dp1397
g2
F79.5
sg3
I67
sg4
(idecision_tree
decision_tree_leaf
p1398
(dp1399
g19
g20
(g21
tp1400
Rp1401
g24
I1
ssg25
g24
sbsg26
(idecision_tree
continuous_decision_tree
p1402
(dp1403
g2
F0.283837
sg3
I52
sg4
(idecision_tree
decision_tree_leaf
p1404
(dp1405
g19
g20
(g21
tp1406
Rp1407
g24
I1
ssg25
g24
sbsg26
(idecision_tree
continuous_decision_tree
p1408
(dp1409
g2
F0.7118439999999999
sg3
I50
sg4
(idecision_tree
decision_tree_leaf
p1410
(dp1411
g19
g20
(g21
tp1412
Rp1413
g24
I1
ssg25
g24
sbsg26
(idecision_tree
continuous_decision_tree
p1414
(dp1415
g2
F14.66665
sg3
I63
sg4
(idecision_tree
continuous_decision_tree
p1416
(dp1417
g2
F6.666650000000001
sg3
I59
sg4
(idecision_tree
continuous_decision_tree
p1418
(dp1419
g2
F0.9639625
sg3
I34
sg4
(idecision_tree
continuous_decision_tree
p1420
(dp1421
g2
F46.45
sg3
I67
sg4
(idecision_tree
decision_tree_leaf
p1422
(dp1423
g19
g20
(g21
tp1424
Rp1425
S'Pn'
p1426
I1
ssg25
g1426
sbsg26
(idecision_tree
decision_tree_leaf
p1427
(dp1428
g19
g20
(g21
tp1429
Rp1430
g24
I1
ssg25
g24
sbsbsg26
(idecision_tree
decision_tree_leaf
p1431
(dp1432
g19
g20
(g21
tp1433
Rp1434
g24
I1
ssg25
g24
sbsbsg26
(idecision_tree
decision_tree_leaf
p1435
(dp1436
g19
g20
(g21
tp1437
Rp1438
g24
I1
ssg25
g24
sbsbsg26
(idecision_tree
decision_tree_leaf
p1439
(dp1440
g19
g20
(g21
tp1441
Rp1442
g24
I1
ssg25
g24
sbsbsbsbsbsbsg26
(idecision_tree
continuous_decision_tree
p1443
(dp1444
g2
F15.25
sg3
I67
sg4
(idecision_tree
continuous_decision_tree
p1445
(dp1446
g2
F28.9021
sg3
I63
sg4
(idecision_tree
decision_tree_leaf
p1447
(dp1448
g19
g20
(g21
tp1449
Rp1450
g24
I1
ssg25
g24
sbsg26
(idecision_tree
continuous_decision_tree
p1451
(dp1452
g2
F0.37704950000000004
sg3
I51
sg4
(idecision_tree
decision_tree_leaf
p1453
(dp1454
g19
g20
(g21
tp1455
Rp1456
g24
I1
ssg25
g24
sbsg26
(idecision_tree
continuous_decision_tree
p1457
(dp1458
g2
F23.487000000000002
sg3
I44
sg4
(idecision_tree
continuous_decision_tree
p1459
(dp1460
g2
F40.72725
sg3
I67
sg4
(idecision_tree
decision_tree_leaf
p1461
(dp1462
g19
g20
(g21
tp1463
Rp1464
S'Pn'
p1465
I1
ssg25
g1465
sbsg26
(idecision_tree
decision_tree_leaf
p1466
(dp1467
g19
g20
(g21
tp1468
Rp1469
g24
I1
ssg25
g24
sbsbsg26
(idecision_tree
decision_tree_leaf
p1470
(dp1471
g19
g20
(g21
tp1472
Rp1473
g24
I1
ssg25
g24
sbsbsbsbsg26
(idecision_tree
continuous_decision_tree
p1474
(dp1475
g2
F0.27417
sg3
I51
sg4
(idecision_tree
continuous_decision_tree
p1476
(dp1477
g2
F66.51474999999999
sg3
I40
sg4
(idecision_tree
continuous_decision_tree
p1478
(dp1479
g2
F14.25
sg3
I67
sg4
(idecision_tree
decision_tree_leaf
p1480
(dp1481
g19
g20
(g21
tp1482
Rp1483
S'Pn'
p1484
I1
ssg25
g1484
sbsg26
(idecision_tree
decision_tree_leaf
p1485
(dp1486
g19
g20
(g21
tp1487
Rp1488
g24
I1
ssg25
g24
sbsbsg26
(idecision_tree
decision_tree_leaf
p1489
(dp1490
g19
g20
(g21
tp1491
Rp1492
g24
I1
ssg25
g24
sbsbsg26
(idecision_tree
decision_tree_leaf
p1493
(dp1494
g19
g20
(g21
tp1495
Rp1496
g24
I1
ssg25
g24
sbsbsbsbsbsbsbsg26
(idecision_tree
continuous_decision_tree
p1497
(dp1498
g2
F0.8658665
sg3
I48
sg4
(idecision_tree
continuous_decision_tree
p1499
(dp1500
g2
F0.3941875
sg3
I49
sg4
(idecision_tree
continuous_decision_tree
p1501
(dp1502
g2
F0.8921490000000001
sg3
I35
sg4
(idecision_tree
continuous_decision_tree
p1503
(dp1504
g2
F-7.0
sg3
I63
sg4
(idecision_tree
continuous_decision_tree
p1505
(dp1506
g2
F2.755345
sg3
I39
sg4
(idecision_tree
continuous_decision_tree
p1507
(dp1508
g2
F6.333335
sg3
I63
sg4
(idecision_tree
continuous_decision_tree
p1509
(dp1510
g2
F0.5
sg3
I66
sg4
(idecision_tree
continuous_decision_tree
p1511
(dp1512
g2
F0.31393550000000003
sg3
I52
sg4
(idecision_tree
continuous_decision_tree
p1513
(dp1514
g2
F0.8452390000000001
sg3
I52
sg4
(idecision_tree
decision_tree_leaf
p1515
(dp1516
g19
g20
(g21
tp1517
Rp1518
g24
I1
ssg25
g24
sbsg26
(idecision_tree
continuous_decision_tree
p1519
(dp1520
g2
F0.2875765
sg3
I50
sg4
(idecision_tree
continuous_decision_tree
p1521
(dp1522
g2
F21.5
sg3
I67
sg4
(idecision_tree
decision_tree_leaf
p1523
(dp1524
g19
g20
(g21
tp1525
Rp1526
S'Pn'
p1527
I1
ssg25
g1527
sbsg26
(idecision_tree
decision_tree_leaf
p1528
(dp1529
g19
g20
(g21
tp1530
Rp1531
g24
I1
ssg25
g24
sbsbsg26
(idecision_tree
decision_tree_leaf
p1532
(dp1533
g19
g20
(g21
tp1534
Rp1535
g24
I1
ssg25
g24
sbsbsbsg26
(idecision_tree
continuous_decision_tree
p1536
(dp1537
g2
F74.125
sg3
I67
sg4
(idecision_tree
decision_tree_leaf
p1538
(dp1539
g19
g20
(g21
tp1540
Rp1541
g24
I1
ssg25
g24
sbsg26
(idecision_tree
continuous_decision_tree
p1542
(dp1543
g2
F64.1934
sg3
I40
sg4
(idecision_tree
continuous_decision_tree
p1544
(dp1545
g2
F15.5
sg3
I67
sg4
(idecision_tree
continuous_decision_tree
p1546
(dp1547
g2
F38.0
sg3
I67
sg4
(idecision_tree
decision_tree_leaf
p1548
(dp1549
g19
g20
(g21
tp1550
Rp1551
S'Pn'
p1552
I1
ssg25
g1552
sbsg26
(idecision_tree
decision_tree_leaf
p1553
(dp1554
g19
g20
(g21
tp1555
Rp1556
g24
I1
ssg25
g24
sbsbsg26
(idecision_tree
decision_tree_leaf
p1557
(dp1558
g19
g20
(g21
tp1559
Rp1560
g24
I1
ssg25
g24
sbsbsg26
(idecision_tree
decision_tree_leaf
p1561
(dp1562
g19
g20
(g21
tp1563
Rp1564
g24
I1
ssg25
g24
sbsbsbsbsg26
(idecision_tree
continuous_decision_tree
p1565
(dp1566
g2
F28.5
sg3
I59
sg4
(idecision_tree
decision_tree_leaf
p1567
(dp1568
g19
g20
(g21
tp1569
Rp1570
g24
I1
ssg25
g24
sbsg26
(idecision_tree
continuous_decision_tree
p1571
(dp1572
g2
F0.2974505
sg3
I38
sg4
(idecision_tree
continuous_decision_tree
p1573
(dp1574
g2
F37.291650000000004
sg3
I67
sg4
(idecision_tree
decision_tree_leaf
p1575
(dp1576
g19
g20
(g21
tp1577
Rp1578
S'Pn'
p1579
I1
ssg25
g1579
sbsg26
(idecision_tree
decision_tree_leaf
p1580
(dp1581
g19
g20
(g21
tp1582
Rp1583
g24
I1
ssg25
g24
sbsbsg26
(idecision_tree
decision_tree_leaf
p1584
(dp1585
g19
g20
(g21
tp1586
Rp1587
g24
I1
ssg25
g24
sbsbsbsbsg26
(idecision_tree
decision_tree_leaf
p1588
(dp1589
g19
g20
(g21
tp1590
Rp1591
g24
I3
sS'Pn'
p1592
I1
ssg25
g24
sbsbsg26
(idecision_tree
continuous_decision_tree
p1593
(dp1594
g2
F1.0099655
sg3
I49
sg4
(idecision_tree
continuous_decision_tree
p1595
(dp1596
g2
F0.5
sg3
I66
sg4
(idecision_tree
continuous_decision_tree
p1597
(dp1598
g2
F42.04165
sg3
I67
sg4
(idecision_tree
continuous_decision_tree
p1599
(dp1600
g2
F68.0
sg3
I67
sg4
(idecision_tree
decision_tree_leaf
p1601
(dp1602
g19
g20
(g21
tp1603
Rp1604
g92
I1
ssg25
g92
sbsg26
(idecision_tree
decision_tree_leaf
p1605
(dp1606
g19
g20
(g21
tp1607
Rp1608
g24
I1
ssg25
g24
sbsbsg26
(idecision_tree
decision_tree_leaf
p1609
(dp1610
g19
g20
(g21
tp1611
Rp1612
g24
I1
ssg25
g24
sbsbsg26
(idecision_tree
decision_tree_leaf
p1613
(dp1614
g19
g20
(g21
tp1615
Rp1616
g24
I1
ssg25
g24
sbsbsg26
(idecision_tree
continuous_decision_tree
p1617
(dp1618
g2
F0.6720965
sg3
I49
sg4
(idecision_tree
continuous_decision_tree
p1619
(dp1620
g2
F83.29165
sg3
I67
sg4
(idecision_tree
decision_tree_leaf
p1621
(dp1622
g19
g20
(g21
tp1623
Rp1624
g24
I1
ssg25
g24
sbsg26
(idecision_tree
continuous_decision_tree
p1625
(dp1626
g2
F0.3425665
sg3
I51
sg4
(idecision_tree
continuous_decision_tree
p1627
(dp1628
g2
F41.91665
sg3
I67
sg4
(idecision_tree
decision_tree_leaf
p1629
(dp1630
g19
g20
(g21
tp1631
Rp1632
S'Pn'
p1633
I1
ssg25
g1633
sbsg26
(idecision_tree
decision_tree_leaf
p1634
(dp1635
g19
g20
(g21
tp1636
Rp1637
g24
I1
ssg25
g24
sbsbsg26
(idecision_tree
decision_tree_leaf
p1638
(dp1639
g19
g20
(g21
tp1640
Rp1641
g24
I1
ssg25
g24
sbsbsbsg26
(idecision_tree
continuous_decision_tree
p1642
(dp1643
g2
F1.093975
sg3
I48
sg4
(idecision_tree
continuous_decision_tree
p1644
(dp1645
g2
F0.973709
sg3
I35
sg4
(idecision_tree
decision_tree_leaf
p1646
(dp1647
g19
g20
(g21
tp1648
Rp1649
g24
I1
ssg25
g24
sbsg26
(idecision_tree
decision_tree_leaf
p1650
(dp1651
g19
g20
(g21
tp1652
Rp1653
g24
I2
sS'Sn'
p1654
I1
ssg25
g24
sbsbsg26
(idecision_tree
decision_tree_leaf
p1655
(dp1656
g19
g20
(g21
tp1657
Rp1658
g24
I1
ssg25
g24
sbsbsbsbsbsg26
(idecision_tree
decision_tree_leaf
p1659
(dp1660
g19
g20
(g21
tp1661
Rp1662
g24
I4
ssg25
g24
sbsbsg26
(idecision_tree
continuous_decision_tree
p1663
(dp1664
g2
F2.537635
sg3
I39
sg4
(idecision_tree
continuous_decision_tree
p1665
(dp1666
g2
F90.125
sg3
I67
sg4
(idecision_tree
decision_tree_leaf
p1667
(dp1668
g19
g20
(g21
tp1669
Rp1670
g24
I1
ssg25
g24
sbsg26
(idecision_tree
continuous_decision_tree
p1671
(dp1672
g2
F44.0
sg3
I63
sg4
(idecision_tree
decision_tree_leaf
p1673
(dp1674
g19
g20
(g21
tp1675
Rp1676
g24
I1
ssg25
g24
sbsg26
(idecision_tree
continuous_decision_tree
p1677
(dp1678
g2
F0.5
sg3
I62
sg4
(idecision_tree
continuous_decision_tree
p1679
(dp1680
g2
F46.625
sg3
I67
sg4
(idecision_tree
decision_tree_leaf
p1681
(dp1682
g19
g20
(g21
tp1683
Rp1684
g92
I1
ssg25
g92
sbsg26
(idecision_tree
decision_tree_leaf
p1685
(dp1686
g19
g20
(g21
tp1687
Rp1688
g24
I1
ssg25
g24
sbsbsg26
(idecision_tree
decision_tree_leaf
p1689
(dp1690
g19
g20
(g21
tp1691
Rp1692
g24
I1
ssg25
g24
sbsbsbsbsg26
(idecision_tree
continuous_decision_tree
p1693
(dp1694
g2
F0.7695295
sg3
I52
sg4
(idecision_tree
continuous_decision_tree
p1695
(dp1696
g2
F0.515153
sg3
I49
sg4
(idecision_tree
continuous_decision_tree
p1697
(dp1698
g2
F0.994491
sg3
I48
sg4
(idecision_tree
continuous_decision_tree
p1699
(dp1700
g2
F0.836262
sg3
I35
sg4
(idecision_tree
continuous_decision_tree
p1701
(dp1702
g2
F57.5
sg3
I67
sg4
(idecision_tree
decision_tree_leaf
p1703
(dp1704
g19
g20
(g21
tp1705
Rp1706
g92
I1
ssg25
g92
sbsg26
(idecision_tree
decision_tree_leaf
p1707
(dp1708
g19
g20
(g21
tp1709
Rp1710
g24
I1
ssg25
g24
sbsbsg26
(idecision_tree
decision_tree_leaf
p1711
(dp1712
g19
g20
(g21
tp1713
Rp1714
g24
I1
ssg25
g24
sbsbsg26
(idecision_tree
decision_tree_leaf
p1715
(dp1716
g19
g20
(g21
tp1717
Rp1718
g24
I1
ssg25
g24
sbsbsg26
(idecision_tree
decision_tree_leaf
p1719
(dp1720
g19
g20
(g21
tp1721
Rp1722
g24
I1
ssg25
g24
sbsbsg26
(idecision_tree
continuous_decision_tree
p1723
(dp1724
g2
F2.551845
sg3
I48
sg4
(idecision_tree
continuous_decision_tree
p1725
(dp1726
g2
F-52.0
sg3
I63
sg4
(idecision_tree
decision_tree_leaf
p1727
(dp1728
g19
g20
(g21
tp1729
Rp1730
g24
I2
sS'PKP'
p1731
I1
ssg25
g24
sbsg26
(idecision_tree
decision_tree_leaf
p1732
(dp1733
g19
g20
(g21
tp1734
Rp1735
g24
I1
ssg25
g24
sbsbsg26
(idecision_tree
continuous_decision_tree
p1736
(dp1737
g2
F0.5201945
sg3
I49
sg4
(idecision_tree
continuous_decision_tree
p1738
(dp1739
g2
F0.868592
sg3
I34
sg4
(idecision_tree
decision_tree_leaf
p1740
(dp1741
g19
g20
(g21
tp1742
Rp1743
g24
I1
ssg25
g24
sbsg26
(idecision_tree
continuous_decision_tree
p1744
(dp1745
g2
F9.625
sg3
I67
sg4
(idecision_tree
continuous_decision_tree
p1746
(dp1747
g2
F46.875
sg3
I67
sg4
(idecision_tree
decision_tree_leaf
p1748
(dp1749
g19
g20
(g21
tp1750
Rp1751
S'PKP'
p1752
I1
ssg25
g1752
sbsg26
(idecision_tree
decision_tree_leaf
p1753
(dp1754
g19
g20
(g21
tp1755
Rp1756
g24
I1
ssg25
g24
sbsbsg26
(idecision_tree
decision_tree_leaf
p1757
(dp1758
g19
g20
(g21
tp1759
Rp1760
g24
I1
ssg25
g24
sbsbsbsg26
(idecision_tree
decision_tree_leaf
p1761
(dp1762
g19
g20
(g21
tp1763
Rp1764
g24
I1
ssg25
g24
sbsbsbsbsbsbsg26
(idecision_tree
continuous_decision_tree
p1765
(dp1766
g2
F-16.0
sg3
I63
sg4
(idecision_tree
continuous_decision_tree
p1767
(dp1768
g2
F67.625
sg3
I67
sg4
(idecision_tree
continuous_decision_tree
p1769
(dp1770
g2
F76.5
sg3
I67
sg4
(idecision_tree
continuous_decision_tree
p1771
(dp1772
g2
F-0.5
sg3
I66
sg4
(idecision_tree
continuous_decision_tree
p1773
(dp1774
g2
F1.7869055
sg3
I48
sg4
(idecision_tree
continuous_decision_tree
p1775
(dp1776
g2
F78.75
sg3
I67
sg4
(idecision_tree
decision_tree_leaf
p1777
(dp1778
g19
g20
(g21
tp1779
Rp1780
g24
I1
ssg25
g24
sbsg26
(idecision_tree
decision_tree_leaf
p1781
(dp1782
g19
g20
(g21
tp1783
Rp1784
S'PKP'
p1785
I1
ssg25
g1785
sbsbsg26
(idecision_tree
decision_tree_leaf
p1786
(dp1787
g19
g20
(g21
tp1788
Rp1789
g24
I1
ssg25
g24
sbsbsg26
(idecision_tree
decision_tree_leaf
p1790
(dp1791
g19
g20
(g21
tp1792
Rp1793
g24
I1
ssg25
g24
sbsbsg26
(idecision_tree
decision_tree_leaf
p1794
(dp1795
g19
g20
(g21
tp1796
Rp1797
g24
I1
ssg25
g24
sbsbsg26
(idecision_tree
continuous_decision_tree
p1798
(dp1799
g2
F2.306825
sg3
I39
sg4
(idecision_tree
continuous_decision_tree
p1800
(dp1801
g2
F7.0
sg3
I63
sg4
(idecision_tree
continuous_decision_tree
p1802
(dp1803
g2
F0.3710905
sg3
I52
sg4
(idecision_tree
continuous_decision_tree
p1804
(dp1805
g2
F1.0855700000000001
sg3
I48
sg4
(idecision_tree
continuous_decision_tree
p1806
(dp1807
g2
F0.866393
sg3
I35
sg4
(idecision_tree
continuous_decision_tree
p1808
(dp1809
g2
F6.666665
sg3
I67
sg4
(idecision_tree
continuous_decision_tree
p1810
(dp1811
g2
F32.3125
sg3
I67
sg4
(idecision_tree
decision_tree_leaf
p1812
(dp1813
g19
g20
(g21
tp1814
Rp1815
S'Sn'
p1816
I1
ssg25
g1816
sbsg26
(idecision_tree
decision_tree_leaf
p1817
(dp1818
g19
g20
(g21
tp1819
Rp1820
g24
I1
ssg25
g24
sbsbsg26
(idecision_tree
decision_tree_leaf
p1821
(dp1822
g19
g20
(g21
tp1823
Rp1824
g24
I1
ssg25
g24
sbsbsg26
(idecision_tree
decision_tree_leaf
p1825
(dp1826
g19
g20
(g21
tp1827
Rp1828
g24
I1
ssg25
g24
sbsbsg26
(idecision_tree
decision_tree_leaf
p1829
(dp1830
g19
g20
(g21
tp1831
Rp1832
g24
I1
ssg25
g24
sbsbsg26
(idecision_tree
continuous_decision_tree
p1833
(dp1834
g2
F1.0
sg3
I66
sg4
(idecision_tree
decision_tree_leaf
p1835
(dp1836
g19
g20
(g21
tp1837
Rp1838
g24
I2
sS'PKP'
p1839
I1
ssg25
g24
sbsg26
(idecision_tree
decision_tree_leaf
p1840
(dp1841
g19
g20
(g21
tp1842
Rp1843
g24
I2
ssg25
g24
sbsbsbsg26
(idecision_tree
continuous_decision_tree
p1844
(dp1845
g2
F-0.5
sg3
I66
sg4
(idecision_tree
continuous_decision_tree
p1846
(dp1847
g2
F29.125
sg3
I67
sg4
(idecision_tree
continuous_decision_tree
p1848
(dp1849
g2
F57.25
sg3
I67
sg4
(idecision_tree
decision_tree_leaf
p1850
(dp1851
g19
g20
(g21
tp1852
Rp1853
S'Sn'
p1854
I1
ssg25
g1854
sbsg26
(idecision_tree
decision_tree_leaf
p1855
(dp1856
g19
g20
(g21
tp1857
Rp1858
g24
I1
ssg25
g24
sbsbsg26
(idecision_tree
decision_tree_leaf
p1859
(dp1860
g19
g20
(g21
tp1861
Rp1862
g24
I1
ssg25
g24
sbsbsg26
(idecision_tree
decision_tree_leaf
p1863
(dp1864
g19
g20
(g21
tp1865
Rp1866
g24
I1
ssg25
g24
sbsbsbsg26
(idecision_tree
decision_tree_leaf
p1867
(dp1868
g19
g20
(g21
tp1869
Rp1870
g24
I4
sS'PKP'
p1871
I1
ssg25
g24
sbsbsbsg26
(idecision_tree
continuous_decision_tree
p1872
(dp1873
g2
F21.125
sg3
I67
sg4
(idecision_tree
continuous_decision_tree
p1874
(dp1875
g2
F2.0
sg3
I66
sg4
(idecision_tree
decision_tree_leaf
p1876
(dp1877
g19
g20
(g21
tp1878
Rp1879
g24
I1
ssg25
g24
sbsg26
(idecision_tree
continuous_decision_tree
p1880
(dp1881
g2
F-67.5
sg3
I63
sg4
(idecision_tree
continuous_decision_tree
p1882
(dp1883
g2
F58.625
sg3
I67
sg4
(idecision_tree
decision_tree_leaf
p1884
(dp1885
g19
g20
(g21
tp1886
Rp1887
g24
I1
ssg25
g24
sbsg26
(idecision_tree
decision_tree_leaf
p1888
(dp1889
g19
g20
(g21
tp1890
Rp1891
S'PKP'
p1892
I1
ssg25
g1892
sbsbsg26
(idecision_tree
decision_tree_leaf
p1893
(dp1894
g19
g20
(g21
tp1895
Rp1896
g24
I1
ssg25
g24
sbsbsbsg26
(idecision_tree
decision_tree_leaf
p1897
(dp1898
g19
g20
(g21
tp1899
Rp1900
g24
I1
ssg25
g24
sbsbsbsbsg26
(idecision_tree
continuous_decision_tree
p1901
(dp1902
g2
F1.0
sg3
I62
sg4
(idecision_tree
continuous_decision_tree
p1903
(dp1904
g2
F0.5665515000000001
sg3
I51
sg4
(idecision_tree
continuous_decision_tree
p1905
(dp1906
g2
F4.416665
sg3
I63
sg4
(idecision_tree
decision_tree_leaf
p1907
(dp1908
g19
g20
(g21
tp1909
Rp1910
g24
I6
sS'Pn'
p1911
I1
ssg25
g24
sbsg26
(idecision_tree
decision_tree_leaf
p1912
(dp1913
g19
g20
(g21
tp1914
Rp1915
g24
I1
ssg25
g24
sbsbsg26
(idecision_tree
continuous_decision_tree
p1916
(dp1917
g2
F63.90625
sg3
I67
sg4
(idecision_tree
decision_tree_leaf
p1918
(dp1919
g19
g20
(g21
tp1920
Rp1921
g24
I1
ssg25
g24
sbsg26
(idecision_tree
continuous_decision_tree
p1922
(dp1923
g2
F86.3178
sg3
I40
sg4
(idecision_tree
decision_tree_leaf
p1924
(dp1925
g19
g20
(g21
tp1926
Rp1927
g24
I1
ssg25
g24
sbsg26
(idecision_tree
continuous_decision_tree
p1928
(dp1929
g2
F0.204754
sg3
I52
sg4
(idecision_tree
decision_tree_leaf
p1930
(dp1931
g19
g20
(g21
tp1932
Rp1933
g24
I6
sS'PKP'
p1934
I1
ssg25
g24
sbsg26
(idecision_tree
decision_tree_leaf
p1935
(dp1936
g19
g20
(g21
tp1937
Rp1938
g24
I1
ssg25
g24
sbsbsbsbsbsg26
(idecision_tree
continuous_decision_tree
p1939
(dp1940
g2
F0.0
sg3
I62
sg4
(idecision_tree
continuous_decision_tree
p1941
(dp1942
g2
F4.5
sg3
I67
sg4
(idecision_tree
continuous_decision_tree
p1943
(dp1944
g2
F0.5
sg3
I66
sg4
(idecision_tree
decision_tree_leaf
p1945
(dp1946
g19
g20
(g21
tp1947
Rp1948
g24
I1
ssg25
g24
sbsg26
(idecision_tree
continuous_decision_tree
p1949
(dp1950
g2
F0.25
sg3
I63
sg4
(idecision_tree
continuous_decision_tree
p1951
(dp1952
g2
F5.296875
sg3
I67
sg4
(idecision_tree
decision_tree_leaf
p1953
(dp1954
g19
g20
(g21
tp1955
Rp1956
g24
I1
ssg25
g24
sbsg26
(idecision_tree
decision_tree_leaf
p1957
(dp1958
g19
g20
(g21
tp1959
Rp1960
S'PKP'
p1961
I1
ssg25
g1961
sbsbsg26
(idecision_tree
decision_tree_leaf
p1962
(dp1963
g19
g20
(g21
tp1964
Rp1965
g24
I1
ssg25
g24
sbsbsbsg26
(idecision_tree
decision_tree_leaf
p1966
(dp1967
g19
g20
(g21
tp1968
Rp1969
g24
I1
ssg25
g24
sbsbsg26
(idecision_tree
continuous_decision_tree
p1970
(dp1971
g2
F54.8125
sg3
I67
sg4
(idecision_tree
continuous_decision_tree
p1972
(dp1973
g2
F83.8333
sg3
I67
sg4
(idecision_tree
continuous_decision_tree
p1974
(dp1975
g2
F92.3333
sg3
I67
sg4
(idecision_tree
decision_tree_leaf
p1976
(dp1977
g19
g20
(g21
tp1978
Rp1979
g24
I1
ssg25
g24
sbsg26
(idecision_tree
decision_tree_leaf
p1980
(dp1981
g19
g20
(g21
tp1982
Rp1983
S'PKP'
p1984
I1
ssg25
g1984
sbsbsg26
(idecision_tree
continuous_decision_tree
p1985
(dp1986
g2
F69.47915
sg3
I67
sg4
(idecision_tree
decision_tree_leaf
p1987
(dp1988
g19
g20
(g21
tp1989
Rp1990
g24
I1
ssg25
g24
sbsg26
(idecision_tree
decision_tree_leaf
p1991
(dp1992
g19
g20
(g21
tp1993
Rp1994
S'Pn'
p1995
I1
ssg25
g1995
sbsbsbsg26
(idecision_tree
continuous_decision_tree
p1996
(dp1997
g2
F46.083349999999996
sg3
I67
sg4
(idecision_tree
decision_tree_leaf
p1998
(dp1999
g19
g20
(g21
tp2000
Rp2001
g24
I1
ssg25
g24
sbsg26
(idecision_tree
decision_tree_leaf
p2002
(dp2003
g19
g20
(g21
tp2004
Rp2005
S'Pn'
p2006
I1
ssg25
g2006
sbsbsbsbsbsbsbsg26
(idecision_tree
continuous_decision_tree
p2007
(dp2008
g2
F0.935323
sg3
I34
sg4
(idecision_tree
continuous_decision_tree
p2009
(dp2010
g2
F0.9411065000000001
sg3
I35
sg4
(idecision_tree
continuous_decision_tree
p2011
(dp2012
g2
F13.5
sg3
I63
sg4
(idecision_tree
continuous_decision_tree
p2013
(dp2014
g2
F1.66109
sg3
I48
sg4
(idecision_tree
continuous_decision_tree
p2015
(dp2016
g2
F89.0
sg3
I67
sg4
(idecision_tree
decision_tree_leaf
p2017
(dp2018
g19
g20
(g21
tp2019
Rp2020
g24
I1
ssg25
g24
sbsg26
(idecision_tree
continuous_decision_tree
p2021
(dp2022
g2
F54.916650000000004
sg3
I63
sg4
(idecision_tree
decision_tree_leaf
p2023
(dp2024
g19
g20
(g21
tp2025
Rp2026
g24
I1
ssg25
g24
sbsg26
(idecision_tree
continuous_decision_tree
p2027
(dp2028
g2
F77.40135000000001
sg3
I40
sg4
(idecision_tree
continuous_decision_tree
p2029
(dp2030
g2
F51.0
sg3
I67
sg4
(idecision_tree
decision_tree_leaf
p2031
(dp2032
g19
g20
(g21
tp2033
Rp2034
S'Pn'
p2035
I1
ssg25
g2035
sbsg26
(idecision_tree
decision_tree_leaf
p2036
(dp2037
g19
g20
(g21
tp2038
Rp2039
g24
I1
ssg25
g24
sbsbsg26
(idecision_tree
decision_tree_leaf
p2040
(dp2041
g19
g20
(g21
tp2042
Rp2043
g24
I1
ssg25
g24
sbsbsbsbsg26
(idecision_tree
continuous_decision_tree
p2044
(dp2045
g2
F32.458349999999996
sg3
I63
sg4
(idecision_tree
continuous_decision_tree
p2046
(dp2047
g2
F1.0471335
sg3
I52
sg4
(idecision_tree
decision_tree_leaf
p2048
(dp2049
g19
g20
(g21
tp2050
Rp2051
g24
I1
ssg25
g24
sbsg26
(idecision_tree
continuous_decision_tree
p2052
(dp2053
g2
F46.458349999999996
sg3
I59
sg4
(idecision_tree
decision_tree_leaf
p2054
(dp2055
g19
g20
(g21
tp2056
Rp2057
g24
I1
ssg25
g24
sbsg26
(idecision_tree
continuous_decision_tree
p2058
(dp2059
g2
F67.5507
sg3
I40
sg4
(idecision_tree
continuous_decision_tree
p2060
(dp2061
g2
F94.375
sg3
I67
sg4
(idecision_tree
decision_tree_leaf
p2062
(dp2063
g19
g20
(g21
tp2064
Rp2065
S'PKP'
p2066
I1
ssg25
g2066
sbsg26
(idecision_tree
decision_tree_leaf
p2067
(dp2068
g19
g20
(g21
tp2069
Rp2070
g24
I1
ssg25
g24
sbsbsg26
(idecision_tree
decision_tree_leaf
p2071
(dp2072
g19
g20
(g21
tp2073
Rp2074
g24
I1
ssg25
g24
sbsbsbsbsg26
(idecision_tree
decision_tree_leaf
p2075
(dp2076
g19
g20
(g21
tp2077
Rp2078
g24
I4
sS'PKP'
p2079
I1
ssg25
g24
sbsbsbsg26
(idecision_tree
continuous_decision_tree
p2080
(dp2081
g2
F1.0
sg3
I62
sg4
(idecision_tree
continuous_decision_tree
p2082
(dp2083
g2
F0.3144945
sg3
I51
sg4
(idecision_tree
continuous_decision_tree
p2084
(dp2085
g2
F0.666667
sg3
I8
sg4
(idecision_tree
continuous_decision_tree
p2086
(dp2087
g2
F7.083335
sg3
I67
sg4
(idecision_tree
continuous_decision_tree
p2088
(dp2089
g2
F0.35919900000000005
sg3
I51
sg4
(idecision_tree
continuous_decision_tree
p2090
(dp2091
g2
F0.9978864999999999
sg3
I49
sg4
(idecision_tree
decision_tree_leaf
p2092
(dp2093
g19
g20
(g21
tp2094
Rp2095
g24
I1
ssg25
g24
sbsg26
(idecision_tree
continuous_decision_tree
p2096
(dp2097
g2
F2.0
sg3
I66
sg4
(idecision_tree
decision_tree_leaf
p2098
(dp2099
g19
g20
(g21
tp2100
Rp2101
g24
I1
ssg25
g24
sbsg26
(idecision_tree
continuous_decision_tree
p2102
(dp2103
g2
F0.9769760000000001
sg3
I35
sg4
(idecision_tree
continuous_decision_tree
p2104
(dp2105
g2
F10.125
sg3
I67
sg4
(idecision_tree
decision_tree_leaf
p2106
(dp2107
g19
g20
(g21
tp2108
Rp2109
g24
I1
ssg25
g24
sbsg26
(idecision_tree
decision_tree_leaf
p2110
(dp2111
g19
g20
(g21
tp2112
Rp2113
S'PKP'
p2114
I1
ssg25
g2114
sbsbsg26
(idecision_tree
decision_tree_leaf
p2115
(dp2116
g19
g20
(g21
tp2117
Rp2118
g24
I1
ssg25
g24
sbsbsbsbsg26
(idecision_tree
decision_tree_leaf
p2119
(dp2120
g19
g20
(g21
tp2121
Rp2122
g24
I1
ssg25
g24
sbsbsg26
(idecision_tree
decision_tree_leaf
p2123
(dp2124
g19
g20
(g21
tp2125
Rp2126
g24
I1
ssg25
g24
sbsbsg26
(idecision_tree
decision_tree_leaf
p2127
(dp2128
g19
g20
(g21
tp2129
Rp2130
S'Pn'
p2131
I1
ssg25
g2131
sbsbsg26
(idecision_tree
decision_tree_leaf
p2132
(dp2133
g19
g20
(g21
tp2134
Rp2135
g24
I3
sS'Pn'
p2136
I1
ssg25
g24
sbsbsg26
(idecision_tree
continuous_decision_tree
p2137
(dp2138
g2
F0.5
sg3
I66
sg4
(idecision_tree
decision_tree_leaf
p2139
(dp2140
g19
g20
(g21
tp2141
Rp2142
g24
I1
ssg25
g24
sbsg26
(idecision_tree
continuous_decision_tree
p2143
(dp2144
g2
F0.12660725
sg3
I51
sg4
(idecision_tree
decision_tree_leaf
p2145
(dp2146
g19
g20
(g21
tp2147
Rp2148
g24
I3
sS'PKP'
p2149
I1
ssg25
g24
sbsg26
(idecision_tree
decision_tree_leaf
p2150
(dp2151
g19
g20
(g21
tp2152
Rp2153
g24
I1
ssg25
g24
sbsbsbsbsbsg26
(idecision_tree
continuous_decision_tree
p2154
(dp2155
g2
F3.0
sg3
I66
sg4
(idecision_tree
continuous_decision_tree
p2156
(dp2157
g2
F0.48493549999999996
sg3
I52
sg4
(idecision_tree
continuous_decision_tree
p2158
(dp2159
g2
F2.5
sg3
I62
sg4
(idecision_tree
continuous_decision_tree
p2160
(dp2161
g2
F15.125
sg3
I67
sg4
(idecision_tree
decision_tree_leaf
p2162
(dp2163
g19
g20
(g21
tp2164
Rp2165
g24
I1
ssg25
g24
sbsg26
(idecision_tree
decision_tree_leaf
p2166
(dp2167
g19
g20
(g21
tp2168
Rp2169
S'PKP'
p2170
I1
ssg25
g2170
sbsbsg26
(idecision_tree
decision_tree_leaf
p2171
(dp2172
g19
g20
(g21
tp2173
Rp2174
g24
I1
ssg25
g24
sbsbsg26
(idecision_tree
continuous_decision_tree
p2175
(dp2176
g2
F0.835828
sg3
I48
sg4
(idecision_tree
continuous_decision_tree
p2177
(dp2178
g2
F54.566649999999996
sg3
I67
sg4
(idecision_tree
decision_tree_leaf
p2179
(dp2180
g19
g20
(g21
tp2181
Rp2182
S'Pn'
p2183
I1
ssg25
g2183
sbsg26
(idecision_tree
decision_tree_leaf
p2184
(dp2185
g19
g20
(g21
tp2186
Rp2187
g24
I1
ssg25
g24
sbsbsg26
(idecision_tree
decision_tree_leaf
p2188
(dp2189
g19
g20
(g21
tp2190
Rp2191
g24
I1
ssg25
g24
sbsbsbsg26
(idecision_tree
continuous_decision_tree
p2192
(dp2193
g2
F3.5722949999999996
sg3
I49
sg4
(idecision_tree
decision_tree_leaf
p2194
(dp2195
g19
g20
(g21
tp2196
Rp2197
g24
I1
ssg25
g24
sbsg26
(idecision_tree
continuous_decision_tree
p2198
(dp2199
g2
F55.0
sg3
I63
sg4
(idecision_tree
decision_tree_leaf
p2200
(dp2201
g19
g20
(g21
tp2202
Rp2203
g24
I1
ssg25
g24
sbsg26
(idecision_tree
continuous_decision_tree
p2204
(dp2205
g2
F24.0
sg3
I67
sg4
(idecision_tree
decision_tree_leaf
p2206
(dp2207
g19
g20
(g21
tp2208
Rp2209
g24
I1
ssg25
g24
sbsg26
(idecision_tree
continuous_decision_tree
p2210
(dp2211
g2
F0.4065015
sg3
I52
sg4
(idecision_tree
continuous_decision_tree
p2212
(dp2213
g2
F1.692885
sg3
I48
sg4
(idecision_tree
decision_tree_leaf
p2214
(dp2215
g19
g20
(g21
tp2216
Rp2217
g24
I1
ssg25
g24
sbsg26
(idecision_tree
continuous_decision_tree
p2218
(dp2219
g2
F0.40093650000000003
sg3
I38
sg4
(idecision_tree
continuous_decision_tree
p2220
(dp2221
g2
F14.0
sg3
I67
sg4
(idecision_tree
decision_tree_leaf
p2222
(dp2223
g19
g20
(g21
tp2224
Rp2225
S'Pn'
p2226
I1
ssg25
g2226
sbsg26
(idecision_tree
decision_tree_leaf
p2227
(dp2228
g19
g20
(g21
tp2229
Rp2230
g24
I1
ssg25
g24
sbsbsg26
(idecision_tree
decision_tree_leaf
p2231
(dp2232
g19
g20
(g21
tp2233
Rp2234
g24
I1
ssg25
g24
sbsbsbsg26
(idecision_tree
decision_tree_leaf
p2235
(dp2236
g19
g20
(g21
tp2237
Rp2238
g24
I1
ssg25
g24
sbsbsbsbsbsbsbsg26
(idecision_tree
continuous_decision_tree
p2239
(dp2240
g2
F1.33739
sg3
I39
sg4
(idecision_tree
continuous_decision_tree
p2241
(dp2242
g2
F0.444444
sg3
I8
sg4
(idecision_tree
continuous_decision_tree
p2243
(dp2244
g2
F1.592695
sg3
I39
sg4
(idecision_tree
continuous_decision_tree
p2245
(dp2246
g2
F0.827494
sg3
I49
sg4
(idecision_tree
continuous_decision_tree
p2247
(dp2248
g2
F40.5
sg3
I67
sg4
(idecision_tree
continuous_decision_tree
p2249
(dp2250
g2
F49.25
sg3
I67
sg4
(idecision_tree
continuous_decision_tree
p2251
(dp2252
g2
F-1.0
sg3
I66
sg4
(idecision_tree
continuous_decision_tree
p2253
(dp2254
g2
F59.80555
sg3
I67
sg4
(idecision_tree
decision_tree_leaf
p2255
(dp2256
g19
g20
(g21
tp2257
Rp2258
g24
I1
ssg25
g24
sbsg26
(idecision_tree
decision_tree_leaf
p2259
(dp2260
g19
g20
(g21
tp2261
Rp2262
S'Sn'
p2263
I1
ssg25
g2263
sbsbsg26
(idecision_tree
decision_tree_leaf
p2264
(dp2265
g19
g20
(g21
tp2266
Rp2267
g24
I1
ssg25
g24
sbsbsg26
(idecision_tree
decision_tree_leaf
p2268
(dp2269
g19
g20
(g21
tp2270
Rp2271
g24
I1
ssg25
g24
sbsbsg26
(idecision_tree
decision_tree_leaf
p2272
(dp2273
g19
g20
(g21
tp2274
Rp2275
g24
I4
sg92
I1
ssg25
g24
sbsbsg26
(idecision_tree
continuous_decision_tree
p2276
(dp2277
g2
F20.525
sg3
I59
sg4
(idecision_tree
continuous_decision_tree
p2278
(dp2279
g2
F6.5
sg3
I66
sg4
(idecision_tree
decision_tree_leaf
p2280
(dp2281
g19
g20
(g21
tp2282
Rp2283
g24
I1
ssg25
g24
sbsg26
(idecision_tree
continuous_decision_tree
p2284
(dp2285
g2
F0.718815
sg3
I51
sg4
(idecision_tree
continuous_decision_tree
p2286
(dp2287
g2
F40.2906
sg3
I67
sg4
(idecision_tree
decision_tree_leaf
p2288
(dp2289
g19
g20
(g21
tp2290
Rp2291
g24
I1
ssg25
g24
sbsg26
(idecision_tree
decision_tree_leaf
p2292
(dp2293
g19
g20
(g21
tp2294
Rp2295
g92
I1
ssg25
g92
sbsbsg26
(idecision_tree
decision_tree_leaf
p2296
(dp2297
g19
g20
(g21
tp2298
Rp2299
g24
I1
ssg25
g24
sbsbsbsg26
(idecision_tree
continuous_decision_tree
p2300
(dp2301
g2
F0.8628905
sg3
I52
sg4
(idecision_tree
continuous_decision_tree
p2302
(dp2303
g2
F0.2264375
sg3
I49
sg4
(idecision_tree
continuous_decision_tree
p2304
(dp2305
g2
F0.8298065
sg3
I35
sg4
(idecision_tree
continuous_decision_tree
p2306
(dp2307
g2
F45.1875
sg3
I67
sg4
(idecision_tree
decision_tree_leaf
p2308
(dp2309
g19
g20
(g21
tp2310
Rp2311
S'Sn'
p2312
I1
ssg25
g2312
sbsg26
(idecision_tree
decision_tree_leaf
p2313
(dp2314
g19
g20
(g21
tp2315
Rp2316
g24
I1
ssg25
g24
sbsbsg26
(idecision_tree
decision_tree_leaf
p2317
(dp2318
g19
g20
(g21
tp2319
Rp2320
g24
I1
ssg25
g24
sbsbsg26
(idecision_tree
decision_tree_leaf
p2321
(dp2322
g19
g20
(g21
tp2323
Rp2324
g24
I1
ssg25
g24
sbsbsg26
(idecision_tree
continuous_decision_tree
p2325
(dp2326
g2
F0.536471
sg3
I50
sg4
(idecision_tree
decision_tree_leaf
p2327
(dp2328
g19
g20
(g21
tp2329
Rp2330
g24
I1
ssg25
g24
sbsg26
(idecision_tree
continuous_decision_tree
p2331
(dp2332
g2
F66.7175
sg3
I40
sg4
(idecision_tree
continuous_decision_tree
p2333
(dp2334
g2
F37.55
sg3
I67
sg4
(idecision_tree
continuous_decision_tree
p2335
(dp2336
g2
F65.88335000000001
sg3
I67
sg4
(idecision_tree
decision_tree_leaf
p2337
(dp2338
g19
g20
(g21
tp2339
Rp2340
S'Sn'
p2341
I1
ssg25
g2341
sbsg26
(idecision_tree
decision_tree_leaf
p2342
(dp2343
g19
g20
(g21
tp2344
Rp2345
g24
I1
ssg25
g24
sbsbsg26
(idecision_tree
decision_tree_leaf
p2346
(dp2347
g19
g20
(g21
tp2348
Rp2349
g24
I1
ssg25
g24
sbsbsg26
(idecision_tree
decision_tree_leaf
p2350
(dp2351
g19
g20
(g21
tp2352
Rp2353
g24
I1
ssg25
g24
sbsbsbsbsbsbsg26
(idecision_tree
continuous_decision_tree
p2354
(dp2355
g2
F0.3145475
sg3
I38
sg4
(idecision_tree
continuous_decision_tree
p2356
(dp2357
g2
F30.0
sg3
I67
sg4
(idecision_tree
continuous_decision_tree
p2358
(dp2359
g2
F41.583349999999996
sg3
I67
sg4
(idecision_tree
continuous_decision_tree
p2360
(dp2361
g2
F0.371872
sg3
I49
sg4
(idecision_tree
continuous_decision_tree
p2362
(dp2363
g2
F64.58335
sg3
I67
sg4
(idecision_tree
decision_tree_leaf
p2364
(dp2365
g19
g20
(g21
tp2366
Rp2367
g24
I1
ssg25
g24
sbsg26
(idecision_tree
decision_tree_leaf
p2368
(dp2369
g19
g20
(g21
tp2370
Rp2371
S'Sn'
p2372
I1
ssg25
g2372
sbsbsg26
(idecision_tree
decision_tree_leaf
p2373
(dp2374
g19
g20
(g21
tp2375
Rp2376
g24
I1
ssg25
g24
sbsbsg26
(idecision_tree
decision_tree_leaf
p2377
(dp2378
g19
g20
(g21
tp2379
Rp2380
g24
I1
ssg25
g24
sbsbsg26
(idecision_tree
continuous_decision_tree
p2381
(dp2382
g2
F0.9110775
sg3
I52
sg4
(idecision_tree
decision_tree_leaf
p2383
(dp2384
g19
g20
(g21
tp2385
Rp2386
g24
I3
sS'PKP'
p2387
I1
ssg25
g24
sbsg26
(idecision_tree
continuous_decision_tree
p2388
(dp2389
g2
F0.6945275
sg3
I50
sg4
(idecision_tree
decision_tree_leaf
p2390
(dp2391
g19
g20
(g21
tp2392
Rp2393
g24
I1
ssg25
g24
sbsg26
(idecision_tree
continuous_decision_tree
p2394
(dp2395
g2
F2.9481349999999997
sg3
I49
sg4
(idecision_tree
decision_tree_leaf
p2396
(dp2397
g19
g20
(g21
tp2398
Rp2399
g24
I1
ssg25
g24
sbsg26
(idecision_tree
continuous_decision_tree
p2400
(dp2401
g2
F1.465225
sg3
I39
sg4
(idecision_tree
continuous_decision_tree
p2402
(dp2403
g2
F9.84375
sg3
I67
sg4
(idecision_tree
decision_tree_leaf
p2404
(dp2405
g19
g20
(g21
tp2406
Rp2407
g24
I1
ssg25
g24
sbsg26
(idecision_tree
decision_tree_leaf
p2408
(dp2409
g19
g20
(g21
tp2410
Rp2411
S'Pn'
p2412
I1
ssg25
g2412
sbsbsg26
(idecision_tree
decision_tree_leaf
p2413
(dp2414
g19
g20
(g21
tp2415
Rp2416
g24
I1
ssg25
g24
sbsbsbsbsbsbsg26
(idecision_tree
continuous_decision_tree
p2417
(dp2418
g2
F1.0
sg3
I66
sg4
(idecision_tree
decision_tree_leaf
p2419
(dp2420
g19
g20
(g21
tp2421
Rp2422
g24
I6
sS'PKP'
p2423
I1
ssg25
g24
sbsg26
(idecision_tree
continuous_decision_tree
p2424
(dp2425
g2
F41.5
sg3
I67
sg4
(idecision_tree
decision_tree_leaf
p2426
(dp2427
g19
g20
(g21
tp2428
Rp2429
S'PKP'
p2430
I1
ssg25
g2430
sbsg26
(idecision_tree
decision_tree_leaf
p2431
(dp2432
g19
g20
(g21
tp2433
Rp2434
g24
I1
ssg25
g24
sbsbsbsbsbsg26
(idecision_tree
decision_tree_leaf
p2435
(dp2436
g19
g20
(g21
tp2437
Rp2438
g24
I3
ssg25
g24
sbsbsg26
(idecision_tree
continuous_decision_tree
p2439
(dp2440
g2
F0.61964
sg3
I50
sg4
(idecision_tree
continuous_decision_tree
p2441
(dp2442
g2
F0.6851445
sg3
I51
sg4
(idecision_tree
decision_tree_leaf
p2443
(dp2444
g19
g20
(g21
tp2445
Rp2446
g24
I1
ssg25
g24
sbsg26
(idecision_tree
continuous_decision_tree
p2447
(dp2448
g2
F1.5
sg3
I66
sg4
(idecision_tree
decision_tree_leaf
p2449
(dp2450
g19
g20
(g21
tp2451
Rp2452
g24
I1
ssg25
g24
sbsg26
(idecision_tree
continuous_decision_tree
p2453
(dp2454
g2
F2.022525
sg3
I48
sg4
(idecision_tree
continuous_decision_tree
p2455
(dp2456
g2
F18.5
sg3
I67
sg4
(idecision_tree
decision_tree_leaf
p2457
(dp2458
g19
g20
(g21
tp2459
Rp2460
S'Lg'
p2461
I1
ssg25
g2461
sbsg26
(idecision_tree
decision_tree_leaf
p2462
(dp2463
g19
g20
(g21
tp2464
Rp2465
g24
I1
ssg25
g24
sbsbsg26
(idecision_tree
decision_tree_leaf
p2466
(dp2467
g19
g20
(g21
tp2468
Rp2469
g24
I1
ssg25
g24
sbsbsbsbsg26
(idecision_tree
continuous_decision_tree
p2470
(dp2471
g2
F12.0
sg3
I67
sg4
(idecision_tree
continuous_decision_tree
p2472
(dp2473
g2
F22.5
sg3
I67
sg4
(idecision_tree
continuous_decision_tree
p2474
(dp2475
g2
F54.0
sg3
I67
sg4
(idecision_tree
continuous_decision_tree
p2476
(dp2477
g2
F0.286026
sg3
I49
sg4
(idecision_tree
continuous_decision_tree
p2478
(dp2479
g2
F84.3
sg3
I67
sg4
(idecision_tree
decision_tree_leaf
p2480
(dp2481
g19
g20
(g21
tp2482
Rp2483
g24
I1
ssg25
g24
sbsg26
(idecision_tree
decision_tree_leaf
p2484
(dp2485
g19
g20
(g21
tp2486
Rp2487
S'PKP'
p2488
I1
ssg25
g2488
sbsbsg26
(idecision_tree
decision_tree_leaf
p2489
(dp2490
g19
g20
(g21
tp2491
Rp2492
g24
I1
ssg25
g24
sbsbsg26
(idecision_tree
decision_tree_leaf
p2493
(dp2494
g19
g20
(g21
tp2495
Rp2496
g24
I1
ssg25
g24
sbsbsg26
(idecision_tree
continuous_decision_tree
p2497
(dp2498
g2
F2.5
sg3
I66
sg4
(idecision_tree
decision_tree_leaf
p2499
(dp2500
g19
g20
(g21
tp2501
Rp2502
g24
I1
ssg25
g24
sbsg26
(idecision_tree
continuous_decision_tree
p2503
(dp2504
g2
F0.17754150000000002
sg3
I51
sg4
(idecision_tree
continuous_decision_tree
p2505
(dp2506
g2
F1.1674099999999998
sg3
I39
sg4
(idecision_tree
continuous_decision_tree
p2507
(dp2508
g2
F18.75
sg3
I67
sg4
(idecision_tree
decision_tree_leaf
p2509
(dp2510
g19
g20
(g21
tp2511
Rp2512
S'PKP'
p2513
I1
ssg25
g2513
sbsg26
(idecision_tree
decision_tree_leaf
p2514
(dp2515
g19
g20
(g21
tp2516
Rp2517
g24
I1
ssg25
g24
sbsbsg26
(idecision_tree
decision_tree_leaf
p2518
(dp2519
g19
g20
(g21
tp2520
Rp2521
g24
I1
ssg25
g24
sbsbsg26
(idecision_tree
decision_tree_leaf
p2522
(dp2523
g19
g20
(g21
tp2524
Rp2525
g24
I1
ssg25
g24
sbsbsbsbsg26
(idecision_tree
continuous_decision_tree
p2526
(dp2527
g2
F1.0762909999999999
sg3
I51
sg4
(idecision_tree
decision_tree_leaf
p2528
(dp2529
g19
g20
(g21
tp2530
Rp2531
g24
I1
ssg25
g24
sbsg26
(idecision_tree
continuous_decision_tree
p2532
(dp2533
g2
F0.2030435
sg3
I50
sg4
(idecision_tree
continuous_decision_tree
p2534
(dp2535
g2
F1.2979850000000002
sg3
I48
sg4
(idecision_tree
continuous_decision_tree
p2536
(dp2537
g2
F9.75
sg3
I67
sg4
(idecision_tree
decision_tree_leaf
p2538
(dp2539
g19
g20
(g21
tp2540
Rp2541
S'Pn'
p2542
I1
ssg25
g2542
sbsg26
(idecision_tree
decision_tree_leaf
p2543
(dp2544
g19
g20
(g21
tp2545
Rp2546
g24
I1
ssg25
g24
sbsbsg26
(idecision_tree
decision_tree_leaf
p2547
(dp2548
g19
g20
(g21
tp2549
Rp2550
g24
I1
ssg25
g24
sbsbsg26
(idecision_tree
decision_tree_leaf
p2551
(dp2552
g19
g20
(g21
tp2553
Rp2554
g24
I1
ssg25
g24
sbsbsbsbsbsbsbsbsbsbsg26
(idecision_tree
continuous_decision_tree
p2555
(dp2556
g2
F-5.0
sg3
I63
sg4
(idecision_tree
continuous_decision_tree
p2557
(dp2558
g2
F0.0
sg3
I67
sg4
(idecision_tree
continuous_decision_tree
p2559
(dp2560
g2
F0.8968415000000001
sg3
I34
sg4
(idecision_tree
continuous_decision_tree
p2561
(dp2562
g2
F0.2887105
sg3
I38
sg4
(idecision_tree
continuous_decision_tree
p2563
(dp2564
g2
F0.783566
sg3
I49
sg4
(idecision_tree
decision_tree_leaf
p2565
(dp2566
g19
g20
(g21
tp2567
Rp2568
g24
I22
sS'PKP'
p2569
I1
sS'Pn'
p2570
I3
sg92
I1
ssg25
g24
sbsg26
(idecision_tree
continuous_decision_tree
p2571
(dp2572
g2
F0.0
sg3
I66
sg4
(idecision_tree
continuous_decision_tree
p2573
(dp2574
g2
F0.666667
sg3
I8
sg4
(idecision_tree
decision_tree_leaf
p2575
(dp2576
g19
g20
(g21
tp2577
Rp2578
g24
I23
sS'PKP'
p2579
I1
sS'Pn'
p2580
I3
ssg25
g24
sbsg26
(idecision_tree
decision_tree_leaf
p2581
(dp2582
g19
g20
(g21
tp2583
Rp2584
g24
I7
sS'Pn'
p2585
I3
ssg25
g24
sbsbsg26
(idecision_tree
decision_tree_leaf
p2586
(dp2587
g19
g20
(g21
tp2588
Rp2589
g24
I1
ssg25
g24
sbsbsbsg26
(idecision_tree
continuous_decision_tree
p2590
(dp2591
g2
F0.955905
sg3
I35
sg4
(idecision_tree
decision_tree_leaf
p2592
(dp2593
g19
g20
(g21
tp2594
Rp2595
g24
I31
sS'PKP'
p2596
I7
ssg25
g24
sbsg26
(idecision_tree
continuous_decision_tree
p2597
(dp2598
g2
F0.478089
sg3
I49
sg4
(idecision_tree
decision_tree_leaf
p2599
(dp2600
g19
g20
(g21
tp2601
Rp2602
g24
I31
sS'PKP'
p2603
I6
sS'Pn'
p2604
I1
ssg25
g24
sbsg26
(idecision_tree
decision_tree_leaf
p2605
(dp2606
g19
g20
(g21
tp2607
Rp2608
g24
I22
sS'PKP'
p2609
I5
ssg25
g24
sbsbsbsbsg26
(idecision_tree
decision_tree_leaf
p2610
(dp2611
g19
g20
(g21
tp2612
Rp2613
g24
I84
sS'PKP'
p2614
I9
sS'Pn'
p2615
I4
sg92
I5
sS'Sn'
p2616
I1
ssg25
g24
sbsbsg26
(idecision_tree
continuous_decision_tree
p2617
(dp2618
g2
F-130.08350000000002
sg3
I67
sg4
(idecision_tree
continuous_decision_tree
p2619
(dp2620
g2
F1.0
sg3
I58
sg4
(idecision_tree
continuous_decision_tree
p2621
(dp2622
g2
F-59.010400000000004
sg3
I67
sg4
(idecision_tree
continuous_decision_tree
p2623
(dp2624
g2
F-31.125
sg3
I67
sg4
(idecision_tree
continuous_decision_tree
p2625
(dp2626
g2
F-2.5
sg3
I67
sg4
(idecision_tree
continuous_decision_tree
p2627
(dp2628
g2
F1.6702249999999998
sg3
I48
sg4
(idecision_tree
decision_tree_leaf
p2629
(dp2630
g19
g20
(g21
tp2631
Rp2632
g24
I1
ssg25
g24
sbsg26
(idecision_tree
continuous_decision_tree
p2633
(dp2634
g2
F0.5555555
sg3
I8
sg4
(idecision_tree
decision_tree_leaf
p2635
(dp2636
g19
g20
(g21
tp2637
Rp2638
g24
I1
sS'Pn'
p2639
I1
ssg25
g24
sbsg26
(idecision_tree
decision_tree_leaf
p2640
(dp2641
g19
g20
(g21
tp2642
Rp2643
g24
I1
ssg25
g24
sbsbsbsg26
(idecision_tree
continuous_decision_tree
p2644
(dp2645
g2
F-9.25
sg3
I67
sg4
(idecision_tree
decision_tree_leaf
p2646
(dp2647
g19
g20
(g21
tp2648
Rp2649
g24
I2
ssg25
g24
sbsg26
(idecision_tree
decision_tree_leaf
p2650
(dp2651
g19
g20
(g21
tp2652
Rp2653
S'Sn'
p2654
I1
ssg25
g2654
sbsbsbsg26
(idecision_tree
continuous_decision_tree
p2655
(dp2656
g2
F0.277382
sg3
I50
sg4
(idecision_tree
decision_tree_leaf
p2657
(dp2658
g19
g20
(g21
tp2659
Rp2660
g24
I1
ssg25
g24
sbsg26
(idecision_tree
continuous_decision_tree
p2661
(dp2662
g2
F2.501655
sg3
I39
sg4
(idecision_tree
continuous_decision_tree
p2663
(dp2664
g2
F-54.0
sg3
I67
sg4
(idecision_tree
decision_tree_leaf
p2665
(dp2666
g19
g20
(g21
tp2667
Rp2668
g24
I1
ssg25
g24
sbsg26
(idecision_tree
decision_tree_leaf
p2669
(dp2670
g19
g20
(g21
tp2671
Rp2672
S'Pn'
p2673
I1
ssg25
g2673
sbsbsg26
(idecision_tree
decision_tree_leaf
p2674
(dp2675
g19
g20
(g21
tp2676
Rp2677
g24
I1
ssg25
g24
sbsbsbsbsg26
(idecision_tree
continuous_decision_tree
p2678
(dp2679
g2
F2.0
sg3
I62
sg4
(idecision_tree
continuous_decision_tree
p2680
(dp2681
g2
F3.0
sg3
I66
sg4
(idecision_tree
continuous_decision_tree
p2682
(dp2683
g2
F3.5
sg3
I66
sg4
(idecision_tree
decision_tree_leaf
p2684
(dp2685
g19
g20
(g21
tp2686
Rp2687
g24
I2
sS'PKP'
p2688
I1
ssg25
g24
sbsg26
(idecision_tree
decision_tree_leaf
p2689
(dp2690
g19
g20
(g21
tp2691
Rp2692
g24
I2
sS'Pn'
p2693
I1
ssg25
g24
sbsbsg26
(idecision_tree
continuous_decision_tree
p2694
(dp2695
g2
F1.0
sg3
I66
sg4
(idecision_tree
decision_tree_leaf
p2696
(dp2697
g19
g20
(g21
tp2698
Rp2699
g24
I7
sS'PKP'
p2700
I1
sS'Pn'
p2701
I1
ssg25
g24
sbsg26
(idecision_tree
decision_tree_leaf
p2702
(dp2703
g19
g20
(g21
tp2704
Rp2705
g24
I1
ssg25
g24
sbsbsbsg26
(idecision_tree
continuous_decision_tree
p2706
(dp2707
g2
F0.0
sg3
I66
sg4
(idecision_tree
decision_tree_leaf
p2708
(dp2709
g19
g20
(g21
tp2710
Rp2711
g24
I6
sS'PKP'
p2712
I1
sS'Pn'
p2713
I2
ssg25
g24
sbsg26
(idecision_tree
decision_tree_leaf
p2714
(dp2715
g19
g20
(g21
tp2716
Rp2717
g24
I1
ssg25
g24
sbsbsbsbsg26
(idecision_tree
continuous_decision_tree
p2718
(dp2719
g2
F-4.0
sg3
I59
sg4
(idecision_tree
continuous_decision_tree
p2720
(dp2721
g2
F0.5
sg3
I66
sg4
(idecision_tree
continuous_decision_tree
p2722
(dp2723
g2
F35.875
sg3
I63
sg4
(idecision_tree
continuous_decision_tree
p2724
(dp2725
g2
F-65.75
sg3
I67
sg4
(idecision_tree
decision_tree_leaf
p2726
(dp2727
g19
g20
(g21
tp2728
Rp2729
g24
I1
ssg25
g24
sbsg26
(idecision_tree
continuous_decision_tree
p2730
(dp2731
g2
F0.344265
sg3
I50
sg4
(idecision_tree
continuous_decision_tree
p2732
(dp2733
g2
F-92.25
sg3
I67
sg4
(idecision_tree
decision_tree_leaf
p2734
(dp2735
g19
g20
(g21
tp2736
Rp2737
S'Pn'
p2738
I1
ssg25
g2738
sbsg26
(idecision_tree
decision_tree_leaf
p2739
(dp2740
g19
g20
(g21
tp2741
Rp2742
g24
I1
ssg25
g24
sbsbsg26
(idecision_tree
decision_tree_leaf
p2743
(dp2744
g19
g20
(g21
tp2745
Rp2746
g24
I1
ssg25
g24
sbsbsbsg26
(idecision_tree
continuous_decision_tree
p2747
(dp2748
g2
F-14.25
sg3
I67
sg4
(idecision_tree
decision_tree_leaf
p2749
(dp2750
g19
g20
(g21
tp2751
Rp2752
g24
I1
ssg25
g24
sbsg26
(idecision_tree
decision_tree_leaf
p2753
(dp2754
g19
g20
(g21
tp2755
Rp2756
g24
I3
sg92
I1
ssg25
g24
sbsbsbsg26
(idecision_tree
continuous_decision_tree
p2757
(dp2758
g2
F0.0
sg3
I63
sg4
(idecision_tree
continuous_decision_tree
p2759
(dp2760
g2
F1.313675
sg3
I48
sg4
(idecision_tree
continuous_decision_tree
p2761
(dp2762
g2
F-1.0
sg3
I66
sg4
(idecision_tree
decision_tree_leaf
p2763
(dp2764
g19
g20
(g21
tp2765
Rp2766
g24
I7
sS'PKP'
p2767
I2
ssg25
g24
sbsg26
(idecision_tree
continuous_decision_tree
p2768
(dp2769
g2
F-80.16665
sg3
I67
sg4
(idecision_tree
decision_tree_leaf
p2770
(dp2771
g19
g20
(g21
tp2772
Rp2773
S'Lg'
p2774
I1
ssg25
g2774
sbsg26
(idecision_tree
decision_tree_leaf
p2775
(dp2776
g19
g20
(g21
tp2777
Rp2778
g24
I1
ssg25
g24
sbsbsbsg26
(idecision_tree
decision_tree_leaf
p2779
(dp2780
g19
g20
(g21
tp2781
Rp2782
g24
I8
sS'PKP'
p2783
I2
sS'Pn'
p2784
I1
ssg25
g24
sbsbsg26
(idecision_tree
continuous_decision_tree
p2785
(dp2786
g2
F0.44833999999999996
sg3
I50
sg4
(idecision_tree
continuous_decision_tree
p2787
(dp2788
g2
F-3.0
sg3
I63
sg4
(idecision_tree
decision_tree_leaf
p2789
(dp2790
g19
g20
(g21
tp2791
Rp2792
g24
I3
sg92
I1
ssg25
g24
sbsg26
(idecision_tree
decision_tree_leaf
p2793
(dp2794
g19
g20
(g21
tp2795
Rp2796
g24
I1
ssg25
g24
sbsbsg26
(idecision_tree
continuous_decision_tree
p2797
(dp2798
g2
F0.346094
sg3
I50
sg4
(idecision_tree
continuous_decision_tree
p2799
(dp2800
g2
F-1.5
sg3
I67
sg4
(idecision_tree
decision_tree_leaf
p2801
(dp2802
g19
g20
(g21
tp2803
Rp2804
g24
I1
ssg25
g24
sbsg26
(idecision_tree
continuous_decision_tree
p2805
(dp2806
g2
F-0.5
sg3
I66
sg4
(idecision_tree
continuous_decision_tree
p2807
(dp2808
g2
F0.3433155
sg3
I49
sg4
(idecision_tree
continuous_decision_tree
p2809
(dp2810
g2
F-3.25
sg3
I67
sg4
(idecision_tree
decision_tree_leaf
p2811
(dp2812
g19
g20
(g21
tp2813
Rp2814
S'PKP'
p2815
I1
ssg25
g2815
sbsg26
(idecision_tree
decision_tree_leaf
p2816
(dp2817
g19
g20
(g21
tp2818
Rp2819
g24
I1
ssg25
g24
sbsbsg26
(idecision_tree
decision_tree_leaf
p2820
(dp2821
g19
g20
(g21
tp2822
Rp2823
g24
I1
ssg25
g24
sbsbsg26
(idecision_tree
decision_tree_leaf
p2824
(dp2825
g19
g20
(g21
tp2826
Rp2827
g24
I1
ssg25
g24
sbsbsbsg26
(idecision_tree
continuous_decision_tree
p2828
(dp2829
g2
F0.213241
sg3
I49
sg4
(idecision_tree
continuous_decision_tree
p2830
(dp2831
g2
F-4.0
sg3
I67
sg4
(idecision_tree
continuous_decision_tree
p2832
(dp2833
g2
F0.54999
sg3
I52
sg4
(idecision_tree
continuous_decision_tree
p2834
(dp2835
g2
F-3.0
sg3
I67
sg4
(idecision_tree
decision_tree_leaf
p2836
(dp2837
g19
g20
(g21
tp2838
Rp2839
g24
I1
ssg25
g24
sbsg26
(idecision_tree
continuous_decision_tree
p2840
(dp2841
g2
F0.1828815
sg3
I50
sg4
(idecision_tree
decision_tree_leaf
p2842
(dp2843
g19
g20
(g21
tp2844
Rp2845
g24
I1
sS'PKP'
p2846
I1
ssg25
g24
sbsg26
(idecision_tree
decision_tree_leaf
p2847
(dp2848
g19
g20
(g21
tp2849
Rp2850
g24
I1
ssg25
g24
sbsbsbsg26
(idecision_tree
continuous_decision_tree
p2851
(dp2852
g2
F2.21297
sg3
I48
sg4
(idecision_tree
continuous_decision_tree
p2853
(dp2854
g2
F0.9535925000000001
sg3
I49
sg4
(idecision_tree
decision_tree_leaf
p2855
(dp2856
g19
g20
(g21
tp2857
Rp2858
g24
I1
ssg25
g24
sbsg26
(idecision_tree
continuous_decision_tree
p2859
(dp2860
g2
F0.926857
sg3
I35
sg4
(idecision_tree
continuous_decision_tree
p2861
(dp2862
g2
F-1.25
sg3
I67
sg4
(idecision_tree
decision_tree_leaf
p2863
(dp2864
g19
g20
(g21
tp2865
Rp2866
S'PKP'
p2867
I1
ssg25
g2867
sbsg26
(idecision_tree
decision_tree_leaf
p2868
(dp2869
g19
g20
(g21
tp2870
Rp2871
g24
I1
ssg25
g24
sbsbsg26
(idecision_tree
decision_tree_leaf
p2872
(dp2873
g19
g20
(g21
tp2874
Rp2875
g24
I1
ssg25
g24
sbsbsbsg26
(idecision_tree
continuous_decision_tree
p2876
(dp2877
g2
F0.4359
sg3
I49
sg4
(idecision_tree
decision_tree_leaf
p2878
(dp2879
g19
g20
(g21
tp2880
Rp2881
g24
I4
sS'Pn'
p2882
I1
ssg25
g24
sbsg26
(idecision_tree
continuous_decision_tree
p2883
(dp2884
g2
F-2.0
sg3
I66
sg4
(idecision_tree
continuous_decision_tree
p2885
(dp2886
g2
F0.1733355
sg3
I51
sg4
(idecision_tree
continuous_decision_tree
p2887
(dp2888
g2
F-3.0
sg3
I67
sg4
(idecision_tree
decision_tree_leaf
p2889
(dp2890
g19
g20
(g21
tp2891
Rp2892
g24
I1
ssg25
g24
sbsg26
(idecision_tree
decision_tree_leaf
p2893
(dp2894
g19
g20
(g21
tp2895
Rp2896
S'PKP'
p2897
I1
ssg25
g2897
sbsbsg26
(idecision_tree
decision_tree_leaf
p2898
(dp2899
g19
g20
(g21
tp2900
Rp2901
g24
I1
ssg25
g24
sbsbsg26
(idecision_tree
decision_tree_leaf
p2902
(dp2903
g19
g20
(g21
tp2904
Rp2905
g24
I1
ssg25
g24
sbsbsbsbsbsg26
(idecision_tree
decision_tree_leaf
p2906
(dp2907
g19
g20
(g21
tp2908
Rp2909
g24
I4
ssg25
g24
sbsbsg26
(idecision_tree
continuous_decision_tree
p2910
(dp2911
g2
F-40.16665
sg3
I67
sg4
(idecision_tree
decision_tree_leaf
p2912
(dp2913
g19
g20
(g21
tp2914
Rp2915
g24
I3
sS'PKP'
p2916
I1
ssg25
g24
sbsg26
(idecision_tree
decision_tree_leaf
p2917
(dp2918
g19
g20
(g21
tp2919
Rp2920
g24
I1
ssg25
g24
sbsbsbsbsbsbsbsg26
(idecision_tree
decision_tree_leaf
p2921
(dp2922
g19
g20
(g21
tp2923
Rp2924
g24
I6
sS'Pn'
p2925
I2
ssg25
g24
sbsbsbsg26
(idecision_tree
continuous_decision_tree
p2926
(dp2927
g2
F-234.9375
sg3
I67
sg4
(idecision_tree
continuous_decision_tree
p2928
(dp2929
g2
F-0.5
sg3
I66
sg4
(idecision_tree
continuous_decision_tree
p2930
(dp2931
g2
F4.0
sg3
I62
sg4
(idecision_tree
continuous_decision_tree
p2932
(dp2933
g2
F-213.975
sg3
I67
sg4
(idecision_tree
continuous_decision_tree
p2934
(dp2935
g2
F-163.3905
sg3
I67
sg4
(idecision_tree
continuous_decision_tree
p2936
(dp2937
g2
F-150.6405
sg3
I67
sg4
(idecision_tree
decision_tree_leaf
p2938
(dp2939
g19
g20
(g21
tp2940
Rp2941
g24
I1
ssg25
g24
sbsg26
(idecision_tree
decision_tree_leaf
p2942
(dp2943
g19
g20
(g21
tp2944
Rp2945
S'PKP'
p2946
I1
ssg25
g2946
sbsbsg26
(idecision_tree
continuous_decision_tree
p2947
(dp2948
g2
F-192.975
sg3
I67
sg4
(idecision_tree
decision_tree_leaf
p2949
(dp2950
g19
g20
(g21
tp2951
Rp2952
S'Pn'
p2953
I1
ssg25
g2953
sbsg26
(idecision_tree
decision_tree_leaf
p2954
(dp2955
g19
g20
(g21
tp2956
Rp2957
g24
I1
ssg25
g24
sbsbsbsg26
(idecision_tree
continuous_decision_tree
p2958
(dp2959
g2
F-216.5
sg3
I67
sg4
(idecision_tree
decision_tree_leaf
p2960
(dp2961
g19
g20
(g21
tp2962
Rp2963
S'Pn'
p2964
I1
ssg25
g2964
sbsg26
(idecision_tree
decision_tree_leaf
p2965
(dp2966
g19
g20
(g21
tp2967
Rp2968
g24
I1
ssg25
g24
sbsbsbsg26
(idecision_tree
continuous_decision_tree
p2969
(dp2970
g2
F-192.625
sg3
I67
sg4
(idecision_tree
continuous_decision_tree
p2971
(dp2972
g2
F-161.0
sg3
I67
sg4
(idecision_tree
continuous_decision_tree
p2973
(dp2974
g2
F-152.25
sg3
I67
sg4
(idecision_tree
continuous_decision_tree
p2975
(dp2976
g2
F11.5
sg3
I63
sg4
(idecision_tree
continuous_decision_tree
p2977
(dp2978
g2
F1.5
sg3
I66
sg4
(idecision_tree
decision_tree_leaf
p2979
(dp2980
g19
g20
(g21
tp2981
Rp2982
g24
I2
sS'PKP'
p2983
I1
ssg25
g24
sbsg26
(idecision_tree
decision_tree_leaf
p2984
(dp2985
g19
g20
(g21
tp2986
Rp2987
g24
I1
ssg25
g24
sbsbsg26
(idecision_tree
decision_tree_leaf
p2988
(dp2989
g19
g20
(g21
tp2990
Rp2991
g24
I1
ssg25
g24
sbsbsg26
(idecision_tree
decision_tree_leaf
p2992
(dp2993
g19
g20
(g21
tp2994
Rp2995
g24
I1
ssg25
g24
sbsbsg26
(idecision_tree
continuous_decision_tree
p2996
(dp2997
g2
F-169.75
sg3
I67
sg4
(idecision_tree
continuous_decision_tree
p2998
(dp2999
g2
F43.1597
sg3
I44
sg4
(idecision_tree
decision_tree_leaf
p3000
(dp3001
g19
g20
(g21
tp3002
Rp3003
g24
I1
ssg25
g24
sbsg26
(idecision_tree
continuous_decision_tree
p3004
(dp3005
g2
F14.875
sg3
I63
sg4
(idecision_tree
decision_tree_leaf
p3006
(dp3007
g19
g20
(g21
tp3008
Rp3009
g24
I1
ssg25
g24
sbsg26
(idecision_tree
continuous_decision_tree
p3010
(dp3011
g2
F0.379881
sg3
I50
sg4
(idecision_tree
decision_tree_leaf
p3012
(dp3013
g19
g20
(g21
tp3014
Rp3015
g24
I1
ssg25
g24
sbsg26
(idecision_tree
continuous_decision_tree
p3016
(dp3017
g2
F0.7314315
sg3
I49
sg4
(idecision_tree
continuous_decision_tree
p3018
(dp3019
g2
F-165.83350000000002
sg3
I67
sg4
(idecision_tree
decision_tree_leaf
p3020
(dp3021
g19
g20
(g21
tp3022
Rp3023
S'Lg'
p3024
I1
ssg25
g3024
sbsg26
(idecision_tree
decision_tree_leaf
p3025
(dp3026
g19
g20
(g21
tp3027
Rp3028
g24
I1
ssg25
g24
sbsbsg26
(idecision_tree
decision_tree_leaf
p3029
(dp3030
g19
g20
(g21
tp3031
Rp3032
g24
I1
ssg25
g24
sbsbsbsbsbsg26
(idecision_tree
decision_tree_leaf
p3033
(dp3034
g19
g20
(g21
tp3035
Rp3036
g24
I4
sS'PKP'
p3037
I1
ssg25
g24
sbsbsbsg26
(idecision_tree
continuous_decision_tree
p3038
(dp3039
g2
F1.1777785
sg3
I52
sg4
(idecision_tree
decision_tree_leaf
p3040
(dp3041
g19
g20
(g21
tp3042
Rp3043
g24
I1
ssg25
g24
sbsg26
(idecision_tree
continuous_decision_tree
p3044
(dp3045
g2
F0.09976125
sg3
I49
sg4
(idecision_tree
continuous_decision_tree
p3046
(dp3047
g2
F0.3149425
sg3
I51
sg4
(idecision_tree
decision_tree_leaf
p3048
(dp3049
g19
g20
(g21
tp3050
Rp3051
g24
I1
ssg25
g24
sbsg26
(idecision_tree
continuous_decision_tree
p3052
(dp3053
g2
F0.8419665000000001
sg3
I35
sg4
(idecision_tree
continuous_decision_tree
p3054
(dp3055
g2
F-209.375
sg3
I67
sg4
(idecision_tree
decision_tree_leaf
p3056
(dp3057
g19
g20
(g21
tp3058
Rp3059
S'PKP'
p3060
I1
ssg25
g3060
sbsg26
(idecision_tree
decision_tree_leaf
p3061
(dp3062
g19
g20
(g21
tp3063
Rp3064
g24
I1
ssg25
g24
sbsbsg26
(idecision_tree
decision_tree_leaf
p3065
(dp3066
g19
g20
(g21
tp3067
Rp3068
g24
I1
ssg25
g24
sbsbsbsg26
(idecision_tree
decision_tree_leaf
p3069
(dp3070
g19
g20
(g21
tp3071
Rp3072
g24
I1
ssg25
g24
sbsbsbsbsbsg26
(idecision_tree
continuous_decision_tree
p3073
(dp3074
g2
F-212.906
sg3
I67
sg4
(idecision_tree
continuous_decision_tree
p3075
(dp3076
g2
F0.0
sg3
I58
sg4
(idecision_tree
continuous_decision_tree
p3077
(dp3078
g2
F-3.0
sg3
I66
sg4
(idecision_tree
continuous_decision_tree
p3079
(dp3080
g2
F-174.0
sg3
I67
sg4
(idecision_tree
continuous_decision_tree
p3081
(dp3082
g2
F-1.0
sg3
I66
sg4
(idecision_tree
continuous_decision_tree
p3083
(dp3084
g2
F-142.5
sg3
I67
sg4
(idecision_tree
decision_tree_leaf
p3085
(dp3086
g19
g20
(g21
tp3087
Rp3088
g24
I4
sS'PKP'
p3089
I1
sS'Lg'
p3090
I1
ssg25
g24
sbsg26
(idecision_tree
continuous_decision_tree
p3091
(dp3092
g2
F0.0
sg3
I63
sg4
(idecision_tree
continuous_decision_tree
p3093
(dp3094
g2
F-151.5
sg3
I67
sg4
(idecision_tree
decision_tree_leaf
p3095
(dp3096
g19
g20
(g21
tp3097
Rp3098
g24
I2
sS'Pn'
p3099
I1
ssg25
g24
sbsg26
(idecision_tree
continuous_decision_tree
p3100
(dp3101
g2
F-157.0
sg3
I67
sg4
(idecision_tree
continuous_decision_tree
p3102
(dp3103
g2
F0.12473619999999999
sg3
I50
sg4
(idecision_tree
decision_tree_leaf
p3104
(dp3105
g19
g20
(g21
tp3106
Rp3107
g24
I1
sS'PKP'
p3108
I1
ssg25
g24
sbsg26
(idecision_tree
decision_tree_leaf
p3109
(dp3110
g19
g20
(g21
tp3111
Rp3112
g24
I1
ssg25
g24
sbsbsg26
(idecision_tree
continuous_decision_tree
p3113
(dp3114
g2
F-171.25
sg3
I67
sg4
(idecision_tree
continuous_decision_tree
p3115
(dp3116
g2
F0.33156549999999996
sg3
I50
sg4
(idecision_tree
decision_tree_leaf
p3117
(dp3118
g19
g20
(g21
tp3119
Rp3120
g24
I1
sS'Pn'
p3121
I1
ssg25
g24
sbsg26
(idecision_tree
decision_tree_leaf
p3122
(dp3123
g19
g20
(g21
tp3124
Rp3125
g24
I1
ssg25
g24
sbsbsg26
(idecision_tree
decision_tree_leaf
p3126
(dp3127
g19
g20
(g21
tp3128
Rp3129
g24
I1
sg92
I1
ssg25
g24
sbsbsbsbsg26
(idecision_tree
decision_tree_leaf
p3130
(dp3131
g19
g20
(g21
tp3132
Rp3133
g24
I1
ssg25
g24
sbsbsbsg26
(idecision_tree
continuous_decision_tree
p3134
(dp3135
g2
F0.666667
sg3
I8
sg4
(idecision_tree
decision_tree_leaf
p3136
(dp3137
g19
g20
(g21
tp3138
Rp3139
g24
I6
sg92
I2
ssg25
g24
sbsg26
(idecision_tree
decision_tree_leaf
p3140
(dp3141
g19
g20
(g21
tp3142
Rp3143
g24
I2
ssg25
g24
sbsbsbsg26
(idecision_tree
continuous_decision_tree
p3144
(dp3145
g2
F-187.375
sg3
I67
sg4
(idecision_tree
decision_tree_leaf
p3146
(dp3147
g19
g20
(g21
tp3148
Rp3149
g24
I7
sg92
I1
sS'PKP'
p3150
I1
ssg25
g24
sbsg26
(idecision_tree
continuous_decision_tree
p3151
(dp3152
g2
F-198.9375
sg3
I67
sg4
(idecision_tree
continuous_decision_tree
p3153
(dp3154
g2
F3.26408
sg3
I39
sg4
(idecision_tree
continuous_decision_tree
p3155
(dp3156
g2
F-196.875
sg3
I67
sg4
(idecision_tree
continuous_decision_tree
p3157
(dp3158
g2
F0.3154595
sg3
I51
sg4
(idecision_tree
continuous_decision_tree
p3159
(dp3160
g2
F-192.875
sg3
I67
sg4
(idecision_tree
decision_tree_leaf
p3161
(dp3162
g19
g20
(g21
tp3163
Rp3164
g24
I1
ssg25
g24
sbsg26
(idecision_tree
decision_tree_leaf
p3165
(dp3166
g19
g20
(g21
tp3167
Rp3168
S'Pn'
p3169
I1
ssg25
g3169
sbsbsg26
(idecision_tree
decision_tree_leaf
p3170
(dp3171
g19
g20
(g21
tp3172
Rp3173
g24
I1
ssg25
g24
sbsbsg26
(idecision_tree
decision_tree_leaf
p3174
(dp3175
g19
g20
(g21
tp3176
Rp3177
g24
I1
ssg25
g24
sbsbsg26
(idecision_tree
continuous_decision_tree
p3178
(dp3179
g2
F0.4228555
sg3
I52
sg4
(idecision_tree
decision_tree_leaf
p3180
(dp3181
g19
g20
(g21
tp3182
Rp3183
g24
I1
ssg25
g24
sbsg26
(idecision_tree
continuous_decision_tree
p3184
(dp3185
g2
F1.345855
sg3
I48
sg4
(idecision_tree
continuous_decision_tree
p3186
(dp3187
g2
F71.43684999999999
sg3
I40
sg4
(idecision_tree
continuous_decision_tree
p3188
(dp3189
g2
F-193.70850000000002
sg3
I67
sg4
(idecision_tree
decision_tree_leaf
p3190
(dp3191
g19
g20
(g21
tp3192
Rp3193
g24
I1
ssg25
g24
sbsg26
(idecision_tree
decision_tree_leaf
p3194
(dp3195
g19
g20
(g21
tp3196
Rp3197
S'PKP'
p3198
I1
ssg25
g3198
sbsbsg26
(idecision_tree
decision_tree_leaf
p3199
(dp3200
g19
g20
(g21
tp3201
Rp3202
g24
I1
ssg25
g24
sbsbsg26
(idecision_tree
decision_tree_leaf
p3203
(dp3204
g19
g20
(g21
tp3205
Rp3206
g24
I1
ssg25
g24
sbsbsbsbsg26
(idecision_tree
continuous_decision_tree
p3207
(dp3208
g2
F0.22791350000000002
sg3
I52
sg4
(idecision_tree
continuous_decision_tree
p3209
(dp3210
g2
F74.4318
sg3
I40
sg4
(idecision_tree
continuous_decision_tree
p3211
(dp3212
g2
F-209.906
sg3
I67
sg4
(idecision_tree
decision_tree_leaf
p3213
(dp3214
g19
g20
(g21
tp3215
Rp3216
g24
I1
ssg25
g24
sbsg26
(idecision_tree
decision_tree_leaf
p3217
(dp3218
g19
g20
(g21
tp3219
Rp3220
S'PKP'
p3221
I1
ssg25
g3221
sbsbsg26
(idecision_tree
decision_tree_leaf
p3222
(dp3223
g19
g20
(g21
tp3224
Rp3225
g24
I1
ssg25
g24
sbsbsg26
(idecision_tree
decision_tree_leaf
p3226
(dp3227
g19
g20
(g21
tp3228
Rp3229
g24
I1
ssg25
g24
sbsbsbsbsbsg26
(idecision_tree
decision_tree_leaf
p3230
(dp3231
g19
g20
(g21
tp3232
Rp3233
g24
I3
ssg25
g24
sbsbsg26
(idecision_tree
decision_tree_leaf
p3234
(dp3235
g19
g20
(g21
tp3236
Rp3237
g24
I1
ssg25
g24
sbsbsg26
(idecision_tree
continuous_decision_tree
p3238
(dp3239
g2
F-219.5
sg3
I67
sg4
(idecision_tree
continuous_decision_tree
p3240
(dp3241
g2
F1.442155
sg3
I49
sg4
(idecision_tree
decision_tree_leaf
p3242
(dp3243
g19
g20
(g21
tp3244
Rp3245
g24
I1
ssg25
g24
sbsg26
(idecision_tree
continuous_decision_tree
p3246
(dp3247
g2
F74.88995
sg3
I40
sg4
(idecision_tree
continuous_decision_tree
p3248
(dp3249
g2
F-214.91649999999998
sg3
I67
sg4
(idecision_tree
decision_tree_leaf
p3250
(dp3251
g19
g20
(g21
tp3252
Rp3253
g92
I1
ssg25
g92
sbsg26
(idecision_tree
decision_tree_leaf
p3254
(dp3255
g19
g20
(g21
tp3256
Rp3257
g24
I1
ssg25
g24
sbsbsg26
(idecision_tree
decision_tree_leaf
p3258
(dp3259
g19
g20
(g21
tp3260
Rp3261
g24
I1
ssg25
g24
sbsbsbsg26
(idecision_tree
decision_tree_leaf
p3262
(dp3263
g19
g20
(g21
tp3264
Rp3265
g24
I19
sS'PKP'
p3266
I6
ssg25
g24
sbsbsbsbsg26
(idecision_tree
decision_tree_leaf
p3267
(dp3268
g19
g20
(g21
tp3269
Rp3270
g24
I22
sS'PKP'
p3271
I4
sS'Pn'
p3272
I3
ssg25
g24
sbsbsbsbsg26
(idecision_tree
continuous_decision_tree
p3273
(dp3274
g2
F0.666667
sg3
I8
sg4
(idecision_tree
continuous_decision_tree
p3275
(dp3276
g2
F1.0654
sg3
I48
sg4
(idecision_tree
continuous_decision_tree
p3277
(dp3278
g2
F-1.0
sg3
I58
sg4
(idecision_tree
continuous_decision_tree
p3279
(dp3280
g2
F-167.58350000000002
sg3
I67
sg4
(idecision_tree
continuous_decision_tree
p3281
(dp3282
g2
F2.7882249999999997
sg3
I39
sg4
(idecision_tree
continuous_decision_tree
p3283
(dp3284
g2
F1.13561
sg3
I48
sg4
(idecision_tree
continuous_decision_tree
p3285
(dp3286
g2
F-41.55555
sg3
I63
sg4
(idecision_tree
continuous_decision_tree
p3287
(dp3288
g2
F-1.0
sg3
I66
sg4
(idecision_tree
continuous_decision_tree
p3289
(dp3290
g2
F-14.0
sg3
I63
sg4
(idecision_tree
decision_tree_leaf
p3291
(dp3292
g19
g20
(g21
tp3293
Rp3294
g24
I8
sg92
I1
ssg25
g24
sbsg26
(idecision_tree
continuous_decision_tree
p3295
(dp3296
g2
F-16.0
sg3
I63
sg4
(idecision_tree
decision_tree_leaf
p3297
(dp3298
g19
g20
(g21
tp3299
Rp3300
g24
I1
ssg25
g24
sbsg26
(idecision_tree
continuous_decision_tree
p3301
(dp3302
g2
F-13.083335
sg3
I67
sg4
(idecision_tree
decision_tree_leaf
p3303
(dp3304
g19
g20
(g21
tp3305
Rp3306
g24
I1
ssg25
g24
sbsg26
(idecision_tree
continuous_decision_tree
p3307
(dp3308
g2
F-17.5
sg3
I59
sg4
(idecision_tree
continuous_decision_tree
p3309
(dp3310
g2
F-25.125
sg3
I67
sg4
(idecision_tree
decision_tree_leaf
p3311
(dp3312
g19
g20
(g21
tp3313
Rp3314
S'Lg'
p3315
I1
ssg25
g3315
sbsg26
(idecision_tree
decision_tree_leaf
p3316
(dp3317
g19
g20
(g21
tp3318
Rp3319
g24
I1
ssg25
g24
sbsbsg26
(idecision_tree
decision_tree_leaf
p3320
(dp3321
g19
g20
(g21
tp3322
Rp3323
g24
I1
ssg25
g24
sbsbsbsbsbsg26
(idecision_tree
continuous_decision_tree
p3324
(dp3325
g2
F-1.0
sg3
I62
sg4
(idecision_tree
continuous_decision_tree
p3326
(dp3327
g2
F-12.25
sg3
I63
sg4
(idecision_tree
decision_tree_leaf
p3328
(dp3329
g19
g20
(g21
tp3330
Rp3331
g24
I4
sS'Pn'
p3332
I1
ssg25
g24
sbsg26
(idecision_tree
decision_tree_leaf
p3333
(dp3334
g19
g20
(g21
tp3335
Rp3336
g24
I1
ssg25
g24
sbsbsg26
(idecision_tree
decision_tree_leaf
p3337
(dp3338
g19
g20
(g21
tp3339
Rp3340
S'Sn'
p3341
I1
ssg25
g3341
sbsbsbsg26
(idecision_tree
continuous_decision_tree
p3342
(dp3343
g2
F-117.3335
sg3
I67
sg4
(idecision_tree
decision_tree_leaf
p3344
(dp3345
g19
g20
(g21
tp3346
Rp3347
g24
I3
sS'Pn'
p3348
I1
ssg25
g24
sbsg26
(idecision_tree
decision_tree_leaf
p3349
(dp3350
g19
g20
(g21
tp3351
Rp3352
g24
I1
ssg25
g24
sbsbsbsg26
(idecision_tree
continuous_decision_tree
p3353
(dp3354
g2
F-66.08335
sg3
I67
sg4
(idecision_tree
continuous_decision_tree
p3355
(dp3356
g2
F0.0
sg3
I66
sg4
(idecision_tree
decision_tree_leaf
p3357
(dp3358
g19
g20
(g21
tp3359
Rp3360
g24
I1
ssg25
g24
sbsg26
(idecision_tree
decision_tree_leaf
p3361
(dp3362
g19
g20
(g21
tp3363
Rp3364
g24
I2
sS'Lg'
p3365
I1
ssg25
g24
sbsbsg26
(idecision_tree
decision_tree_leaf
p3366
(dp3367
g19
g20
(g21
tp3368
Rp3369
g24
I1
ssg25
g24
sbsbsbsg26
(idecision_tree
decision_tree_leaf
p3370
(dp3371
g19
g20
(g21
tp3372
Rp3373
S'Lg'
p3374
I1
sS'PKP'
p3375
I2
sg24
I46
sg92
I2
sS'Sn'
p3376
I3
sS'Pn'
p3377
I3
ssg25
g24
sbsbsg26
(idecision_tree
continuous_decision_tree
p3378
(dp3379
g2
F-198.625
sg3
I67
sg4
(idecision_tree
continuous_decision_tree
p3380
(dp3381
g2
F-3.5
sg3
I66
sg4
(idecision_tree
decision_tree_leaf
p3382
(dp3383
g19
g20
(g21
tp3384
Rp3385
g24
I1
ssg25
g24
sbsg26
(idecision_tree
continuous_decision_tree
p3386
(dp3387
g2
F-53.0
sg3
I63
sg4
(idecision_tree
continuous_decision_tree
p3388
(dp3389
g2
F-189.8625
sg3
I67
sg4
(idecision_tree
decision_tree_leaf
p3390
(dp3391
g19
g20
(g21
tp3392
Rp3393
g24
I1
ssg25
g24
sbsg26
(idecision_tree
decision_tree_leaf
p3394
(dp3395
g19
g20
(g21
tp3396
Rp3397
S'Lg'
p3398
I1
ssg25
g3398
sbsbsg26
(idecision_tree
decision_tree_leaf
p3399
(dp3400
g19
g20
(g21
tp3401
Rp3402
g24
I1
ssg25
g24
sbsbsbsg26
(idecision_tree
decision_tree_leaf
p3403
(dp3404
g19
g20
(g21
tp3405
Rp3406
g24
I1
ssg25
g24
sbsbsbsg26
(idecision_tree
continuous_decision_tree
p3407
(dp3408
g2
F0.9581284999999999
sg3
I34
sg4
(idecision_tree
continuous_decision_tree
p3409
(dp3410
g2
F-2.0
sg3
I58
sg4
(idecision_tree
continuous_decision_tree
p3411
(dp3412
g2
F-12.0
sg3
I67
sg4
(idecision_tree
decision_tree_leaf
p3413
(dp3414
g19
g20
(g21
tp3415
Rp3416
g24
I1
ssg25
g24
sbsg26
(idecision_tree
continuous_decision_tree
p3417
(dp3418
g2
F-2.0
sg3
I66
sg4
(idecision_tree
decision_tree_leaf
p3419
(dp3420
g19
g20
(g21
tp3421
Rp3422
g24
I2
sg92
I1
ssg25
g24
sbsg26
(idecision_tree
decision_tree_leaf
p3423
(dp3424
g19
g20
(g21
tp3425
Rp3426
g24
I1
ssg25
g24
sbsbsbsg26
(idecision_tree
continuous_decision_tree
p3427
(dp3428
g2
F1.4989050000000002
sg3
I48
sg4
(idecision_tree
continuous_decision_tree
p3429
(dp3430
g2
F-73.9915
sg3
I67
sg4
(idecision_tree
continuous_decision_tree
p3431
(dp3432
g2
F-4.5
sg3
I58
sg4
(idecision_tree
continuous_decision_tree
p3433
(dp3434
g2
F-27.99165
sg3
I67
sg4
(idecision_tree
decision_tree_leaf
p3435
(dp3436
g19
g20
(g21
tp3437
Rp3438
g24
I1
ssg25
g24
sbsg26
(idecision_tree
decision_tree_leaf
p3439
(dp3440
g19
g20
(g21
tp3441
Rp3442
S'Pn'
p3443
I1
ssg25
g3443
sbsbsg26
(idecision_tree
decision_tree_leaf
p3444
(dp3445
g19
g20
(g21
tp3446
Rp3447
g24
I1
ssg25
g24
sbsbsg26
(idecision_tree
decision_tree_leaf
p3448
(dp3449
g19
g20
(g21
tp3450
Rp3451
g24
I1
ssg25
g24
sbsbsg26
(idecision_tree
continuous_decision_tree
p3452
(dp3453
g2
F0.6348659999999999
sg3
I52
sg4
(idecision_tree
decision_tree_leaf
p3454
(dp3455
g19
g20
(g21
tp3456
Rp3457
g24
I1
ssg25
g24
sbsg26
(idecision_tree
continuous_decision_tree
p3458
(dp3459
g2
F2.801015
sg3
I39
sg4
(idecision_tree
continuous_decision_tree
p3460
(dp3461
g2
F-22.5
sg3
I67
sg4
(idecision_tree
decision_tree_leaf
p3462
(dp3463
g19
g20
(g21
tp3464
Rp3465
g24
I1
ssg25
g24
sbsg26
(idecision_tree
decision_tree_leaf
p3466
(dp3467
g19
g20
(g21
tp3468
Rp3469
S'Pn'
p3470
I1
ssg25
g3470
sbsbsg26
(idecision_tree
decision_tree_leaf
p3471
(dp3472
g19
g20
(g21
tp3473
Rp3474
g24
I1
ssg25
g24
sbsbsbsbsbsg26
(idecision_tree
continuous_decision_tree
p3475
(dp3476
g2
F-34.0
sg3
I63
sg4
(idecision_tree
continuous_decision_tree
p3477
(dp3478
g2
F0.3759265
sg3
I50
sg4
(idecision_tree
continuous_decision_tree
p3479
(dp3480
g2
F0.4928745
sg3
I52
sg4
(idecision_tree
continuous_decision_tree
p3481
(dp3482
g2
F-78.2381
sg3
I67
sg4
(idecision_tree
continuous_decision_tree
p3483
(dp3484
g2
F0.912104
sg3
I34
sg4
(idecision_tree
continuous_decision_tree
p3485
(dp3486
g2
F-42.82145
sg3
I67
sg4
(idecision_tree
decision_tree_leaf
p3487
(dp3488
g19
g20
(g21
tp3489
Rp3490
g24
I1
ssg25
g24
sbsg26
(idecision_tree
decision_tree_leaf
p3491
(dp3492
g19
g20
(g21
tp3493
Rp3494
g92
I1
ssg25
g92
sbsbsg26
(idecision_tree
decision_tree_leaf
p3495
(dp3496
g19
g20
(g21
tp3497
Rp3498
g24
I1
ssg25
g24
sbsbsg26
(idecision_tree
decision_tree_leaf
p3499
(dp3500
g19
g20
(g21
tp3501
Rp3502
g24
I1
ssg25
g24
sbsbsg26
(idecision_tree
continuous_decision_tree
p3503
(dp3504
g2
F-53.3
sg3
I67
sg4
(idecision_tree
continuous_decision_tree
p3505
(dp3506
g2
F-22.63335
sg3
I67
sg4
(idecision_tree
decision_tree_leaf
p3507
(dp3508
g19
g20
(g21
tp3509
Rp3510
g24
I3
ssg25
g24
sbsg26
(idecision_tree
decision_tree_leaf
p3511
(dp3512
g19
g20
(g21
tp3513
Rp3514
g92
I1
ssg25
g92
sbsbsg26
(idecision_tree
decision_tree_leaf
p3515
(dp3516
g19
g20
(g21
tp3517
Rp3518
g24
I1
ssg25
g24
sbsbsbsg26
(idecision_tree
continuous_decision_tree
p3519
(dp3520
g2
F-22.91665
sg3
I67
sg4
(idecision_tree
continuous_decision_tree
p3521
(dp3522
g2
F1.6416849999999998
sg3
I39
sg4
(idecision_tree
decision_tree_leaf
p3523
(dp3524
g19
g20
(g21
tp3525
Rp3526
g24
I3
sS'PKP'
p3527
I1
ssg25
g24
sbsg26
(idecision_tree
continuous_decision_tree
p3528
(dp3529
g2
F-2.0
sg3
I66
sg4
(idecision_tree
decision_tree_leaf
p3530
(dp3531
g19
g20
(g21
tp3532
Rp3533
g24
I3
sS'PKP'
p3534
I1
ssg25
g24
sbsg26
(idecision_tree
decision_tree_leaf
p3535
(dp3536
g19
g20
(g21
tp3537
Rp3538
g24
I1
ssg25
g24
sbsbsbsg26
(idecision_tree
decision_tree_leaf
p3539
(dp3540
g19
g20
(g21
tp3541
Rp3542
g24
I3
sS'PKP'
p3543
I1
ssg25
g24
sbsbsbsg26
(idecision_tree
continuous_decision_tree
p3544
(dp3545
g2
F-42.875
sg3
I67
sg4
(idecision_tree
continuous_decision_tree
p3546
(dp3547
g2
F-7.0
sg3
I66
sg4
(idecision_tree
continuous_decision_tree
p3548
(dp3549
g2
F0.4032105
sg3
I52
sg4
(idecision_tree
continuous_decision_tree
p3550
(dp3551
g2
F-41.125
sg3
I67
sg4
(idecision_tree
decision_tree_leaf
p3552
(dp3553
g19
g20
(g21
tp3554
Rp3555
g24
I1
ssg25
g24
sbsg26
(idecision_tree
decision_tree_leaf
p3556
(dp3557
g19
g20
(g21
tp3558
Rp3559
g92
I1
ssg25
g92
sbsbsg26
(idecision_tree
decision_tree_leaf
p3560
(dp3561
g19
g20
(g21
tp3562
Rp3563
g24
I1
ssg25
g24
sbsbsg26
(idecision_tree
decision_tree_leaf
p3564
(dp3565
g19
g20
(g21
tp3566
Rp3567
g24
I1
ssg25
g24
sbsbsg26
(idecision_tree
decision_tree_leaf
p3568
(dp3569
g19
g20
(g21
tp3570
Rp3571
g24
I4
sg92
I1
ssg25
g24
sbsbsbsbsbsg26
(idecision_tree
continuous_decision_tree
p3572
(dp3573
g2
F-1.0
sg3
I58
sg4
(idecision_tree
continuous_decision_tree
p3574
(dp3575
g2
F-146.45850000000002
sg3
I67
sg4
(idecision_tree
continuous_decision_tree
p3576
(dp3577
g2
F-43.625
sg3
I63
sg4
(idecision_tree
decision_tree_leaf
p3578
(dp3579
g19
g20
(g21
tp3580
Rp3581
g24
I28
sS'PKP'
p3582
I3
sS'Pn'
p3583
I2
sg92
I2
sS'Lg'
p3584
I1
ssg25
g24
sbsg26
(idecision_tree
continuous_decision_tree
p3585
(dp3586
g2
F0.303371
sg3
I38
sg4
(idecision_tree
continuous_decision_tree
p3587
(dp3588
g2
F-1.0
sg3
I66
sg4
(idecision_tree
continuous_decision_tree
p3589
(dp3590
g2
F-51.5
sg3
I59
sg4
(idecision_tree
continuous_decision_tree
p3591
(dp3592
g2
F0.2641305
sg3
I51
sg4
(idecision_tree
decision_tree_leaf
p3593
(dp3594
g19
g20
(g21
tp3595
Rp3596
g24
I4
sS'PKP'
p3597
I1
ssg25
g24
sbsg26
(idecision_tree
decision_tree_leaf
p3598
(dp3599
g19
g20
(g21
tp3600
Rp3601
g24
I1
ssg25
g24
sbsbsg26
(idecision_tree
decision_tree_leaf
p3602
(dp3603
g19
g20
(g21
tp3604
Rp3605
g24
I1
ssg25
g24
sbsbsg26
(idecision_tree
continuous_decision_tree
p3606
(dp3607
g2
F-89.0
sg3
I67
sg4
(idecision_tree
decision_tree_leaf
p3608
(dp3609
g19
g20
(g21
tp3610
Rp3611
g24
I1
ssg25
g24
sbsg26
(idecision_tree
decision_tree_leaf
p3612
(dp3613
g19
g20
(g21
tp3614
Rp3615
S'Lg'
p3616
I1
ssg25
g3616
sbsbsbsg26
(idecision_tree
continuous_decision_tree
p3617
(dp3618
g2
F-58.25
sg3
I67
sg4
(idecision_tree
continuous_decision_tree
p3619
(dp3620
g2
F-54.25
sg3
I67
sg4
(idecision_tree
continuous_decision_tree
p3621
(dp3622
g2
F0.0
sg3
I66
sg4
(idecision_tree
decision_tree_leaf
p3623
(dp3624
g19
g20
(g21
tp3625
Rp3626
g24
I2
sS'PKP'
p3627
I1
ssg25
g24
sbsg26
(idecision_tree
decision_tree_leaf
p3628
(dp3629
g19
g20
(g21
tp3630
Rp3631
g24
I1
ssg25
g24
sbsbsg26
(idecision_tree
decision_tree_leaf
p3632
(dp3633
g19
g20
(g21
tp3634
Rp3635
g24
I1
ssg25
g24
sbsbsg26
(idecision_tree
continuous_decision_tree
p3636
(dp3637
g2
F-1.5
sg3
I66
sg4
(idecision_tree
continuous_decision_tree
p3638
(dp3639
g2
F0.8784575
sg3
I48
sg4
(idecision_tree
continuous_decision_tree
p3640
(dp3641
g2
F-76.0
sg3
I67
sg4
(idecision_tree
decision_tree_leaf
p3642
(dp3643
g19
g20
(g21
tp3644
Rp3645
S'PKP'
p3646
I1
ssg25
g3646
sbsg26
(idecision_tree
decision_tree_leaf
p3647
(dp3648
g19
g20
(g21
tp3649
Rp3650
g24
I1
ssg25
g24
sbsbsg26
(idecision_tree
decision_tree_leaf
p3651
(dp3652
g19
g20
(g21
tp3653
Rp3654
g24
I1
ssg25
g24
sbsbsg26
(idecision_tree
decision_tree_leaf
p3655
(dp3656
g19
g20
(g21
tp3657
Rp3658
g24
I1
ssg25
g24
sbsbsbsbsbsg26
(idecision_tree
decision_tree_leaf
p3659
(dp3660
g19
g20
(g21
tp3661
Rp3662
g24
I7
sS'PKP'
p3663
I1
sS'Lg'
p3664
I1
ssg25
g24
sbsbsg26
(idecision_tree
continuous_decision_tree
p3665
(dp3666
g2
F-20.0
sg3
I59
sg4
(idecision_tree
continuous_decision_tree
p3667
(dp3668
g2
F0.280555
sg3
I49
sg4
(idecision_tree
continuous_decision_tree
p3669
(dp3670
g2
F-2.0
sg3
I62
sg4
(idecision_tree
decision_tree_leaf
p3671
(dp3672
g19
g20
(g21
tp3673
Rp3674
g24
I6
sg92
I1
ssg25
g24
sbsg26
(idecision_tree
continuous_decision_tree
p3675
(dp3676
g2
F-47.142849999999996
sg3
I63
sg4
(idecision_tree
continuous_decision_tree
p3677
(dp3678
g2
F-18.125
sg3
I59
sg4
(idecision_tree
continuous_decision_tree
p3679
(dp3680
g2
F0.6608075
sg3
I51
sg4
(idecision_tree
decision_tree_leaf
p3681
(dp3682
g19
g20
(g21
tp3683
Rp3684
g24
I1
ssg25
g24
sbsg26
(idecision_tree
continuous_decision_tree
p3685
(dp3686
g2
F0.5428345
sg3
I49
sg4
(idecision_tree
continuous_decision_tree
p3687
(dp3688
g2
F-60.894149999999996
sg3
I67
sg4
(idecision_tree
decision_tree_leaf
p3689
(dp3690
g19
g20
(g21
tp3691
Rp3692
g24
I1
ssg25
g24
sbsg26
(idecision_tree
decision_tree_leaf
p3693
(dp3694
g19
g20
(g21
tp3695
Rp3696
S'Lg'
p3697
I1
ssg25
g3697
sbsbsg26
(idecision_tree
decision_tree_leaf
p3698
(dp3699
g19
g20
(g21
tp3700
Rp3701
g24
I1
ssg25
g24
sbsbsbsg26
(idecision_tree
decision_tree_leaf
p3702
(dp3703
g19
g20
(g21
tp3704
Rp3705
g24
I1
ssg25
g24
sbsbsg26
(idecision_tree
decision_tree_leaf
p3706
(dp3707
g19
g20
(g21
tp3708
Rp3709
g24
I1
ssg25
g24
sbsbsbsg26
(idecision_tree
continuous_decision_tree
p3710
(dp3711
g2
F-135.018
sg3
I67
sg4
(idecision_tree
decision_tree_leaf
p3712
(dp3713
g19
g20
(g21
tp3714
Rp3715
g24
I4
sS'PKP'
p3716
I1
ssg25
g24
sbsg26
(idecision_tree
decision_tree_leaf
p3717
(dp3718
g19
g20
(g21
tp3719
Rp3720
g24
I1
ssg25
g24
sbsbsbsg26
(idecision_tree
continuous_decision_tree
p3721
(dp3722
g2
F-3.5
sg3
I66
sg4
(idecision_tree
continuous_decision_tree
p3723
(dp3724
g2
F-79.5835
sg3
I67
sg4
(idecision_tree
continuous_decision_tree
p3725
(dp3726
g2
F-31.75
sg3
I59
sg4
(idecision_tree
decision_tree_leaf
p3727
(dp3728
g19
g20
(g21
tp3729
Rp3730
g24
I1
ssg25
g24
sbsg26
(idecision_tree
continuous_decision_tree
p3731
(dp3732
g2
F70.94895
sg3
I40
sg4
(idecision_tree
continuous_decision_tree
p3733
(dp3734
g2
F-44.75
sg3
I67
sg4
(idecision_tree
decision_tree_leaf
p3735
(dp3736
g19
g20
(g21
tp3737
Rp3738
g24
I1
ssg25
g24
sbsg26
(idecision_tree
decision_tree_leaf
p3739
(dp3740
g19
g20
(g21
tp3741
Rp3742
S'PKP'
p3743
I1
ssg25
g3743
sbsbsg26
(idecision_tree
decision_tree_leaf
p3744
(dp3745
g19
g20
(g21
tp3746
Rp3747
g24
I1
ssg25
g24
sbsbsbsg26
(idecision_tree
decision_tree_leaf
p3748
(dp3749
g19
g20
(g21
tp3750
Rp3751
g24
I1
ssg25
g24
sbsbsg26
(idecision_tree
continuous_decision_tree
p3752
(dp3753
g2
F-87.59100000000001
sg3
I67
sg4
(idecision_tree
continuous_decision_tree
p3754
(dp3755
g2
F-9.5
sg3
I66
sg4
(idecision_tree
continuous_decision_tree
p3756
(dp3757
g2
F-40.433350000000004
sg3
I59
sg4
(idecision_tree
decision_tree_leaf
p3758
(dp3759
g19
g20
(g21
tp3760
Rp3761
g24
I2
sS'PKP'
p3762
I1
ssg25
g24
sbsg26
(idecision_tree
decision_tree_leaf
p3763
(dp3764
g19
g20
(g21
tp3765
Rp3766
g24
I1
ssg25
g24
sbsbsg26
(idecision_tree
decision_tree_leaf
p3767
(dp3768
g19
g20
(g21
tp3769
Rp3770
g24
I1
ssg25
g24
sbsbsg26
(idecision_tree
decision_tree_leaf
p3771
(dp3772
g19
g20
(g21
tp3773
Rp3774
g24
I1
ssg25
g24
sbsbsbsbsbsbsg26
(idecision_tree
continuous_decision_tree
p3775
(dp3776
g2
F-3.0
sg3
I66
sg4
(idecision_tree
continuous_decision_tree
p3777
(dp3778
g2
F1.0004315
sg3
I48
sg4
(idecision_tree
continuous_decision_tree
p3779
(dp3780
g2
F0.303972
sg3
I51
sg4
(idecision_tree
continuous_decision_tree
p3781
(dp3782
g2
F0.971516
sg3
I34
sg4
(idecision_tree
decision_tree_leaf
p3783
(dp3784
g19
g20
(g21
tp3785
Rp3786
g24
I3
sS'Pn'
p3787
I1
ssg25
g24
sbsg26
(idecision_tree
continuous_decision_tree
p3788
(dp3789
g2
F-25.5
sg3
I67
sg4
(idecision_tree
decision_tree_leaf
p3790
(dp3791
g19
g20
(g21
tp3792
Rp3793
g24
I4
sg92
I1
ssg25
g24
sbsg26
(idecision_tree
continuous_decision_tree
p3794
(dp3795
g2
F1.790365
sg3
I48
sg4
(idecision_tree
continuous_decision_tree
p3796
(dp3797
g2
F-153.9
sg3
I67
sg4
(idecision_tree
continuous_decision_tree
p3798
(dp3799
g2
F-1.5
sg3
I66
sg4
(idecision_tree
continuous_decision_tree
p3800
(dp3801
g2
F-100.5665
sg3
I67
sg4
(idecision_tree
decision_tree_leaf
p3802
(dp3803
g19
g20
(g21
tp3804
Rp3805
g24
I1
ssg25
g24
sbsg26
(idecision_tree
decision_tree_leaf
p3806
(dp3807
g19
g20
(g21
tp3808
Rp3809
S'Sn'
p3810
I1
ssg25
g3810
sbsbsg26
(idecision_tree
decision_tree_leaf
p3811
(dp3812
g19
g20
(g21
tp3813
Rp3814
g24
I1
ssg25
g24
sbsbsg26
(idecision_tree
decision_tree_leaf
p3815
(dp3816
g19
g20
(g21
tp3817
Rp3818
g24
I1
ssg25
g24
sbsbsg26
(idecision_tree
continuous_decision_tree
p3819
(dp3820
g2
F-93.25
sg3
I67
sg4
(idecision_tree
continuous_decision_tree
p3821
(dp3822
g2
F1.7408450000000002
sg3
I39
sg4
(idecision_tree
continuous_decision_tree
p3823
(dp3824
g2
F-55.0
sg3
I67
sg4
(idecision_tree
decision_tree_leaf
p3825
(dp3826
g19
g20
(g21
tp3827
Rp3828
g24
I1
ssg25
g24
sbsg26
(idecision_tree
decision_tree_leaf
p3829
(dp3830
g19
g20
(g21
tp3831
Rp3832
S'Sn'
p3833
I1
ssg25
g3833
sbsbsg26
(idecision_tree
decision_tree_leaf
p3834
(dp3835
g19
g20
(g21
tp3836
Rp3837
g24
I1
ssg25
g24
sbsbsg26
(idecision_tree
decision_tree_leaf
p3838
(dp3839
g19
g20
(g21
tp3840
Rp3841
g24
I1
ssg25
g24
sbsbsbsbsbsg26
(idecision_tree
continuous_decision_tree
p3842
(dp3843
g2
F-60.83335
sg3
I67
sg4
(idecision_tree
continuous_decision_tree
p3844
(dp3845
g2
F0.0
sg3
I62
sg4
(idecision_tree
decision_tree_leaf
p3846
(dp3847
g19
g20
(g21
tp3848
Rp3849
g24
I2
sS'Pn'
p3850
I1
ssg25
g24
sbsg26
(idecision_tree
decision_tree_leaf
p3851
(dp3852
g19
g20
(g21
tp3853
Rp3854
g24
I2
ssg25
g24
sbsbsg26
(idecision_tree
decision_tree_leaf
p3855
(dp3856
g19
g20
(g21
tp3857
Rp3858
g24
I3
sS'PKP'
p3859
I1
ssg25
g24
sbsbsbsg26
(idecision_tree
continuous_decision_tree
p3860
(dp3861
g2
F0.8030035
sg3
I50
sg4
(idecision_tree
decision_tree_leaf
p3862
(dp3863
g19
g20
(g21
tp3864
Rp3865
g24
I3
sg92
I1
ssg25
g24
sbsg26
(idecision_tree
continuous_decision_tree
p3866
(dp3867
g2
F-27.375
sg3
I67
sg4
(idecision_tree
decision_tree_leaf
p3868
(dp3869
g19
g20
(g21
tp3870
Rp3871
g24
I4
sS'Pn'
p3872
I1
ssg25
g24
sbsg26
(idecision_tree
continuous_decision_tree
p3873
(dp3874
g2
F-127.75
sg3
I67
sg4
(idecision_tree
continuous_decision_tree
p3875
(dp3876
g2
F-49.3333
sg3
I63
sg4
(idecision_tree
continuous_decision_tree
p3877
(dp3878
g2
F-68.875
sg3
I67
sg4
(idecision_tree
decision_tree_leaf
p3879
(dp3880
g19
g20
(g21
tp3881
Rp3882
g24
I1
ssg25
g24
sbsg26
(idecision_tree
decision_tree_leaf
p3883
(dp3884
g19
g20
(g21
tp3885
Rp3886
S'Pn'
p3887
I1
ssg25
g3887
sbsbsg26
(idecision_tree
decision_tree_leaf
p3888
(dp3889
g19
g20
(g21
tp3890
Rp3891
g24
I1
ssg25
g24
sbsbsg26
(idecision_tree
decision_tree_leaf
p3892
(dp3893
g19
g20
(g21
tp3894
Rp3895
g24
I1
ssg25
g24
sbsbsbsbsbsg26
(idecision_tree
continuous_decision_tree
p3896
(dp3897
g2
F-74.7604
sg3
I67
sg4
(idecision_tree
continuous_decision_tree
p3898
(dp3899
g2
F-7.0
sg3
I66
sg4
(idecision_tree
decision_tree_leaf
p3900
(dp3901
g19
g20
(g21
tp3902
Rp3903
g24
I3
sg92
I1
ssg25
g24
sbsg26
(idecision_tree
decision_tree_leaf
p3904
(dp3905
g19
g20
(g21
tp3906
Rp3907
g24
I1
ssg25
g24
sbsbsg26
(idecision_tree
continuous_decision_tree
p3908
(dp3909
g2
F-9.5
sg3
I63
sg4
(idecision_tree
decision_tree_leaf
p3910
(dp3911
g19
g20
(g21
tp3912
Rp3913
g24
I1
ssg25
g24
sbsg26
(idecision_tree
continuous_decision_tree
p3914
(dp3915
g2
F-2.5
sg3
I58
sg4
(idecision_tree
continuous_decision_tree
p3916
(dp3917
g2
F-112.25
sg3
I67
sg4
(idecision_tree
decision_tree_leaf
p3918
(dp3919
g19
g20
(g21
tp3920
Rp3921
g24
I1
ssg25
g24
sbsg26
(idecision_tree
decision_tree_leaf
p3922
(dp3923
g19
g20
(g21
tp3924
Rp3925
g92
I1
ssg25
g92
sbsbsg26
(idecision_tree
decision_tree_leaf
p3926
(dp3927
g19
g20
(g21
tp3928
Rp3929
g24
I1
ssg25
g24
sbsbsbsbsbsbsbsbsg26
(idecision_tree
continuous_decision_tree
p3930
(dp3931
g2
F0.666667
sg3
I8
sg4
(idecision_tree
continuous_decision_tree
p3932
(dp3933
g2
F186.7335
sg3
I67
sg4
(idecision_tree
continuous_decision_tree
p3934
(dp3935
g2
F0.1968955
sg3
I49
sg4
(idecision_tree
decision_tree_leaf
p3936
(dp3937
g19
g20
(g21
tp3938
Rp3939
g24
I34
sg92
I1
sS'PKP'
p3940
I8
ssg25
g24
sbsg26
(idecision_tree
continuous_decision_tree
p3941
(dp3942
g2
F0.7356665
sg3
I52
sg4
(idecision_tree
continuous_decision_tree
p3943
(dp3944
g2
F4.5
sg3
I66
sg4
(idecision_tree
decision_tree_leaf
p3945
(dp3946
g19
g20
(g21
tp3947
Rp3948
g24
I1
ssg25
g24
sbsg26
(idecision_tree
continuous_decision_tree
p3949
(dp3950
g2
F197.75
sg3
I67
sg4
(idecision_tree
continuous_decision_tree
p3951
(dp3952
g2
F1.706515
sg3
I39
sg4
(idecision_tree
continuous_decision_tree
p3953
(dp3954
g2
F213.75
sg3
I67
sg4
(idecision_tree
decision_tree_leaf
p3955
(dp3956
g19
g20
(g21
tp3957
Rp3958
g24
I1
ssg25
g24
sbsg26
(idecision_tree
decision_tree_leaf
p3959
(dp3960
g19
g20
(g21
tp3961
Rp3962
S'Pn'
p3963
I1
ssg25
g3963
sbsbsg26
(idecision_tree
decision_tree_leaf
p3964
(dp3965
g19
g20
(g21
tp3966
Rp3967
g24
I1
ssg25
g24
sbsbsg26
(idecision_tree
decision_tree_leaf
p3968
(dp3969
g19
g20
(g21
tp3970
Rp3971
g24
I1
ssg25
g24
sbsbsbsg26
(idecision_tree
continuous_decision_tree
p3972
(dp3973
g2
F0.2401205
sg3
I38
sg4
(idecision_tree
continuous_decision_tree
p3974
(dp3975
g2
F204.25
sg3
I67
sg4
(idecision_tree
continuous_decision_tree
p3976
(dp3977
g2
F4.5
sg3
I66
sg4
(idecision_tree
decision_tree_leaf
p3978
(dp3979
g19
g20
(g21
tp3980
Rp3981
g24
I1
ssg25
g24
sbsg26
(idecision_tree
continuous_decision_tree
p3982
(dp3983
g2
F0.34849850000000004
sg3
I52
sg4
(idecision_tree
continuous_decision_tree
p3984
(dp3985
g2
F222.25
sg3
I67
sg4
(idecision_tree
decision_tree_leaf
p3986
(dp3987
g19
g20
(g21
tp3988
Rp3989
g24
I1
ssg25
g24
sbsg26
(idecision_tree
decision_tree_leaf
p3990
(dp3991
g19
g20
(g21
tp3992
Rp3993
S'PKP'
p3994
I1
ssg25
g3994
sbsbsg26
(idecision_tree
decision_tree_leaf
p3995
(dp3996
g19
g20
(g21
tp3997
Rp3998
g24
I1
ssg25
g24
sbsbsbsg26
(idecision_tree
decision_tree_leaf
p3999
(dp4000
g19
g20
(g21
tp4001
Rp4002
g24
I1
ssg25
g24
sbsbsg26
(idecision_tree
continuous_decision_tree
p4003
(dp4004
g2
F2.5
sg3
I66
sg4
(idecision_tree
continuous_decision_tree
p4005
(dp4006
g2
F269.29150000000004
sg3
I67
sg4
(idecision_tree
decision_tree_leaf
p4007
(dp4008
g19
g20
(g21
tp4009
Rp4010
g24
I1
ssg25
g24
sbsg26
(idecision_tree
continuous_decision_tree
p4011
(dp4012
g2
F0.126114
sg3
I48
sg4
(idecision_tree
continuous_decision_tree
p4013
(dp4014
g2
F237.0875
sg3
I67
sg4
(idecision_tree
decision_tree_leaf
p4015
(dp4016
g19
g20
(g21
tp4017
Rp4018
S'PKP'
p4019
I1
ssg25
g4019
sbsg26
(idecision_tree
decision_tree_leaf
p4020
(dp4021
g19
g20
(g21
tp4022
Rp4023
g24
I1
ssg25
g24
sbsbsg26
(idecision_tree
decision_tree_leaf
p4024
(dp4025
g19
g20
(g21
tp4026
Rp4027
g24
I1
ssg25
g24
sbsbsbsg26
(idecision_tree
continuous_decision_tree
p4028
(dp4029
g2
F0.31045
sg3
I51
sg4
(idecision_tree
decision_tree_leaf
p4030
(dp4031
g19
g20
(g21
tp4032
Rp4033
g24
I1
ssg25
g24
sbsg26
(idecision_tree
continuous_decision_tree
p4034
(dp4035
g2
F213.0
sg3
I67
sg4
(idecision_tree
continuous_decision_tree
p4036
(dp4037
g2
F0.01575875
sg3
I50
sg4
(idecision_tree
continuous_decision_tree
p4038
(dp4039
g2
F230.5
sg3
I67
sg4
(idecision_tree
decision_tree_leaf
p4040
(dp4041
g19
g20
(g21
tp4042
Rp4043
g24
I1
ssg25
g24
sbsg26
(idecision_tree
decision_tree_leaf
p4044
(dp4045
g19
g20
(g21
tp4046
Rp4047
S'PKP'
p4048
I1
ssg25
g4048
sbsbsg26
(idecision_tree
decision_tree_leaf
p4049
(dp4050
g19
g20
(g21
tp4051
Rp4052
g24
I1
ssg25
g24
sbsbsg26
(idecision_tree
decision_tree_leaf
p4053
(dp4054
g19
g20
(g21
tp4055
Rp4056
g24
I1
ssg25
g24
sbsbsbsbsbsbsbsg26
(idecision_tree
continuous_decision_tree
p4057
(dp4058
g2
F0.0
sg3
I58
sg4
(idecision_tree
continuous_decision_tree
p4059
(dp4060
g2
F0.334132
sg3
I48
sg4
(idecision_tree
continuous_decision_tree
p4061
(dp4062
g2
F77.58295
sg3
I40
sg4
(idecision_tree
continuous_decision_tree
p4063
(dp4064
g2
F-190.25
sg3
I67
sg4
(idecision_tree
continuous_decision_tree
p4065
(dp4066
g2
F-169.5
sg3
I67
sg4
(idecision_tree
continuous_decision_tree
p4067
(dp4068
g2
F-152.75
sg3
I67
sg4
(idecision_tree
continuous_decision_tree
p4069
(dp4070
g2
F156.42849999999999
sg3
I67
sg4
(idecision_tree
continuous_decision_tree
p4071
(dp4072
g2
F0.1404385
sg3
I51
sg4
(idecision_tree
continuous_decision_tree
p4073
(dp4074
g2
F0.2296805
sg3
I50
sg4
(idecision_tree
continuous_decision_tree
p4075
(dp4076
g2
F0.4860145
sg3
I49
sg4
(idecision_tree
continuous_decision_tree
p4077
(dp4078
g2
F168.1875
sg3
I67
sg4
(idecision_tree
decision_tree_leaf
p4079
(dp4080
g19
g20
(g21
tp4081
Rp4082
S'PKP'
p4083
I1
ssg25
g4083
sbsg26
(idecision_tree
decision_tree_leaf
p4084
(dp4085
g19
g20
(g21
tp4086
Rp4087
g24
I1
ssg25
g24
sbsbsg26
(idecision_tree
decision_tree_leaf
p4088
(dp4089
g19
g20
(g21
tp4090
Rp4091
g24
I1
ssg25
g24
sbsbsg26
(idecision_tree
decision_tree_leaf
p4092
(dp4093
g19
g20
(g21
tp4094
Rp4095
g24
I1
ssg25
g24
sbsbsg26
(idecision_tree
decision_tree_leaf
p4096
(dp4097
g19
g20
(g21
tp4098
Rp4099
g24
I1
ssg25
g24
sbsbsg26
(idecision_tree
continuous_decision_tree
p4100
(dp4101
g2
F-66.91665
sg3
I63
sg4
(idecision_tree
continuous_decision_tree
p4102
(dp4103
g2
F0.638131
sg3
I48
sg4
(idecision_tree
continuous_decision_tree
p4104
(dp4105
g2
F2.5
sg3
I66
sg4
(idecision_tree
decision_tree_leaf
p4106
(dp4107
g19
g20
(g21
tp4108
Rp4109
g24
I1
ssg25
g24
sbsg26
(idecision_tree
continuous_decision_tree
p4110
(dp4111
g2
F45.5
sg3
I63
sg4
(idecision_tree
decision_tree_leaf
p4112
(dp4113
g19
g20
(g21
tp4114
Rp4115
g24
I1
ssg25
g24
sbsg26
(idecision_tree
continuous_decision_tree
p4116
(dp4117
g2
F0.5
sg3
I62
sg4
(idecision_tree
continuous_decision_tree
p4118
(dp4119
g2
F58.75
sg3
I67
sg4
(idecision_tree
decision_tree_leaf
p4120
(dp4121
g19
g20
(g21
tp4122
Rp4123
S'PKP'
p4124
I1
ssg25
g4124
sbsg26
(idecision_tree
decision_tree_leaf
p4125
(dp4126
g19
g20
(g21
tp4127
Rp4128
g24
I1
ssg25
g24
sbsbsg26
(idecision_tree
decision_tree_leaf
p4129
(dp4130
g19
g20
(g21
tp4131
Rp4132
g24
I1
ssg25
g24
sbsbsbsbsg26
(idecision_tree
continuous_decision_tree
p4133
(dp4134
g2
F-137.25
sg3
I67
sg4
(idecision_tree
continuous_decision_tree
p4135
(dp4136
g2
F1.166045
sg3
I39
sg4
(idecision_tree
continuous_decision_tree
p4137
(dp4138
g2
F1.4471699999999998
sg3
I52
sg4
(idecision_tree
continuous_decision_tree
p4139
(dp4140
g2
F87.66665
sg3
I67
sg4
(idecision_tree
decision_tree_leaf
p4141
(dp4142
g19
g20
(g21
tp4143
Rp4144
g24
I1
ssg25
g24
sbsg26
(idecision_tree
continuous_decision_tree
p4145
(dp4146
g2
F1.52034
sg3
I52
sg4
(idecision_tree
continuous_decision_tree
p4147
(dp4148
g2
F0.277466
sg3
I51
sg4
(idecision_tree
continuous_decision_tree
p4149
(dp4150
g2
F33.66665
sg3
I67
sg4
(idecision_tree
decision_tree_leaf
p4151
(dp4152
g19
g20
(g21
tp4153
Rp4154
S'PKP'
p4155
I1
ssg25
g4155
sbsg26
(idecision_tree
decision_tree_leaf
p4156
(dp4157
g19
g20
(g21
tp4158
Rp4159
g24
I1
ssg25
g24
sbsbsg26
(idecision_tree
decision_tree_leaf
p4160
(dp4161
g19
g20
(g21
tp4162
Rp4163
g24
I1
ssg25
g24
sbsbsg26
(idecision_tree
decision_tree_leaf
p4164
(dp4165
g19
g20
(g21
tp4166
Rp4167
g24
I1
ssg25
g24
sbsbsbsg26
(idecision_tree
continuous_decision_tree
p4168
(dp4169
g2
F89.42705000000001
sg3
I40
sg4
(idecision_tree
continuous_decision_tree
p4170
(dp4171
g2
F-31.5
sg3
I67
sg4
(idecision_tree
continuous_decision_tree
p4172
(dp4173
g2
F0.262766
sg3
I50
sg4
(idecision_tree
decision_tree_leaf
p4174
(dp4175
g19
g20
(g21
tp4176
Rp4177
g24
I1
ssg25
g24
sbsg26
(idecision_tree
continuous_decision_tree
p4178
(dp4179
g2
F0.4923935
sg3
I48
sg4
(idecision_tree
continuous_decision_tree
p4180
(dp4181
g2
F7.0
sg3
I67
sg4
(idecision_tree
decision_tree_leaf
p4182
(dp4183
g19
g20
(g21
tp4184
Rp4185
g24
I1
ssg25
g24
sbsg26
(idecision_tree
decision_tree_leaf
p4186
(dp4187
g19
g20
(g21
tp4188
Rp4189
S'PKP'
p4190
I1
ssg25
g4190
sbsbsg26
(idecision_tree
decision_tree_leaf
p4191
(dp4192
g19
g20
(g21
tp4193
Rp4194
g24
I1
ssg25
g24
sbsbsbsg26
(idecision_tree
decision_tree_leaf
p4195
(dp4196
g19
g20
(g21
tp4197
Rp4198
g24
I1
ssg25
g24
sbsbsg26
(idecision_tree
continuous_decision_tree
p4199
(dp4200
g2
F1.0
sg3
I8
sg4
(idecision_tree
continuous_decision_tree
p4201
(dp4202
g2
F14.0
sg3
I67
sg4
(idecision_tree
continuous_decision_tree
p4203
(dp4204
g2
F15.5
sg3
I63
sg4
(idecision_tree
continuous_decision_tree
p4205
(dp4206
g2
F0.147966
sg3
I50
sg4
(idecision_tree
continuous_decision_tree
p4207
(dp4208
g2
F20.5
sg3
I67
sg4
(idecision_tree
decision_tree_leaf
p4209
(dp4210
g19
g20
(g21
tp4211
Rp4212
g24
I1
ssg25
g24
sbsg26
(idecision_tree
decision_tree_leaf
p4213
(dp4214
g19
g20
(g21
tp4215
Rp4216
S'PKP'
p4217
I1
ssg25
g4217
sbsbsg26
(idecision_tree
decision_tree_leaf
p4218
(dp4219
g19
g20
(g21
tp4220
Rp4221
g24
I1
ssg25
g24
sbsbsg26
(idecision_tree
decision_tree_leaf
p4222
(dp4223
g19
g20
(g21
tp4224
Rp4225
g24
I1
ssg25
g24
sbsbsg26
(idecision_tree
continuous_decision_tree
p4226
(dp4227
g2
F0.44973
sg3
I52
sg4
(idecision_tree
decision_tree_leaf
p4228
(dp4229
g19
g20
(g21
tp4230
Rp4231
g24
I3
sS'PKP'
p4232
I1
ssg25
g24
sbsg26
(idecision_tree
continuous_decision_tree
p4233
(dp4234
g2
F-46.64285
sg3
I67
sg4
(idecision_tree
decision_tree_leaf
p4235
(dp4236
g19
g20
(g21
tp4237
Rp4238
g24
I1
ssg25
g24
sbsg26
(idecision_tree
continuous_decision_tree
p4239
(dp4240
g2
F0.30031300000000005
sg3
I52
sg4
(idecision_tree
continuous_decision_tree
p4241
(dp4242
g2
F-103.14285000000001
sg3
I67
sg4
(idecision_tree
decision_tree_leaf
p4243
(dp4244
g19
g20
(g21
tp4245
Rp4246
S'PKP'
p4247
I1
ssg25
g4247
sbsg26
(idecision_tree
decision_tree_leaf
p4248
(dp4249
g19
g20
(g21
tp4250
Rp4251
g24
I1
ssg25
g24
sbsbsg26
(idecision_tree
decision_tree_leaf
p4252
(dp4253
g19
g20
(g21
tp4254
Rp4255
g24
I1
ssg25
g24
sbsbsbsbsbsg26
(idecision_tree
continuous_decision_tree
p4256
(dp4257
g2
F0.9441664999999999
sg3
I35
sg4
(idecision_tree
continuous_decision_tree
p4258
(dp4259
g2
F-6.75
sg3
I63
sg4
(idecision_tree
continuous_decision_tree
p4260
(dp4261
g2
F0.9201165
sg3
I49
sg4
(idecision_tree
continuous_decision_tree
p4262
(dp4263
g2
F0.1721985
sg3
I52
sg4
(idecision_tree
continuous_decision_tree
p4264
(dp4265
g2
F0.2427655
sg3
I51
sg4
(idecision_tree
continuous_decision_tree
p4266
(dp4267
g2
F2.77224
sg3
I39
sg4
(idecision_tree
continuous_decision_tree
p4268
(dp4269
g2
F18.150000000000006
sg3
I67
sg4
(idecision_tree
decision_tree_leaf
p4270
(dp4271
g19
g20
(g21
tp4272
Rp4273
S'Pn'
p4274
I1
ssg25
g4274
sbsg26
(idecision_tree
decision_tree_leaf
p4275
(dp4276
g19
g20
(g21
tp4277
Rp4278
g24
I1
ssg25
g24
sbsbsg26
(idecision_tree
decision_tree_leaf
p4279
(dp4280
g19
g20
(g21
tp4281
Rp4282
g24
I1
ssg25
g24
sbsbsg26
(idecision_tree
decision_tree_leaf
p4283
(dp4284
g19
g20
(g21
tp4285
Rp4286
g24
I1
ssg25
g24
sbsbsg26
(idecision_tree
decision_tree_leaf
p4287
(dp4288
g19
g20
(g21
tp4289
Rp4290
g24
I1
ssg25
g24
sbsbsg26
(idecision_tree
continuous_decision_tree
p4291
(dp4292
g2
F88.28065
sg3
I40
sg4
(idecision_tree
continuous_decision_tree
p4293
(dp4294
g2
F0.6893674999999999
sg3
I49
sg4
(idecision_tree
decision_tree_leaf
p4295
(dp4296
g19
g20
(g21
tp4297
Rp4298
g24
I1
ssg25
g24
sbsg26
(idecision_tree
continuous_decision_tree
p4299
(dp4300
g2
F0.446196
sg3
I52
sg4
(idecision_tree
continuous_decision_tree
p4301
(dp4302
g2
F0.351709
sg3
I48
sg4
(idecision_tree
continuous_decision_tree
p4303
(dp4304
g2
F77.4285
sg3
I67
sg4
(idecision_tree
decision_tree_leaf
p4305
(dp4306
g19
g20
(g21
tp4307
Rp4308
S'Pn'
p4309
I1
ssg25
g4309
sbsg26
(idecision_tree
decision_tree_leaf
p4310
(dp4311
g19
g20
(g21
tp4312
Rp4313
g24
I1
ssg25
g24
sbsbsg26
(idecision_tree
decision_tree_leaf
p4314
(dp4315
g19
g20
(g21
tp4316
Rp4317
g24
I1
ssg25
g24
sbsbsg26
(idecision_tree
decision_tree_leaf
p4318
(dp4319
g19
g20
(g21
tp4320
Rp4321
g24
I1
ssg25
g24
sbsbsbsg26
(idecision_tree
continuous_decision_tree
p4322
(dp4323
g2
F0.6098254999999999
sg3
I48
sg4
(idecision_tree
continuous_decision_tree
p4324
(dp4325
g2
F1.5
sg3
I63
sg4
(idecision_tree
continuous_decision_tree
p4326
(dp4327
g2
F-20.1875
sg3
I67
sg4
(idecision_tree
continuous_decision_tree
p4328
(dp4329
g2
F0.24968115
sg3
I52
sg4
(idecision_tree
continuous_decision_tree
p4330
(dp4331
g2
F5.166665
sg3
I67
sg4
(idecision_tree
decision_tree_leaf
p4332
(dp4333
g19
g20
(g21
tp4334
Rp4335
g24
I1
ssg25
g24
sbsg26
(idecision_tree
decision_tree_leaf
p4336
(dp4337
g19
g20
(g21
tp4338
Rp4339
S'PKP'
p4340
I1
ssg25
g4340
sbsbsg26
(idecision_tree
decision_tree_leaf
p4341
(dp4342
g19
g20
(g21
tp4343
Rp4344
g24
I1
ssg25
g24
sbsbsg26
(idecision_tree
decision_tree_leaf
p4345
(dp4346
g19
g20
(g21
tp4347
Rp4348
g24
I1
ssg25
g24
sbsbsg26
(idecision_tree
decision_tree_leaf
p4349
(dp4350
g19
g20
(g21
tp4351
Rp4352
g24
I1
ssg25
g24
sbsbsg26
(idecision_tree
continuous_decision_tree
p4353
(dp4354
g2
F0.0
sg3
I66
sg4
(idecision_tree
decision_tree_leaf
p4355
(dp4356
g19
g20
(g21
tp4357
Rp4358
g24
I32
sS'PKP'
p4359
I8
ssg25
g24
sbsg26
(idecision_tree
decision_tree_leaf
p4360
(dp4361
g19
g20
(g21
tp4362
Rp4363
g24
I1
ssg25
g24
sbsbsbsbsbsg26
(idecision_tree
continuous_decision_tree
p4364
(dp4365
g2
F59.5
sg3
I67
sg4
(idecision_tree
decision_tree_leaf
p4366
(dp4367
g19
g20
(g21
tp4368
Rp4369
g24
I1
ssg25
g24
sbsg26
(idecision_tree
decision_tree_leaf
p4370
(dp4371
g19
g20
(g21
tp4372
Rp4373
g24
I3
sS'PKP'
p4374
I1
ssg25
g24
sbsbsbsg26
(idecision_tree
continuous_decision_tree
p4375
(dp4376
g2
F0.18549949999999998
sg3
I49
sg4
(idecision_tree
continuous_decision_tree
p4377
(dp4378
g2
F0.76782
sg3
I35
sg4
(idecision_tree
continuous_decision_tree
p4379
(dp4380
g2
F0.0
sg3
I66
sg4
(idecision_tree
continuous_decision_tree
p4381
(dp4382
g2
F0.2494205
sg3
I50
sg4
(idecision_tree
continuous_decision_tree
p4383
(dp4384
g2
F0.0
sg3
I67
sg4
(idecision_tree
continuous_decision_tree
p4385
(dp4386
g2
F0.3266155
sg3
I50
sg4
(idecision_tree
decision_tree_leaf
p4387
(dp4388
g19
g20
(g21
tp4389
Rp4390
g24
I13
sS'PKP'
p4391
I2
sS'Pn'
p4392
I1
ssg25
g24
sbsg26
(idecision_tree
continuous_decision_tree
p4393
(dp4394
g2
F1.959355
sg3
I39
sg4
(idecision_tree
continuous_decision_tree
p4395
(dp4396
g2
F88.83805000000001
sg3
I40
sg4
(idecision_tree
decision_tree_leaf
p4397
(dp4398
g19
g20
(g21
tp4399
Rp4400
g24
I1
ssg25
g24
sbsg26
(idecision_tree
decision_tree_leaf
p4401
(dp4402
g19
g20
(g21
tp4403
Rp4404
g24
I3
sS'PKP'
p4405
I1
ssg25
g24
sbsbsg26
(idecision_tree
continuous_decision_tree
p4406
(dp4407
g2
F0.15936050000000002
sg3
I51
sg4
(idecision_tree
continuous_decision_tree
p4408
(dp4409
g2
F0.4401675
sg3
I48
sg4
(idecision_tree
continuous_decision_tree
p4410
(dp4411
g2
F1.554885
sg3
I39
sg4
(idecision_tree
continuous_decision_tree
p4412
(dp4413
g2
F0.8234795
sg3
I34
sg4
(idecision_tree
continuous_decision_tree
p4414
(dp4415
g2
F50.25
sg3
I67
sg4
(idecision_tree
decision_tree_leaf
p4416
(dp4417
g19
g20
(g21
tp4418
Rp4419
g24
I1
ssg25
g24
sbsg26
(idecision_tree
decision_tree_leaf
p4420
(dp4421
g19
g20
(g21
tp4422
Rp4423
S'PKP'
p4424
I1
ssg25
g4424
sbsbsg26
(idecision_tree
decision_tree_leaf
p4425
(dp4426
g19
g20
(g21
tp4427
Rp4428
g24
I1
ssg25
g24
sbsbsg26
(idecision_tree
decision_tree_leaf
p4429
(dp4430
g19
g20
(g21
tp4431
Rp4432
g24
I1
ssg25
g24
sbsbsg26
(idecision_tree
decision_tree_leaf
p4433
(dp4434
g19
g20
(g21
tp4435
Rp4436
g24
I1
ssg25
g24
sbsbsg26
(idecision_tree
decision_tree_leaf
p4437
(dp4438
g19
g20
(g21
tp4439
Rp4440
g24
I1
ssg25
g24
sbsbsbsbsg26
(idecision_tree
decision_tree_leaf
p4441
(dp4442
g19
g20
(g21
tp4443
Rp4444
g24
I2
ssg25
g24
sbsbsg26
(idecision_tree
decision_tree_leaf
p4445
(dp4446
g19
g20
(g21
tp4447
Rp4448
g24
I19
sS'PKP'
p4449
I4
ssg25
g24
sbsbsg26
(idecision_tree
continuous_decision_tree
p4450
(dp4451
g2
F0.0
sg3
I63
sg4
(idecision_tree
decision_tree_leaf
p4452
(dp4453
g19
g20
(g21
tp4454
Rp4455
g24
I1
sS'PKP'
p4456
I2
ssg25
g4456
sbsg26
(idecision_tree
decision_tree_leaf
p4457
(dp4458
g19
g20
(g21
tp4459
Rp4460
g24
I1
ssg25
g24
sbsbsbsg26
(idecision_tree
continuous_decision_tree
p4461
(dp4462
g2
F-45.25
sg3
I67
sg4
(idecision_tree
decision_tree_leaf
p4463
(dp4464
g19
g20
(g21
tp4465
Rp4466
g24
I3
sS'PKP'
p4467
I1
ssg25
g24
sbsg26
(idecision_tree
decision_tree_leaf
p4468
(dp4469
g19
g20
(g21
tp4470
Rp4471
g24
I1
ssg25
g24
sbsbsbsg26
(idecision_tree
continuous_decision_tree
p4472
(dp4473
g2
F9.0
sg3
I63
sg4
(idecision_tree
decision_tree_leaf
p4474
(dp4475
g19
g20
(g21
tp4476
Rp4477
g24
I1
ssg25
g24
sbsg26
(idecision_tree
continuous_decision_tree
p4478
(dp4479
g2
F12.625
sg3
I67
sg4
(idecision_tree
decision_tree_leaf
p4480
(dp4481
g19
g20
(g21
tp4482
Rp4483
g24
I1
ssg25
g24
sbsg26
(idecision_tree
continuous_decision_tree
p4484
(dp4485
g2
F82.55414999999999
sg3
I40
sg4
(idecision_tree
decision_tree_leaf
p4486
(dp4487
g19
g20
(g21
tp4488
Rp4489
g24
I1
sS'PKP'
p4490
I1
ssg25
g24
sbsg26
(idecision_tree
decision_tree_leaf
p4491
(dp4492
g19
g20
(g21
tp4493
Rp4494
g24
I1
ssg25
g24
sbsbsbsbsbsbsbsbsbsg26
(idecision_tree
continuous_decision_tree
p4495
(dp4496
g2
F0.498985
sg3
I52
sg4
(idecision_tree
continuous_decision_tree
p4497
(dp4498
g2
F2.0
sg3
I62
sg4
(idecision_tree
continuous_decision_tree
p4499
(dp4500
g2
F32.833349999999996
sg3
I67
sg4
(idecision_tree
decision_tree_leaf
p4501
(dp4502
g19
g20
(g21
tp4503
Rp4504
S'PKP'
p4505
I1
ssg25
g4505
sbsg26
(idecision_tree
decision_tree_leaf
p4506
(dp4507
g19
g20
(g21
tp4508
Rp4509
g24
I1
ssg25
g24
sbsbsg26
(idecision_tree
decision_tree_leaf
p4510
(dp4511
g19
g20
(g21
tp4512
Rp4513
g24
I4
ssg25
g24
sbsbsg26
(idecision_tree
continuous_decision_tree
p4514
(dp4515
g2
F25.0
sg3
I67
sg4
(idecision_tree
decision_tree_leaf
p4516
(dp4517
g19
g20
(g21
tp4518
Rp4519
g24
I1
ssg25
g24
sbsg26
(idecision_tree
continuous_decision_tree
p4520
(dp4521
g2
F0.4447275
sg3
I48
sg4
(idecision_tree
continuous_decision_tree
p4522
(dp4523
g2
F5.5
sg3
I67
sg4
(idecision_tree
decision_tree_leaf
p4524
(dp4525
g19
g20
(g21
tp4526
Rp4527
S'PKP'
p4528
I1
ssg25
g4528
sbsg26
(idecision_tree
decision_tree_leaf
p4529
(dp4530
g19
g20
(g21
tp4531
Rp4532
g24
I1
ssg25
g24
sbsbsg26
(idecision_tree
decision_tree_leaf
p4533
(dp4534
g19
g20
(g21
tp4535
Rp4536
g24
I1
ssg25
g24
sbsbsbsbsbsg26
(idecision_tree
continuous_decision_tree
p4537
(dp4538
g2
F9.625
sg3
I63
sg4
(idecision_tree
decision_tree_leaf
p4539
(dp4540
g19
g20
(g21
tp4541
Rp4542
g24
I1
ssg25
g24
sbsg26
(idecision_tree
continuous_decision_tree
p4543
(dp4544
g2
F-146.1875
sg3
I67
sg4
(idecision_tree
decision_tree_leaf
p4545
(dp4546
g19
g20
(g21
tp4547
Rp4548
g24
I1
ssg25
g24
sbsg26
(idecision_tree
continuous_decision_tree
p4549
(dp4550
g2
F-1.5
sg3
I66
sg4
(idecision_tree
continuous_decision_tree
p4551
(dp4552
g2
F-149.6875
sg3
I67
sg4
(idecision_tree
decision_tree_leaf
p4553
(dp4554
g19
g20
(g21
tp4555
Rp4556
S'PKP'
p4557
I1
ssg25
g4557
sbsg26
(idecision_tree
decision_tree_leaf
p4558
(dp4559
g19
g20
(g21
tp4560
Rp4561
g24
I1
ssg25
g24
sbsbsg26
(idecision_tree
decision_tree_leaf
p4562
(dp4563
g19
g20
(g21
tp4564
Rp4565
g24
I1
ssg25
g24
sbsbsbsbsbsbsg26
(idecision_tree
continuous_decision_tree
p4566
(dp4567
g2
F0.0
sg3
I62
sg4
(idecision_tree
continuous_decision_tree
p4568
(dp4569
g2
F-117.1665
sg3
I67
sg4
(idecision_tree
decision_tree_leaf
p4570
(dp4571
g19
g20
(g21
tp4572
Rp4573
g24
I1
ssg25
g24
sbsg26
(idecision_tree
decision_tree_leaf
p4574
(dp4575
g19
g20
(g21
tp4576
Rp4577
S'Lg'
p4578
I1
ssg25
g4578
sbsbsg26
(idecision_tree
decision_tree_leaf
p4579
(dp4580
g19
g20
(g21
tp4581
Rp4582
g24
I3
ssg25
g24
sbsbsbsbsg26
(idecision_tree
continuous_decision_tree
p4583
(dp4584
g2
F0.7744595
sg3
I52
sg4
(idecision_tree
decision_tree_leaf
p4585
(dp4586
g19
g20
(g21
tp4587
Rp4588
g24
I1
ssg25
g24
sbsg26
(idecision_tree
continuous_decision_tree
p4589
(dp4590
g2
F-1.0
sg3
I66
sg4
(idecision_tree
decision_tree_leaf
p4591
(dp4592
g19
g20
(g21
tp4593
Rp4594
g24
I2
sg92
I1
ssg25
g24
sbsg26
(idecision_tree
decision_tree_leaf
p4595
(dp4596
g19
g20
(g21
tp4597
Rp4598
g24
I1
ssg25
g24
sbsbsbsbsg26
(idecision_tree
continuous_decision_tree
p4599
(dp4600
g2
F0.0
sg3
I66
sg4
(idecision_tree
continuous_decision_tree
p4601
(dp4602
g2
F-171.5
sg3
I67
sg4
(idecision_tree
decision_tree_leaf
p4603
(dp4604
g19
g20
(g21
tp4605
Rp4606
S'PKP'
p4607
I1
ssg25
g4607
sbsg26
(idecision_tree
decision_tree_leaf
p4608
(dp4609
g19
g20
(g21
tp4610
Rp4611
g24
I1
ssg25
g24
sbsbsg26
(idecision_tree
decision_tree_leaf
p4612
(dp4613
g19
g20
(g21
tp4614
Rp4615
g24
I3
ssg25
g24
sbsbsbsg26
(idecision_tree
continuous_decision_tree
p4616
(dp4617
g2
F-1.0
sg3
I66
sg4
(idecision_tree
continuous_decision_tree
p4618
(dp4619
g2
F-211.75
sg3
I67
sg4
(idecision_tree
decision_tree_leaf
p4620
(dp4621
g19
g20
(g21
tp4622
Rp4623
S'PKP'
p4624
I1
ssg25
g4624
sbsg26
(idecision_tree
decision_tree_leaf
p4625
(dp4626
g19
g20
(g21
tp4627
Rp4628
g24
I1
ssg25
g24
sbsbsg26
(idecision_tree
decision_tree_leaf
p4629
(dp4630
g19
g20
(g21
tp4631
Rp4632
g24
I3
ssg25
g24
sbsbsbsg26
(idecision_tree
continuous_decision_tree
p4633
(dp4634
g2
F0.0753373
sg3
I50
sg4
(idecision_tree
continuous_decision_tree
p4635
(dp4636
g2
F0.9911255
sg3
I35
sg4
(idecision_tree
continuous_decision_tree
p4637
(dp4638
g2
F4.0
sg3
I66
sg4
(idecision_tree
decision_tree_leaf
p4639
(dp4640
g19
g20
(g21
tp4641
Rp4642
g24
I1
ssg25
g24
sbsg26
(idecision_tree
continuous_decision_tree
p4643
(dp4644
g2
F0.5
sg3
I62
sg4
(idecision_tree
continuous_decision_tree
p4645
(dp4646
g2
F35.095349999999996
sg3
I44
sg4
(idecision_tree
continuous_decision_tree
p4647
(dp4648
g2
F71.5
sg3
I67
sg4
(idecision_tree
decision_tree_leaf
p4649
(dp4650
g19
g20
(g21
tp4651
Rp4652
S'Pn'
p4653
I1
ssg25
g4653
sbsg26
(idecision_tree
decision_tree_leaf
p4654
(dp4655
g19
g20
(g21
tp4656
Rp4657
g24
I1
ssg25
g24
sbsbsg26
(idecision_tree
decision_tree_leaf
p4658
(dp4659
g19
g20
(g21
tp4660
Rp4661
g24
I1
ssg25
g24
sbsbsg26
(idecision_tree
decision_tree_leaf
p4662
(dp4663
g19
g20
(g21
tp4664
Rp4665
g24
I1
ssg25
g24
sbsbsbsg26
(idecision_tree
continuous_decision_tree
p4666
(dp4667
g2
F-6.5
sg3
I63
sg4
(idecision_tree
continuous_decision_tree
p4668
(dp4669
g2
F-2.5
sg3
I59
sg4
(idecision_tree
continuous_decision_tree
p4670
(dp4671
g2
F3.67747
sg3
I39
sg4
(idecision_tree
continuous_decision_tree
p4672
(dp4673
g2
F18.0
sg3
I67
sg4
(idecision_tree
continuous_decision_tree
p4674
(dp4675
g2
F2.0
sg3
I62
sg4
(idecision_tree
continuous_decision_tree
p4676
(dp4677
g2
F5.0
sg3
I66
sg4
(idecision_tree
continuous_decision_tree
p4678
(dp4679
g2
F138.75
sg3
I67
sg4
(idecision_tree
decision_tree_leaf
p4680
(dp4681
g19
g20
(g21
tp4682
Rp4683
S'Pn'
p4684
I1
ssg25
g4684
sbsg26
(idecision_tree
decision_tree_leaf
p4685
(dp4686
g19
g20
(g21
tp4687
Rp4688
g24
I1
ssg25
g24
sbsbsg26
(idecision_tree
continuous_decision_tree
p4689
(dp4690
g2
F0.2376211
sg3
I51
sg4
(idecision_tree
decision_tree_leaf
p4691
(dp4692
g19
g20
(g21
tp4693
Rp4694
g24
I1
sS'Pn'
p4695
I1
ssg25
g24
sbsg26
(idecision_tree
decision_tree_leaf
p4696
(dp4697
g19
g20
(g21
tp4698
Rp4699
g24
I1
ssg25
g24
sbsbsbsg26
(idecision_tree
decision_tree_leaf
p4700
(dp4701
g19
g20
(g21
tp4702
Rp4703
g24
I1
ssg25
g24
sbsbsg26
(idecision_tree
continuous_decision_tree
p4704
(dp4705
g2
F-246.0
sg3
I67
sg4
(idecision_tree
continuous_decision_tree
p4706
(dp4707
g2
F-1.5
sg3
I66
sg4
(idecision_tree
continuous_decision_tree
p4708
(dp4709
g2
F-1.0
sg3
I63
sg4
(idecision_tree
continuous_decision_tree
p4710
(dp4711
g2
F0.3588
sg3
I48
sg4
(idecision_tree
continuous_decision_tree
p4712
(dp4713
g2
F55.30465
sg3
I40
sg4
(idecision_tree
continuous_decision_tree
p4714
(dp4715
g2
F0.36245649999999996
sg3
I49
sg4
(idecision_tree
continuous_decision_tree
p4716
(dp4717
g2
F0.6630665
sg3
I38
sg4
(idecision_tree
continuous_decision_tree
p4718
(dp4719
g2
F-104.0
sg3
I67
sg4
(idecision_tree
decision_tree_leaf
p4720
(dp4721
g19
g20
(g21
tp4722
Rp4723
g24
I1
ssg25
g24
sbsg26
(idecision_tree
decision_tree_leaf
p4724
(dp4725
g19
g20
(g21
tp4726
Rp4727
S'Pn'
p4728
I1
ssg25
g4728
sbsbsg26
(idecision_tree
decision_tree_leaf
p4729
(dp4730
g19
g20
(g21
tp4731
Rp4732
g24
I1
ssg25
g24
sbsbsg26
(idecision_tree
decision_tree_leaf
p4733
(dp4734
g19
g20
(g21
tp4735
Rp4736
g24
I1
ssg25
g24
sbsbsg26
(idecision_tree
decision_tree_leaf
p4737
(dp4738
g19
g20
(g21
tp4739
Rp4740
g24
I1
ssg25
g24
sbsbsg26
(idecision_tree
decision_tree_leaf
p4741
(dp4742
g19
g20
(g21
tp4743
Rp4744
g24
I1
ssg25
g24
sbsbsg26
(idecision_tree
decision_tree_leaf
p4745
(dp4746
g19
g20
(g21
tp4747
Rp4748
g24
I1
ssg25
g24
sbsbsg26
(idecision_tree
decision_tree_leaf
p4749
(dp4750
g19
g20
(g21
tp4751
Rp4752
g24
I1
ssg25
g24
sbsbsg26
(idecision_tree
decision_tree_leaf
p4753
(dp4754
g19
g20
(g21
tp4755
Rp4756
g24
I1
ssg25
g24
sbsbsbsg26
(idecision_tree
continuous_decision_tree
p4757
(dp4758
g2
F0.10061345
sg3
I50
sg4
(idecision_tree
continuous_decision_tree
p4759
(dp4760
g2
F0.982421
sg3
I35
sg4
(idecision_tree
continuous_decision_tree
p4761
(dp4762
g2
F3.5
sg3
I66
sg4
(idecision_tree
decision_tree_leaf
p4763
(dp4764
g19
g20
(g21
tp4765
Rp4766
g24
I1
ssg25
g24
sbsg26
(idecision_tree
continuous_decision_tree
p4767
(dp4768
g2
F54.8221
sg3
I40
sg4
(idecision_tree
continuous_decision_tree
p4769
(dp4770
g2
F0.9832624999999999
sg3
I35
sg4
(idecision_tree
continuous_decision_tree
p4771
(dp4772
g2
F9.66665
sg3
I67
sg4
(idecision_tree
decision_tree_leaf
p4773
(dp4774
g19
g20
(g21
tp4775
Rp4776
S'Pn'
p4777
I1
ssg25
g4777
sbsg26
(idecision_tree
decision_tree_leaf
p4778
(dp4779
g19
g20
(g21
tp4780
Rp4781
g24
I1
ssg25
g24
sbsbsg26
(idecision_tree
decision_tree_leaf
p4782
(dp4783
g19
g20
(g21
tp4784
Rp4785
g24
I1
ssg25
g24
sbsbsg26
(idecision_tree
decision_tree_leaf
p4786
(dp4787
g19
g20
(g21
tp4788
Rp4789
g24
I1
ssg25
g24
sbsbsbsg26
(idecision_tree
continuous_decision_tree
p4790
(dp4791
g2
F0.9686235
sg3
I35
sg4
(idecision_tree
continuous_decision_tree
p4792
(dp4793
g2
F0.3719285
sg3
I48
sg4
(idecision_tree
continuous_decision_tree
p4794
(dp4795
g2
F-68.5
sg3
I67
sg4
(idecision_tree
continuous_decision_tree
p4796
(dp4797
g2
F0.45599049999999997
sg3
I52
sg4
(idecision_tree
continuous_decision_tree
p4798
(dp4799
g2
F10.41665
sg3
I67
sg4
(idecision_tree
decision_tree_leaf
p4800
(dp4801
g19
g20
(g21
tp4802
Rp4803
g24
I1
ssg25
g24
sbsg26
(idecision_tree
decision_tree_leaf
p4804
(dp4805
g19
g20
(g21
tp4806
Rp4807
S'Pn'
p4808
I1
ssg25
g4808
sbsbsg26
(idecision_tree
decision_tree_leaf
p4809
(dp4810
g19
g20
(g21
tp4811
Rp4812
g24
I1
ssg25
g24
sbsbsg26
(idecision_tree
decision_tree_leaf
p4813
(dp4814
g19
g20
(g21
tp4815
Rp4816
g24
I1
ssg25
g24
sbsbsg26
(idecision_tree
decision_tree_leaf
p4817
(dp4818
g19
g20
(g21
tp4819
Rp4820
g24
I1
ssg25
g24
sbsbsg26
(idecision_tree
continuous_decision_tree
p4821
(dp4822
g2
F0.217825
sg3
I52
sg4
(idecision_tree
continuous_decision_tree
p4823
(dp4824
g2
F0.2661485
sg3
I52
sg4
(idecision_tree
continuous_decision_tree
p4825
(dp4826
g2
F140.0235
sg3
I67
sg4
(idecision_tree
continuous_decision_tree
p4827
(dp4828
g2
F6.166665
sg3
I63
sg4
(idecision_tree
continuous_decision_tree
p4829
(dp4830
g2
F5.5
sg3
I66
sg4
(idecision_tree
decision_tree_leaf
p4831
(dp4832
g19
g20
(g21
tp4833
Rp4834
g24
I1
ssg25
g24
sbsg26
(idecision_tree
continuous_decision_tree
p4835
(dp4836
g2
F98.75
sg3
I63
sg4
(idecision_tree
decision_tree_leaf
p4837
(dp4838
g19
g20
(g21
tp4839
Rp4840
g24
I1
ssg25
g24
sbsg26
(idecision_tree
decision_tree_leaf
p4841
(dp4842
g19
g20
(g21
tp4843
Rp4844
g24
I2
sS'PKP'
p4845
I1
ssg25
g24
sbsbsbsg26
(idecision_tree
continuous_decision_tree
p4846
(dp4847
g2
F0.336222
sg3
I52
sg4
(idecision_tree
continuous_decision_tree
p4848
(dp4849
g2
F0.6120205000000001
sg3
I51
sg4
(idecision_tree
decision_tree_leaf
p4850
(dp4851
g19
g20
(g21
tp4852
Rp4853
g24
I1
ssg25
g24
sbsg26
(idecision_tree
continuous_decision_tree
p4854
(dp4855
g2
F0.6436675000000001
sg3
I49
sg4
(idecision_tree
continuous_decision_tree
p4856
(dp4857
g2
F142.357
sg3
I67
sg4
(idecision_tree
decision_tree_leaf
p4858
(dp4859
g19
g20
(g21
tp4860
Rp4861
g24
I1
ssg25
g24
sbsg26
(idecision_tree
decision_tree_leaf
p4862
(dp4863
g19
g20
(g21
tp4864
Rp4865
S'Pn'
p4866
I1
ssg25
g4866
sbsbsg26
(idecision_tree
decision_tree_leaf
p4867
(dp4868
g19
g20
(g21
tp4869
Rp4870
g24
I1
ssg25
g24
sbsbsbsg26
(idecision_tree
decision_tree_leaf
p4871
(dp4872
g19
g20
(g21
tp4873
Rp4874
g24
I1
ssg25
g24
sbsbsbsg26
(idecision_tree
continuous_decision_tree
p4875
(dp4876
g2
F0.15860200000000002
sg3
I49
sg4
(idecision_tree
continuous_decision_tree
p4877
(dp4878
g2
F0.14367200000000002
sg3
I50
sg4
(idecision_tree
continuous_decision_tree
p4879
(dp4880
g2
F0.6933665
sg3
I35
sg4
(idecision_tree
continuous_decision_tree
p4881
(dp4882
g2
F-193.5
sg3
I67
sg4
(idecision_tree
continuous_decision_tree
p4883
(dp4884
g2
F0.205233
sg3
I37
sg4
(idecision_tree
continuous_decision_tree
p4885
(dp4886
g2
F29.089350000000003
sg3
I44
sg4
(idecision_tree
continuous_decision_tree
p4887
(dp4888
g2
F0.3423535
sg3
I48
sg4
(idecision_tree
continuous_decision_tree
p4889
(dp4890
g2
F59.875
sg3
I67
sg4
(idecision_tree
continuous_decision_tree
p4891
(dp4892
g2
F0.35814250000000003
sg3
I51
sg4
(idecision_tree
continuous_decision_tree
p4893
(dp4894
g2
F0.4874
sg3
I52
sg4
(idecision_tree
continuous_decision_tree
p4895
(dp4896
g2
F0.3163045
sg3
I50
sg4
(idecision_tree
continuous_decision_tree
p4897
(dp4898
g2
F80.0
sg3
I67
sg4
(idecision_tree
decision_tree_leaf
p4899
(dp4900
g19
g20
(g21
tp4901
Rp4902
g24
I1
ssg25
g24
sbsg26
(idecision_tree
decision_tree_leaf
p4903
(dp4904
g19
g20
(g21
tp4905
Rp4906
S'Pn'
p4907
I1
ssg25
g4907
sbsbsg26
(idecision_tree
decision_tree_leaf
p4908
(dp4909
g19
g20
(g21
tp4910
Rp4911
g24
I1
ssg25
g24
sbsbsg26
(idecision_tree
decision_tree_leaf
p4912
(dp4913
g19
g20
(g21
tp4914
Rp4915
g24
I1
ssg25
g24
sbsbsg26
(idecision_tree
decision_tree_leaf
p4916
(dp4917
g19
g20
(g21
tp4918
Rp4919
g24
I1
ssg25
g24
sbsbsg26
(idecision_tree
decision_tree_leaf
p4920
(dp4921
g19
g20
(g21
tp4922
Rp4923
g24
I47
sg92
I3
sS'Pn'
p4924
I4
sS'Sn'
p4925
I3
sS'Lg'
p4926
I2
ssg25
g24
sbsbsg26
(idecision_tree
decision_tree_leaf
p4927
(dp4928
g19
g20
(g21
tp4929
Rp4930
g24
I4
sg92
I1
ssg25
g24
sbsbsg26
(idecision_tree
continuous_decision_tree
p4931
(dp4932
g2
F0.6241129999999999
sg3
I52
sg4
(idecision_tree
continuous_decision_tree
p4933
(dp4934
g2
F0.262675
sg3
I50
sg4
(idecision_tree
continuous_decision_tree
p4935
(dp4936
g2
F0.26384
sg3
I51
sg4
(idecision_tree
decision_tree_leaf
p4937
(dp4938
g19
g20
(g21
tp4939
Rp4940
g24
I1
ssg25
g24
sbsg26
(idecision_tree
decision_tree_leaf
p4941
(dp4942
g19
g20
(g21
tp4943
Rp4944
g24
I2
sS'PKP'
p4945
I1
ssg25
g24
sbsbsg26
(idecision_tree
decision_tree_leaf
p4946
(dp4947
g19
g20
(g21
tp4948
Rp4949
g24
I1
ssg25
g24
sbsbsg26
(idecision_tree
continuous_decision_tree
p4950
(dp4951
g2
F0.594793
sg3
I48
sg4
(idecision_tree
decision_tree_leaf
p4952
(dp4953
g19
g20
(g21
tp4954
Rp4955
g24
I1
ssg25
g24
sbsg26
(idecision_tree
continuous_decision_tree
p4956
(dp4957
g2
F2.25
sg3
I63
sg4
(idecision_tree
decision_tree_leaf
p4958
(dp4959
g19
g20
(g21
tp4960
Rp4961
g24
I1
ssg25
g24
sbsg26
(idecision_tree
continuous_decision_tree
p4962
(dp4963
g2
F0.3953935
sg3
I52
sg4
(idecision_tree
continuous_decision_tree
p4964
(dp4965
g2
F-90.0
sg3
I67
sg4
(idecision_tree
decision_tree_leaf
p4966
(dp4967
g19
g20
(g21
tp4968
Rp4969
g24
I1
ssg25
g24
sbsg26
(idecision_tree
decision_tree_leaf
p4970
(dp4971
g19
g20
(g21
tp4972
Rp4973
S'PKP'
p4974
I1
ssg25
g4974
sbsbsg26
(idecision_tree
decision_tree_leaf
p4975
(dp4976
g19
g20
(g21
tp4977
Rp4978
g24
I1
ssg25
g24
sbsbsbsbsbsbsg26
(idecision_tree
continuous_decision_tree
p4979
(dp4980
g2
F0.1791045
sg3
I50
sg4
(idecision_tree
decision_tree_leaf
p4981
(dp4982
g19
g20
(g21
tp4983
Rp4984
g24
I8
sS'PKP'
p4985
I2
ssg25
g24
sbsg26
(idecision_tree
continuous_decision_tree
p4986
(dp4987
g2
F0.819591
sg3
I52
sg4
(idecision_tree
decision_tree_leaf
p4988
(dp4989
g19
g20
(g21
tp4990
Rp4991
g24
I1
ssg25
g24
sbsg26
(idecision_tree
decision_tree_leaf
p4992
(dp4993
g19
g20
(g21
tp4994
Rp4995
g24
I3
sS'PKP'
p4996
I1
ssg25
g24
sbsbsbsbsg26
(idecision_tree
continuous_decision_tree
p4997
(dp4998
g2
F0.8492345
sg3
I35
sg4
(idecision_tree
continuous_decision_tree
p4999
(dp5000
g2
F28.75
sg3
I63
sg4
(idecision_tree
decision_tree_leaf
p5001
(dp5002
g19
g20
(g21
tp5003
Rp5004
g24
I1
ssg25
g24
sbsg26
(idecision_tree
continuous_decision_tree
p5005
(dp5006
g2
F-229.75
sg3
I67
sg4
(idecision_tree
decision_tree_leaf
p5007
(dp5008
g19
g20
(g21
tp5009
Rp5010
g24
I1
ssg25
g24
sbsg26
(idecision_tree
continuous_decision_tree
p5011
(dp5012
g2
F0.818141
sg3
I34
sg4
(idecision_tree
continuous_decision_tree
p5013
(dp5014
g2
F-243.66649999999998
sg3
I67
sg4
(idecision_tree
decision_tree_leaf
p5015
(dp5016
g19
g20
(g21
tp5017
Rp5018
S'Lg'
p5019
I1
ssg25
g5019
sbsg26
(idecision_tree
decision_tree_leaf
p5020
(dp5021
g19
g20
(g21
tp5022
Rp5023
g24
I1
ssg25
g24
sbsbsg26
(idecision_tree
decision_tree_leaf
p5024
(dp5025
g19
g20
(g21
tp5026
Rp5027
g24
I1
ssg25
g24
sbsbsbsbsg26
(idecision_tree
continuous_decision_tree
p5028
(dp5029
g2
F0.5571969999999999
sg3
I48
sg4
(idecision_tree
decision_tree_leaf
p5030
(dp5031
g19
g20
(g21
tp5032
Rp5033
g24
I1
ssg25
g24
sbsg26
(idecision_tree
continuous_decision_tree
p5034
(dp5035
g2
F1.8831550000000001
sg3
I39
sg4
(idecision_tree
decision_tree_leaf
p5036
(dp5037
g19
g20
(g21
tp5038
Rp5039
g24
I1
ssg25
g24
sbsg26
(idecision_tree
continuous_decision_tree
p5040
(dp5041
g2
F-249.5
sg3
I67
sg4
(idecision_tree
continuous_decision_tree
p5042
(dp5043
g2
F-230.5
sg3
I67
sg4
(idecision_tree
decision_tree_leaf
p5044
(dp5045
g19
g20
(g21
tp5046
Rp5047
g92
I1
ssg25
g92
sbsg26
(idecision_tree
decision_tree_leaf
p5048
(dp5049
g19
g20
(g21
tp5050
Rp5051
g24
I1
ssg25
g24
sbsbsg26
(idecision_tree
decision_tree_leaf
p5052
(dp5053
g19
g20
(g21
tp5054
Rp5055
g24
I1
ssg25
g24
sbsbsbsbsbsbsg26
(idecision_tree
continuous_decision_tree
p5056
(dp5057
g2
F15.0
sg3
I63
sg4
(idecision_tree
decision_tree_leaf
p5058
(dp5059
g19
g20
(g21
tp5060
Rp5061
g24
I1
ssg25
g24
sbsg26
(idecision_tree
continuous_decision_tree
p5062
(dp5063
g2
F0.35832549999999996
sg3
I50
sg4
(idecision_tree
decision_tree_leaf
p5064
(dp5065
g19
g20
(g21
tp5066
Rp5067
g24
I1
ssg25
g24
sbsg26
(idecision_tree
continuous_decision_tree
p5068
(dp5069
g2
F42.987049999999996
sg3
I40
sg4
(idecision_tree
continuous_decision_tree
p5070
(dp5071
g2
F-73.6665
sg3
I67
sg4
(idecision_tree
decision_tree_leaf
p5072
(dp5073
g19
g20
(g21
tp5074
Rp5075
g24
I1
ssg25
g24
sbsg26
(idecision_tree
decision_tree_leaf
p5076
(dp5077
g19
g20
(g21
tp5078
Rp5079
S'Sn'
p5080
I1
ssg25
g5080
sbsbsg26
(idecision_tree
decision_tree_leaf
p5081
(dp5082
g19
g20
(g21
tp5083
Rp5084
g24
I1
ssg25
g24
sbsbsbsbsbsg26
(idecision_tree
continuous_decision_tree
p5085
(dp5086
g2
F0.5662655
sg3
I49
sg4
(idecision_tree
continuous_decision_tree
p5087
(dp5088
g2
F0.3998815
sg3
I51
sg4
(idecision_tree
decision_tree_leaf
p5089
(dp5090
g19
g20
(g21
tp5091
Rp5092
g24
I1
ssg25
g24
sbsg26
(idecision_tree
continuous_decision_tree
p5093
(dp5094
g2
F1.267395
sg3
I39
sg4
(idecision_tree
continuous_decision_tree
p5095
(dp5096
g2
F6.75
sg3
I67
sg4
(idecision_tree
decision_tree_leaf
p5097
(dp5098
g19
g20
(g21
tp5099
Rp5100
g24
I1
ssg25
g24
sbsg26
(idecision_tree
decision_tree_leaf
p5101
(dp5102
g19
g20
(g21
tp5103
Rp5104
S'PKP'
p5105
I1
ssg25
g5105
sbsbsg26
(idecision_tree
decision_tree_leaf
p5106
(dp5107
g19
g20
(g21
tp5108
Rp5109
g24
I1
ssg25
g24
sbsbsbsg26
(idecision_tree
decision_tree_leaf
p5110
(dp5111
g19
g20
(g21
tp5112
Rp5113
g24
I1
ssg25
g24
sbsbsbsg26
(idecision_tree
continuous_decision_tree
p5114
(dp5115
g2
F3.0
sg3
I67
sg4
(idecision_tree
continuous_decision_tree
p5116
(dp5117
g2
F0.5206905
sg3
I52
sg4
(idecision_tree
continuous_decision_tree
p5118
(dp5119
g2
F8.0
sg3
I63
sg4
(idecision_tree
continuous_decision_tree
p5120
(dp5121
g2
F0.13233
sg3
I49
sg4
(idecision_tree
continuous_decision_tree
p5122
(dp5123
g2
F101.25
sg3
I67
sg4
(idecision_tree
decision_tree_leaf
p5124
(dp5125
g19
g20
(g21
tp5126
Rp5127
S'PKP'
p5128
I1
ssg25
g5128
sbsg26
(idecision_tree
decision_tree_leaf
p5129
(dp5130
g19
g20
(g21
tp5131
Rp5132
g24
I1
ssg25
g24
sbsbsg26
(idecision_tree
decision_tree_leaf
p5133
(dp5134
g19
g20
(g21
tp5135
Rp5136
g24
I1
ssg25
g24
sbsbsg26
(idecision_tree
decision_tree_leaf
p5137
(dp5138
g19
g20
(g21
tp5139
Rp5140
g24
I1
ssg25
g24
sbsbsg26
(idecision_tree
decision_tree_leaf
p5141
(dp5142
g19
g20
(g21
tp5143
Rp5144
g24
I1
ssg25
g24
sbsbsg26
(idecision_tree
decision_tree_leaf
p5145
(dp5146
g19
g20
(g21
tp5147
Rp5148
g24
I4
sS'Pn'
p5149
I1
ssg25
g24
sbsbsbsbsg26
(idecision_tree
continuous_decision_tree
p5150
(dp5151
g2
F106.7
sg3
I67
sg4
(idecision_tree
decision_tree_leaf
p5152
(dp5153
g19
g20
(g21
tp5154
Rp5155
g24
I1
ssg25
g24
sbsg26
(idecision_tree
continuous_decision_tree
p5156
(dp5157
g2
F2.0
sg3
I66
sg4
(idecision_tree
decision_tree_leaf
p5158
(dp5159
g19
g20
(g21
tp5160
Rp5161
g24
I1
ssg25
g24
sbsg26
(idecision_tree
decision_tree_leaf
p5162
(dp5163
g19
g20
(g21
tp5164
Rp5165
g24
I2
sS'Pn'
p5166
I1
ssg25
g24
sbsbsbsbsg26
(idecision_tree
continuous_decision_tree
p5167
(dp5168
g2
F127.5
sg3
I67
sg4
(idecision_tree
decision_tree_leaf
p5169
(dp5170
g19
g20
(g21
tp5171
Rp5172
g24
I1
ssg25
g24
sbsg26
(idecision_tree
continuous_decision_tree
p5173
(dp5174
g2
F1.0
sg3
I66
sg4
(idecision_tree
continuous_decision_tree
p5175
(dp5176
g2
F0.244267
sg3
I51
sg4
(idecision_tree
continuous_decision_tree
p5177
(dp5178
g2
F34.5
sg3
I67
sg4
(idecision_tree
decision_tree_leaf
p5179
(dp5180
g19
g20
(g21
tp5181
Rp5182
S'Pn'
p5183
I1
ssg25
g5183
sbsg26
(idecision_tree
decision_tree_leaf
p5184
(dp5185
g19
g20
(g21
tp5186
Rp5187
g24
I1
ssg25
g24
sbsbsg26
(idecision_tree
decision_tree_leaf
p5188
(dp5189
g19
g20
(g21
tp5190
Rp5191
g24
I1
ssg25
g24
sbsbsg26
(idecision_tree
decision_tree_leaf
p5192
(dp5193
g19
g20
(g21
tp5194
Rp5195
g24
I1
ssg25
g24
sbsbsbsbsbsbsg26
(idecision_tree
continuous_decision_tree
p5196
(dp5197
g2
F0.9272165000000001
sg3
I52
sg4
(idecision_tree
decision_tree_leaf
p5198
(dp5199
g19
g20
(g21
tp5200
Rp5201
g24
I1
ssg25
g24
sbsg26
(idecision_tree
continuous_decision_tree
p5202
(dp5203
g2
F-160.2335
sg3
I67
sg4
(idecision_tree
continuous_decision_tree
p5204
(dp5205
g2
F0.0846503
sg3
I50
sg4
(idecision_tree
continuous_decision_tree
p5206
(dp5207
g2
F-53.7335
sg3
I67
sg4
(idecision_tree
decision_tree_leaf
p5208
(dp5209
g19
g20
(g21
tp5210
Rp5211
g24
I1
ssg25
g24
sbsg26
(idecision_tree
decision_tree_leaf
p5212
(dp5213
g19
g20
(g21
tp5214
Rp5215
S'PKP'
p5216
I1
ssg25
g5216
sbsbsg26
(idecision_tree
decision_tree_leaf
p5217
(dp5218
g19
g20
(g21
tp5219
Rp5220
g24
I1
ssg25
g24
sbsbsg26
(idecision_tree
decision_tree_leaf
p5221
(dp5222
g19
g20
(g21
tp5223
Rp5224
g24
I1
ssg25
g24
sbsbsbsbsbsg26
(idecision_tree
continuous_decision_tree
p5225
(dp5226
g2
F-58.375
sg3
I67
sg4
(idecision_tree
continuous_decision_tree
p5227
(dp5228
g2
F0.5
sg3
I66
sg4
(idecision_tree
decision_tree_leaf
p5229
(dp5230
g19
g20
(g21
tp5231
Rp5232
g24
I1
ssg25
g24
sbsg26
(idecision_tree
continuous_decision_tree
p5233
(dp5234
g2
F0.367272
sg3
I52
sg4
(idecision_tree
continuous_decision_tree
p5235
(dp5236
g2
F-4.5
sg3
I67
sg4
(idecision_tree
decision_tree_leaf
p5237
(dp5238
g19
g20
(g21
tp5239
Rp5240
g24
I1
ssg25
g24
sbsg26
(idecision_tree
decision_tree_leaf
p5241
(dp5242
g19
g20
(g21
tp5243
Rp5244
S'Pn'
p5245
I1
ssg25
g5245
sbsbsg26
(idecision_tree
decision_tree_leaf
p5246
(dp5247
g19
g20
(g21
tp5248
Rp5249
g24
I1
ssg25
g24
sbsbsbsg26
(idecision_tree
decision_tree_leaf
p5250
(dp5251
g19
g20
(g21
tp5252
Rp5253
g24
I1
ssg25
g24
sbsbsbsg26
(idecision_tree
continuous_decision_tree
p5254
(dp5255
g2
F0.9064585000000001
sg3
I35
sg4
(idecision_tree
continuous_decision_tree
p5256
(dp5257
g2
F-14.5
sg3
I59
sg4
(idecision_tree
continuous_decision_tree
p5258
(dp5259
g2
F-50.0
sg3
I67
sg4
(idecision_tree
continuous_decision_tree
p5260
(dp5261
g2
F0.49674
sg3
I48
sg4
(idecision_tree
decision_tree_leaf
p5262
(dp5263
g19
g20
(g21
tp5264
Rp5265
g24
I1
sg92
I1
ssg25
g24
sbsg26
(idecision_tree
decision_tree_leaf
p5266
(dp5267
g19
g20
(g21
tp5268
Rp5269
g24
I1
ssg25
g24
sbsbsg26
(idecision_tree
decision_tree_leaf
p5270
(dp5271
g19
g20
(g21
tp5272
Rp5273
g24
I1
ssg25
g24
sbsbsg26
(idecision_tree
decision_tree_leaf
p5274
(dp5275
g19
g20
(g21
tp5276
Rp5277
g24
I1
ssg25
g24
sbsbsg26
(idecision_tree
continuous_decision_tree
p5278
(dp5279
g2
F-4.0
sg3
I66
sg4
(idecision_tree
continuous_decision_tree
p5280
(dp5281
g2
F-1.5
sg3
I62
sg4
(idecision_tree
continuous_decision_tree
p5282
(dp5283
g2
F0.6846505
sg3
I51
sg4
(idecision_tree
continuous_decision_tree
p5284
(dp5285
g2
F-61.1719
sg3
I67
sg4
(idecision_tree
decision_tree_leaf
p5286
(dp5287
g19
g20
(g21
tp5288
Rp5289
S'Lg'
p5290
I1
ssg25
g5290
sbsg26
(idecision_tree
decision_tree_leaf
p5291
(dp5292
g19
g20
(g21
tp5293
Rp5294
g24
I1
ssg25
g24
sbsbsg26
(idecision_tree
decision_tree_leaf
p5295
(dp5296
g19
g20
(g21
tp5297
Rp5298
g24
I1
ssg25
g24
sbsbsg26
(idecision_tree
decision_tree_leaf
p5299
(dp5300
g19
g20
(g21
tp5301
Rp5302
g24
I1
ssg25
g24
sbsbsg26
(idecision_tree
decision_tree_leaf
p5303
(dp5304
g19
g20
(g21
tp5305
Rp5306
g24
I1
ssg25
g24
sbsbsbsbsbsg26
(idecision_tree
continuous_decision_tree
p5307
(dp5308
g2
F0.6325514999999999
sg3
I52
sg4
(idecision_tree
decision_tree_leaf
p5309
(dp5310
g19
g20
(g21
tp5311
Rp5312
g24
I1
ssg25
g24
sbsg26
(idecision_tree
continuous_decision_tree
p5313
(dp5314
g2
F6.0
sg3
I67
sg4
(idecision_tree
continuous_decision_tree
p5315
(dp5316
g2
F0.21709394999999998
sg3
I49
sg4
(idecision_tree
continuous_decision_tree
p5317
(dp5318
g2
F18.41665
sg3
I67
sg4
(idecision_tree
decision_tree_leaf
p5319
(dp5320
g19
g20
(g21
tp5321
Rp5322
g24
I1
ssg25
g24
sbsg26
(idecision_tree
decision_tree_leaf
p5323
(dp5324
g19
g20
(g21
tp5325
Rp5326
S'PKP'
p5327
I1
ssg25
g5327
sbsbsg26
(idecision_tree
decision_tree_leaf
p5328
(dp5329
g19
g20
(g21
tp5330
Rp5331
g24
I1
ssg25
g24
sbsbsg26
(idecision_tree
decision_tree_leaf
p5332
(dp5333
g19
g20
(g21
tp5334
Rp5335
g24
I1
ssg25
g24
sbsbsbsbsbsg26
(idecision_tree
continuous_decision_tree
p5336
(dp5337
g2
F0.997729
sg3
I35
sg4
(idecision_tree
continuous_decision_tree
p5338
(dp5339
g2
F0.5
sg3
I66
sg4
(idecision_tree
continuous_decision_tree
p5340
(dp5341
g2
F0.05760985
sg3
I51
sg4
(idecision_tree
decision_tree_leaf
p5342
(dp5343
g19
g20
(g21
tp5344
Rp5345
g24
I2
sS'PKP'
p5346
I1
ssg25
g24
sbsg26
(idecision_tree
decision_tree_leaf
p5347
(dp5348
g19
g20
(g21
tp5349
Rp5350
g24
I1
ssg25
g24
sbsbsg26
(idecision_tree
decision_tree_leaf
p5351
(dp5352
g19
g20
(g21
tp5353
Rp5354
g24
I1
ssg25
g24
sbsbsg26
(idecision_tree
decision_tree_leaf
p5355
(dp5356
g19
g20
(g21
tp5357
Rp5358
S'Lg'
p5359
I1
sS'PKP'
p5360
I41
sg24
I294
sg92
I6
sS'Sn'
p5361
I3
sS'Pn'
p5362
I23
ssg25
g24
sbsbsbsg26
(idecision_tree
continuous_decision_tree
p5363
(dp5364
g2
F1.7227999999999999
sg3
I39
sg4
(idecision_tree
decision_tree_leaf
p5365
(dp5366
g19
g20
(g21
tp5367
Rp5368
S'Lg'
p5369
I3
sS'PKP'
p5370
I9
sg24
I129
sg92
I12
sS'Sn'
p5371
I4
sS'Pn'
p5372
I12
ssg25
g24
sbsg26
(idecision_tree
continuous_decision_tree
p5373
(dp5374
g2
F-8.0
sg3
I63
sg4
(idecision_tree
continuous_decision_tree
p5375
(dp5376
g2
F-5.75
sg3
I63
sg4
(idecision_tree
continuous_decision_tree
p5377
(dp5378
g2
F-1.0
sg3
I66
sg4
(idecision_tree
continuous_decision_tree
p5379
(dp5380
g2
F42.0
sg3
I67
sg4
(idecision_tree
continuous_decision_tree
p5381
(dp5382
g2
F120.3335
sg3
I67
sg4
(idecision_tree
continuous_decision_tree
p5383
(dp5384
g2
F172.9835
sg3
I67
sg4
(idecision_tree
decision_tree_leaf
p5385
(dp5386
g19
g20
(g21
tp5387
Rp5388
g24
I1
ssg25
g24
sbsg26
(idecision_tree
decision_tree_leaf
p5389
(dp5390
g19
g20
(g21
tp5391
Rp5392
S'Pn'
p5393
I1
ssg25
g5393
sbsbsg26
(idecision_tree
decision_tree_leaf
p5394
(dp5395
g19
g20
(g21
tp5396
Rp5397
g24
I1
ssg25
g24
sbsbsg26
(idecision_tree
decision_tree_leaf
p5398
(dp5399
g19
g20
(g21
tp5400
Rp5401
g24
I3
sS'Sn'
p5402
I1
ssg25
g24
sbsbsg26
(idecision_tree
continuous_decision_tree
p5403
(dp5404
g2
F-52.8333335
sg3
I67
sg4
(idecision_tree
decision_tree_leaf
p5405
(dp5406
g19
g20
(g21
tp5407
Rp5408
g24
I1
ssg25
g24
sbsg26
(idecision_tree
decision_tree_leaf
p5409
(dp5410
g19
g20
(g21
tp5411
Rp5412
g24
I2
sg92
I1
ssg25
g24
sbsbsbsg26
(idecision_tree
decision_tree_leaf
p5413
(dp5414
g19
g20
(g21
tp5415
Rp5416
g24
I11
sS'PKP'
p5417
I3
sS'Pn'
p5418
I1
ssg25
g24
sbsbsg26
(idecision_tree
continuous_decision_tree
p5419
(dp5420
g2
F-1.0
sg3
I62
sg4
(idecision_tree
continuous_decision_tree
p5421
(dp5422
g2
F-10.0
sg3
I63
sg4
(idecision_tree
decision_tree_leaf
p5423
(dp5424
g19
g20
(g21
tp5425
Rp5426
g24
I3
sS'PKP'
p5427
I2
ssg25
g24
sbsg26
(idecision_tree
continuous_decision_tree
p5428
(dp5429
g2
F1.46803
sg3
I39
sg4
(idecision_tree
decision_tree_leaf
p5430
(dp5431
g19
g20
(g21
tp5432
Rp5433
g24
I8
sS'PKP'
p5434
I1
sS'Pn'
p5435
I1
ssg25
g24
sbsg26
(idecision_tree
continuous_decision_tree
p5436
(dp5437
g2
F0.4066395
sg3
I51
sg4
(idecision_tree
decision_tree_leaf
p5438
(dp5439
g19
g20
(g21
tp5440
Rp5441
g24
I1
ssg25
g24
sbsg26
(idecision_tree
decision_tree_leaf
p5442
(dp5443
g19
g20
(g21
tp5444
Rp5445
g24
I3
sS'PKP'
p5446
I1
ssg25
g24
sbsbsbsbsg26
(idecision_tree
continuous_decision_tree
p5447
(dp5448
g2
F-39.625
sg3
I63
sg4
(idecision_tree
continuous_decision_tree
p5449
(dp5450
g2
F-12.25
sg3
I63
sg4
(idecision_tree
continuous_decision_tree
p5451
(dp5452
g2
F9.25
sg3
I67
sg4
(idecision_tree
decision_tree_leaf
p5453
(dp5454
g19
g20
(g21
tp5455
Rp5456
g24
I1
ssg25
g24
sbsg26
(idecision_tree
continuous_decision_tree
p5457
(dp5458
g2
F-3.5
sg3
I66
sg4
(idecision_tree
continuous_decision_tree
p5459
(dp5460
g2
F0.159145
sg3
I49
sg4
(idecision_tree
continuous_decision_tree
p5461
(dp5462
g2
F-10.25
sg3
I67
sg4
(idecision_tree
decision_tree_leaf
p5463
(dp5464
g19
g20
(g21
tp5465
Rp5466
S'PKP'
p5467
I1
ssg25
g5467
sbsg26
(idecision_tree
decision_tree_leaf
p5468
(dp5469
g19
g20
(g21
tp5470
Rp5471
g24
I1
ssg25
g24
sbsbsg26
(idecision_tree
decision_tree_leaf
p5472
(dp5473
g19
g20
(g21
tp5474
Rp5475
g24
I1
ssg25
g24
sbsbsg26
(idecision_tree
decision_tree_leaf
p5476
(dp5477
g19
g20
(g21
tp5478
Rp5479
g24
I1
ssg25
g24
sbsbsbsg26
(idecision_tree
continuous_decision_tree
p5480
(dp5481
g2
F-2.0
sg3
I66
sg4
(idecision_tree
continuous_decision_tree
p5482
(dp5483
g2
F0.5913094999999999
sg3
I52
sg4
(idecision_tree
continuous_decision_tree
p5484
(dp5485
g2
F0.4064625
sg3
I51
sg4
(idecision_tree
continuous_decision_tree
p5486
(dp5487
g2
F0.7237495
sg3
I52
sg4
(idecision_tree
decision_tree_leaf
p5488
(dp5489
g19
g20
(g21
tp5490
Rp5491
g24
I1
ssg25
g24
sbsg26
(idecision_tree
continuous_decision_tree
p5492
(dp5493
g2
F0.258075
sg3
I50
sg4
(idecision_tree
continuous_decision_tree
p5494
(dp5495
g2
F-18.75
sg3
I67
sg4
(idecision_tree
decision_tree_leaf
p5496
(dp5497
g19
g20
(g21
tp5498
Rp5499
S'PKP'
p5500
I1
ssg25
g5500
sbsg26
(idecision_tree
decision_tree_leaf
p5501
(dp5502
g19
g20
(g21
tp5503
Rp5504
g24
I1
ssg25
g24
sbsbsg26
(idecision_tree
decision_tree_leaf
p5505
(dp5506
g19
g20
(g21
tp5507
Rp5508
g24
I1
ssg25
g24
sbsbsbsg26
(idecision_tree
continuous_decision_tree
p5509
(dp5510
g2
F-23.5625
sg3
I67
sg4
(idecision_tree
continuous_decision_tree
p5511
(dp5512
g2
F0.7415575
sg3
I52
sg4
(idecision_tree
continuous_decision_tree
p5513
(dp5514
g2
F-17.3125
sg3
I67
sg4
(idecision_tree
decision_tree_leaf
p5515
(dp5516
g19
g20
(g21
tp5517
Rp5518
g24
I1
ssg25
g24
sbsg26
(idecision_tree
decision_tree_leaf
p5519
(dp5520
g19
g20
(g21
tp5521
Rp5522
S'PKP'
p5523
I1
ssg25
g5523
sbsbsg26
(idecision_tree
decision_tree_leaf
p5524
(dp5525
g19
g20
(g21
tp5526
Rp5527
g24
I1
ssg25
g24
sbsbsg26
(idecision_tree
decision_tree_leaf
p5528
(dp5529
g19
g20
(g21
tp5530
Rp5531
g24
I1
ssg25
g24
sbsbsbsg26
(idecision_tree
decision_tree_leaf
p5532
(dp5533
g19
g20
(g21
tp5534
Rp5535
g24
I6
sS'PKP'
p5536
I2
ssg25
g24
sbsbsg26
(idecision_tree
decision_tree_leaf
p5537
(dp5538
g19
g20
(g21
tp5539
Rp5540
g24
I4
ssg25
g24
sbsbsbsg26
(idecision_tree
continuous_decision_tree
p5541
(dp5542
g2
F-58.08335
sg3
I63
sg4
(idecision_tree
continuous_decision_tree
p5543
(dp5544
g2
F-84.5895
sg3
I67
sg4
(idecision_tree
continuous_decision_tree
p5545
(dp5546
g2
F0.407992
sg3
I52
sg4
(idecision_tree
continuous_decision_tree
p5547
(dp5548
g2
F-46.625
sg3
I67
sg4
(idecision_tree
decision_tree_leaf
p5549
(dp5550
g19
g20
(g21
tp5551
Rp5552
g24
I1
ssg25
g24
sbsg26
(idecision_tree
decision_tree_leaf
p5553
(dp5554
g19
g20
(g21
tp5555
Rp5556
S'PKP'
p5557
I1
ssg25
g5557
sbsbsg26
(idecision_tree
decision_tree_leaf
p5558
(dp5559
g19
g20
(g21
tp5560
Rp5561
g24
I1
ssg25
g24
sbsbsg26
(idecision_tree
decision_tree_leaf
p5562
(dp5563
g19
g20
(g21
tp5564
Rp5565
g24
I1
ssg25
g24
sbsbsg26
(idecision_tree
decision_tree_leaf
p5566
(dp5567
g19
g20
(g21
tp5568
Rp5569
g24
I1
ssg25
g24
sbsbsbsbsbsbsbsbsg26
(idecision_tree
continuous_decision_tree
p5570
(dp5571
g2
F-1.0
sg3
I62
sg4
(idecision_tree
continuous_decision_tree
p5572
(dp5573
g2
F0.215576
sg3
I48
sg4
(idecision_tree
continuous_decision_tree
p5574
(dp5575
g2
F11.0
sg3
I63
sg4
(idecision_tree
continuous_decision_tree
p5576
(dp5577
g2
F11.0
sg3
I59
sg4
(idecision_tree
continuous_decision_tree
p5578
(dp5579
g2
F0.3317755
sg3
I49
sg4
(idecision_tree
continuous_decision_tree
p5580
(dp5581
g2
F0.30200150000000003
sg3
I52
sg4
(idecision_tree
continuous_decision_tree
p5582
(dp5583
g2
F2.0
sg3
I62
sg4
(idecision_tree
continuous_decision_tree
p5584
(dp5585
g2
F15.9375
sg3
I63
sg4
(idecision_tree
continuous_decision_tree
p5586
(dp5587
g2
F-134.5
sg3
I67
sg4
(idecision_tree
decision_tree_leaf
p5588
(dp5589
g19
g20
(g21
tp5590
Rp5591
g24
I2
sg92
I1
ssg25
g24
sbsg26
(idecision_tree
decision_tree_leaf
p5592
(dp5593
g19
g20
(g21
tp5594
Rp5595
g24
I1
ssg25
g24
sbsbsg26
(idecision_tree
continuous_decision_tree
p5596
(dp5597
g2
F3.0
sg3
I66
sg4
(idecision_tree
decision_tree_leaf
p5598
(dp5599
g19
g20
(g21
tp5600
Rp5601
g24
I4
sS'Pn'
p5602
I2
ssg25
g24
sbsg26
(idecision_tree
decision_tree_leaf
p5603
(dp5604
g19
g20
(g21
tp5605
Rp5606
g24
I3
ssg25
g24
sbsbsbsg26
(idecision_tree
continuous_decision_tree
p5607
(dp5608
g2
F-60.0
sg3
I67
sg4
(idecision_tree
decision_tree_leaf
p5609
(dp5610
g19
g20
(g21
tp5611
Rp5612
S'Pn'
p5613
I1
ssg25
g5613
sbsg26
(idecision_tree
decision_tree_leaf
p5614
(dp5615
g19
g20
(g21
tp5616
Rp5617
g24
I1
ssg25
g24
sbsbsbsg26
(idecision_tree
continuous_decision_tree
p5618
(dp5619
g2
F47.9167
sg3
I67
sg4
(idecision_tree
continuous_decision_tree
p5620
(dp5621
g2
F7.0
sg3
I66
sg4
(idecision_tree
decision_tree_leaf
p5622
(dp5623
g19
g20
(g21
tp5624
Rp5625
g24
I1
ssg25
g24
sbsg26
(idecision_tree
continuous_decision_tree
p5626
(dp5627
g2
F2.5
sg3
I62
sg4
(idecision_tree
continuous_decision_tree
p5628
(dp5629
g2
F63.916700000000006
sg3
I67
sg4
(idecision_tree
decision_tree_leaf
p5630
(dp5631
g19
g20
(g21
tp5632
Rp5633
S'Pn'
p5634
I1
ssg25
g5634
sbsg26
(idecision_tree
decision_tree_leaf
p5635
(dp5636
g19
g20
(g21
tp5637
Rp5638
g24
I1
ssg25
g24
sbsbsg26
(idecision_tree
decision_tree_leaf
p5639
(dp5640
g19
g20
(g21
tp5641
Rp5642
g24
I1
ssg25
g24
sbsbsbsg26
(idecision_tree
continuous_decision_tree
p5643
(dp5644
g2
F0.3441685
sg3
I51
sg4
(idecision_tree
continuous_decision_tree
p5645
(dp5646
g2
F0.2686625
sg3
I50
sg4
(idecision_tree
continuous_decision_tree
p5647
(dp5648
g2
F0.467757
sg3
I48
sg4
(idecision_tree
continuous_decision_tree
p5649
(dp5650
g2
F34.208349999999996
sg3
I67
sg4
(idecision_tree
decision_tree_leaf
p5651
(dp5652
g19
g20
(g21
tp5653
Rp5654
S'Pn'
p5655
I1
ssg25
g5655
sbsg26
(idecision_tree
decision_tree_leaf
p5656
(dp5657
g19
g20
(g21
tp5658
Rp5659
g24
I1
ssg25
g24
sbsbsg26
(idecision_tree
decision_tree_leaf
p5660
(dp5661
g19
g20
(g21
tp5662
Rp5663
g24
I1
ssg25
g24
sbsbsg26
(idecision_tree
decision_tree_leaf
p5664
(dp5665
g19
g20
(g21
tp5666
Rp5667
g24
I1
ssg25
g24
sbsbsg26
(idecision_tree
continuous_decision_tree
p5668
(dp5669
g2
F0.323871
sg3
I48
sg4
(idecision_tree
continuous_decision_tree
p5670
(dp5671
g2
F-71.75
sg3
I67
sg4
(idecision_tree
decision_tree_leaf
p5672
(dp5673
g19
g20
(g21
tp5674
Rp5675
g24
I1
ssg25
g24
sbsg26
(idecision_tree
decision_tree_leaf
p5676
(dp5677
g19
g20
(g21
tp5678
Rp5679
S'Pn'
p5680
I1
ssg25
g5680
sbsbsg26
(idecision_tree
decision_tree_leaf
p5681
(dp5682
g19
g20
(g21
tp5683
Rp5684
g24
I1
ssg25
g24
sbsbsbsbsbsg26
(idecision_tree
continuous_decision_tree
p5685
(dp5686
g2
F30.58335
sg3
I63
sg4
(idecision_tree
decision_tree_leaf
p5687
(dp5688
g19
g20
(g21
tp5689
Rp5690
g24
I3
sS'Pn'
p5691
I1
ssg25
g24
sbsg26
(idecision_tree
continuous_decision_tree
p5692
(dp5693
g2
F2.0
sg3
I62
sg4
(idecision_tree
continuous_decision_tree
p5694
(dp5695
g2
F6.0
sg3
I66
sg4
(idecision_tree
continuous_decision_tree
p5696
(dp5697
g2
F61.08855
sg3
I67
sg4
(idecision_tree
continuous_decision_tree
p5698
(dp5699
g2
F108.25540000000001
sg3
I67
sg4
(idecision_tree
decision_tree_leaf
p5700
(dp5701
g19
g20
(g21
tp5702
Rp5703
S'PKP'
p5704
I1
ssg25
g5704
sbsg26
(idecision_tree
decision_tree_leaf
p5705
(dp5706
g19
g20
(g21
tp5707
Rp5708
S'Pn'
p5709
I1
ssg25
g5709
sbsbsg26
(idecision_tree
decision_tree_leaf
p5710
(dp5711
g19
g20
(g21
tp5712
Rp5713
g24
I1
ssg25
g24
sbsbsg26
(idecision_tree
decision_tree_leaf
p5714
(dp5715
g19
g20
(g21
tp5716
Rp5717
g24
I2
ssg25
g24
sbsbsg26
(idecision_tree
decision_tree_leaf
p5718
(dp5719
g19
g20
(g21
tp5720
Rp5721
g24
I2
ssg25
g24
sbsbsbsbsg26
(idecision_tree
continuous_decision_tree
p5722
(dp5723
g2
F26.875
sg3
I63
sg4
(idecision_tree
continuous_decision_tree
p5724
(dp5725
g2
F2.0
sg3
I62
sg4
(idecision_tree
decision_tree_leaf
p5726
(dp5727
g19
g20
(g21
tp5728
Rp5729
g24
I4
sS'Pn'
p5730
I1
ssg25
g24
sbsg26
(idecision_tree
decision_tree_leaf
p5731
(dp5732
g19
g20
(g21
tp5733
Rp5734
g24
I1
ssg25
g24
sbsbsg26
(idecision_tree
decision_tree_leaf
p5735
(dp5736
g19
g20
(g21
tp5737
Rp5738
g24
I1
ssg25
g24
sbsbsbsg26
(idecision_tree
continuous_decision_tree
p5739
(dp5740
g2
F0.0
sg3
I67
sg4
(idecision_tree
continuous_decision_tree
p5741
(dp5742
g2
F0.34609599999999996
sg3
I52
sg4
(idecision_tree
continuous_decision_tree
p5743
(dp5744
g2
F132.0165
sg3
I67
sg4
(idecision_tree
continuous_decision_tree
p5745
(dp5746
g2
F0.8416255
sg3
I50
sg4
(idecision_tree
decision_tree_leaf
p5747
(dp5748
g19
g20
(g21
tp5749
Rp5750
g24
I2
ssg25
g24
sbsg26
(idecision_tree
continuous_decision_tree
p5751
(dp5752
g2
F4.562685
sg3
I39
sg4
(idecision_tree
decision_tree_leaf
p5753
(dp5754
g19
g20
(g21
tp5755
Rp5756
g24
I1
ssg25
g24
sbsg26
(idecision_tree
continuous_decision_tree
p5757
(dp5758
g2
F0.9234795
sg3
I34
sg4
(idecision_tree
continuous_decision_tree
p5759
(dp5760
g2
F157.41649999999998
sg3
I67
sg4
(idecision_tree
decision_tree_leaf
p5761
(dp5762
g19
g20
(g21
tp5763
Rp5764
g24
I2
ssg25
g24
sbsg26
(idecision_tree
decision_tree_leaf
p5765
(dp5766
g19
g20
(g21
tp5767
Rp5768
S'Sn'
p5769
I1
ssg25
g5769
sbsbsg26
(idecision_tree
decision_tree_leaf
p5770
(dp5771
g19
g20
(g21
tp5772
Rp5773
g24
I1
ssg25
g24
sbsbsbsbsg26
(idecision_tree
continuous_decision_tree
p5774
(dp5775
g2
F0.387177
sg3
I49
sg4
(idecision_tree
decision_tree_leaf
p5776
(dp5777
g19
g20
(g21
tp5778
Rp5779
g24
I11
sS'PKP'
p5780
I1
sS'Pn'
p5781
I1
ssg25
g24
sbsg26
(idecision_tree
continuous_decision_tree
p5782
(dp5783
g2
F0.625
sg3
I67
sg4
(idecision_tree
decision_tree_leaf
p5784
(dp5785
g19
g20
(g21
tp5786
Rp5787
g24
I2
ssg25
g24
sbsg26
(idecision_tree
continuous_decision_tree
p5788
(dp5789
g2
F0.393205
sg3
I50
sg4
(idecision_tree
continuous_decision_tree
p5790
(dp5791
g2
F0.8540650000000001
sg3
I34
sg4
(idecision_tree
decision_tree_leaf
p5792
(dp5793
g19
g20
(g21
tp5794
Rp5795
g24
I1
sS'Sn'
p5796
I1
ssg25
g24
sbsg26
(idecision_tree
decision_tree_leaf
p5797
(dp5798
g19
g20
(g21
tp5799
Rp5800
g24
I1
ssg25
g24
sbsbsg26
(idecision_tree
decision_tree_leaf
p5801
(dp5802
g19
g20
(g21
tp5803
Rp5804
g24
I2
ssg25
g24
sbsbsbsbsbsg26
(idecision_tree
continuous_decision_tree
p5805
(dp5806
g2
F0.3235265
sg3
I38
sg4
(idecision_tree
continuous_decision_tree
p5807
(dp5808
g2
F0.448229
sg3
I50
sg4
(idecision_tree
continuous_decision_tree
p5809
(dp5810
g2
F0.43666150000000004
sg3
I48
sg4
(idecision_tree
continuous_decision_tree
p5811
(dp5812
g2
F3.5
sg3
I66
sg4
(idecision_tree
decision_tree_leaf
p5813
(dp5814
g19
g20
(g21
tp5815
Rp5816
g24
I1
ssg25
g24
sbsg26
(idecision_tree
continuous_decision_tree
p5817
(dp5818
g2
F0.9769945
sg3
I35
sg4
(idecision_tree
decision_tree_leaf
p5819
(dp5820
g19
g20
(g21
tp5821
Rp5822
g24
I1
ssg25
g24
sbsg26
(idecision_tree
continuous_decision_tree
p5823
(dp5824
g2
F80.7711
sg3
I40
sg4
(idecision_tree
decision_tree_leaf
p5825
(dp5826
g19
g20
(g21
tp5827
Rp5828
g24
I1
ssg25
g24
sbsg26
(idecision_tree
continuous_decision_tree
p5829
(dp5830
g2
F0.49642949999999997
sg3
I48
sg4
(idecision_tree
decision_tree_leaf
p5831
(dp5832
g19
g20
(g21
tp5833
Rp5834
g24
I1
ssg25
g24
sbsg26
(idecision_tree
continuous_decision_tree
p5835
(dp5836
g2
F97.75
sg3
I67
sg4
(idecision_tree
continuous_decision_tree
p5837
(dp5838
g2
F122.625
sg3
I67
sg4
(idecision_tree
decision_tree_leaf
p5839
(dp5840
g19
g20
(g21
tp5841
Rp5842
S'Pn'
p5843
I1
ssg25
g5843
sbsg26
(idecision_tree
decision_tree_leaf
p5844
(dp5845
g19
g20
(g21
tp5846
Rp5847
g24
I1
ssg25
g24
sbsbsg26
(idecision_tree
decision_tree_leaf
p5848
(dp5849
g19
g20
(g21
tp5850
Rp5851
g24
I1
ssg25
g24
sbsbsbsbsbsbsg26
(idecision_tree
continuous_decision_tree
p5852
(dp5853
g2
F5.0
sg3
I67
sg4
(idecision_tree
decision_tree_leaf
p5854
(dp5855
g19
g20
(g21
tp5856
Rp5857
g24
I4
sS'Pn'
p5858
I1
ssg25
g24
sbsg26
(idecision_tree
decision_tree_leaf
p5859
(dp5860
g19
g20
(g21
tp5861
Rp5862
g24
I1
ssg25
g24
sbsbsbsg26
(idecision_tree
continuous_decision_tree
p5863
(dp5864
g2
F1.2827000000000002
sg3
I51
sg4
(idecision_tree
decision_tree_leaf
p5865
(dp5866
g19
g20
(g21
tp5867
Rp5868
g24
I1
ssg25
g24
sbsg26
(idecision_tree
continuous_decision_tree
p5869
(dp5870
g2
F0.162862
sg3
I50
sg4
(idecision_tree
continuous_decision_tree
p5871
(dp5872
g2
F10.6094
sg3
I67
sg4
(idecision_tree
continuous_decision_tree
p5873
(dp5874
g2
F0.560284
sg3
I49
sg4
(idecision_tree
continuous_decision_tree
p5875
(dp5876
g2
F25.7188
sg3
I67
sg4
(idecision_tree
decision_tree_leaf
p5877
(dp5878
g19
g20
(g21
tp5879
Rp5880
g24
I2
ssg25
g24
sbsg26
(idecision_tree
decision_tree_leaf
p5881
(dp5882
g19
g20
(g21
tp5883
Rp5884
S'Pn'
p5885
I1
ssg25
g5885
sbsbsg26
(idecision_tree
decision_tree_leaf
p5886
(dp5887
g19
g20
(g21
tp5888
Rp5889
g24
I1
ssg25
g24
sbsbsg26
(idecision_tree
decision_tree_leaf
p5890
(dp5891
g19
g20
(g21
tp5892
Rp5893
g24
I1
ssg25
g24
sbsbsg26
(idecision_tree
decision_tree_leaf
p5894
(dp5895
g19
g20
(g21
tp5896
Rp5897
g24
I1
ssg25
g24
sbsbsbsbsg26
(idecision_tree
continuous_decision_tree
p5898
(dp5899
g2
F0.369189
sg3
I51
sg4
(idecision_tree
continuous_decision_tree
p5900
(dp5901
g2
F57.0
sg3
I67
sg4
(idecision_tree
decision_tree_leaf
p5902
(dp5903
g19
g20
(g21
tp5904
Rp5905
g24
I1
ssg25
g24
sbsg26
(idecision_tree
continuous_decision_tree
p5906
(dp5907
g2
F0.2962975
sg3
I52
sg4
(idecision_tree
decision_tree_leaf
p5908
(dp5909
g19
g20
(g21
tp5910
Rp5911
g24
I1
ssg25
g24
sbsg26
(idecision_tree
continuous_decision_tree
p5912
(dp5913
g2
F0.41261950000000003
sg3
I48
sg4
(idecision_tree
decision_tree_leaf
p5914
(dp5915
g19
g20
(g21
tp5916
Rp5917
g24
I1
ssg25
g24
sbsg26
(idecision_tree
continuous_decision_tree
p5918
(dp5919
g2
F25.91865
sg3
I44
sg4
(idecision_tree
continuous_decision_tree
p5920
(dp5921
g2
F27.33335
sg3
I67
sg4
(idecision_tree
decision_tree_leaf
p5922
(dp5923
g19
g20
(g21
tp5924
Rp5925
S'Pn'
p5926
I1
ssg25
g5926
sbsg26
(idecision_tree
decision_tree_leaf
p5927
(dp5928
g19
g20
(g21
tp5929
Rp5930
g24
I1
ssg25
g24
sbsbsg26
(idecision_tree
decision_tree_leaf
p5931
(dp5932
g19
g20
(g21
tp5933
Rp5934
g24
I1
ssg25
g24
sbsbsbsbsbsg26
(idecision_tree
continuous_decision_tree
p5935
(dp5936
g2
F96.0
sg3
I67
sg4
(idecision_tree
decision_tree_leaf
p5937
(dp5938
g19
g20
(g21
tp5939
Rp5940
g24
I1
ssg25
g24
sbsg26
(idecision_tree
continuous_decision_tree
p5941
(dp5942
g2
F1.0
sg3
I66
sg4
(idecision_tree
continuous_decision_tree
p5943
(dp5944
g2
F17.75
sg3
I67
sg4
(idecision_tree
decision_tree_leaf
p5945
(dp5946
g19
g20
(g21
tp5947
Rp5948
S'Pn'
p5949
I1
ssg25
g5949
sbsg26
(idecision_tree
decision_tree_leaf
p5950
(dp5951
g19
g20
(g21
tp5952
Rp5953
g24
I1
ssg25
g24
sbsbsg26
(idecision_tree
decision_tree_leaf
p5954
(dp5955
g19
g20
(g21
tp5956
Rp5957
g24
I4
ssg25
g24
sbsbsbsbsbsbsg26
(idecision_tree
continuous_decision_tree
p5958
(dp5959
g2
F0.5428919999999999
sg3
I48
sg4
(idecision_tree
decision_tree_leaf
p5960
(dp5961
g19
g20
(g21
tp5962
Rp5963
g24
I11
sg92
I1
sS'Pn'
p5964
I1
sS'Sn'
p5965
I3
ssg25
g24
sbsg26
(idecision_tree
continuous_decision_tree
p5966
(dp5967
g2
F-7.625
sg3
I63
sg4
(idecision_tree
continuous_decision_tree
p5968
(dp5969
g2
F6.0
sg3
I63
sg4
(idecision_tree
continuous_decision_tree
p5970
(dp5971
g2
F6.875
sg3
I63
sg4
(idecision_tree
continuous_decision_tree
p5972
(dp5973
g2
F-213.9375
sg3
I67
sg4
(idecision_tree
decision_tree_leaf
p5974
(dp5975
g19
g20
(g21
tp5976
Rp5977
g92
I1
ssg25
g92
sbsg26
(idecision_tree
decision_tree_leaf
p5978
(dp5979
g19
g20
(g21
tp5980
Rp5981
g24
I1
ssg25
g24
sbsbsg26
(idecision_tree
continuous_decision_tree
p5982
(dp5983
g2
F-158.5
sg3
I67
sg4
(idecision_tree
decision_tree_leaf
p5984
(dp5985
g19
g20
(g21
tp5986
Rp5987
S'Pn'
p5988
I1
ssg25
g5988
sbsg26
(idecision_tree
decision_tree_leaf
p5989
(dp5990
g19
g20
(g21
tp5991
Rp5992
g24
I1
ssg25
g24
sbsbsbsg26
(idecision_tree
continuous_decision_tree
p5993
(dp5994
g2
F-184.625
sg3
I67
sg4
(idecision_tree
continuous_decision_tree
p5995
(dp5996
g2
F0.0
sg3
I62
sg4
(idecision_tree
continuous_decision_tree
p5997
(dp5998
g2
F0.0
sg3
I63
sg4
(idecision_tree
continuous_decision_tree
p5999
(dp6000
g2
F-161.875
sg3
I67
sg4
(idecision_tree
continuous_decision_tree
p6001
(dp6002
g2
F-109.375
sg3
I67
sg4
(idecision_tree
continuous_decision_tree
p6003
(dp6004
g2
F-54.0
sg3
I67
sg4
(idecision_tree
decision_tree_leaf
p6005
(dp6006
g19
g20
(g21
tp6007
Rp6008
S'Pn'
p6009
I1
ssg25
g6009
sbsg26
(idecision_tree
decision_tree_leaf
p6010
(dp6011
g19
g20
(g21
tp6012
Rp6013
g24
I1
ssg25
g24
sbsbsg26
(idecision_tree
decision_tree_leaf
p6014
(dp6015
g19
g20
(g21
tp6016
Rp6017
S'PKP'
p6018
I1
ssg25
g6018
sbsbsg26
(idecision_tree
continuous_decision_tree
p6019
(dp6020
g2
F-176.125
sg3
I67
sg4
(idecision_tree
decision_tree_leaf
p6021
(dp6022
g19
g20
(g21
tp6023
Rp6024
g24
I1
ssg25
g24
sbsg26
(idecision_tree
decision_tree_leaf
p6025
(dp6026
g19
g20
(g21
tp6027
Rp6028
g92
I1
ssg25
g92
sbsbsbsg26
(idecision_tree
decision_tree_leaf
p6029
(dp6030
g19
g20
(g21
tp6031
Rp6032
g24
I5
ssg25
g24
sbsbsg26
(idecision_tree
decision_tree_leaf
p6033
(dp6034
g19
g20
(g21
tp6035
Rp6036
g24
I1
ssg25
g24
sbsbsg26
(idecision_tree
continuous_decision_tree
p6037
(dp6038
g2
F-203.031
sg3
I67
sg4
(idecision_tree
decision_tree_leaf
p6039
(dp6040
g19
g20
(g21
tp6041
Rp6042
g24
I1
ssg25
g24
sbsg26
(idecision_tree
decision_tree_leaf
p6043
(dp6044
g19
g20
(g21
tp6045
Rp6046
g24
I2
sS'PKP'
p6047
I1
ssg25
g24
sbsbsbsbsg26
(idecision_tree
continuous_decision_tree
p6048
(dp6049
g2
F-85.875
sg3
I67
sg4
(idecision_tree
continuous_decision_tree
p6050
(dp6051
g2
F0.2875965
sg3
I52
sg4
(idecision_tree
decision_tree_leaf
p6052
(dp6053
g19
g20
(g21
tp6054
Rp6055
g24
I7
sg92
I1
sS'Pn'
p6056
I1
sS'Sn'
p6057
I1
ssg25
g24
sbsg26
(idecision_tree
decision_tree_leaf
p6058
(dp6059
g19
g20
(g21
tp6060
Rp6061
g24
I2
sS'Pn'
p6062
I1
ssg25
g24
sbsbsg26
(idecision_tree
continuous_decision_tree
p6063
(dp6064
g2
F-5.0
sg3
I66
sg4
(idecision_tree
continuous_decision_tree
p6065
(dp6066
g2
F-114.9375
sg3
I67
sg4
(idecision_tree
decision_tree_leaf
p6067
(dp6068
g19
g20
(g21
tp6069
Rp6070
S'Sn'
p6071
I1
ssg25
g6071
sbsg26
(idecision_tree
decision_tree_leaf
p6072
(dp6073
g19
g20
(g21
tp6074
Rp6075
g24
I1
ssg25
g24
sbsbsg26
(idecision_tree
decision_tree_leaf
p6076
(dp6077
g19
g20
(g21
tp6078
Rp6079
g24
I1
ssg25
g24
sbsbsbsbsbsbsbsg26
(idecision_tree
continuous_decision_tree
p6080
(dp6081
g2
F0.0
sg3
I62
sg4
(idecision_tree
continuous_decision_tree
p6082
(dp6083
g2
F0.0
sg3
I66
sg4
(idecision_tree
continuous_decision_tree
p6084
(dp6085
g2
F-113.3335
sg3
I67
sg4
(idecision_tree
continuous_decision_tree
p6086
(dp6087
g2
F18.16665
sg3
I63
sg4
(idecision_tree
continuous_decision_tree
p6088
(dp6089
g2
F30.08335
sg3
I67
sg4
(idecision_tree
continuous_decision_tree
p6090
(dp6091
g2
F28.0
sg3
I63
sg4
(idecision_tree
continuous_decision_tree
p6092
(dp6093
g2
F73.55
sg3
I67
sg4
(idecision_tree
decision_tree_leaf
p6094
(dp6095
g19
g20
(g21
tp6096
Rp6097
g24
I1
ssg25
g24
sbsg26
(idecision_tree
decision_tree_leaf
p6098
(dp6099
g19
g20
(g21
tp6100
Rp6101
S'Pn'
p6102
I1
ssg25
g6102
sbsbsg26
(idecision_tree
decision_tree_leaf
p6103
(dp6104
g19
g20
(g21
tp6105
Rp6106
g24
I1
ssg25
g24
sbsbsg26
(idecision_tree
decision_tree_leaf
p6107
(dp6108
g19
g20
(g21
tp6109
Rp6110
g24
I1
ssg25
g24
sbsbsg26
(idecision_tree
continuous_decision_tree
p6111
(dp6112
g2
F1.0
sg3
I58
sg4
(idecision_tree
continuous_decision_tree
p6113
(dp6114
g2
F0.43789449999999996
sg3
I50
sg4
(idecision_tree
continuous_decision_tree
p6115
(dp6116
g2
F1.5
sg3
I62
sg4
(idecision_tree
continuous_decision_tree
p6117
(dp6118
g2
F21.083334999999998
sg3
I67
sg4
(idecision_tree
decision_tree_leaf
p6119
(dp6120
g19
g20
(g21
tp6121
Rp6122
S'Pn'
p6123
I1
ssg25
g6123
sbsg26
(idecision_tree
decision_tree_leaf
p6124
(dp6125
g19
g20
(g21
tp6126
Rp6127
g24
I1
ssg25
g24
sbsbsg26
(idecision_tree
decision_tree_leaf
p6128
(dp6129
g19
g20
(g21
tp6130
Rp6131
g24
I1
ssg25
g24
sbsbsg26
(idecision_tree
continuous_decision_tree
p6132
(dp6133
g2
F0.422331
sg3
I49
sg4
(idecision_tree
continuous_decision_tree
p6134
(dp6135
g2
F9.71875
sg3
I67
sg4
(idecision_tree
decision_tree_leaf
p6136
(dp6137
g19
g20
(g21
tp6138
Rp6139
S'Pn'
p6140
I1
ssg25
g6140
sbsg26
(idecision_tree
decision_tree_leaf
p6141
(dp6142
g19
g20
(g21
tp6143
Rp6144
g24
I1
ssg25
g24
sbsbsg26
(idecision_tree
decision_tree_leaf
p6145
(dp6146
g19
g20
(g21
tp6147
Rp6148
g24
I1
ssg25
g24
sbsbsbsg26
(idecision_tree
continuous_decision_tree
p6149
(dp6150
g2
F0.36754600000000004
sg3
I37
sg4
(idecision_tree
continuous_decision_tree
p6151
(dp6152
g2
F-1.0
sg3
I67
sg4
(idecision_tree
continuous_decision_tree
p6153
(dp6154
g2
F-1.375
sg3
I63
sg4
(idecision_tree
continuous_decision_tree
p6155
(dp6156
g2
F0.32293249999999996
sg3
I52
sg4
(idecision_tree
decision_tree_leaf
p6157
(dp6158
g19
g20
(g21
tp6159
Rp6160
g24
I1
sS'Pn'
p6161
I1
ssg25
g24
sbsg26
(idecision_tree
decision_tree_leaf
p6162
(dp6163
g19
g20
(g21
tp6164
Rp6165
g24
I1
ssg25
g24
sbsbsg26
(idecision_tree
decision_tree_leaf
p6166
(dp6167
g19
g20
(g21
tp6168
Rp6169
g24
I1
ssg25
g24
sbsbsg26
(idecision_tree
decision_tree_leaf
p6170
(dp6171
g19
g20
(g21
tp6172
Rp6173
g24
I1
ssg25
g24
sbsbsg26
(idecision_tree
continuous_decision_tree
p6174
(dp6175
g2
F0.461887
sg3
I49
sg4
(idecision_tree
continuous_decision_tree
p6176
(dp6177
g2
F3.5
sg3
I66
sg4
(idecision_tree
decision_tree_leaf
p6178
(dp6179
g19
g20
(g21
tp6180
Rp6181
g24
I1
ssg25
g24
sbsg26
(idecision_tree
continuous_decision_tree
p6182
(dp6183
g2
F0.18464255000000002
sg3
I52
sg4
(idecision_tree
decision_tree_leaf
p6184
(dp6185
g19
g20
(g21
tp6186
Rp6187
g24
I2
sS'Pn'
p6188
I1
ssg25
g24
sbsg26
(idecision_tree
decision_tree_leaf
p6189
(dp6190
g19
g20
(g21
tp6191
Rp6192
g24
I1
ssg25
g24
sbsbsbsg26
(idecision_tree
continuous_decision_tree
p6193
(dp6194
g2
F0.7693065
sg3
I51
sg4
(idecision_tree
decision_tree_leaf
p6195
(dp6196
g19
g20
(g21
tp6197
Rp6198
g24
I1
ssg25
g24
sbsg26
(idecision_tree
decision_tree_leaf
p6199
(dp6200
g19
g20
(g21
tp6201
Rp6202
g24
I3
sS'Pn'
p6203
I1
ssg25
g24
sbsbsbsbsbsbsg26
(idecision_tree
continuous_decision_tree
p6204
(dp6205
g2
F3.5
sg3
I62
sg4
(idecision_tree
decision_tree_leaf
p6206
(dp6207
g19
g20
(g21
tp6208
Rp6209
g24
I1
ssg25
g24
sbsg26
(idecision_tree
continuous_decision_tree
p6210
(dp6211
g2
F0.2486295
sg3
I51
sg4
(idecision_tree
continuous_decision_tree
p6212
(dp6213
g2
F-129.83350000000002
sg3
I67
sg4
(idecision_tree
decision_tree_leaf
p6214
(dp6215
g19
g20
(g21
tp6216
Rp6217
S'Pn'
p6218
I1
ssg25
g6218
sbsg26
(idecision_tree
decision_tree_leaf
p6219
(dp6220
g19
g20
(g21
tp6221
Rp6222
g24
I1
ssg25
g24
sbsbsg26
(idecision_tree
decision_tree_leaf
p6223
(dp6224
g19
g20
(g21
tp6225
Rp6226
g24
I1
ssg25
g24
sbsbsbsbsg26
(idecision_tree
continuous_decision_tree
p6227
(dp6228
g2
F-186.975
sg3
I67
sg4
(idecision_tree
continuous_decision_tree
p6229
(dp6230
g2
F-142.2875
sg3
I67
sg4
(idecision_tree
decision_tree_leaf
p6231
(dp6232
g19
g20
(g21
tp6233
Rp6234
g24
I1
ssg25
g24
sbsg26
(idecision_tree
decision_tree_leaf
p6235
(dp6236
g19
g20
(g21
tp6237
Rp6238
g92
I1
ssg25
g92
sbsbsg26
(idecision_tree
decision_tree_leaf
p6239
(dp6240
g19
g20
(g21
tp6241
Rp6242
g24
I1
ssg25
g24
sbsbsbsg26
(idecision_tree
continuous_decision_tree
p6243
(dp6244
g2
F-9.75
sg3
I63
sg4
(idecision_tree
decision_tree_leaf
p6245
(dp6246
g19
g20
(g21
tp6247
Rp6248
g24
I5
sS'Pn'
p6249
I1
ssg25
g24
sbsg26
(idecision_tree
continuous_decision_tree
p6250
(dp6251
g2
F0.708399
sg3
I52
sg4
(idecision_tree
decision_tree_leaf
p6252
(dp6253
g19
g20
(g21
tp6254
Rp6255
g24
I1
ssg25
g24
sbsg26
(idecision_tree
decision_tree_leaf
p6256
(dp6257
g19
g20
(g21
tp6258
Rp6259
g24
I3
sS'Pn'
p6260
I1
ssg25
g24
sbsbsbsbsbsg26
(idecision_tree
continuous_decision_tree
p6261
(dp6262
g2
F-12.75
sg3
I67
sg4
(idecision_tree
continuous_decision_tree
p6263
(dp6264
g2
F130.721
sg3
I67
sg4
(idecision_tree
continuous_decision_tree
p6265
(dp6266
g2
F2.0
sg3
I66
sg4
(idecision_tree
continuous_decision_tree
p6267
(dp6268
g2
F156.0335
sg3
I67
sg4
(idecision_tree
decision_tree_leaf
p6269
(dp6270
g19
g20
(g21
tp6271
Rp6272
g24
I1
ssg25
g24
sbsg26
(idecision_tree
decision_tree_leaf
p6273
(dp6274
g19
g20
(g21
tp6275
Rp6276
S'Sn'
p6277
I1
ssg25
g6277
sbsbsg26
(idecision_tree
decision_tree_leaf
p6278
(dp6279
g19
g20
(g21
tp6280
Rp6281
g24
I6
ssg25
g24
sbsbsg26
(idecision_tree
continuous_decision_tree
p6282
(dp6283
g2
F-80.75
sg3
I63
sg4
(idecision_tree
continuous_decision_tree
p6284
(dp6285
g2
F-2.0
sg3
I62
sg4
(idecision_tree
decision_tree_leaf
p6286
(dp6287
g19
g20
(g21
tp6288
Rp6289
g24
I6
sS'Pn'
p6290
I1
ssg25
g24
sbsg26
(idecision_tree
decision_tree_leaf
p6291
(dp6292
g19
g20
(g21
tp6293
Rp6294
g24
I1
ssg25
g24
sbsbsg26
(idecision_tree
decision_tree_leaf
p6295
(dp6296
g19
g20
(g21
tp6297
Rp6298
g24
I1
ssg25
g24
sbsbsbsg26
(idecision_tree
continuous_decision_tree
p6299
(dp6300
g2
F-12.75
sg3
I63
sg4
(idecision_tree
decision_tree_leaf
p6301
(dp6302
g19
g20
(g21
tp6303
Rp6304
g24
I1
ssg25
g24
sbsg26
(idecision_tree
continuous_decision_tree
p6305
(dp6306
g2
F-3.5
sg3
I58
sg4
(idecision_tree
continuous_decision_tree
p6307
(dp6308
g2
F-3.5
sg3
I62
sg4
(idecision_tree
continuous_decision_tree
p6309
(dp6310
g2
F-3.5
sg3
I66
sg4
(idecision_tree
continuous_decision_tree
p6311
(dp6312
g2
F-15.125
sg3
I59
sg4
(idecision_tree
continuous_decision_tree
p6313
(dp6314
g2
F66.95435
sg3
I40
sg4
(idecision_tree
continuous_decision_tree
p6315
(dp6316
g2
F-32.75
sg3
I67
sg4
(idecision_tree
decision_tree_leaf
p6317
(dp6318
g19
g20
(g21
tp6319
Rp6320
S'Pn'
p6321
I1
ssg25
g6321
sbsg26
(idecision_tree
decision_tree_leaf
p6322
(dp6323
g19
g20
(g21
tp6324
Rp6325
g24
I1
ssg25
g24
sbsbsg26
(idecision_tree
decision_tree_leaf
p6326
(dp6327
g19
g20
(g21
tp6328
Rp6329
g24
I1
ssg25
g24
sbsbsg26
(idecision_tree
decision_tree_leaf
p6330
(dp6331
g19
g20
(g21
tp6332
Rp6333
g24
I1
ssg25
g24
sbsbsg26
(idecision_tree
decision_tree_leaf
p6334
(dp6335
g19
g20
(g21
tp6336
Rp6337
g24
I1
ssg25
g24
sbsbsg26
(idecision_tree
decision_tree_leaf
p6338
(dp6339
g19
g20
(g21
tp6340
Rp6341
g24
I1
ssg25
g24
sbsbsg26
(idecision_tree
decision_tree_leaf
p6342
(dp6343
g19
g20
(g21
tp6344
Rp6345
g24
I1
ssg25
g24
sbsbsbsbsbsbsb.