(idecision_tree
continuous_decision_tree
p0
(dp1
S'split_point'
p2
F55.45505
sS'attribute'
p3
I40
sS'gt_subtree'
p4
(idecision_tree
continuous_decision_tree
p5
(dp6
g2
F-223.725
sg3
I67
sg4
(idecision_tree
continuous_decision_tree
p7
(dp8
g2
F-217.0335
sg3
I67
sg4
(idecision_tree
continuous_decision_tree
p9
(dp10
g2
F-188.5
sg3
I67
sg4
(idecision_tree
continuous_decision_tree
p11
(dp12
g2
F-174.36450000000002
sg3
I67
sg4
(idecision_tree
continuous_decision_tree
p13
(dp14
g2
F-164.0
sg3
I67
sg4
(idecision_tree
continuous_decision_tree
p15
(dp16
g2
F-162.33350000000002
sg3
I67
sg4
(idecision_tree
continuous_decision_tree
p17
(dp18
g2
F-159.91649999999998
sg3
I67
sg4
(idecision_tree
continuous_decision_tree
p19
(dp20
g2
F-158.125
sg3
I67
sg4
(idecision_tree
continuous_decision_tree
p21
(dp22
g2
F0.0
sg3
I67
sg4
(idecision_tree
continuous_decision_tree
p23
(dp24
g2
F0.0
sg3
I66
sg4
(idecision_tree
continuous_decision_tree
p25
(dp26
g2
F0.0
sg3
I58
sg4
(idecision_tree
continuous_decision_tree
p27
(dp28
g2
F82.6862
sg3
I44
sg4
(idecision_tree
decision_tree_leaf
p29
(dp30
S'counts'
p31
ccollections
defaultdict
p32
(c__builtin__
int
p33
tp34
Rp35
S'P'
p36
I17
sS'S'
p37
I1
sS'Pn'
p38
I11
sS'Sn'
p39
I5
ssS'value'
p40
g36
sbsS'lt_subtree'
p41
(idecision_tree
continuous_decision_tree
p42
(dp43
g2
F93.75
sg3
I63
sg4
(idecision_tree
decision_tree
p44
(dp45
g3
I47
sS'value_to_tree'
p46
(dp47
S'04-OCT-2009'
p48
(idecision_tree
decision_tree_leaf
p49
(dp50
g31
g32
(g33
tp51
Rp52
S'Pn'
p53
I1
ssg40
g53
sbsS'26-JUL-2009'
p54
(idecision_tree
decision_tree_leaf
p55
(dp56
g31
g32
(g33
tp57
Rp58
g36
I1
ssg40
g36
sbssbsg41
(idecision_tree
continuous_decision_tree
p59
(dp60
g2
F54.5
sg3
I59
sg4
(idecision_tree
decision_tree
p61
(dp62
g3
I47
sg46
(dp63
S'21-MAY-2009'
p64
(idecision_tree
decision_tree_leaf
p65
(dp66
g31
g32
(g33
tp67
Rp68
S'Pn'
p69
I1
ssg40
g69
sbsS'16-SEP-2009'
p70
(idecision_tree
decision_tree_leaf
p71
(dp72
g31
g32
(g33
tp73
Rp74
g36
I1
ssg40
g36
sbssbsg41
(idecision_tree
continuous_decision_tree
p75
(dp76
g2
F0.134433
sg3
I52
sg4
(idecision_tree
continuous_decision_tree
p77
(dp78
g2
F2.8086
sg3
I51
sg4
(idecision_tree
decision_tree
p79
(dp80
g3
I47
sg46
(dp81
S'06-MAR-2009'
p82
(idecision_tree
decision_tree_leaf
p83
(dp84
g31
g32
(g33
tp85
Rp86
S'Sn'
p87
I1
ssg40
g87
sbsS'11-JAN-2009'
p88
(idecision_tree
decision_tree_leaf
p89
(dp90
g31
g32
(g33
tp91
Rp92
g36
I1
ssg40
g36
sbssbsg41
(idecision_tree
decision_tree_leaf
p93
(dp94
g31
g32
(g33
tp95
Rp96
g36
I179
sg37
I3
sS'Pn'
p97
I199
sS'Sn'
p98
I15
sS'PKP'
p99
I1
ssg40
g97
sbsbsg41
(idecision_tree
decision_tree
p100
(dp101
g3
I47
sg46
(dp102
S'31-MAR-2009'
p103
(idecision_tree
decision_tree_leaf
p104
(dp105
g31
g32
(g33
tp106
Rp107
g36
I1
ssg40
g36
sbsS'13-OCT-2009'
p108
(idecision_tree
decision_tree_leaf
p109
(dp110
g31
g32
(g33
tp111
Rp112
S'Pn'
p113
I1
ssg40
g113
sbssbsbsbsbsbsg41
(idecision_tree
decision_tree_leaf
p114
(dp115
g31
g32
(g33
tp116
Rp117
g36
I26
sg37
I1
sS'Pn'
p118
I31
sS'Sn'
p119
I4
sS'PKP'
p120
I1
ssg40
g118
sbsbsg41
(idecision_tree
continuous_decision_tree
p121
(dp122
g2
F-2.5
sg3
I58
sg4
(idecision_tree
decision_tree_leaf
p123
(dp124
g31
g32
(g33
tp125
Rp126
g36
I15
sg37
I1
sS'Pn'
p127
I17
sS'Sn'
p128
I2
ssg40
g127
sbsg41
(idecision_tree
continuous_decision_tree
p129
(dp130
g2
F-6.5
sg3
I66
sg4
(idecision_tree
continuous_decision_tree
p131
(dp132
g2
F-3.0
sg3
I66
sg4
(idecision_tree
continuous_decision_tree
p133
(dp134
g2
F125.0
sg3
I67
sg4
(idecision_tree
continuous_decision_tree
p135
(dp136
g2
F-3.5
sg3
I62
sg4
(idecision_tree
decision_tree
p137
(dp138
g3
I47
sg46
(dp139
S'31-MAR-2009'
p140
(idecision_tree
decision_tree_leaf
p141
(dp142
g31
g32
(g33
tp143
Rp144
g36
I1
ssg40
g36
sbsS'17-JUL-2009'
p145
(idecision_tree
decision_tree_leaf
p146
(dp147
g31
g32
(g33
tp148
Rp149
S'Sn'
p150
I1
ssg40
g150
sbssbsg41
(idecision_tree
decision_tree_leaf
p151
(dp152
g31
g32
(g33
tp153
Rp154
S'Sn'
p155
I1
ssg40
g155
sbsbsg41
(idecision_tree
decision_tree
p156
(dp157
g3
I47
sg46
(dp158
S'12-APR-2009'
p159
(idecision_tree
decision_tree_leaf
p160
(dp161
g31
g32
(g33
tp162
Rp163
S'Sn'
p164
I1
ssg40
g164
sbsS'30-SEP-2009'
p165
(idecision_tree
decision_tree_leaf
p166
(dp167
g31
g32
(g33
tp168
Rp169
S'Pn'
p170
I1
ssg40
g170
sbsS'25-MAY-2009'
p171
(idecision_tree
decision_tree_leaf
p172
(dp173
g31
g32
(g33
tp174
Rp175
S'Sn'
p176
I1
ssg40
g176
sbsS'01-OCT-2009'
p177
(idecision_tree
decision_tree_leaf
p178
(dp179
g31
g32
(g33
tp180
Rp181
S'Sn'
p182
I1
ssg40
g182
sbssbsbsg41
(idecision_tree
decision_tree_leaf
p183
(dp184
g31
g32
(g33
tp185
Rp186
g36
I3
sS'Pn'
p187
I1
sS'Sn'
p188
I1
ssg40
g36
sbsbsg41
(idecision_tree
decision_tree
p189
(dp190
g3
I47
sg46
(dp191
S'30-SEP-2009'
p192
(idecision_tree
decision_tree_leaf
p193
(dp194
g31
g32
(g33
tp195
Rp196
S'Sn'
p197
I1
ssg40
g197
sbsS'01-OCT-2009'
p198
(idecision_tree
decision_tree_leaf
p199
(dp200
g31
g32
(g33
tp201
Rp202
S'Pn'
p203
I1
ssg40
g203
sbssbsbsbsbsg41
(idecision_tree
continuous_decision_tree
p204
(dp205
g2
F-9.75
sg3
I67
sg4
(idecision_tree
decision_tree_leaf
p206
(dp207
g31
g32
(g33
tp208
Rp209
g36
I14
sS'Pn'
p210
I19
sS'Sn'
p211
I3
ssg40
g210
sbsg41
(idecision_tree
continuous_decision_tree
p212
(dp213
g2
F2.027565
sg3
I48
sg4
(idecision_tree
continuous_decision_tree
p214
(dp215
g2
F-92.35715
sg3
I67
sg4
(idecision_tree
continuous_decision_tree
p216
(dp217
g2
F0.854277
sg3
I34
sg4
(idecision_tree
continuous_decision_tree
p218
(dp219
g2
F3.34984
sg3
I49
sg4
(idecision_tree
continuous_decision_tree
p220
(dp221
g2
F3.5
sg3
I66
sg4
(idecision_tree
decision_tree
p222
(dp223
g3
I47
sg46
(dp224
S'16-AUG-2009'
p225
(idecision_tree
decision_tree_leaf
p226
(dp227
g31
g32
(g33
tp228
Rp229
g36
I1
ssg40
g36
sbsS'09-OCT-2009'
p230
(idecision_tree
decision_tree_leaf
p231
(dp232
g31
g32
(g33
tp233
Rp234
S'Pn'
p235
I1
ssg40
g235
sbssbsg41
(idecision_tree
continuous_decision_tree
p236
(dp237
g2
F3.0
sg3
I66
sg4
(idecision_tree
continuous_decision_tree
p238
(dp239
g2
F-56.16665
sg3
I67
sg4
(idecision_tree
decision_tree
p240
(dp241
g3
I47
sg46
(dp242
S'26-OCT-2009'
p243
(idecision_tree
decision_tree_leaf
p244
(dp245
g31
g32
(g33
tp246
Rp247
g36
I1
ssg40
g36
sbsS'02-DEC-2009'
p248
(idecision_tree
decision_tree_leaf
p249
(dp250
g31
g32
(g33
tp251
Rp252
S'Pn'
p253
I1
ssg40
g253
sbssbsg41
(idecision_tree
decision_tree
p254
(dp255
g3
I47
sg46
(dp256
S'03-OCT-2009'
p257
(idecision_tree
decision_tree_leaf
p258
(dp259
g31
g32
(g33
tp260
Rp261
S'Pn'
p262
I1
ssg40
g262
sbsS'03-MAY-2009'
p263
(idecision_tree
decision_tree_leaf
p264
(dp265
g31
g32
(g33
tp266
Rp267
g36
I1
ssg40
g36
sbssbsbsg41
(idecision_tree
continuous_decision_tree
p268
(dp269
g2
F-1.0
sg3
I66
sg4
(idecision_tree
decision_tree_leaf
p270
(dp271
g31
g32
(g33
tp272
Rp273
g36
I3
sS'Pn'
p274
I4
ssg40
g274
sbsg41
(idecision_tree
decision_tree_leaf
p275
(dp276
g31
g32
(g33
tp277
Rp278
g37
I2
sS'Pn'
p279
I2
ssg40
g37
sbsbsbsbsg41
(idecision_tree
continuous_decision_tree
p280
(dp281
g2
F0.0
sg3
I58
sg4
(idecision_tree
continuous_decision_tree
p282
(dp283
g2
F-14.75
sg3
I63
sg4
(idecision_tree
continuous_decision_tree
p284
(dp285
g2
F-1.0
sg3
I66
sg4
(idecision_tree
continuous_decision_tree
p286
(dp287
g2
F-77.375
sg3
I67
sg4
(idecision_tree
decision_tree_leaf
p288
(dp289
g31
g32
(g33
tp290
Rp291
g36
I5
sg37
I1
sS'Pn'
p292
I6
ssg40
g292
sbsg41
(idecision_tree
decision_tree
p293
(dp294
g3
I47
sg46
(dp295
S'20-DEC-2009'
p296
(idecision_tree
decision_tree_leaf
p297
(dp298
g31
g32
(g33
tp299
Rp300
S'Pn'
p301
I1
ssg40
g301
sbsS'03-OCT-2009'
p302
(idecision_tree
decision_tree_leaf
p303
(dp304
g31
g32
(g33
tp305
Rp306
S'Sn'
p307
I1
ssg40
g307
sbssbsbsg41
(idecision_tree
decision_tree_leaf
p308
(dp309
g31
g32
(g33
tp310
Rp311
S'Pn'
p312
I1
ssg40
g312
sbsbsg41
(idecision_tree
continuous_decision_tree
p313
(dp314
g2
F2.0
sg3
I62
sg4
(idecision_tree
continuous_decision_tree
p315
(dp316
g2
F-51.83335
sg3
I67
sg4
(idecision_tree
decision_tree
p317
(dp318
g3
I47
sg46
(dp319
S'17-MAR-2009'
p320
(idecision_tree
decision_tree_leaf
p321
(dp322
g31
g32
(g33
tp323
Rp324
g36
I1
ssg40
g36
sbsS'25-OCT-2009'
p325
(idecision_tree
decision_tree_leaf
p326
(dp327
g31
g32
(g33
tp328
Rp329
S'Pn'
p330
I1
ssg40
g330
sbssbsg41
(idecision_tree
decision_tree_leaf
p331
(dp332
g31
g32
(g33
tp333
Rp334
g36
I1
ssg40
g36
sbsbsg41
(idecision_tree
decision_tree_leaf
p335
(dp336
g31
g32
(g33
tp337
Rp338
g36
I4
sS'Pn'
p339
I6
ssg40
g339
sbsbsbsg41
(idecision_tree
decision_tree_leaf
p340
(dp341
g31
g32
(g33
tp342
Rp343
g36
I3
sS'Pn'
p344
I4
sS'Sn'
p345
I1
ssg40
g344
sbsbsbsg41
(idecision_tree
continuous_decision_tree
p346
(dp347
g2
F3.11789
sg3
I48
sg4
(idecision_tree
continuous_decision_tree
p348
(dp349
g2
F-28.16665
sg3
I67
sg4
(idecision_tree
decision_tree
p350
(dp351
g3
I47
sg46
(dp352
S'20-NOV-2009'
p353
(idecision_tree
decision_tree_leaf
p354
(dp355
g31
g32
(g33
tp356
Rp357
S'Sn'
p358
I1
ssg40
g358
sbsS'16-DEC-2009'
p359
(idecision_tree
decision_tree_leaf
p360
(dp361
g31
g32
(g33
tp362
Rp363
S'Pn'
p364
I1
ssg40
g364
sbssbsg41
(idecision_tree
continuous_decision_tree
p365
(dp366
g2
F-31.988100000000003
sg3
I67
sg4
(idecision_tree
decision_tree
p367
(dp368
g3
I47
sg46
(dp369
S'14-FEB-2009'
p370
(idecision_tree
decision_tree_leaf
p371
(dp372
g31
g32
(g33
tp373
Rp374
g36
I1
ssg40
g36
sbsS'11-OCT-2009'
p375
(idecision_tree
decision_tree_leaf
p376
(dp377
g31
g32
(g33
tp378
Rp379
S'Pn'
p380
I1
ssg40
g380
sbssbsg41
(idecision_tree
continuous_decision_tree
p381
(dp382
g2
F-32.083349999999996
sg3
I63
sg4
(idecision_tree
continuous_decision_tree
p383
(dp384
g2
F-47.875
sg3
I67
sg4
(idecision_tree
decision_tree
p385
(dp386
g3
I47
sg46
(dp387
S'28-OCT-2009'
p388
(idecision_tree
decision_tree_leaf
p389
(dp390
g31
g32
(g33
tp391
Rp392
S'Pn'
p393
I1
ssg40
g393
sbsS'10-JUL-2009'
p394
(idecision_tree
decision_tree_leaf
p395
(dp396
g31
g32
(g33
tp397
Rp398
S'Sn'
p399
I1
ssg40
g399
sbssbsg41
(idecision_tree
continuous_decision_tree
p400
(dp401
g2
F-1.291665
sg3
I63
sg4
(idecision_tree
continuous_decision_tree
p402
(dp403
g2
F-78.375
sg3
I67
sg4
(idecision_tree
continuous_decision_tree
p404
(dp405
g2
F-67.83930000000001
sg3
I67
sg4
(idecision_tree
decision_tree_leaf
p406
(dp407
g31
g32
(g33
tp408
Rp409
S'Pn'
p410
I2
sS'Sn'
p411
I1
ssg40
g410
sbsg41
(idecision_tree
decision_tree
p412
(dp413
g3
I47
sg46
(dp414
S'12-APR-2009'
p415
(idecision_tree
decision_tree_leaf
p416
(dp417
g31
g32
(g33
tp418
Rp419
S'Pn'
p420
I1
ssg40
g420
sbsS'01-OCT-2009'
p421
(idecision_tree
decision_tree_leaf
p422
(dp423
g31
g32
(g33
tp424
Rp425
S'Sn'
p426
I1
ssg40
g426
sbssbsbsg41
(idecision_tree
decision_tree
p427
(dp428
g3
I47
sg46
(dp429
S'03-JUN-2009'
p430
(idecision_tree
decision_tree_leaf
p431
(dp432
g31
g32
(g33
tp433
Rp434
g36
I1
ssg40
g36
sbsS'28-OCT-2009'
p435
(idecision_tree
decision_tree_leaf
p436
(dp437
g31
g32
(g33
tp438
Rp439
S'Pn'
p440
I1
ssg40
g440
sbssbsbsg41
(idecision_tree
decision_tree
p441
(dp442
g3
I47
sg46
(dp443
S'31-JAN-2009'
p444
(idecision_tree
decision_tree_leaf
p445
(dp446
g31
g32
(g33
tp447
Rp448
S'Sn'
p449
I1
ssg40
g449
sbsS'02-OCT-2009'
p450
(idecision_tree
decision_tree_leaf
p451
(dp452
g31
g32
(g33
tp453
Rp454
S'Pn'
p455
I1
ssg40
g455
sbssbsbsbsg41
(idecision_tree
decision_tree
p456
(dp457
g3
I47
sg46
(dp458
S'06-DEC-2009'
p459
(idecision_tree
decision_tree_leaf
p460
(dp461
g31
g32
(g33
tp462
Rp463
g36
I1
ssg40
g36
sbsS'19-OCT-2009'
p464
(idecision_tree
decision_tree_leaf
p465
(dp466
g31
g32
(g33
tp467
Rp468
S'Pn'
p469
I1
ssg40
g469
sbssbsbsbsbsg41
(idecision_tree
continuous_decision_tree
p470
(dp471
g2
F-14.5
sg3
I67
sg4
(idecision_tree
decision_tree
p472
(dp473
g3
I47
sg46
(dp474
S'16-JUL-2009'
p475
(idecision_tree
decision_tree_leaf
p476
(dp477
g31
g32
(g33
tp478
Rp479
g36
I1
ssg40
g36
sbsS'15-FEB-2009'
p480
(idecision_tree
decision_tree_leaf
p481
(dp482
g31
g32
(g33
tp483
Rp484
S'Pn'
p485
I1
ssg40
g485
sbssbsg41
(idecision_tree
continuous_decision_tree
p486
(dp487
g2
F-5.0
sg3
I66
sg4
(idecision_tree
continuous_decision_tree
p488
(dp489
g2
F2.5
sg3
I66
sg4
(idecision_tree
decision_tree
p490
(dp491
g3
I47
sg46
(dp492
S'30-SEP-2009'
p493
(idecision_tree
decision_tree_leaf
p494
(dp495
g31
g32
(g33
tp496
Rp497
S'Pn'
p498
I1
ssg40
g498
sbsS'14-MAR-2009'
p499
(idecision_tree
decision_tree_leaf
p500
(dp501
g31
g32
(g33
tp502
Rp503
g36
I1
ssg40
g36
sbssbsg41
(idecision_tree
continuous_decision_tree
p504
(dp505
g2
F1.0
sg3
I66
sg4
(idecision_tree
continuous_decision_tree
p506
(dp507
g2
F-63.03335
sg3
I67
sg4
(idecision_tree
decision_tree_leaf
p508
(dp509
g31
g32
(g33
tp510
Rp511
g36
I1
sS'Pn'
p512
I2
ssg40
g512
sbsg41
(idecision_tree
decision_tree
p513
(dp514
g3
I47
sg46
(dp515
S'06-OCT-2009'
p516
(idecision_tree
decision_tree_leaf
p517
(dp518
g31
g32
(g33
tp519
Rp520
S'Sn'
p521
I1
ssg40
g521
sbsS'09-OCT-2009'
p522
(idecision_tree
decision_tree_leaf
p523
(dp524
g31
g32
(g33
tp525
Rp526
S'Pn'
p527
I1
ssg40
g527
sbssbsbsg41
(idecision_tree
continuous_decision_tree
p528
(dp529
g2
F-37.375
sg3
I67
sg4
(idecision_tree
continuous_decision_tree
p530
(dp531
g2
F-1.5
sg3
I66
sg4
(idecision_tree
decision_tree
p532
(dp533
g3
I47
sg46
(dp534
S'20-JAN-2009'
p535
(idecision_tree
decision_tree_leaf
p536
(dp537
g31
g32
(g33
tp538
Rp539
g36
I1
ssg40
g36
sbsS'30-OCT-2009'
p540
(idecision_tree
decision_tree_leaf
p541
(dp542
g31
g32
(g33
tp543
Rp544
S'Pn'
p545
I1
ssg40
g545
sbssbsg41
(idecision_tree
decision_tree
p546
(dp547
g3
I47
sg46
(dp548
S'05-SEP-2009'
p549
(idecision_tree
decision_tree_leaf
p550
(dp551
g31
g32
(g33
tp552
Rp553
g36
I1
ssg40
g36
sbsS'09-DEC-2009'
p554
(idecision_tree
decision_tree_leaf
p555
(dp556
g31
g32
(g33
tp557
Rp558
S'Pn'
p559
I1
ssg40
g559
sbssbsbsg41
(idecision_tree
continuous_decision_tree
p560
(dp561
g2
F-2.5
sg3
I66
sg4
(idecision_tree
decision_tree
p562
(dp563
g3
I47
sg46
(dp564
S'17-FEB-2009'
p565
(idecision_tree
decision_tree_leaf
p566
(dp567
g31
g32
(g33
tp568
Rp569
g36
I1
ssg40
g36
sbsS'10-NOV-2009'
p570
(idecision_tree
decision_tree_leaf
p571
(dp572
g31
g32
(g33
tp573
Rp574
S'Pn'
p575
I1
ssg40
g575
sbssbsg41
(idecision_tree
decision_tree
p576
(dp577
g3
I47
sg46
(dp578
S'30-SEP-2009'
p579
(idecision_tree
decision_tree_leaf
p580
(dp581
g31
g32
(g33
tp582
Rp583
S'Pn'
p584
I1
ssg40
g584
sbsS'15-JAN-2009'
p585
(idecision_tree
decision_tree_leaf
p586
(dp587
g31
g32
(g33
tp588
Rp589
g37
I1
ssg40
g37
sbssbsbsbsbsbsg41
(idecision_tree
decision_tree
p590
(dp591
g3
I13
sg46
(dp592
S'Z0515'
p593
(idecision_tree
decision_tree_leaf
p594
(dp595
g31
g32
(g33
tp596
Rp597
S'Sn'
p598
I1
ssg40
g598
sbsS'Z3060'
p599
(idecision_tree
decision_tree_leaf
p600
(dp601
g31
g32
(g33
tp602
Rp603
S'Pn'
p604
I1
ssg40
g604
sbssbsbsbsbsbsg41
(idecision_tree
continuous_decision_tree
p605
(dp606
g2
F0.404737
sg3
I52
sg4
(idecision_tree
continuous_decision_tree
p607
(dp608
g2
F93.6069
sg3
I41
sg4
(idecision_tree
decision_tree_leaf
p609
(dp610
g31
g32
(g33
tp611
Rp612
g36
I5
sg37
I1
sS'Pn'
p613
I10
sS'Sn'
p614
I3
ssg40
g613
sbsg41
(idecision_tree
continuous_decision_tree
p615
(dp616
g2
F-151.236
sg3
I67
sg4
(idecision_tree
continuous_decision_tree
p617
(dp618
g2
F-145.25
sg3
I67
sg4
(idecision_tree
continuous_decision_tree
p619
(dp620
g2
F-5.5
sg3
I66
sg4
(idecision_tree
continuous_decision_tree
p621
(dp622
g2
F-3.0
sg3
I66
sg4
(idecision_tree
continuous_decision_tree
p623
(dp624
g2
F4.5
sg3
I66
sg4
(idecision_tree
decision_tree
p625
(dp626
g3
I47
sg46
(dp627
S'30-SEP-2009'
p628
(idecision_tree
decision_tree_leaf
p629
(dp630
g31
g32
(g33
tp631
Rp632
S'Sn'
p633
I1
ssg40
g633
sbsS'29-OCT-2009'
p634
(idecision_tree
decision_tree_leaf
p635
(dp636
g31
g32
(g33
tp637
Rp638
S'Pn'
p639
I1
ssg40
g639
sbssbsg41
(idecision_tree
decision_tree_leaf
p640
(dp641
g31
g32
(g33
tp642
Rp643
g36
I1
sg37
I2
sS'Pn'
p644
I4
ssg40
g644
sbsbsg41
(idecision_tree
decision_tree
p645
(dp646
g3
I47
sg46
(dp647
S'30-SEP-2009'
p648
(idecision_tree
decision_tree_leaf
p649
(dp650
g31
g32
(g33
tp651
Rp652
S'Pn'
p653
I1
ssg40
g653
sbsS'07-OCT-2009'
p654
(idecision_tree
decision_tree_leaf
p655
(dp656
g31
g32
(g33
tp657
Rp658
S'Sn'
p659
I1
ssg40
g659
sbssbsbsg41
(idecision_tree
decision_tree
p660
(dp661
g3
I47
sg46
(dp662
S'05-OCT-2009'
p663
(idecision_tree
decision_tree_leaf
p664
(dp665
g31
g32
(g33
tp666
Rp667
S'Pn'
p668
I1
ssg40
g668
sbsS'15-MAR-2009'
p669
(idecision_tree
decision_tree_leaf
p670
(dp671
g31
g32
(g33
tp672
Rp673
g37
I1
ssg40
g37
sbssbsbsg41
(idecision_tree
decision_tree
p674
(dp675
g3
I47
sg46
(dp676
S'30-SEP-2009'
p677
(idecision_tree
decision_tree_leaf
p678
(dp679
g31
g32
(g33
tp680
Rp681
S'Pn'
p682
I1
ssg40
g682
sbsS'16-FEB-2009'
p683
(idecision_tree
decision_tree_leaf
p684
(dp685
g31
g32
(g33
tp686
Rp687
g36
I1
ssg40
g36
sbssbsbsg41
(idecision_tree
decision_tree
p688
(dp689
g3
I47
sg46
(dp690
S'15-MAR-2009'
p691
(idecision_tree
decision_tree_leaf
p692
(dp693
g31
g32
(g33
tp694
Rp695
g36
I1
ssg40
g36
sbsS'11-OCT-2009'
p696
(idecision_tree
decision_tree_leaf
p697
(dp698
g31
g32
(g33
tp699
Rp700
S'Pn'
p701
I1
ssg40
g701
sbssbsbsbsg41
(idecision_tree
continuous_decision_tree
p702
(dp703
g2
F-6.0
sg3
I66
sg4
(idecision_tree
continuous_decision_tree
p704
(dp705
g2
F1.0
sg3
I53
sg4
(idecision_tree
continuous_decision_tree
p706
(dp707
g2
F-1.0
sg3
I66
sg4
(idecision_tree
decision_tree
p708
(dp709
g3
I47
sg46
(dp710
S'30-SEP-2009'
p711
(idecision_tree
decision_tree_leaf
p712
(dp713
g31
g32
(g33
tp714
Rp715
S'Pn'
p716
I1
ssg40
g716
sbsS'11-OCT-2009'
p717
(idecision_tree
decision_tree_leaf
p718
(dp719
g31
g32
(g33
tp720
Rp721
g36
I1
ssg40
g36
sbsS'10-OCT-2009'
p722
(idecision_tree
decision_tree_leaf
p723
(dp724
g31
g32
(g33
tp725
Rp726
S'Pn'
p727
I1
ssg40
g727
sbsS'14-OCT-2009'
p728
(idecision_tree
decision_tree_leaf
p729
(dp730
g31
g32
(g33
tp731
Rp732
S'Pn'
p733
I1
ssg40
g733
sbssbsg41
(idecision_tree
continuous_decision_tree
p734
(dp735
g2
F0.2693905
sg3
I52
sg4
(idecision_tree
decision_tree
p736
(dp737
g3
I47
sg46
(dp738
S'05-OCT-2009'
p739
(idecision_tree
decision_tree_leaf
p740
(dp741
g31
g32
(g33
tp742
Rp743
S'Pn'
p744
I1
ssg40
g744
sbsS'01-FEB-2009'
p745
(idecision_tree
decision_tree_leaf
p746
(dp747
g31
g32
(g33
tp748
Rp749
g36
I1
ssg40
g36
sbssbsg41
(idecision_tree
decision_tree_leaf
p750
(dp751
g31
g32
(g33
tp752
Rp753
S'Pn'
p754
I1
ssg40
g754
sbsbsbsg41
(idecision_tree
continuous_decision_tree
p755
(dp756
g2
F-103.6
sg3
I67
sg4
(idecision_tree
decision_tree
p757
(dp758
g3
I47
sg46
(dp759
S'12-FEB-2009'
p760
(idecision_tree
decision_tree_leaf
p761
(dp762
g31
g32
(g33
tp763
Rp764
g36
I1
ssg40
g36
sbsS'11-OCT-2009'
p765
(idecision_tree
decision_tree_leaf
p766
(dp767
g31
g32
(g33
tp768
Rp769
S'Pn'
p770
I1
ssg40
g770
sbsS'21-AUG-2009'
p771
(idecision_tree
decision_tree_leaf
p772
(dp773
g31
g32
(g33
tp774
Rp775
g36
I1
ssg40
g36
sbssbsg41
(idecision_tree
decision_tree_leaf
p776
(dp777
g31
g32
(g33
tp778
Rp779
g36
I3
sS'Pn'
p780
I2
ssg40
g36
sbsbsbsg41
(idecision_tree
decision_tree
p781
(dp782
g3
I47
sg46
(dp783
S'29-JAN-2009'
p784
(idecision_tree
decision_tree_leaf
p785
(dp786
g31
g32
(g33
tp787
Rp788
S'Pn'
p789
I1
ssg40
g789
sbsS'14-OCT-2009'
p790
(idecision_tree
decision_tree_leaf
p791
(dp792
g31
g32
(g33
tp793
Rp794
g36
I1
ssg40
g36
sbssbsbsbsbsg41
(idecision_tree
continuous_decision_tree
p795
(dp796
g2
F2.186635
sg3
I49
sg4
(idecision_tree
continuous_decision_tree
p797
(dp798
g2
F0.512148
sg3
I52
sg4
(idecision_tree
continuous_decision_tree
p799
(dp800
g2
F0.6701475
sg3
I35
sg4
(idecision_tree
continuous_decision_tree
p801
(dp802
g2
F60.2953
sg3
I41
sg4
(idecision_tree
continuous_decision_tree
p803
(dp804
g2
F-141.25
sg3
I67
sg4
(idecision_tree
continuous_decision_tree
p805
(dp806
g2
F-116.0
sg3
I67
sg4
(idecision_tree
continuous_decision_tree
p807
(dp808
g2
F-2.5
sg3
I66
sg4
(idecision_tree
continuous_decision_tree
p809
(dp810
g2
F-1.5
sg3
I66
sg4
(idecision_tree
continuous_decision_tree
p811
(dp812
g2
F-8.5
sg3
I59
sg4
(idecision_tree
continuous_decision_tree
p813
(dp814
g2
F-59.3333
sg3
I67
sg4
(idecision_tree
decision_tree
p815
(dp816
g3
I47
sg46
(dp817
S'06-OCT-2009'
p818
(idecision_tree
decision_tree_leaf
p819
(dp820
g31
g32
(g33
tp821
Rp822
S'Pn'
p823
I1
ssg40
g823
sbsS'14-OCT-2009'
p824
(idecision_tree
decision_tree_leaf
p825
(dp826
g31
g32
(g33
tp827
Rp828
g36
I1
ssg40
g36
sbssbsg41
(idecision_tree
continuous_decision_tree
p829
(dp830
g2
F-68.65
sg3
I67
sg4
(idecision_tree
decision_tree
p831
(dp832
g3
I47
sg46
(dp833
S'02-OCT-2009'
p834
(idecision_tree
decision_tree_leaf
p835
(dp836
g31
g32
(g33
tp837
Rp838
S'Pn'
p839
I1
ssg40
g839
sbsS'27-MAY-2009'
p840
(idecision_tree
decision_tree_leaf
p841
(dp842
g31
g32
(g33
tp843
Rp844
g36
I1
ssg40
g36
sbssbsg41
(idecision_tree
continuous_decision_tree
p845
(dp846
g2
F-85.5
sg3
I67
sg4
(idecision_tree
decision_tree
p847
(dp848
g3
I47
sg46
(dp849
S'28-OCT-2009'
p850
(idecision_tree
decision_tree_leaf
p851
(dp852
g31
g32
(g33
tp853
Rp854
S'Pn'
p855
I1
ssg40
g855
sbsS'07-JUN-2009'
p856
(idecision_tree
decision_tree_leaf
p857
(dp858
g31
g32
(g33
tp859
Rp860
g36
I1
ssg40
g36
sbssbsg41
(idecision_tree
continuous_decision_tree
p861
(dp862
g2
F4.4571000000000005
sg3
I49
sg4
(idecision_tree
decision_tree
p863
(dp864
g3
I47
sg46
(dp865
S'10-AUG-2009'
p866
(idecision_tree
decision_tree_leaf
p867
(dp868
g31
g32
(g33
tp869
Rp870
g36
I1
ssg40
g36
sbsS'17-OCT-2009'
p871
(idecision_tree
decision_tree_leaf
p872
(dp873
g31
g32
(g33
tp874
Rp875
S'Pn'
p876
I1
ssg40
g876
sbssbsg41
(idecision_tree
decision_tree_leaf
p877
(dp878
g31
g32
(g33
tp879
Rp880
S'Pn'
p881
I1
ssg40
g881
sbsbsbsbsbsg41
(idecision_tree
decision_tree
p882
(dp883
g3
I47
sg46
(dp884
S'15-OCT-2009'
p885
(idecision_tree
decision_tree_leaf
p886
(dp887
g31
g32
(g33
tp888
Rp889
S'Pn'
p890
I1
ssg40
g890
sbsS'19-AUG-2009'
p891
(idecision_tree
decision_tree_leaf
p892
(dp893
g31
g32
(g33
tp894
Rp895
S'Sn'
p896
I1
ssg40
g896
sbssbsbsg41
(idecision_tree
decision_tree
p897
(dp898
g3
I47
sg46
(dp899
S'05-OCT-2009'
p900
(idecision_tree
decision_tree_leaf
p901
(dp902
g31
g32
(g33
tp903
Rp904
S'Pn'
p905
I1
ssg40
g905
sbsS'09-SEP-2009'
p906
(idecision_tree
decision_tree_leaf
p907
(dp908
g31
g32
(g33
tp909
Rp910
g36
I1
ssg40
g36
sbssbsbsg41
(idecision_tree
decision_tree
p911
(dp912
g3
I47
sg46
(dp913
S'20-OCT-2009'
p914
(idecision_tree
decision_tree_leaf
p915
(dp916
g31
g32
(g33
tp917
Rp918
S'Pn'
p919
I1
ssg40
g919
sbsS'30-SEP-2009'
p920
(idecision_tree
decision_tree_leaf
p921
(dp922
g31
g32
(g33
tp923
Rp924
S'Sn'
p925
I1
ssg40
g925
sbssbsbsg41
(idecision_tree
decision_tree
p926
(dp927
g3
I47
sg46
(dp928
S'03-OCT-2009'
p929
(idecision_tree
decision_tree_leaf
p930
(dp931
g31
g32
(g33
tp932
Rp933
S'Pn'
p934
I1
ssg40
g934
sbsS'22-MAY-2009'
p935
(idecision_tree
decision_tree_leaf
p936
(dp937
g31
g32
(g33
tp938
Rp939
S'Sn'
p940
I1
ssg40
g940
sbssbsbsg41
(idecision_tree
decision_tree
p941
(dp942
g3
I47
sg46
(dp943
S'07-APR-2009'
p944
(idecision_tree
decision_tree_leaf
p945
(dp946
g31
g32
(g33
tp947
Rp948
g36
I1
ssg40
g36
sbsS'04-OCT-2009'
p949
(idecision_tree
decision_tree_leaf
p950
(dp951
g31
g32
(g33
tp952
Rp953
S'Pn'
p954
I1
ssg40
g954
sbssbsbsg41
(idecision_tree
continuous_decision_tree
p955
(dp956
g2
F-3.5
sg3
I66
sg4
(idecision_tree
continuous_decision_tree
p957
(dp958
g2
F-29.66665
sg3
I67
sg4
(idecision_tree
decision_tree
p959
(dp960
g3
I47
sg46
(dp961
S'18-DEC-2009'
p962
(idecision_tree
decision_tree_leaf
p963
(dp964
g31
g32
(g33
tp965
Rp966
S'Pn'
p967
I1
ssg40
g967
sbsS'16-MAR-2009'
p968
(idecision_tree
decision_tree_leaf
p969
(dp970
g31
g32
(g33
tp971
Rp972
g36
I1
ssg40
g36
sbssbsg41
(idecision_tree
continuous_decision_tree
p973
(dp974
g2
F0.0
sg3
I66
sg4
(idecision_tree
decision_tree
p975
(dp976
g3
I47
sg46
(dp977
S'28-OCT-2009'
p978
(idecision_tree
decision_tree_leaf
p979
(dp980
g31
g32
(g33
tp981
Rp982
S'Sn'
p983
I1
ssg40
g983
sbsS'26-AUG-2009'
p984
(idecision_tree
decision_tree_leaf
p985
(dp986
g31
g32
(g33
tp987
Rp988
S'Pn'
p989
I1
ssg40
g989
sbsS'10-OCT-2009'
p990
(idecision_tree
decision_tree_leaf
p991
(dp992
g31
g32
(g33
tp993
Rp994
S'Pn'
p995
I2
ssg40
g995
sbssbsg41
(idecision_tree
continuous_decision_tree
p996
(dp997
g2
F-46.2778
sg3
I67
sg4
(idecision_tree
decision_tree
p998
(dp999
g3
I47
sg46
(dp1000
S'13-JUL-2009'
p1001
(idecision_tree
decision_tree_leaf
p1002
(dp1003
g31
g32
(g33
tp1004
Rp1005
S'Sn'
p1006
I1
ssg40
g1006
sbsS'23-JUN-2009'
p1007
(idecision_tree
decision_tree_leaf
p1008
(dp1009
g31
g32
(g33
tp1010
Rp1011
S'Pn'
p1012
I1
ssg40
g1012
sbssbsg41
(idecision_tree
continuous_decision_tree
p1013
(dp1014
g2
F-59.75
sg3
I67
sg4
(idecision_tree
decision_tree
p1015
(dp1016
g3
I47
sg46
(dp1017
S'04-OCT-2009'
p1018
(idecision_tree
decision_tree_leaf
p1019
(dp1020
g31
g32
(g33
tp1021
Rp1022
S'Sn'
p1023
I1
ssg40
g1023
sbsS'13-NOV-2009'
p1024
(idecision_tree
decision_tree_leaf
p1025
(dp1026
g31
g32
(g33
tp1027
Rp1028
g37
I1
ssg40
g37
sbssbsg41
(idecision_tree
continuous_decision_tree
p1029
(dp1030
g2
F-2.0
sg3
I66
sg4
(idecision_tree
decision_tree
p1031
(dp1032
g3
I47
sg46
(dp1033
S'01-FEB-2009'
p1034
(idecision_tree
decision_tree_leaf
p1035
(dp1036
g31
g32
(g33
tp1037
Rp1038
S'Pn'
p1039
I1
ssg40
g1039
sbsS'10-OCT-2009'
p1040
(idecision_tree
decision_tree_leaf
p1041
(dp1042
g31
g32
(g33
tp1043
Rp1044
S'Pn'
p1045
I1
ssg40
g1045
sbsS'19-OCT-2009'
p1046
(idecision_tree
decision_tree_leaf
p1047
(dp1048
g31
g32
(g33
tp1049
Rp1050
S'Sn'
p1051
I1
ssg40
g1051
sbsS'26-OCT-2009'
p1052
(idecision_tree
decision_tree_leaf
p1053
(dp1054
g31
g32
(g33
tp1055
Rp1056
S'Pn'
p1057
I1
ssg40
g1057
sbssbsg41
(idecision_tree
decision_tree_leaf
p1058
(dp1059
g31
g32
(g33
tp1060
Rp1061
S'Sn'
p1062
I1
ssg40
g1062
sbsbsbsbsbsbsg41
(idecision_tree
decision_tree
p1063
(dp1064
g3
I47
sg46
(dp1065
S'05-OCT-2009'
p1066
(idecision_tree
decision_tree_leaf
p1067
(dp1068
g31
g32
(g33
tp1069
Rp1070
S'Sn'
p1071
I1
ssg40
g1071
sbsS'30-SEP-2009'
p1072
(idecision_tree
decision_tree_leaf
p1073
(dp1074
g31
g32
(g33
tp1075
Rp1076
S'Pn'
p1077
I1
ssg40
g1077
sbssbsbsbsg41
(idecision_tree
continuous_decision_tree
p1078
(dp1079
g2
F-145.66649999999998
sg3
I67
sg4
(idecision_tree
continuous_decision_tree
p1080
(dp1081
g2
F-113.3335
sg3
I67
sg4
(idecision_tree
continuous_decision_tree
p1082
(dp1083
g2
F2.5
sg3
I66
sg4
(idecision_tree
decision_tree
p1084
(dp1085
g3
I47
sg46
(dp1086
S'01-OCT-2009'
p1087
(idecision_tree
decision_tree_leaf
p1088
(dp1089
g31
g32
(g33
tp1090
Rp1091
S'Pn'
p1092
I1
ssg40
g1092
sbsS'31-OCT-2009'
p1093
(idecision_tree
decision_tree_leaf
p1094
(dp1095
g31
g32
(g33
tp1096
Rp1097
g37
I1
ssg40
g37
sbssbsg41
(idecision_tree
decision_tree_leaf
p1098
(dp1099
g31
g32
(g33
tp1100
Rp1101
g36
I2
sg37
I1
sS'Pn'
p1102
I6
sS'Sn'
p1103
I2
ssg40
g1102
sbsbsg41
(idecision_tree
decision_tree
p1104
(dp1105
g3
I47
sg46
(dp1106
S'30-SEP-2009'
p1107
(idecision_tree
decision_tree_leaf
p1108
(dp1109
g31
g32
(g33
tp1110
Rp1111
S'Pn'
p1112
I1
ssg40
g1112
sbsS'13-NOV-2009'
p1113
(idecision_tree
decision_tree_leaf
p1114
(dp1115
g31
g32
(g33
tp1116
Rp1117
g36
I1
ssg40
g36
sbssbsbsg41
(idecision_tree
decision_tree
p1118
(dp1119
g3
I47
sg46
(dp1120
S'28-OCT-2009'
p1121
(idecision_tree
decision_tree_leaf
p1122
(dp1123
g31
g32
(g33
tp1124
Rp1125
S'Sn'
p1126
I1
ssg40
g1126
sbsS'01-OCT-2009'
p1127
(idecision_tree
decision_tree_leaf
p1128
(dp1129
g31
g32
(g33
tp1130
Rp1131
S'Pn'
p1132
I1
ssg40
g1132
sbssbsbsbsg41
(idecision_tree
continuous_decision_tree
p1133
(dp1134
g2
F-2.0
sg3
I63
sg4
(idecision_tree
continuous_decision_tree
p1135
(dp1136
g2
F0.1336585
sg3
I51
sg4
(idecision_tree
continuous_decision_tree
p1137
(dp1138
g2
F10.83335
sg3
I63
sg4
(idecision_tree
continuous_decision_tree
p1139
(dp1140
g2
F20.1
sg3
I63
sg4
(idecision_tree
continuous_decision_tree
p1141
(dp1142
g2
F-105.5
sg3
I67
sg4
(idecision_tree
decision_tree_leaf
p1143
(dp1144
g31
g32
(g33
tp1145
Rp1146
g36
I4
sS'Pn'
p1147
I5
ssg40
g1147
sbsg41
(idecision_tree
decision_tree
p1148
(dp1149
g3
I47
sg46
(dp1150
S'01-SEP-2009'
p1151
(idecision_tree
decision_tree_leaf
p1152
(dp1153
g31
g32
(g33
tp1154
Rp1155
S'Sn'
p1156
I1
ssg40
g1156
sbsS'13-MAR-2009'
p1157
(idecision_tree
decision_tree_leaf
p1158
(dp1159
g31
g32
(g33
tp1160
Rp1161
S'Pn'
p1162
I1
ssg40
g1162
sbssbsbsg41
(idecision_tree
decision_tree
p1163
(dp1164
g3
I47
sg46
(dp1165
S'29-MAY-2009'
p1166
(idecision_tree
decision_tree_leaf
p1167
(dp1168
g31
g32
(g33
tp1169
Rp1170
g36
I1
ssg40
g36
sbsS'22-OCT-2009'
p1171
(idecision_tree
decision_tree_leaf
p1172
(dp1173
g31
g32
(g33
tp1174
Rp1175
S'Pn'
p1176
I1
ssg40
g1176
sbssbsbsg41
(idecision_tree
decision_tree
p1177
(dp1178
g3
I47
sg46
(dp1179
S'03-AUG-2009'
p1180
(idecision_tree
decision_tree_leaf
p1181
(dp1182
g31
g32
(g33
tp1183
Rp1184
g36
I1
ssg40
g36
sbsS'11-OCT-2009'
p1185
(idecision_tree
decision_tree_leaf
p1186
(dp1187
g31
g32
(g33
tp1188
Rp1189
S'Pn'
p1190
I1
ssg40
g1190
sbssbsbsg41
(idecision_tree
decision_tree
p1191
(dp1192
g3
I47
sg46
(dp1193
S'02-OCT-2009'
p1194
(idecision_tree
decision_tree_leaf
p1195
(dp1196
g31
g32
(g33
tp1197
Rp1198
S'Pn'
p1199
I1
ssg40
g1199
sbsS'21-MAR-2009'
p1200
(idecision_tree
decision_tree_leaf
p1201
(dp1202
g31
g32
(g33
tp1203
Rp1204
g36
I1
ssg40
g36
sbssbsbsg41
(idecision_tree
continuous_decision_tree
p1205
(dp1206
g2
F1.0
sg3
I66
sg4
(idecision_tree
decision_tree
p1207
(dp1208
g3
I47
sg46
(dp1209
S'08-FEB-2009'
p1210
(idecision_tree
decision_tree_leaf
p1211
(dp1212
g31
g32
(g33
tp1213
Rp1214
g36
I1
ssg40
g36
sbsS'09-OCT-2009'
p1215
(idecision_tree
decision_tree_leaf
p1216
(dp1217
g31
g32
(g33
tp1218
Rp1219
S'Pn'
p1220
I1
ssg40
g1220
sbssbsg41
(idecision_tree
continuous_decision_tree
p1221
(dp1222
g2
F1.0
sg3
I58
sg4
(idecision_tree
continuous_decision_tree
p1223
(dp1224
g2
F-68.0
sg3
I67
sg4
(idecision_tree
decision_tree
p1225
(dp1226
g3
I47
sg46
(dp1227
S'06-NOV-2009'
p1228
(idecision_tree
decision_tree_leaf
p1229
(dp1230
g31
g32
(g33
tp1231
Rp1232
S'Pn'
p1233
I1
ssg40
g1233
sbsS'21-NOV-2009'
p1234
(idecision_tree
decision_tree_leaf
p1235
(dp1236
g31
g32
(g33
tp1237
Rp1238
g36
I1
ssg40
g36
sbssbsg41
(idecision_tree
decision_tree_leaf
p1239
(dp1240
g31
g32
(g33
tp1241
Rp1242
S'Pn'
p1243
I1
ssg40
g1243
sbsbsg41
(idecision_tree
continuous_decision_tree
p1244
(dp1245
g2
F-2.0
sg3
I66
sg4
(idecision_tree
decision_tree_leaf
p1246
(dp1247
g31
g32
(g33
tp1248
Rp1249
g36
I6
sS'Pn'
p1250
I5
ssg40
g36
sbsg41
(idecision_tree
decision_tree_leaf
p1251
(dp1252
g31
g32
(g33
tp1253
Rp1254
g36
I1
sS'Pn'
p1255
I2
ssg40
g1255
sbsbsbsbsbsbsg41
(idecision_tree
continuous_decision_tree
p1256
(dp1257
g2
F-13.0
sg3
I59
sg4
(idecision_tree
continuous_decision_tree
p1258
(dp1259
g2
F3.0
sg3
I66
sg4
(idecision_tree
continuous_decision_tree
p1260
(dp1261
g2
F-126.875
sg3
I67
sg4
(idecision_tree
continuous_decision_tree
p1262
(dp1263
g2
F-92.97225
sg3
I67
sg4
(idecision_tree
continuous_decision_tree
p1264
(dp1265
g2
F-75.09525
sg3
I67
sg4
(idecision_tree
continuous_decision_tree
p1266
(dp1267
g2
F-29.0
sg3
I67
sg4
(idecision_tree
continuous_decision_tree
p1268
(dp1269
g2
F4.0
sg3
I66
sg4
(idecision_tree
decision_tree_leaf
p1270
(dp1271
g31
g32
(g33
tp1272
Rp1273
S'Pn'
p1274
I2
sS'Sn'
p1275
I1
ssg40
g1274
sbsg41
(idecision_tree
decision_tree_leaf
p1276
(dp1277
g31
g32
(g33
tp1278
Rp1279
g36
I1
ssg40
g36
sbsbsg41
(idecision_tree
decision_tree_leaf
p1280
(dp1281
g31
g32
(g33
tp1282
Rp1283
g36
I5
sS'Pn'
p1284
I5
ssg40
g36
sbsbsg41
(idecision_tree
decision_tree
p1285
(dp1286
g3
I47
sg46
(dp1287
S'03-OCT-2009'
p1288
(idecision_tree
decision_tree_leaf
p1289
(dp1290
g31
g32
(g33
tp1291
Rp1292
g36
I1
ssg40
g36
sbsS'30-OCT-2009'
p1293
(idecision_tree
decision_tree_leaf
p1294
(dp1295
g31
g32
(g33
tp1296
Rp1297
S'Pn'
p1298
I1
ssg40
g1298
sbssbsbsg41
(idecision_tree
continuous_decision_tree
p1299
(dp1300
g2
F3.5
sg3
I66
sg4
(idecision_tree
continuous_decision_tree
p1301
(dp1302
g2
F0.2975765
sg3
I52
sg4
(idecision_tree
decision_tree
p1303
(dp1304
g3
I47
sg46
(dp1305
S'04-MAY-2009'
p1306
(idecision_tree
decision_tree_leaf
p1307
(dp1308
g31
g32
(g33
tp1309
Rp1310
g36
I1
ssg40
g36
sbsS'09-OCT-2009'
p1311
(idecision_tree
decision_tree_leaf
p1312
(dp1313
g31
g32
(g33
tp1314
Rp1315
S'Pn'
p1316
I1
ssg40
g1316
sbssbsg41
(idecision_tree
decision_tree
p1317
(dp1318
g3
I47
sg46
(dp1319
S'06-NOV-2009'
p1320
(idecision_tree
decision_tree_leaf
p1321
(dp1322
g31
g32
(g33
tp1323
Rp1324
S'Pn'
p1325
I1
ssg40
g1325
sbsS'02-JUL-2009'
p1326
(idecision_tree
decision_tree_leaf
p1327
(dp1328
g31
g32
(g33
tp1329
Rp1330
g36
I1
ssg40
g36
sbssbsbsg41
(idecision_tree
decision_tree
p1331
(dp1332
g3
I47
sg46
(dp1333
S'15-OCT-2009'
p1334
(idecision_tree
decision_tree_leaf
p1335
(dp1336
g31
g32
(g33
tp1337
Rp1338
S'Sn'
p1339
I1
ssg40
g1339
sbsS'31-MAR-2009'
p1340
(idecision_tree
decision_tree_leaf
p1341
(dp1342
g31
g32
(g33
tp1343
Rp1344
S'Pn'
p1345
I1
ssg40
g1345
sbssbsbsbsg41
(idecision_tree
decision_tree
p1346
(dp1347
g3
I47
sg46
(dp1348
S'15-JUL-2009'
p1349
(idecision_tree
decision_tree_leaf
p1350
(dp1351
g31
g32
(g33
tp1352
Rp1353
g36
I1
ssg40
g36
sbsS'04-MAY-2009'
p1354
(idecision_tree
decision_tree_leaf
p1355
(dp1356
g31
g32
(g33
tp1357
Rp1358
S'Pn'
p1359
I1
ssg40
g1359
sbssbsbsg41
(idecision_tree
continuous_decision_tree
p1360
(dp1361
g2
F1.0
sg3
I53
sg4
(idecision_tree
continuous_decision_tree
p1362
(dp1363
g2
F0.5088545
sg3
I52
sg4
(idecision_tree
continuous_decision_tree
p1364
(dp1365
g2
F-44.2
sg3
I67
sg4
(idecision_tree
decision_tree
p1366
(dp1367
g3
I47
sg46
(dp1368
S'25-OCT-2009'
p1369
(idecision_tree
decision_tree_leaf
p1370
(dp1371
g31
g32
(g33
tp1372
Rp1373
S'Pn'
p1374
I1
ssg40
g1374
sbsS'22-JAN-2009'
p1375
(idecision_tree
decision_tree_leaf
p1376
(dp1377
g31
g32
(g33
tp1378
Rp1379
g36
I1
ssg40
g36
sbssbsg41
(idecision_tree
continuous_decision_tree
p1380
(dp1381
g2
F-2.5
sg3
I66
sg4
(idecision_tree
decision_tree_leaf
p1382
(dp1383
g31
g32
(g33
tp1384
Rp1385
g36
I1
sS'Pn'
p1386
I3
sS'Sn'
p1387
I1
ssg40
g1386
sbsg41
(idecision_tree
decision_tree
p1388
(dp1389
g3
I47
sg46
(dp1390
S'21-SEP-2009'
p1391
(idecision_tree
decision_tree_leaf
p1392
(dp1393
g31
g32
(g33
tp1394
Rp1395
g36
I1
ssg40
g36
sbsS'30-OCT-2009'
p1396
(idecision_tree
decision_tree_leaf
p1397
(dp1398
g31
g32
(g33
tp1399
Rp1400
S'Pn'
p1401
I1
ssg40
g1401
sbssbsbsbsg41
(idecision_tree
continuous_decision_tree
p1402
(dp1403
g2
F-42.166650000000004
sg3
I67
sg4
(idecision_tree
decision_tree
p1404
(dp1405
g3
I47
sg46
(dp1406
S'28-OCT-2009'
p1407
(idecision_tree
decision_tree_leaf
p1408
(dp1409
g31
g32
(g33
tp1410
Rp1411
g36
I1
ssg40
g36
sbsS'05-OCT-2009'
p1412
(idecision_tree
decision_tree_leaf
p1413
(dp1414
g31
g32
(g33
tp1415
Rp1416
S'Pn'
p1417
I1
ssg40
g1417
sbssbsg41
(idecision_tree
continuous_decision_tree
p1418
(dp1419
g2
F8.0
sg3
I63
sg4
(idecision_tree
decision_tree
p1420
(dp1421
g3
I47
sg46
(dp1422
S'26-SEP-2009'
p1423
(idecision_tree
decision_tree_leaf
p1424
(dp1425
g31
g32
(g33
tp1426
Rp1427
g36
I1
ssg40
g36
sbsS'25-NOV-2009'
p1428
(idecision_tree
decision_tree_leaf
p1429
(dp1430
g31
g32
(g33
tp1431
Rp1432
S'Pn'
p1433
I1
ssg40
g1433
sbssbsg41
(idecision_tree
continuous_decision_tree
p1434
(dp1435
g2
F-1.5
sg3
I66
sg4
(idecision_tree
decision_tree
p1436
(dp1437
g3
I47
sg46
(dp1438
S'26-MAR-2009'
p1439
(idecision_tree
decision_tree_leaf
p1440
(dp1441
g31
g32
(g33
tp1442
Rp1443
g36
I1
ssg40
g36
sbsS'08-OCT-2009'
p1444
(idecision_tree
decision_tree_leaf
p1445
(dp1446
g31
g32
(g33
tp1447
Rp1448
S'Pn'
p1449
I1
ssg40
g1449
sbssbsg41
(idecision_tree
continuous_decision_tree
p1450
(dp1451
g2
F-130.75
sg3
I67
sg4
(idecision_tree
decision_tree
p1452
(dp1453
g3
I47
sg46
(dp1454
S'04-OCT-2009'
p1455
(idecision_tree
decision_tree_leaf
p1456
(dp1457
g31
g32
(g33
tp1458
Rp1459
S'Pn'
p1460
I1
ssg40
g1460
sbsS'08-OCT-2009'
p1461
(idecision_tree
decision_tree_leaf
p1462
(dp1463
g31
g32
(g33
tp1464
Rp1465
g36
I1
ssg40
g36
sbssbsg41
(idecision_tree
decision_tree_leaf
p1466
(dp1467
g31
g32
(g33
tp1468
Rp1469
S'Pn'
p1470
I1
ssg40
g1470
sbsbsbsbsbsbsg41
(idecision_tree
continuous_decision_tree
p1471
(dp1472
g2
F1.75
sg3
I59
sg4
(idecision_tree
continuous_decision_tree
p1473
(dp1474
g2
F-20.41665
sg3
I67
sg4
(idecision_tree
decision_tree
p1475
(dp1476
g3
I47
sg46
(dp1477
S'30-SEP-2009'
p1478
(idecision_tree
decision_tree_leaf
p1479
(dp1480
g31
g32
(g33
tp1481
Rp1482
S'Pn'
p1483
I1
ssg40
g1483
sbsS'27-OCT-2009'
p1484
(idecision_tree
decision_tree_leaf
p1485
(dp1486
g31
g32
(g33
tp1487
Rp1488
g37
I1
ssg40
g37
sbssbsg41
(idecision_tree
continuous_decision_tree
p1489
(dp1490
g2
F-2.5
sg3
I66
sg4
(idecision_tree
continuous_decision_tree
p1491
(dp1492
g2
F-1.5
sg3
I66
sg4
(idecision_tree
continuous_decision_tree
p1493
(dp1494
g2
F2.0
sg3
I66
sg4
(idecision_tree
continuous_decision_tree
p1495
(dp1496
g2
F-111.8
sg3
I67
sg4
(idecision_tree
continuous_decision_tree
p1497
(dp1498
g2
F-94.104
sg3
I67
sg4
(idecision_tree
decision_tree
p1499
(dp1500
g3
I47
sg46
(dp1501
S'13-JAN-2009'
p1502
(idecision_tree
decision_tree_leaf
p1503
(dp1504
g31
g32
(g33
tp1505
Rp1506
S'Pn'
p1507
I1
ssg40
g1507
sbsS'05-OCT-2009'
p1508
(idecision_tree
decision_tree_leaf
p1509
(dp1510
g31
g32
(g33
tp1511
Rp1512
S'Sn'
p1513
I1
ssg40
g1513
sbssbsg41
(idecision_tree
decision_tree_leaf
p1514
(dp1515
g31
g32
(g33
tp1516
Rp1517
g36
I1
ssg40
g36
sbsbsg41
(idecision_tree
decision_tree
p1518
(dp1519
g3
I47
sg46
(dp1520
S'30-OCT-2009'
p1521
(idecision_tree
decision_tree_leaf
p1522
(dp1523
g31
g32
(g33
tp1524
Rp1525
S'Pn'
p1526
I1
ssg40
g1526
sbsS'08-OCT-2009'
p1527
(idecision_tree
decision_tree_leaf
p1528
(dp1529
g31
g32
(g33
tp1530
Rp1531
g36
I1
ssg40
g36
sbssbsbsg41
(idecision_tree
continuous_decision_tree
p1532
(dp1533
g2
F18.25
sg3
I63
sg4
(idecision_tree
continuous_decision_tree
p1534
(dp1535
g2
F20.83335
sg3
I63
sg4
(idecision_tree
continuous_decision_tree
p1536
(dp1537
g2
F36.333349999999996
sg3
I63
sg4
(idecision_tree
decision_tree
p1538
(dp1539
g3
I47
sg46
(dp1540
S'28-NOV-2009'
p1541
(idecision_tree
decision_tree_leaf
p1542
(dp1543
g31
g32
(g33
tp1544
Rp1545
S'Pn'
p1546
I1
ssg40
g1546
sbsS'22-AUG-2009'
p1547
(idecision_tree
decision_tree_leaf
p1548
(dp1549
g31
g32
(g33
tp1550
Rp1551
g36
I1
ssg40
g36
sbssbsg41
(idecision_tree
decision_tree_leaf
p1552
(dp1553
g31
g32
(g33
tp1554
Rp1555
S'Pn'
p1556
I1
ssg40
g1556
sbsbsg41
(idecision_tree
decision_tree
p1557
(dp1558
g3
I47
sg46
(dp1559
S'06-AUG-2009'
p1560
(idecision_tree
decision_tree_leaf
p1561
(dp1562
g31
g32
(g33
tp1563
Rp1564
g36
I1
ssg40
g36
sbsS'30-SEP-2009'
p1565
(idecision_tree
decision_tree_leaf
p1566
(dp1567
g31
g32
(g33
tp1568
Rp1569
S'Pn'
p1570
I1
ssg40
g1570
sbssbsbsg41
(idecision_tree
continuous_decision_tree
p1571
(dp1572
g2
F-134.625
sg3
I67
sg4
(idecision_tree
decision_tree_leaf
p1573
(dp1574
g31
g32
(g33
tp1575
Rp1576
g36
I1
sg37
I1
sS'Pn'
p1577
I3
ssg40
g1577
sbsg41
(idecision_tree
decision_tree
p1578
(dp1579
g3
I47
sg46
(dp1580
S'03-JUN-2009'
p1581
(idecision_tree
decision_tree_leaf
p1582
(dp1583
g31
g32
(g33
tp1584
Rp1585
g36
I1
ssg40
g36
sbsS'30-SEP-2009'
p1586
(idecision_tree
decision_tree_leaf
p1587
(dp1588
g31
g32
(g33
tp1589
Rp1590
S'Pn'
p1591
I1
ssg40
g1591
sbssbsbsbsbsg41
(idecision_tree
decision_tree
p1592
(dp1593
g3
I47
sg46
(dp1594
S'02-OCT-2009'
p1595
(idecision_tree
decision_tree_leaf
p1596
(dp1597
g31
g32
(g33
tp1598
Rp1599
S'Pn'
p1600
I1
ssg40
g1600
sbsS'21-MAR-2009'
p1601
(idecision_tree
decision_tree_leaf
p1602
(dp1603
g31
g32
(g33
tp1604
Rp1605
S'Sn'
p1606
I1
ssg40
g1606
sbssbsbsg41
(idecision_tree
decision_tree
p1607
(dp1608
g3
I47
sg46
(dp1609
S'30-SEP-2009'
p1610
(idecision_tree
decision_tree_leaf
p1611
(dp1612
g31
g32
(g33
tp1613
Rp1614
S'Pn'
p1615
I1
ssg40
g1615
sbsS'08-OCT-2009'
p1616
(idecision_tree
decision_tree_leaf
p1617
(dp1618
g31
g32
(g33
tp1619
Rp1620
g36
I1
ssg40
g36
sbssbsbsbsg41
(idecision_tree
continuous_decision_tree
p1621
(dp1622
g2
F-136.75
sg3
I67
sg4
(idecision_tree
continuous_decision_tree
p1623
(dp1624
g2
F-125.0835
sg3
I67
sg4
(idecision_tree
continuous_decision_tree
p1625
(dp1626
g2
F-112.8335
sg3
I67
sg4
(idecision_tree
continuous_decision_tree
p1627
(dp1628
g2
F-12.625
sg3
I59
sg4
(idecision_tree
continuous_decision_tree
p1629
(dp1630
g2
F-39.5
sg3
I67
sg4
(idecision_tree
decision_tree
p1631
(dp1632
g3
I47
sg46
(dp1633
S'08-AUG-2009'
p1634
(idecision_tree
decision_tree_leaf
p1635
(dp1636
g31
g32
(g33
tp1637
Rp1638
S'Pn'
p1639
I1
ssg40
g1639
sbsS'21-MAR-2009'
p1640
(idecision_tree
decision_tree_leaf
p1641
(dp1642
g31
g32
(g33
tp1643
Rp1644
g36
I1
ssg40
g36
sbssbsg41
(idecision_tree
continuous_decision_tree
p1645
(dp1646
g2
F-50.55
sg3
I67
sg4
(idecision_tree
decision_tree
p1647
(dp1648
g3
I47
sg46
(dp1649
S'25-OCT-2009'
p1650
(idecision_tree
decision_tree_leaf
p1651
(dp1652
g31
g32
(g33
tp1653
Rp1654
S'Pn'
p1655
I1
ssg40
g1655
sbsS'24-JAN-2009'
p1656
(idecision_tree
decision_tree_leaf
p1657
(dp1658
g31
g32
(g33
tp1659
Rp1660
g37
I1
ssg40
g37
sbssbsg41
(idecision_tree
continuous_decision_tree
p1661
(dp1662
g2
F0.355747
sg3
I52
sg4
(idecision_tree
continuous_decision_tree
p1663
(dp1664
g2
F-48.166650000000004
sg3
I63
sg4
(idecision_tree
continuous_decision_tree
p1665
(dp1666
g2
F-2.5
sg3
I66
sg4
(idecision_tree
continuous_decision_tree
p1667
(dp1668
g2
F-100.66665
sg3
I67
sg4
(idecision_tree
continuous_decision_tree
p1669
(dp1670
g2
F0.0
sg3
I66
sg4
(idecision_tree
decision_tree
p1671
(dp1672
g3
I47
sg46
(dp1673
S'30-SEP-2009'
p1674
(idecision_tree
decision_tree_leaf
p1675
(dp1676
g31
g32
(g33
tp1677
Rp1678
S'Pn'
p1679
I2
ssg40
g1679
sbsS'18-OCT-2009'
p1680
(idecision_tree
decision_tree_leaf
p1681
(dp1682
g31
g32
(g33
tp1683
Rp1684
S'Pn'
p1685
I1
ssg40
g1685
sbsS'26-OCT-2009'
p1686
(idecision_tree
decision_tree_leaf
p1687
(dp1688
g31
g32
(g33
tp1689
Rp1690
g36
I1
ssg40
g36
sbssbsg41
(idecision_tree
decision_tree_leaf
p1691
(dp1692
g31
g32
(g33
tp1693
Rp1694
g36
I1
ssg40
g36
sbsbsg41
(idecision_tree
decision_tree
p1695
(dp1696
g3
I47
sg46
(dp1697
S'22-OCT-2009'
p1698
(idecision_tree
decision_tree_leaf
p1699
(dp1700
g31
g32
(g33
tp1701
Rp1702
S'Pn'
p1703
I1
ssg40
g1703
sbsS'10-APR-2009'
p1704
(idecision_tree
decision_tree_leaf
p1705
(dp1706
g31
g32
(g33
tp1707
Rp1708
g36
I1
ssg40
g36
sbssbsbsg41
(idecision_tree
decision_tree
p1709
(dp1710
g3
I47
sg46
(dp1711
S'10-AUG-2009'
p1712
(idecision_tree
decision_tree_leaf
p1713
(dp1714
g31
g32
(g33
tp1715
Rp1716
g36
I1
ssg40
g36
sbsS'30-SEP-2009'
p1717
(idecision_tree
decision_tree_leaf
p1718
(dp1719
g31
g32
(g33
tp1720
Rp1721
S'Pn'
p1722
I1
ssg40
g1722
sbssbsbsg41
(idecision_tree
decision_tree
p1723
(dp1724
g3
I47
sg46
(dp1725
S'01-SEP-2009'
p1726
(idecision_tree
decision_tree_leaf
p1727
(dp1728
g31
g32
(g33
tp1729
Rp1730
g36
I1
ssg40
g36
sbsS'12-OCT-2009'
p1731
(idecision_tree
decision_tree_leaf
p1732
(dp1733
g31
g32
(g33
tp1734
Rp1735
S'Pn'
p1736
I1
ssg40
g1736
sbssbsbsg41
(idecision_tree
decision_tree
p1737
(dp1738
g3
I47
sg46
(dp1739
S'14-FEB-2009'
p1740
(idecision_tree
decision_tree_leaf
p1741
(dp1742
g31
g32
(g33
tp1743
Rp1744
g36
I1
ssg40
g36
sbsS'07-OCT-2009'
p1745
(idecision_tree
decision_tree_leaf
p1746
(dp1747
g31
g32
(g33
tp1748
Rp1749
S'Pn'
p1750
I1
ssg40
g1750
sbssbsbsbsbsg41
(idecision_tree
decision_tree
p1751
(dp1752
g3
I47
sg46
(dp1753
S'04-MAR-2009'
p1754
(idecision_tree
decision_tree_leaf
p1755
(dp1756
g31
g32
(g33
tp1757
Rp1758
g36
I1
ssg40
g36
sbsS'12-OCT-2009'
p1759
(idecision_tree
decision_tree_leaf
p1760
(dp1761
g31
g32
(g33
tp1762
Rp1763
S'Pn'
p1764
I1
ssg40
g1764
sbssbsbsg41
(idecision_tree
decision_tree
p1765
(dp1766
g3
I47
sg46
(dp1767
S'01-AUG-2009'
p1768
(idecision_tree
decision_tree_leaf
p1769
(dp1770
g31
g32
(g33
tp1771
Rp1772
S'Sn'
p1773
I1
ssg40
g1773
sbsS'22-MAY-2009'
p1774
(idecision_tree
decision_tree_leaf
p1775
(dp1776
g31
g32
(g33
tp1777
Rp1778
S'Pn'
p1779
I1
ssg40
g1779
sbssbsbsg41
(idecision_tree
decision_tree
p1780
(dp1781
g3
I47
sg46
(dp1782
S'17-DEC-2009'
p1783
(idecision_tree
decision_tree_leaf
p1784
(dp1785
g31
g32
(g33
tp1786
Rp1787
g36
I1
ssg40
g36
sbsS'08-OCT-2009'
p1788
(idecision_tree
decision_tree_leaf
p1789
(dp1790
g31
g32
(g33
tp1791
Rp1792
S'Pn'
p1793
I1
ssg40
g1793
sbssbsbsg41
(idecision_tree
decision_tree
p1794
(dp1795
g3
I47
sg46
(dp1796
S'13-APR-2009'
p1797
(idecision_tree
decision_tree_leaf
p1798
(dp1799
g31
g32
(g33
tp1800
Rp1801
g36
I1
ssg40
g36
sbsS'30-SEP-2009'
p1802
(idecision_tree
decision_tree_leaf
p1803
(dp1804
g31
g32
(g33
tp1805
Rp1806
S'Pn'
p1807
I1
ssg40
g1807
sbssbsbsbsbsbsg41
(idecision_tree
continuous_decision_tree
p1808
(dp1809
g2
F-24.91665
sg3
I67
sg4
(idecision_tree
continuous_decision_tree
p1810
(dp1811
g2
F1.5
sg3
I66
sg4
(idecision_tree
decision_tree
p1812
(dp1813
g3
I47
sg46
(dp1814
S'19-FEB-2009'
p1815
(idecision_tree
decision_tree_leaf
p1816
(dp1817
g31
g32
(g33
tp1818
Rp1819
g36
I1
ssg40
g36
sbsS'21-MAR-2009'
p1820
(idecision_tree
decision_tree_leaf
p1821
(dp1822
g31
g32
(g33
tp1823
Rp1824
S'Pn'
p1825
I1
ssg40
g1825
sbssbsg41
(idecision_tree
continuous_decision_tree
p1826
(dp1827
g2
F-14.5
sg3
I67
sg4
(idecision_tree
decision_tree
p1828
(dp1829
g3
I47
sg46
(dp1830
S'26-AUG-2009'
p1831
(idecision_tree
decision_tree_leaf
p1832
(dp1833
g31
g32
(g33
tp1834
Rp1835
g36
I1
ssg40
g36
sbsS'30-OCT-2009'
p1836
(idecision_tree
decision_tree_leaf
p1837
(dp1838
g31
g32
(g33
tp1839
Rp1840
S'Pn'
p1841
I1
ssg40
g1841
sbssbsg41
(idecision_tree
continuous_decision_tree
p1842
(dp1843
g2
F-17.25
sg3
I67
sg4
(idecision_tree
decision_tree
p1844
(dp1845
g3
I47
sg46
(dp1846
S'31-MAY-2009'
p1847
(idecision_tree
decision_tree_leaf
p1848
(dp1849
g31
g32
(g33
tp1850
Rp1851
S'Pn'
p1852
I1
ssg40
g1852
sbsS'29-NOV-2009'
p1853
(idecision_tree
decision_tree_leaf
p1854
(dp1855
g31
g32
(g33
tp1856
Rp1857
g37
I1
ssg40
g37
sbssbsg41
(idecision_tree
continuous_decision_tree
p1858
(dp1859
g2
F-1.0
sg3
I66
sg4
(idecision_tree
decision_tree_leaf
p1860
(dp1861
g31
g32
(g33
tp1862
Rp1863
g36
I3
sS'Pn'
p1864
I3
ssg40
g36
sbsg41
(idecision_tree
decision_tree_leaf
p1865
(dp1866
g31
g32
(g33
tp1867
Rp1868
S'Pn'
p1869
I1
ssg40
g1869
sbsbsbsbsbsg41
(idecision_tree
continuous_decision_tree
p1870
(dp1871
g2
F-3.5
sg3
I66
sg4
(idecision_tree
continuous_decision_tree
p1872
(dp1873
g2
F-55.25
sg3
I67
sg4
(idecision_tree
continuous_decision_tree
p1874
(dp1875
g2
F-45.0
sg3
I67
sg4
(idecision_tree
continuous_decision_tree
p1876
(dp1877
g2
F18.5
sg3
I63
sg4
(idecision_tree
decision_tree
p1878
(dp1879
g3
I47
sg46
(dp1880
S'20-MAY-2009'
p1881
(idecision_tree
decision_tree_leaf
p1882
(dp1883
g31
g32
(g33
tp1884
Rp1885
S'Pn'
p1886
I1
ssg40
g1886
sbsS'22-NOV-2009'
p1887
(idecision_tree
decision_tree_leaf
p1888
(dp1889
g31
g32
(g33
tp1890
Rp1891
g36
I1
ssg40
g36
sbssbsg41
(idecision_tree
continuous_decision_tree
p1892
(dp1893
g2
F0.5
sg3
I58
sg4
(idecision_tree
decision_tree
p1894
(dp1895
g3
I47
sg46
(dp1896
S'28-JAN-2009'
p1897
(idecision_tree
decision_tree_leaf
p1898
(dp1899
g31
g32
(g33
tp1900
Rp1901
S'Pn'
p1902
I1
ssg40
g1902
sbsS'08-OCT-2009'
p1903
(idecision_tree
decision_tree_leaf
p1904
(dp1905
g31
g32
(g33
tp1906
Rp1907
g36
I1
ssg40
g36
sbssbsg41
(idecision_tree
continuous_decision_tree
p1908
(dp1909
g2
F-21.0
sg3
I59
sg4
(idecision_tree
decision_tree
p1910
(dp1911
g3
I47
sg46
(dp1912
S'12-FEB-2009'
p1913
(idecision_tree
decision_tree_leaf
p1914
(dp1915
g31
g32
(g33
tp1916
Rp1917
g36
I1
ssg40
g36
sbsS'15-DEC-2009'
p1918
(idecision_tree
decision_tree_leaf
p1919
(dp1920
g31
g32
(g33
tp1921
Rp1922
S'Pn'
p1923
I1
ssg40
g1923
sbssbsg41
(idecision_tree
continuous_decision_tree
p1924
(dp1925
g2
F-1.5
sg3
I66
sg4
(idecision_tree
continuous_decision_tree
p1926
(dp1927
g2
F0.15388580000000002
sg3
I51
sg4
(idecision_tree
decision_tree
p1928
(dp1929
g3
I47
sg46
(dp1930
S'21-JUL-2009'
p1931
(idecision_tree
decision_tree_leaf
p1932
(dp1933
g31
g32
(g33
tp1934
Rp1935
g36
I1
ssg40
g36
sbsS'01-DEC-2009'
p1936
(idecision_tree
decision_tree_leaf
p1937
(dp1938
g31
g32
(g33
tp1939
Rp1940
S'Pn'
p1941
I1
ssg40
g1941
sbssbsg41
(idecision_tree
decision_tree_leaf
p1942
(dp1943
g31
g32
(g33
tp1944
Rp1945
S'Pn'
p1946
I1
ssg40
g1946
sbsbsg41
(idecision_tree
decision_tree
p1947
(dp1948
g3
I47
sg46
(dp1949
S'20-NOV-2009'
p1950
(idecision_tree
decision_tree_leaf
p1951
(dp1952
g31
g32
(g33
tp1953
Rp1954
S'Pn'
p1955
I1
ssg40
g1955
sbsS'02-MAY-2009'
p1956
(idecision_tree
decision_tree_leaf
p1957
(dp1958
g31
g32
(g33
tp1959
Rp1960
g36
I1
ssg40
g36
sbssbsbsbsbsbsg41
(idecision_tree
decision_tree
p1961
(dp1962
g3
I47
sg46
(dp1963
S'09-NOV-2009'
p1964
(idecision_tree
decision_tree_leaf
p1965
(dp1966
g31
g32
(g33
tp1967
Rp1968
g36
I1
ssg40
g36
sbsS'21-OCT-2009'
p1969
(idecision_tree
decision_tree_leaf
p1970
(dp1971
g31
g32
(g33
tp1972
Rp1973
S'Pn'
p1974
I1
ssg40
g1974
sbssbsbsg41
(idecision_tree
continuous_decision_tree
p1975
(dp1976
g2
F-48.25
sg3
I63
sg4
(idecision_tree
continuous_decision_tree
p1977
(dp1978
g2
F-43.5
sg3
I63
sg4
(idecision_tree
continuous_decision_tree
p1979
(dp1980
g2
F0.5386595000000001
sg3
I50
sg4
(idecision_tree
decision_tree_leaf
p1981
(dp1982
g31
g32
(g33
tp1983
Rp1984
g36
I3
sS'Pn'
p1985
I4
ssg40
g1985
sbsg41
(idecision_tree
decision_tree
p1986
(dp1987
g3
I47
sg46
(dp1988
S'12-FEB-2009'
p1989
(idecision_tree
decision_tree_leaf
p1990
(dp1991
g31
g32
(g33
tp1992
Rp1993
g36
I1
ssg40
g36
sbsS'20-MAR-2009'
p1994
(idecision_tree
decision_tree_leaf
p1995
(dp1996
g31
g32
(g33
tp1997
Rp1998
S'Pn'
p1999
I1
ssg40
g1999
sbssbsbsg41
(idecision_tree
decision_tree
p2000
(dp2001
g3
I47
sg46
(dp2002
S'16-MAY-2009'
p2003
(idecision_tree
decision_tree_leaf
p2004
(dp2005
g31
g32
(g33
tp2006
Rp2007
S'Pn'
p2008
I1
ssg40
g2008
sbsS'17-APR-2009'
p2009
(idecision_tree
decision_tree_leaf
p2010
(dp2011
g31
g32
(g33
tp2012
Rp2013
g36
I1
ssg40
g36
sbssbsbsg41
(idecision_tree
decision_tree
p2014
(dp2015
g3
I47
sg46
(dp2016
S'09-APR-2009'
p2017
(idecision_tree
decision_tree_leaf
p2018
(dp2019
g31
g32
(g33
tp2020
Rp2021
S'Pn'
p2022
I1
ssg40
g2022
sbsS'24-JUN-2009'
p2023
(idecision_tree
decision_tree_leaf
p2024
(dp2025
g31
g32
(g33
tp2026
Rp2027
g37
I1
ssg40
g37
sbssbsbsbsg41
(idecision_tree
continuous_decision_tree
p2028
(dp2029
g2
F-30.3
sg3
I67
sg4
(idecision_tree
decision_tree
p2030
(dp2031
g3
I47
sg46
(dp2032
S'06-NOV-2009'
p2033
(idecision_tree
decision_tree_leaf
p2034
(dp2035
g31
g32
(g33
tp2036
Rp2037
S'Pn'
p2038
I1
ssg40
g2038
sbsS'24-MAY-2009'
p2039
(idecision_tree
decision_tree_leaf
p2040
(dp2041
g31
g32
(g33
tp2042
Rp2043
g37
I1
ssg40
g37
sbssbsg41
(idecision_tree
continuous_decision_tree
p2044
(dp2045
g2
F-42.933350000000004
sg3
I63
sg4
(idecision_tree
continuous_decision_tree
p2046
(dp2047
g2
F-5.0
sg3
I66
sg4
(idecision_tree
decision_tree
p2048
(dp2049
g3
I47
sg46
(dp2050
S'07-MAY-2009'
p2051
(idecision_tree
decision_tree_leaf
p2052
(dp2053
g31
g32
(g33
tp2054
Rp2055
g36
I1
ssg40
g36
sbsS'23-AUG-2009'
p2056
(idecision_tree
decision_tree_leaf
p2057
(dp2058
g31
g32
(g33
tp2059
Rp2060
S'Pn'
p2061
I1
ssg40
g2061
sbsS'17-MAY-2009'
p2062
(idecision_tree
decision_tree_leaf
p2063
(dp2064
g31
g32
(g33
tp2065
Rp2066
g36
I1
ssg40
g36
sbsS'12-OCT-2009'
p2067
(idecision_tree
decision_tree_leaf
p2068
(dp2069
g31
g32
(g33
tp2070
Rp2071
g36
I1
ssg40
g36
sbssbsg41
(idecision_tree
decision_tree
p2072
(dp2073
g3
I47
sg46
(dp2074
S'15-OCT-2009'
p2075
(idecision_tree
decision_tree_leaf
p2076
(dp2077
g31
g32
(g33
tp2078
Rp2079
S'Pn'
p2080
I1
ssg40
g2080
sbsS'16-SEP-2009'
p2081
(idecision_tree
decision_tree_leaf
p2082
(dp2083
g31
g32
(g33
tp2084
Rp2085
S'Pn'
p2086
I1
ssg40
g2086
sbsS'02-OCT-2009'
p2087
(idecision_tree
decision_tree_leaf
p2088
(dp2089
g31
g32
(g33
tp2090
Rp2091
S'Pn'
p2092
I1
ssg40
g2092
sbsS'24-NOV-2009'
p2093
(idecision_tree
decision_tree_leaf
p2094
(dp2095
g31
g32
(g33
tp2096
Rp2097
g36
I1
ssg40
g36
sbsS'01-OCT-2009'
p2098
(idecision_tree
decision_tree_leaf
p2099
(dp2100
g31
g32
(g33
tp2101
Rp2102
S'Pn'
p2103
I1
ssg40
g2103
sbssbsbsg41
(idecision_tree
decision_tree
p2104
(dp2105
g3
I47
sg46
(dp2106
S'23-NOV-2009'
p2107
(idecision_tree
decision_tree_leaf
p2108
(dp2109
g31
g32
(g33
tp2110
Rp2111
g36
I1
ssg40
g36
sbsS'01-OCT-2009'
p2112
(idecision_tree
decision_tree_leaf
p2113
(dp2114
g31
g32
(g33
tp2115
Rp2116
S'Pn'
p2117
I1
ssg40
g2117
sbssbsbsbsbsbsbsbsbsbsbsg41
(idecision_tree
decision_tree
p2118
(dp2119
g3
I47
sg46
(dp2120
S'24-FEB-2009'
p2121
(idecision_tree
decision_tree_leaf
p2122
(dp2123
g31
g32
(g33
tp2124
Rp2125
g36
I1
ssg40
g36
sbsS'09-OCT-2009'
p2126
(idecision_tree
decision_tree_leaf
p2127
(dp2128
g31
g32
(g33
tp2129
Rp2130
S'Pn'
p2131
I1
ssg40
g2131
sbssbsbsg41
(idecision_tree
continuous_decision_tree
p2132
(dp2133
g2
F0.5258745
sg3
I52
sg4
(idecision_tree
decision_tree
p2134
(dp2135
g3
I47
sg46
(dp2136
S'08-APR-2009'
p2137
(idecision_tree
decision_tree_leaf
p2138
(dp2139
g31
g32
(g33
tp2140
Rp2141
S'Pn'
p2142
I1
ssg40
g2142
sbsS'26-FEB-2009'
p2143
(idecision_tree
decision_tree_leaf
p2144
(dp2145
g31
g32
(g33
tp2146
Rp2147
g36
I1
ssg40
g36
sbssbsg41
(idecision_tree
decision_tree
p2148
(dp2149
g3
I47
sg46
(dp2150
S'09-NOV-2009'
p2151
(idecision_tree
decision_tree_leaf
p2152
(dp2153
g31
g32
(g33
tp2154
Rp2155
g36
I1
ssg40
g36
sbsS'12-MAR-2009'
p2156
(idecision_tree
decision_tree_leaf
p2157
(dp2158
g31
g32
(g33
tp2159
Rp2160
S'Pn'
p2161
I1
ssg40
g2161
sbssbsbsbsg41
(idecision_tree
decision_tree
p2162
(dp2163
g3
I47
sg46
(dp2164
S'25-JAN-2009'
p2165
(idecision_tree
decision_tree_leaf
p2166
(dp2167
g31
g32
(g33
tp2168
Rp2169
S'Pn'
p2170
I1
ssg40
g2170
sbsS'16-FEB-2009'
p2171
(idecision_tree
decision_tree_leaf
p2172
(dp2173
g31
g32
(g33
tp2174
Rp2175
g36
I1
ssg40
g36
sbssbsbsg41
(idecision_tree
continuous_decision_tree
p2176
(dp2177
g2
F0.5
sg3
I66
sg4
(idecision_tree
continuous_decision_tree
p2178
(dp2179
g2
F0.45811349999999995
sg3
I51
sg4
(idecision_tree
decision_tree
p2180
(dp2181
g3
I47
sg46
(dp2182
S'22-MAR-2009'
p2183
(idecision_tree
decision_tree_leaf
p2184
(dp2185
g31
g32
(g33
tp2186
Rp2187
g36
I1
ssg40
g36
sbsS'01-OCT-2009'
p2188
(idecision_tree
decision_tree_leaf
p2189
(dp2190
g31
g32
(g33
tp2191
Rp2192
S'Pn'
p2193
I1
ssg40
g2193
sbssbsg41
(idecision_tree
decision_tree
p2194
(dp2195
g3
I47
sg46
(dp2196
S'21-MAY-2009'
p2197
(idecision_tree
decision_tree_leaf
p2198
(dp2199
g31
g32
(g33
tp2200
Rp2201
g36
I1
ssg40
g36
sbsS'01-OCT-2009'
p2202
(idecision_tree
decision_tree_leaf
p2203
(dp2204
g31
g32
(g33
tp2205
Rp2206
S'Pn'
p2207
I1
ssg40
g2207
sbssbsbsg41
(idecision_tree
decision_tree
p2208
(dp2209
g3
I47
sg46
(dp2210
S'25-OCT-2009'
p2211
(idecision_tree
decision_tree_leaf
p2212
(dp2213
g31
g32
(g33
tp2214
Rp2215
S'Pn'
p2216
I1
ssg40
g2216
sbsS'24-OCT-2009'
p2217
(idecision_tree
decision_tree_leaf
p2218
(dp2219
g31
g32
(g33
tp2220
Rp2221
g36
I1
ssg40
g36
sbssbsbsbsg41
(idecision_tree
continuous_decision_tree
p2222
(dp2223
g2
F-3.0
sg3
I66
sg4
(idecision_tree
decision_tree_leaf
p2224
(dp2225
g31
g32
(g33
tp2226
Rp2227
g36
I7
sS'Pn'
p2228
I7
ssg40
g36
sbsg41
(idecision_tree
decision_tree
p2229
(dp2230
g3
I47
sg46
(dp2231
S'23-OCT-2009'
p2232
(idecision_tree
decision_tree_leaf
p2233
(dp2234
g31
g32
(g33
tp2235
Rp2236
g36
I1
ssg40
g36
sbsS'24-NOV-2009'
p2237
(idecision_tree
decision_tree_leaf
p2238
(dp2239
g31
g32
(g33
tp2240
Rp2241
S'Pn'
p2242
I1
ssg40
g2242
sbssbsbsbsg41
(idecision_tree
continuous_decision_tree
p2243
(dp2244
g2
F-3.0
sg3
I66
sg4
(idecision_tree
decision_tree_leaf
p2245
(dp2246
g31
g32
(g33
tp2247
Rp2248
g36
I10
sS'Pn'
p2249
I12
sS'Sn'
p2250
I2
ssg40
g2249
sbsg41
(idecision_tree
continuous_decision_tree
p2251
(dp2252
g2
F0.86165
sg3
I48
sg4
(idecision_tree
decision_tree
p2253
(dp2254
g3
I47
sg46
(dp2255
S'30-SEP-2009'
p2256
(idecision_tree
decision_tree_leaf
p2257
(dp2258
g31
g32
(g33
tp2259
Rp2260
S'Pn'
p2261
I1
ssg40
g2261
sbsS'23-AUG-2009'
p2262
(idecision_tree
decision_tree_leaf
p2263
(dp2264
g31
g32
(g33
tp2265
Rp2266
g36
I1
ssg40
g36
sbssbsg41
(idecision_tree
decision_tree
p2267
(dp2268
g3
I47
sg46
(dp2269
S'13-NOV-2009'
p2270
(idecision_tree
decision_tree_leaf
p2271
(dp2272
g31
g32
(g33
tp2273
Rp2274
g36
I1
ssg40
g36
sbsS'08-OCT-2009'
p2275
(idecision_tree
decision_tree_leaf
p2276
(dp2277
g31
g32
(g33
tp2278
Rp2279
S'Pn'
p2280
I1
ssg40
g2280
sbssbsbsbsbsg41
(idecision_tree
decision_tree_leaf
p2281
(dp2282
g31
g32
(g33
tp2283
Rp2284
g36
I4
sg37
I1
sS'Pn'
p2285
I5
ssg40
g2285
sbsbsg41
(idecision_tree
continuous_decision_tree
p2286
(dp2287
g2
F-257.33349999999996
sg3
I67
sg4
(idecision_tree
continuous_decision_tree
p2288
(dp2289
g2
F-1.0
sg3
I66
sg4
(idecision_tree
continuous_decision_tree
p2290
(dp2291
g2
F-244.8
sg3
I67
sg4
(idecision_tree
decision_tree_leaf
p2292
(dp2293
g31
g32
(g33
tp2294
Rp2295
g36
I5
sg37
I2
sS'Pn'
p2296
I2
ssg40
g36
sbsg41
(idecision_tree
decision_tree
p2297
(dp2298
g3
I47
sg46
(dp2299
S'02-OCT-2009'
p2300
(idecision_tree
decision_tree_leaf
p2301
(dp2302
g31
g32
(g33
tp2303
Rp2304
S'Pn'
p2305
I1
ssg40
g2305
sbsS'07-DEC-2009'
p2306
(idecision_tree
decision_tree_leaf
p2307
(dp2308
g31
g32
(g33
tp2309
Rp2310
g36
I1
ssg40
g36
sbssbsbsg41
(idecision_tree
decision_tree_leaf
p2311
(dp2312
g31
g32
(g33
tp2313
Rp2314
g36
I2
sg37
I1
sS'Pn'
p2315
I2
ssg40
g36
sbsbsg41
(idecision_tree
continuous_decision_tree
p2316
(dp2317
g2
F-2.5
sg3
I66
sg4
(idecision_tree
continuous_decision_tree
p2318
(dp2319
g2
F-1.0
sg3
I66
sg4
(idecision_tree
continuous_decision_tree
p2320
(dp2321
g2
F-277.0
sg3
I67
sg4
(idecision_tree
continuous_decision_tree
p2322
(dp2323
g2
F-0.5
sg3
I66
sg4
(idecision_tree
continuous_decision_tree
p2324
(dp2325
g2
F22.5
sg3
I63
sg4
(idecision_tree
decision_tree
p2326
(dp2327
g3
I47
sg46
(dp2328
S'07-OCT-2009'
p2329
(idecision_tree
decision_tree_leaf
p2330
(dp2331
g31
g32
(g33
tp2332
Rp2333
S'Pn'
p2334
I1
ssg40
g2334
sbsS'21-OCT-2009'
p2335
(idecision_tree
decision_tree_leaf
p2336
(dp2337
g31
g32
(g33
tp2338
Rp2339
g36
I1
ssg40
g36
sbssbsg41
(idecision_tree
decision_tree
p2340
(dp2341
g3
I47
sg46
(dp2342
S'28-MAY-2009'
p2343
(idecision_tree
decision_tree_leaf
p2344
(dp2345
g31
g32
(g33
tp2346
Rp2347
S'Pn'
p2348
I1
ssg40
g2348
sbsS'12-APR-2009'
p2349
(idecision_tree
decision_tree_leaf
p2350
(dp2351
g31
g32
(g33
tp2352
Rp2353
g36
I1
ssg40
g36
sbsS'30-SEP-2009'
p2354
(idecision_tree
decision_tree_leaf
p2355
(dp2356
g31
g32
(g33
tp2357
Rp2358
S'Pn'
p2359
I1
ssg40
g2359
sbssbsbsg41
(idecision_tree
decision_tree
p2360
(dp2361
g3
I47
sg46
(dp2362
S'27-OCT-2009'
p2363
(idecision_tree
decision_tree_leaf
p2364
(dp2365
g31
g32
(g33
tp2366
Rp2367
S'Pn'
p2368
I1
ssg40
g2368
sbsS'30-MAY-2009'
p2369
(idecision_tree
decision_tree_leaf
p2370
(dp2371
g31
g32
(g33
tp2372
Rp2373
g36
I1
ssg40
g36
sbssbsbsg41
(idecision_tree
continuous_decision_tree
p2374
(dp2375
g2
F-284.5
sg3
I67
sg4
(idecision_tree
continuous_decision_tree
p2376
(dp2377
g2
F-281.0
sg3
I67
sg4
(idecision_tree
continuous_decision_tree
p2378
(dp2379
g2
F0.5077455
sg3
I48
sg4
(idecision_tree
decision_tree
p2380
(dp2381
g3
I47
sg46
(dp2382
S'26-APR-2009'
p2383
(idecision_tree
decision_tree_leaf
p2384
(dp2385
g31
g32
(g33
tp2386
Rp2387
g36
I1
ssg40
g36
sbsS'23-JUL-2009'
p2388
(idecision_tree
decision_tree_leaf
p2389
(dp2390
g31
g32
(g33
tp2391
Rp2392
S'Pn'
p2393
I1
ssg40
g2393
sbssbsg41
(idecision_tree
decision_tree_leaf
p2394
(dp2395
g31
g32
(g33
tp2396
Rp2397
S'Pn'
p2398
I1
ssg40
g2398
sbsbsg41
(idecision_tree
decision_tree
p2399
(dp2400
g3
I47
sg46
(dp2401
S'25-JUL-2009'
p2402
(idecision_tree
decision_tree_leaf
p2403
(dp2404
g31
g32
(g33
tp2405
Rp2406
g36
I1
ssg40
g36
sbsS'03-OCT-2009'
p2407
(idecision_tree
decision_tree_leaf
p2408
(dp2409
g31
g32
(g33
tp2410
Rp2411
S'Pn'
p2412
I1
ssg40
g2412
sbssbsbsg41
(idecision_tree
decision_tree
p2413
(dp2414
g3
I47
sg46
(dp2415
S'08-APR-2009'
p2416
(idecision_tree
decision_tree_leaf
p2417
(dp2418
g31
g32
(g33
tp2419
Rp2420
S'Pn'
p2421
I1
ssg40
g2421
sbsS'25-NOV-2009'
p2422
(idecision_tree
decision_tree_leaf
p2423
(dp2424
g31
g32
(g33
tp2425
Rp2426
g36
I1
ssg40
g36
sbssbsbsbsg41
(idecision_tree
decision_tree_leaf
p2427
(dp2428
g31
g32
(g33
tp2429
Rp2430
g36
I2
ssg40
g36
sbsbsg41
(idecision_tree
decision_tree
p2431
(dp2432
g3
I47
sg46
(dp2433
S'03-JUL-2009'
p2434
(idecision_tree
decision_tree_leaf
p2435
(dp2436
g31
g32
(g33
tp2437
Rp2438
g36
I1
ssg40
g36
sbsS'29-AUG-2009'
p2439
(idecision_tree
decision_tree_leaf
p2440
(dp2441
g31
g32
(g33
tp2442
Rp2443
S'Pn'
p2444
I1
ssg40
g2444
sbssbsbsbsbsg41
(idecision_tree
decision_tree_leaf
p2445
(dp2446
g31
g32
(g33
tp2447
Rp2448
g36
I158
sg37
I194
sS'Pn'
p2449
I231
sS'Sn'
p2450
I582
ssg40
g2450
sbsb.