(idecision_tree
continuous_decision_tree
p0
(dp1
S'split_point'
p2
F55.45505
sS'attribute'
p3
I40
sS'gt_subtree'
p4
(idecision_tree
continuous_decision_tree
p5
(dp6
g2
F-223.725
sg3
I67
sg4
(idecision_tree
continuous_decision_tree
p7
(dp8
g2
F-217.0335
sg3
I67
sg4
(idecision_tree
continuous_decision_tree
p9
(dp10
g2
F-188.5
sg3
I67
sg4
(idecision_tree
continuous_decision_tree
p11
(dp12
g2
F-174.36450000000002
sg3
I67
sg4
(idecision_tree
continuous_decision_tree
p13
(dp14
g2
F-164.0
sg3
I67
sg4
(idecision_tree
continuous_decision_tree
p15
(dp16
g2
F-162.33350000000002
sg3
I67
sg4
(idecision_tree
continuous_decision_tree
p17
(dp18
g2
F-159.91649999999998
sg3
I67
sg4
(idecision_tree
continuous_decision_tree
p19
(dp20
g2
F-158.125
sg3
I67
sg4
(idecision_tree
continuous_decision_tree
p21
(dp22
g2
F0.0
sg3
I67
sg4
(idecision_tree
continuous_decision_tree
p23
(dp24
g2
F0.0
sg3
I66
sg4
(idecision_tree
continuous_decision_tree
p25
(dp26
g2
F0.0
sg3
I58
sg4
(idecision_tree
continuous_decision_tree
p27
(dp28
g2
F82.6862
sg3
I44
sg4
(idecision_tree
decision_tree_leaf
p29
(dp30
S'counts'
p31
ccollections
defaultdict
p32
(c__builtin__
int
p33
tp34
Rp35
S'P'
p36
I17
sS'S'
p37
I1
sS'Pn'
p38
I11
sS'Sn'
p39
I5
ssS'value'
p40
g36
sbsS'lt_subtree'
p41
(idecision_tree
continuous_decision_tree
p42
(dp43
g2
F93.75
sg3
I63
sg4
(idecision_tree
continuous_decision_tree
p44
(dp45
g2
F119.9445
sg3
I67
sg4
(idecision_tree
decision_tree_leaf
p46
(dp47
g31
g32
(g33
tp48
Rp49
S'Pn'
p50
I1
ssg40
g50
sbsg41
(idecision_tree
decision_tree_leaf
p51
(dp52
g31
g32
(g33
tp53
Rp54
g36
I1
ssg40
g36
sbsbsg41
(idecision_tree
continuous_decision_tree
p55
(dp56
g2
F54.5
sg3
I59
sg4
(idecision_tree
continuous_decision_tree
p57
(dp58
g2
F119.932
sg3
I67
sg4
(idecision_tree
decision_tree_leaf
p59
(dp60
g31
g32
(g33
tp61
Rp62
S'Pn'
p63
I1
ssg40
g63
sbsg41
(idecision_tree
decision_tree_leaf
p64
(dp65
g31
g32
(g33
tp66
Rp67
g36
I1
ssg40
g36
sbsbsg41
(idecision_tree
continuous_decision_tree
p68
(dp69
g2
F0.134433
sg3
I52
sg4
(idecision_tree
continuous_decision_tree
p70
(dp71
g2
F2.8086
sg3
I51
sg4
(idecision_tree
continuous_decision_tree
p72
(dp73
g2
F65.844
sg3
I67
sg4
(idecision_tree
decision_tree_leaf
p74
(dp75
g31
g32
(g33
tp76
Rp77
g36
I1
ssg40
g36
sbsg41
(idecision_tree
decision_tree_leaf
p78
(dp79
g31
g32
(g33
tp80
Rp81
S'Sn'
p82
I1
ssg40
g82
sbsbsg41
(idecision_tree
decision_tree_leaf
p83
(dp84
g31
g32
(g33
tp85
Rp86
g36
I179
sg37
I3
sS'Pn'
p87
I199
sS'Sn'
p88
I15
sS'PKP'
p89
I1
ssg40
g87
sbsbsg41
(idecision_tree
continuous_decision_tree
p90
(dp91
g2
F6.0
sg3
I67
sg4
(idecision_tree
decision_tree_leaf
p92
(dp93
g31
g32
(g33
tp94
Rp95
S'Pn'
p96
I1
ssg40
g96
sbsg41
(idecision_tree
decision_tree_leaf
p97
(dp98
g31
g32
(g33
tp99
Rp100
g36
I1
ssg40
g36
sbsbsbsbsbsbsg41
(idecision_tree
continuous_decision_tree
p101
(dp102
g2
F85.75
sg3
I63
sg4
(idecision_tree
continuous_decision_tree
p103
(dp104
g2
F88.04165
sg3
I67
sg4
(idecision_tree
decision_tree_leaf
p105
(dp106
g31
g32
(g33
tp107
Rp108
S'Pn'
p109
I1
ssg40
g109
sbsg41
(idecision_tree
decision_tree_leaf
p110
(dp111
g31
g32
(g33
tp112
Rp113
g36
I1
ssg40
g36
sbsbsg41
(idecision_tree
continuous_decision_tree
p114
(dp115
g2
F81.5
sg3
I63
sg4
(idecision_tree
continuous_decision_tree
p116
(dp117
g2
F89.375
sg3
I67
sg4
(idecision_tree
decision_tree_leaf
p118
(dp119
g31
g32
(g33
tp120
Rp121
g36
I1
ssg40
g36
sbsg41
(idecision_tree
decision_tree_leaf
p122
(dp123
g31
g32
(g33
tp124
Rp125
S'Pn'
p126
I1
ssg40
g126
sbsbsg41
(idecision_tree
continuous_decision_tree
p127
(dp128
g2
F79.0
sg3
I63
sg4
(idecision_tree
continuous_decision_tree
p129
(dp130
g2
F134.5
sg3
I67
sg4
(idecision_tree
decision_tree_leaf
p131
(dp132
g31
g32
(g33
tp133
Rp134
g36
I1
ssg40
g36
sbsg41
(idecision_tree
decision_tree_leaf
p135
(dp136
g31
g32
(g33
tp137
Rp138
S'Pn'
p139
I1
ssg40
g139
sbsbsg41
(idecision_tree
continuous_decision_tree
p140
(dp141
g2
F-4.0
sg3
I62
sg4
(idecision_tree
continuous_decision_tree
p142
(dp143
g2
F-11.0
sg3
I63
sg4
(idecision_tree
continuous_decision_tree
p144
(dp145
g2
F45.07145
sg3
I67
sg4
(idecision_tree
continuous_decision_tree
p146
(dp147
g2
F57.333349999999996
sg3
I67
sg4
(idecision_tree
continuous_decision_tree
p148
(dp149
g2
F60.666650000000004
sg3
I67
sg4
(idecision_tree
continuous_decision_tree
p150
(dp151
g2
F144.875
sg3
I67
sg4
(idecision_tree
continuous_decision_tree
p152
(dp153
g2
F0.7690965000000001
sg3
I52
sg4
(idecision_tree
continuous_decision_tree
p154
(dp155
g2
F186.575
sg3
I67
sg4
(idecision_tree
decision_tree_leaf
p156
(dp157
g31
g32
(g33
tp158
Rp159
S'Pn'
p160
I1
ssg40
g160
sbsg41
(idecision_tree
decision_tree_leaf
p161
(dp162
g31
g32
(g33
tp163
Rp164
g37
I1
ssg40
g37
sbsbsg41
(idecision_tree
continuous_decision_tree
p165
(dp166
g2
F-6.125
sg3
I63
sg4
(idecision_tree
continuous_decision_tree
p167
(dp168
g2
F2.74299
sg3
I49
sg4
(idecision_tree
continuous_decision_tree
p169
(dp170
g2
F193.0
sg3
I67
sg4
(idecision_tree
decision_tree_leaf
p171
(dp172
g31
g32
(g33
tp173
Rp174
S'Pn'
p175
I1
ssg40
g175
sbsg41
(idecision_tree
decision_tree_leaf
p176
(dp177
g31
g32
(g33
tp178
Rp179
g36
I1
ssg40
g36
sbsbsg41
(idecision_tree
continuous_decision_tree
p180
(dp181
g2
F182.4305
sg3
I67
sg4
(idecision_tree
decision_tree_leaf
p182
(dp183
g31
g32
(g33
tp184
Rp185
S'Pn'
p186
I1
ssg40
g186
sbsg41
(idecision_tree
decision_tree_leaf
p187
(dp188
g31
g32
(g33
tp189
Rp190
g36
I1
ssg40
g36
sbsbsbsg41
(idecision_tree
continuous_decision_tree
p191
(dp192
g2
F200.4375
sg3
I67
sg4
(idecision_tree
decision_tree_leaf
p193
(dp194
g31
g32
(g33
tp195
Rp196
S'Pn'
p197
I1
ssg40
g197
sbsg41
(idecision_tree
decision_tree_leaf
p198
(dp199
g31
g32
(g33
tp200
Rp201
g36
I1
ssg40
g36
sbsbsbsbsg41
(idecision_tree
decision_tree_leaf
p202
(dp203
g31
g32
(g33
tp204
Rp205
g36
I7
sS'Pn'
p206
I8
sS'Sn'
p207
I1
ssg40
g206
sbsbsg41
(idecision_tree
continuous_decision_tree
p208
(dp209
g2
F59.25
sg3
I63
sg4
(idecision_tree
continuous_decision_tree
p210
(dp211
g2
F59.4857
sg3
I67
sg4
(idecision_tree
decision_tree_leaf
p212
(dp213
g31
g32
(g33
tp214
Rp215
g36
I1
ssg40
g36
sbsg41
(idecision_tree
decision_tree_leaf
p216
(dp217
g31
g32
(g33
tp218
Rp219
S'Pn'
p220
I1
ssg40
g220
sbsbsg41
(idecision_tree
continuous_decision_tree
p221
(dp222
g2
F58.25
sg3
I67
sg4
(idecision_tree
decision_tree_leaf
p223
(dp224
g31
g32
(g33
tp225
Rp226
S'Pn'
p227
I1
ssg40
g227
sbsg41
(idecision_tree
decision_tree_leaf
p228
(dp229
g31
g32
(g33
tp230
Rp231
g36
I1
ssg40
g36
sbsbsbsbsg41
(idecision_tree
continuous_decision_tree
p232
(dp233
g2
F53.904799999999994
sg3
I67
sg4
(idecision_tree
decision_tree_leaf
p234
(dp235
g31
g32
(g33
tp236
Rp237
S'Pn'
p238
I1
ssg40
g238
sbsg41
(idecision_tree
decision_tree_leaf
p239
(dp240
g31
g32
(g33
tp241
Rp242
S'Sn'
p243
I1
ssg40
g243
sbsbsbsg41
(idecision_tree
continuous_decision_tree
p244
(dp245
g2
F2.5
sg3
I66
sg4
(idecision_tree
continuous_decision_tree
p246
(dp247
g2
F35.96665
sg3
I67
sg4
(idecision_tree
decision_tree_leaf
p248
(dp249
g31
g32
(g33
tp250
Rp251
S'Sn'
p252
I1
ssg40
g252
sbsg41
(idecision_tree
decision_tree_leaf
p253
(dp254
g31
g32
(g33
tp255
Rp256
S'Pn'
p257
I1
ssg40
g257
sbsbsg41
(idecision_tree
continuous_decision_tree
p258
(dp259
g2
F0.0
sg3
I62
sg4
(idecision_tree
continuous_decision_tree
p260
(dp261
g2
F12.75
sg3
I67
sg4
(idecision_tree
continuous_decision_tree
p262
(dp263
g2
F31.25
sg3
I67
sg4
(idecision_tree
decision_tree_leaf
p264
(dp265
g31
g32
(g33
tp266
Rp267
g36
I1
ssg40
g36
sbsg41
(idecision_tree
decision_tree_leaf
p268
(dp269
g31
g32
(g33
tp270
Rp271
S'Pn'
p272
I1
ssg40
g272
sbsbsg41
(idecision_tree
decision_tree_leaf
p273
(dp274
g31
g32
(g33
tp275
Rp276
S'PKP'
p277
I1
ssg40
g277
sbsbsg41
(idecision_tree
decision_tree_leaf
p278
(dp279
g31
g32
(g33
tp280
Rp281
S'Pn'
p282
I1
ssg40
g282
sbsbsbsbsg41
(idecision_tree
continuous_decision_tree
p283
(dp284
g2
F87.33335
sg3
I67
sg4
(idecision_tree
continuous_decision_tree
p285
(dp286
g2
F2.0
sg3
I66
sg4
(idecision_tree
continuous_decision_tree
p287
(dp288
g2
F4.0
sg3
I66
sg4
(idecision_tree
continuous_decision_tree
p289
(dp290
g2
F126.652
sg3
I67
sg4
(idecision_tree
decision_tree_leaf
p291
(dp292
g31
g32
(g33
tp293
Rp294
S'Pn'
p295
I1
ssg40
g295
sbsg41
(idecision_tree
decision_tree_leaf
p296
(dp297
g31
g32
(g33
tp298
Rp299
g36
I1
ssg40
g36
sbsbsg41
(idecision_tree
continuous_decision_tree
p300
(dp301
g2
F2.5
sg3
I66
sg4
(idecision_tree
continuous_decision_tree
p302
(dp303
g2
F149.482
sg3
I67
sg4
(idecision_tree
decision_tree_leaf
p304
(dp305
g31
g32
(g33
tp306
Rp307
g36
I1
ssg40
g36
sbsg41
(idecision_tree
decision_tree_leaf
p308
(dp309
g31
g32
(g33
tp310
Rp311
S'Pn'
p312
I1
ssg40
g312
sbsbsg41
(idecision_tree
decision_tree_leaf
p313
(dp314
g31
g32
(g33
tp315
Rp316
g36
I3
sS'Pn'
p317
I2
ssg40
g36
sbsbsbsg41
(idecision_tree
continuous_decision_tree
p318
(dp319
g2
F0.7347585
sg3
I52
sg4
(idecision_tree
continuous_decision_tree
p320
(dp321
g2
F210.91649999999998
sg3
I67
sg4
(idecision_tree
decision_tree_leaf
p322
(dp323
g31
g32
(g33
tp324
Rp325
S'Pn'
p326
I1
ssg40
g326
sbsg41
(idecision_tree
decision_tree_leaf
p327
(dp328
g31
g32
(g33
tp329
Rp330
g36
I1
ssg40
g36
sbsbsg41
(idecision_tree
continuous_decision_tree
p331
(dp332
g2
F-1.5
sg3
I62
sg4
(idecision_tree
continuous_decision_tree
p333
(dp334
g2
F104.5
sg3
I67
sg4
(idecision_tree
decision_tree_leaf
p335
(dp336
g31
g32
(g33
tp337
Rp338
g36
I1
ssg40
g36
sbsg41
(idecision_tree
decision_tree_leaf
p339
(dp340
g31
g32
(g33
tp341
Rp342
S'Pn'
p343
I1
ssg40
g343
sbsbsg41
(idecision_tree
continuous_decision_tree
p344
(dp345
g2
F1.3356750000000002
sg3
I49
sg4
(idecision_tree
continuous_decision_tree
p346
(dp347
g2
F0.328331
sg3
I51
sg4
(idecision_tree
continuous_decision_tree
p348
(dp349
g2
F189.15
sg3
I67
sg4
(idecision_tree
decision_tree_leaf
p350
(dp351
g31
g32
(g33
tp352
Rp353
S'Pn'
p354
I1
ssg40
g354
sbsg41
(idecision_tree
decision_tree_leaf
p355
(dp356
g31
g32
(g33
tp357
Rp358
g36
I1
ssg40
g36
sbsbsg41
(idecision_tree
decision_tree_leaf
p359
(dp360
g31
g32
(g33
tp361
Rp362
S'Pn'
p363
I1
ssg40
g363
sbsbsg41
(idecision_tree
continuous_decision_tree
p364
(dp365
g2
F179.5
sg3
I67
sg4
(idecision_tree
decision_tree_leaf
p366
(dp367
g31
g32
(g33
tp368
Rp369
S'Pn'
p370
I1
ssg40
g370
sbsg41
(idecision_tree
decision_tree_leaf
p371
(dp372
g31
g32
(g33
tp373
Rp374
g36
I1
ssg40
g36
sbsbsbsbsbsbsg41
(idecision_tree
continuous_decision_tree
p375
(dp376
g2
F66.83335
sg3
I67
sg4
(idecision_tree
decision_tree_leaf
p377
(dp378
g31
g32
(g33
tp379
Rp380
S'Sn'
p381
I1
ssg40
g381
sbsg41
(idecision_tree
decision_tree_leaf
p382
(dp383
g31
g32
(g33
tp384
Rp385
g36
I1
ssg40
g36
sbsbsbsbsg41
(idecision_tree
decision_tree_leaf
p386
(dp387
g31
g32
(g33
tp388
Rp389
S'Pn'
p390
I1
ssg40
g390
sbsbsbsbsbsbsg41
(idecision_tree
continuous_decision_tree
p391
(dp392
g2
F-2.5
sg3
I58
sg4
(idecision_tree
continuous_decision_tree
p393
(dp394
g2
F-88.375
sg3
I63
sg4
(idecision_tree
continuous_decision_tree
p395
(dp396
g2
F-68.33335
sg3
I63
sg4
(idecision_tree
continuous_decision_tree
p397
(dp398
g2
F46.0
sg3
I63
sg4
(idecision_tree
continuous_decision_tree
p399
(dp400
g2
F44.08335
sg3
I67
sg4
(idecision_tree
decision_tree_leaf
p401
(dp402
g31
g32
(g33
tp403
Rp404
g36
I1
ssg40
g36
sbsg41
(idecision_tree
decision_tree_leaf
p405
(dp406
g31
g32
(g33
tp407
Rp408
S'Pn'
p409
I1
ssg40
g409
sbsbsg41
(idecision_tree
continuous_decision_tree
p410
(dp411
g2
F-0.5
sg3
I62
sg4
(idecision_tree
continuous_decision_tree
p412
(dp413
g2
F74.55
sg3
I67
sg4
(idecision_tree
decision_tree_leaf
p414
(dp415
g31
g32
(g33
tp416
Rp417
g36
I1
ssg40
g36
sbsg41
(idecision_tree
decision_tree_leaf
p418
(dp419
g31
g32
(g33
tp420
Rp421
S'Pn'
p422
I1
ssg40
g422
sbsbsg41
(idecision_tree
continuous_decision_tree
p423
(dp424
g2
F-3.0
sg3
I63
sg4
(idecision_tree
continuous_decision_tree
p425
(dp426
g2
F15.0
sg3
I67
sg4
(idecision_tree
decision_tree_leaf
p427
(dp428
g31
g32
(g33
tp429
Rp430
g36
I1
ssg40
g36
sbsg41
(idecision_tree
decision_tree_leaf
p431
(dp432
g31
g32
(g33
tp433
Rp434
S'Pn'
p435
I1
ssg40
g435
sbsbsg41
(idecision_tree
continuous_decision_tree
p436
(dp437
g2
F10.499984999999999
sg3
I67
sg4
(idecision_tree
continuous_decision_tree
p438
(dp439
g2
F-1.0
sg3
I66
sg4
(idecision_tree
continuous_decision_tree
p440
(dp441
g2
F-2.0
sg3
I62
sg4
(idecision_tree
continuous_decision_tree
p442
(dp443
g2
F72.28125
sg3
I67
sg4
(idecision_tree
continuous_decision_tree
p444
(dp445
g2
F-53.5
sg3
I63
sg4
(idecision_tree
continuous_decision_tree
p446
(dp447
g2
F-37.8125
sg3
I63
sg4
(idecision_tree
continuous_decision_tree
p448
(dp449
g2
F127.5
sg3
I67
sg4
(idecision_tree
decision_tree_leaf
p450
(dp451
g31
g32
(g33
tp452
Rp453
g36
I1
ssg40
g36
sbsg41
(idecision_tree
decision_tree_leaf
p454
(dp455
g31
g32
(g33
tp456
Rp457
S'Pn'
p458
I1
ssg40
g458
sbsbsg41
(idecision_tree
decision_tree_leaf
p459
(dp460
g31
g32
(g33
tp461
Rp462
g36
I1
ssg40
g36
sbsbsg41
(idecision_tree
continuous_decision_tree
p463
(dp464
g2
F128.0
sg3
I67
sg4
(idecision_tree
decision_tree_leaf
p465
(dp466
g31
g32
(g33
tp467
Rp468
g36
I1
ssg40
g36
sbsg41
(idecision_tree
decision_tree_leaf
p469
(dp470
g31
g32
(g33
tp471
Rp472
S'Pn'
p473
I1
ssg40
g473
sbsbsbsg41
(idecision_tree
continuous_decision_tree
p474
(dp475
g2
F60.53125
sg3
I67
sg4
(idecision_tree
decision_tree_leaf
p476
(dp477
g31
g32
(g33
tp478
Rp479
g36
I1
ssg40
g36
sbsg41
(idecision_tree
decision_tree_leaf
p480
(dp481
g31
g32
(g33
tp482
Rp483
S'Pn'
p484
I1
ssg40
g484
sbsbsbsg41
(idecision_tree
decision_tree_leaf
p485
(dp486
g31
g32
(g33
tp487
Rp488
g36
I1
ssg40
g36
sbsbsg41
(idecision_tree
continuous_decision_tree
p489
(dp490
g2
F-14.5
sg3
I63
sg4
(idecision_tree
continuous_decision_tree
p491
(dp492
g2
F66.24285
sg3
I67
sg4
(idecision_tree
decision_tree_leaf
p493
(dp494
g31
g32
(g33
tp495
Rp496
g37
I1
ssg40
g37
sbsg41
(idecision_tree
decision_tree_leaf
p497
(dp498
g31
g32
(g33
tp499
Rp500
S'Pn'
p501
I1
ssg40
g501
sbsbsg41
(idecision_tree
continuous_decision_tree
p502
(dp503
g2
F-4.0
sg3
I66
sg4
(idecision_tree
decision_tree_leaf
p504
(dp505
g31
g32
(g33
tp506
Rp507
g36
I4
sS'Pn'
p508
I6
sS'Sn'
p509
I1
ssg40
g508
sbsg41
(idecision_tree
continuous_decision_tree
p510
(dp511
g2
F120.0643
sg3
I67
sg4
(idecision_tree
decision_tree_leaf
p512
(dp513
g31
g32
(g33
tp514
Rp515
g36
I1
ssg40
g36
sbsg41
(idecision_tree
decision_tree_leaf
p516
(dp517
g31
g32
(g33
tp518
Rp519
S'Pn'
p520
I1
ssg40
g520
sbsbsbsbsbsg41
(idecision_tree
continuous_decision_tree
p521
(dp522
g2
F9.633334999999999
sg3
I67
sg4
(idecision_tree
decision_tree_leaf
p523
(dp524
g31
g32
(g33
tp525
Rp526
g36
I1
ssg40
g36
sbsg41
(idecision_tree
decision_tree_leaf
p527
(dp528
g31
g32
(g33
tp529
Rp530
S'Pn'
p531
I1
ssg40
g531
sbsbsbsbsbsbsg41
(idecision_tree
continuous_decision_tree
p532
(dp533
g2
F79.625
sg3
I67
sg4
(idecision_tree
decision_tree_leaf
p534
(dp535
g31
g32
(g33
tp536
Rp537
S'Pn'
p538
I1
ssg40
g538
sbsg41
(idecision_tree
decision_tree_leaf
p539
(dp540
g31
g32
(g33
tp541
Rp542
S'Sn'
p543
I1
ssg40
g543
sbsbsbsg41
(idecision_tree
continuous_decision_tree
p544
(dp545
g2
F20.5
sg3
I67
sg4
(idecision_tree
decision_tree_leaf
p546
(dp547
g31
g32
(g33
tp548
Rp549
g36
I1
ssg40
g36
sbsg41
(idecision_tree
decision_tree_leaf
p550
(dp551
g31
g32
(g33
tp552
Rp553
S'Pn'
p554
I1
ssg40
g554
sbsbsbsg41
(idecision_tree
continuous_decision_tree
p555
(dp556
g2
F-6.5
sg3
I66
sg4
(idecision_tree
continuous_decision_tree
p557
(dp558
g2
F-3.0
sg3
I66
sg4
(idecision_tree
continuous_decision_tree
p559
(dp560
g2
F125.0
sg3
I67
sg4
(idecision_tree
continuous_decision_tree
p561
(dp562
g2
F-3.5
sg3
I62
sg4
(idecision_tree
continuous_decision_tree
p563
(dp564
g2
F174.33350000000002
sg3
I67
sg4
(idecision_tree
decision_tree_leaf
p565
(dp566
g31
g32
(g33
tp567
Rp568
g36
I1
ssg40
g36
sbsg41
(idecision_tree
decision_tree_leaf
p569
(dp570
g31
g32
(g33
tp571
Rp572
S'Sn'
p573
I1
ssg40
g573
sbsbsg41
(idecision_tree
decision_tree_leaf
p574
(dp575
g31
g32
(g33
tp576
Rp577
S'Sn'
p578
I1
ssg40
g578
sbsbsg41
(idecision_tree
decision_tree_leaf
p579
(dp580
g31
g32
(g33
tp581
Rp582
S'Pn'
p583
I1
sS'Sn'
p584
I3
ssg40
g584
sbsbsg41
(idecision_tree
decision_tree_leaf
p585
(dp586
g31
g32
(g33
tp587
Rp588
g36
I3
sS'Pn'
p589
I1
sS'Sn'
p590
I1
ssg40
g36
sbsbsg41
(idecision_tree
continuous_decision_tree
p591
(dp592
g2
F160.95835
sg3
I67
sg4
(idecision_tree
decision_tree_leaf
p593
(dp594
g31
g32
(g33
tp595
Rp596
S'Pn'
p597
I1
ssg40
g597
sbsg41
(idecision_tree
decision_tree_leaf
p598
(dp599
g31
g32
(g33
tp600
Rp601
S'Sn'
p602
I1
ssg40
g602
sbsbsbsbsbsg41
(idecision_tree
continuous_decision_tree
p603
(dp604
g2
F-9.75
sg3
I67
sg4
(idecision_tree
continuous_decision_tree
p605
(dp606
g2
F1.3370600000000001
sg3
I48
sg4
(idecision_tree
continuous_decision_tree
p607
(dp608
g2
F-9.25
sg3
I63
sg4
(idecision_tree
continuous_decision_tree
p609
(dp610
g2
F-0.8333335
sg3
I63
sg4
(idecision_tree
continuous_decision_tree
p611
(dp612
g2
F-2.3333335
sg3
I67
sg4
(idecision_tree
decision_tree_leaf
p613
(dp614
g31
g32
(g33
tp615
Rp616
g36
I1
ssg40
g36
sbsg41
(idecision_tree
decision_tree_leaf
p617
(dp618
g31
g32
(g33
tp619
Rp620
S'Pn'
p621
I1
ssg40
g621
sbsbsg41
(idecision_tree
continuous_decision_tree
p622
(dp623
g2
F1.59321
sg3
I48
sg4
(idecision_tree
continuous_decision_tree
p624
(dp625
g2
F-8.5
sg3
I67
sg4
(idecision_tree
continuous_decision_tree
p626
(dp627
g2
F-1.5
sg3
I66
sg4
(idecision_tree
continuous_decision_tree
p628
(dp629
g2
F0.774652
sg3
I52
sg4
(idecision_tree
continuous_decision_tree
p630
(dp631
g2
F-7.0
sg3
I67
sg4
(idecision_tree
decision_tree_leaf
p632
(dp633
g31
g32
(g33
tp634
Rp635
g36
I1
ssg40
g36
sbsg41
(idecision_tree
decision_tree_leaf
p636
(dp637
g31
g32
(g33
tp638
Rp639
S'Pn'
p640
I1
ssg40
g640
sbsbsg41
(idecision_tree
continuous_decision_tree
p641
(dp642
g2
F1.2702
sg3
I50
sg4
(idecision_tree
continuous_decision_tree
p643
(dp644
g2
F-3.0
sg3
I67
sg4
(idecision_tree
decision_tree_leaf
p645
(dp646
g31
g32
(g33
tp647
Rp648
S'Sn'
p649
I1
ssg40
g649
sbsg41
(idecision_tree
decision_tree_leaf
p650
(dp651
g31
g32
(g33
tp652
Rp653
S'Pn'
p654
I1
ssg40
g654
sbsbsg41
(idecision_tree
continuous_decision_tree
p655
(dp656
g2
F0.9626135
sg3
I50
sg4
(idecision_tree
continuous_decision_tree
p657
(dp658
g2
F-7.0
sg3
I67
sg4
(idecision_tree
decision_tree_leaf
p659
(dp660
g31
g32
(g33
tp661
Rp662
g36
I1
ssg40
g36
sbsg41
(idecision_tree
decision_tree_leaf
p663
(dp664
g31
g32
(g33
tp665
Rp666
S'Pn'
p667
I1
ssg40
g667
sbsbsg41
(idecision_tree
continuous_decision_tree
p668
(dp669
g2
F-17.0
sg3
I59
sg4
(idecision_tree
continuous_decision_tree
p670
(dp671
g2
F-6.25
sg3
I67
sg4
(idecision_tree
decision_tree_leaf
p672
(dp673
g31
g32
(g33
tp674
Rp675
S'Pn'
p676
I1
ssg40
g676
sbsg41
(idecision_tree
decision_tree_leaf
p677
(dp678
g31
g32
(g33
tp679
Rp680
g36
I1
ssg40
g36
sbsbsg41
(idecision_tree
decision_tree_leaf
p681
(dp682
g31
g32
(g33
tp683
Rp684
S'Pn'
p685
I1
ssg40
g685
sbsbsbsbsbsg41
(idecision_tree
continuous_decision_tree
p686
(dp687
g2
F-7.75
sg3
I67
sg4
(idecision_tree
decision_tree_leaf
p688
(dp689
g31
g32
(g33
tp690
Rp691
g36
I1
ssg40
g36
sbsg41
(idecision_tree
decision_tree_leaf
p692
(dp693
g31
g32
(g33
tp694
Rp695
S'Pn'
p696
I1
ssg40
g696
sbsbsbsg41
(idecision_tree
decision_tree_leaf
p697
(dp698
g31
g32
(g33
tp699
Rp700
g36
I1
sS'Pn'
p701
I1
ssg40
g36
sbsbsg41
(idecision_tree
continuous_decision_tree
p702
(dp703
g2
F-5.0
sg3
I67
sg4
(idecision_tree
decision_tree_leaf
p704
(dp705
g31
g32
(g33
tp706
Rp707
S'Pn'
p708
I1
ssg40
g708
sbsg41
(idecision_tree
decision_tree_leaf
p709
(dp710
g31
g32
(g33
tp711
Rp712
g36
I1
ssg40
g36
sbsbsbsbsg41
(idecision_tree
continuous_decision_tree
p713
(dp714
g2
F-9.416665
sg3
I67
sg4
(idecision_tree
decision_tree_leaf
p715
(dp716
g31
g32
(g33
tp717
Rp718
S'Pn'
p719
I1
ssg40
g719
sbsg41
(idecision_tree
decision_tree_leaf
p720
(dp721
g31
g32
(g33
tp722
Rp723
S'Sn'
p724
I1
ssg40
g724
sbsbsbsg41
(idecision_tree
continuous_decision_tree
p725
(dp726
g2
F-2.0
sg3
I66
sg4
(idecision_tree
continuous_decision_tree
p727
(dp728
g2
F0.5
sg3
I62
sg4
(idecision_tree
continuous_decision_tree
p729
(dp730
g2
F-4.375
sg3
I67
sg4
(idecision_tree
continuous_decision_tree
p731
(dp732
g2
F2.0
sg3
I62
sg4
(idecision_tree
decision_tree_leaf
p733
(dp734
g31
g32
(g33
tp735
Rp736
g36
I1
sS'Pn'
p737
I2
ssg40
g737
sbsg41
(idecision_tree
continuous_decision_tree
p738
(dp739
g2
F-1.416665
sg3
I67
sg4
(idecision_tree
decision_tree_leaf
p740
(dp741
g31
g32
(g33
tp742
Rp743
g36
I1
ssg40
g36
sbsg41
(idecision_tree
decision_tree_leaf
p744
(dp745
g31
g32
(g33
tp746
Rp747
S'Pn'
p748
I1
ssg40
g748
sbsbsbsg41
(idecision_tree
continuous_decision_tree
p749
(dp750
g2
F-5.375
sg3
I67
sg4
(idecision_tree
decision_tree_leaf
p751
(dp752
g31
g32
(g33
tp753
Rp754
S'Pn'
p755
I1
ssg40
g755
sbsg41
(idecision_tree
decision_tree_leaf
p756
(dp757
g31
g32
(g33
tp758
Rp759
S'Sn'
p760
I1
ssg40
g760
sbsbsbsg41
(idecision_tree
continuous_decision_tree
p761
(dp762
g2
F1.42871
sg3
I49
sg4
(idecision_tree
decision_tree_leaf
p763
(dp764
g31
g32
(g33
tp765
Rp766
g36
I1
sS'Pn'
p767
I1
ssg40
g36
sbsg41
(idecision_tree
continuous_decision_tree
p768
(dp769
g2
F2.0367
sg3
I39
sg4
(idecision_tree
continuous_decision_tree
p770
(dp771
g2
F-5.166665
sg3
I67
sg4
(idecision_tree
decision_tree_leaf
p772
(dp773
g31
g32
(g33
tp774
Rp775
S'Pn'
p776
I1
ssg40
g776
sbsg41
(idecision_tree
decision_tree_leaf
p777
(dp778
g31
g32
(g33
tp779
Rp780
g36
I1
ssg40
g36
sbsbsg41
(idecision_tree
continuous_decision_tree
p781
(dp782
g2
F34.920365000000004
sg3
I44
sg4
(idecision_tree
continuous_decision_tree
p783
(dp784
g2
F-5.708335
sg3
I67
sg4
(idecision_tree
decision_tree_leaf
p785
(dp786
g31
g32
(g33
tp787
Rp788
S'Pn'
p789
I1
ssg40
g789
sbsg41
(idecision_tree
decision_tree_leaf
p790
(dp791
g31
g32
(g33
tp792
Rp793
g36
I1
ssg40
g36
sbsbsg41
(idecision_tree
continuous_decision_tree
p794
(dp795
g2
F0.5709445
sg3
I38
sg4
(idecision_tree
continuous_decision_tree
p796
(dp797
g2
F-4.5
sg3
I67
sg4
(idecision_tree
decision_tree_leaf
p798
(dp799
g31
g32
(g33
tp800
Rp801
S'Pn'
p802
I1
ssg40
g802
sbsg41
(idecision_tree
decision_tree_leaf
p803
(dp804
g31
g32
(g33
tp805
Rp806
g36
I1
ssg40
g36
sbsbsg41
(idecision_tree
decision_tree_leaf
p807
(dp808
g31
g32
(g33
tp809
Rp810
S'Pn'
p811
I1
ssg40
g811
sbsbsbsbsbsbsg41
(idecision_tree
decision_tree_leaf
p812
(dp813
g31
g32
(g33
tp814
Rp815
g36
I1
ssg40
g36
sbsbsbsg41
(idecision_tree
continuous_decision_tree
p816
(dp817
g2
F2.027565
sg3
I48
sg4
(idecision_tree
continuous_decision_tree
p818
(dp819
g2
F-92.35715
sg3
I67
sg4
(idecision_tree
continuous_decision_tree
p820
(dp821
g2
F0.854277
sg3
I34
sg4
(idecision_tree
continuous_decision_tree
p822
(dp823
g2
F3.34984
sg3
I49
sg4
(idecision_tree
continuous_decision_tree
p824
(dp825
g2
F3.5
sg3
I66
sg4
(idecision_tree
continuous_decision_tree
p826
(dp827
g2
F-55.75
sg3
I67
sg4
(idecision_tree
decision_tree_leaf
p828
(dp829
g31
g32
(g33
tp830
Rp831
g36
I1
ssg40
g36
sbsg41
(idecision_tree
decision_tree_leaf
p832
(dp833
g31
g32
(g33
tp834
Rp835
S'Pn'
p836
I1
ssg40
g836
sbsbsg41
(idecision_tree
continuous_decision_tree
p837
(dp838
g2
F3.0
sg3
I66
sg4
(idecision_tree
continuous_decision_tree
p839
(dp840
g2
F-56.16665
sg3
I67
sg4
(idecision_tree
continuous_decision_tree
p841
(dp842
g2
F-30.4
sg3
I67
sg4
(idecision_tree
decision_tree_leaf
p843
(dp844
g31
g32
(g33
tp845
Rp846
g36
I1
ssg40
g36
sbsg41
(idecision_tree
decision_tree_leaf
p847
(dp848
g31
g32
(g33
tp849
Rp850
S'Pn'
p851
I1
ssg40
g851
sbsbsg41
(idecision_tree
continuous_decision_tree
p852
(dp853
g2
F-68.16665
sg3
I67
sg4
(idecision_tree
decision_tree_leaf
p854
(dp855
g31
g32
(g33
tp856
Rp857
g36
I1
ssg40
g36
sbsg41
(idecision_tree
decision_tree_leaf
p858
(dp859
g31
g32
(g33
tp860
Rp861
S'Pn'
p862
I1
ssg40
g862
sbsbsbsg41
(idecision_tree
continuous_decision_tree
p863
(dp864
g2
F-1.0
sg3
I66
sg4
(idecision_tree
decision_tree_leaf
p865
(dp866
g31
g32
(g33
tp867
Rp868
g36
I3
sS'Pn'
p869
I4
ssg40
g869
sbsg41
(idecision_tree
continuous_decision_tree
p870
(dp871
g2
F-24.83335
sg3
I63
sg4
(idecision_tree
continuous_decision_tree
p872
(dp873
g2
F-52.791650000000004
sg3
I67
sg4
(idecision_tree
decision_tree_leaf
p874
(dp875
g31
g32
(g33
tp876
Rp877
g37
I1
ssg40
g37
sbsg41
(idecision_tree
decision_tree_leaf
p878
(dp879
g31
g32
(g33
tp880
Rp881
S'Pn'
p882
I1
ssg40
g882
sbsbsg41
(idecision_tree
continuous_decision_tree
p883
(dp884
g2
F-47.875
sg3
I67
sg4
(idecision_tree
decision_tree_leaf
p885
(dp886
g31
g32
(g33
tp887
Rp888
g37
I1
ssg40
g37
sbsg41
(idecision_tree
decision_tree_leaf
p889
(dp890
g31
g32
(g33
tp891
Rp892
S'Pn'
p893
I1
ssg40
g893
sbsbsbsbsbsbsg41
(idecision_tree
continuous_decision_tree
p894
(dp895
g2
F0.0
sg3
I58
sg4
(idecision_tree
continuous_decision_tree
p896
(dp897
g2
F-14.75
sg3
I63
sg4
(idecision_tree
continuous_decision_tree
p898
(dp899
g2
F-1.0
sg3
I66
sg4
(idecision_tree
continuous_decision_tree
p900
(dp901
g2
F-77.375
sg3
I67
sg4
(idecision_tree
continuous_decision_tree
p902
(dp903
g2
F0.0
sg3
I62
sg4
(idecision_tree
continuous_decision_tree
p904
(dp905
g2
F0.5
sg3
I62
sg4
(idecision_tree
continuous_decision_tree
p906
(dp907
g2
F-16.41665
sg3
I67
sg4
(idecision_tree
continuous_decision_tree
p908
(dp909
g2
F-13.5
sg3
I67
sg4
(idecision_tree
decision_tree_leaf
p910
(dp911
g31
g32
(g33
tp912
Rp913
S'Pn'
p914
I1
ssg40
g914
sbsg41
(idecision_tree
decision_tree_leaf
p915
(dp916
g31
g32
(g33
tp917
Rp918
g36
I1
ssg40
g36
sbsbsg41
(idecision_tree
continuous_decision_tree
p919
(dp920
g2
F-34.2857
sg3
I67
sg4
(idecision_tree
continuous_decision_tree
p921
(dp922
g2
F-21.702350000000003
sg3
I67
sg4
(idecision_tree
decision_tree_leaf
p923
(dp924
g31
g32
(g33
tp925
Rp926
g37
I1
ssg40
g37
sbsg41
(idecision_tree
decision_tree_leaf
p927
(dp928
g31
g32
(g33
tp929
Rp930
S'Pn'
p931
I1
ssg40
g931
sbsbsg41
(idecision_tree
continuous_decision_tree
p932
(dp933
g2
F13.575
sg3
I63
sg4
(idecision_tree
continuous_decision_tree
p934
(dp935
g2
F-48.21665
sg3
I67
sg4
(idecision_tree
decision_tree_leaf
p936
(dp937
g31
g32
(g33
tp938
Rp939
g36
I1
ssg40
g36
sbsg41
(idecision_tree
decision_tree_leaf
p940
(dp941
g31
g32
(g33
tp942
Rp943
S'Pn'
p944
I1
ssg40
g944
sbsbsg41
(idecision_tree
continuous_decision_tree
p945
(dp946
g2
F-69.125
sg3
I67
sg4
(idecision_tree
continuous_decision_tree
p947
(dp948
g2
F-52.75
sg3
I67
sg4
(idecision_tree
decision_tree_leaf
p949
(dp950
g31
g32
(g33
tp951
Rp952
g36
I1
ssg40
g36
sbsg41
(idecision_tree
decision_tree_leaf
p953
(dp954
g31
g32
(g33
tp955
Rp956
S'Pn'
p957
I1
ssg40
g957
sbsbsg41
(idecision_tree
decision_tree_leaf
p958
(dp959
g31
g32
(g33
tp960
Rp961
g36
I1
ssg40
g36
sbsbsbsbsbsg41
(idecision_tree
continuous_decision_tree
p962
(dp963
g2
F-31.58335
sg3
I67
sg4
(idecision_tree
decision_tree_leaf
p964
(dp965
g31
g32
(g33
tp966
Rp967
S'Pn'
p968
I1
ssg40
g968
sbsg41
(idecision_tree
decision_tree_leaf
p969
(dp970
g31
g32
(g33
tp971
Rp972
g36
I1
ssg40
g36
sbsbsbsg41
(idecision_tree
decision_tree_leaf
p973
(dp974
g31
g32
(g33
tp975
Rp976
S'Pn'
p977
I1
ssg40
g977
sbsbsg41
(idecision_tree
continuous_decision_tree
p978
(dp979
g2
F-86.0238
sg3
I67
sg4
(idecision_tree
decision_tree_leaf
p980
(dp981
g31
g32
(g33
tp982
Rp983
S'Pn'
p984
I1
ssg40
g984
sbsg41
(idecision_tree
decision_tree_leaf
p985
(dp986
g31
g32
(g33
tp987
Rp988
S'Sn'
p989
I1
ssg40
g989
sbsbsbsg41
(idecision_tree
decision_tree_leaf
p990
(dp991
g31
g32
(g33
tp992
Rp993
S'Pn'
p994
I1
ssg40
g994
sbsbsg41
(idecision_tree
continuous_decision_tree
p995
(dp996
g2
F2.0
sg3
I62
sg4
(idecision_tree
continuous_decision_tree
p997
(dp998
g2
F-51.83335
sg3
I67
sg4
(idecision_tree
continuous_decision_tree
p999
(dp1000
g2
F-23.725
sg3
I67
sg4
(idecision_tree
decision_tree_leaf
p1001
(dp1002
g31
g32
(g33
tp1003
Rp1004
g36
I1
ssg40
g36
sbsg41
(idecision_tree
decision_tree_leaf
p1005
(dp1006
g31
g32
(g33
tp1007
Rp1008
S'Pn'
p1009
I1
ssg40
g1009
sbsbsg41
(idecision_tree
decision_tree_leaf
p1010
(dp1011
g31
g32
(g33
tp1012
Rp1013
g36
I1
ssg40
g36
sbsbsg41
(idecision_tree
decision_tree_leaf
p1014
(dp1015
g31
g32
(g33
tp1016
Rp1017
g36
I4
sS'Pn'
p1018
I6
ssg40
g1018
sbsbsbsg41
(idecision_tree
continuous_decision_tree
p1019
(dp1020
g2
F-3.5
sg3
I62
sg4
(idecision_tree
continuous_decision_tree
p1021
(dp1022
g2
F-1.0
sg3
I58
sg4
(idecision_tree
continuous_decision_tree
p1023
(dp1024
g2
F-0.75
sg3
I63
sg4
(idecision_tree
continuous_decision_tree
p1025
(dp1026
g2
F-67.0278
sg3
I67
sg4
(idecision_tree
continuous_decision_tree
p1027
(dp1028
g2
F-46.8778
sg3
I67
sg4
(idecision_tree
decision_tree_leaf
p1029
(dp1030
g31
g32
(g33
tp1031
Rp1032
g36
I1
ssg40
g36
sbsg41
(idecision_tree
decision_tree_leaf
p1033
(dp1034
g31
g32
(g33
tp1035
Rp1036
S'Pn'
p1037
I1
ssg40
g1037
sbsbsg41
(idecision_tree
decision_tree_leaf
p1038
(dp1039
g31
g32
(g33
tp1040
Rp1041
g36
I1
ssg40
g36
sbsbsg41
(idecision_tree
continuous_decision_tree
p1042
(dp1043
g2
F-74.375
sg3
I67
sg4
(idecision_tree
decision_tree_leaf
p1044
(dp1045
g31
g32
(g33
tp1046
Rp1047
S'Pn'
p1048
I1
ssg40
g1048
sbsg41
(idecision_tree
decision_tree_leaf
p1049
(dp1050
g31
g32
(g33
tp1051
Rp1052
g36
I1
ssg40
g36
sbsbsbsg41
(idecision_tree
decision_tree_leaf
p1053
(dp1054
g31
g32
(g33
tp1055
Rp1056
S'Pn'
p1057
I1
ssg40
g1057
sbsbsg41
(idecision_tree
continuous_decision_tree
p1058
(dp1059
g2
F-29.16665
sg3
I67
sg4
(idecision_tree
decision_tree_leaf
p1060
(dp1061
g31
g32
(g33
tp1062
Rp1063
S'Sn'
p1064
I1
ssg40
g1064
sbsg41
(idecision_tree
decision_tree_leaf
p1065
(dp1066
g31
g32
(g33
tp1067
Rp1068
S'Pn'
p1069
I1
ssg40
g1069
sbsbsbsbsbsg41
(idecision_tree
continuous_decision_tree
p1070
(dp1071
g2
F3.11789
sg3
I48
sg4
(idecision_tree
continuous_decision_tree
p1072
(dp1073
g2
F-28.16665
sg3
I67
sg4
(idecision_tree
continuous_decision_tree
p1074
(dp1075
g2
F-22.5
sg3
I67
sg4
(idecision_tree
decision_tree_leaf
p1076
(dp1077
g31
g32
(g33
tp1078
Rp1079
S'Pn'
p1080
I1
ssg40
g1080
sbsg41
(idecision_tree
decision_tree_leaf
p1081
(dp1082
g31
g32
(g33
tp1083
Rp1084
S'Sn'
p1085
I1
ssg40
g1085
sbsbsg41
(idecision_tree
continuous_decision_tree
p1086
(dp1087
g2
F-31.988100000000003
sg3
I67
sg4
(idecision_tree
continuous_decision_tree
p1088
(dp1089
g2
F-29.488100000000003
sg3
I67
sg4
(idecision_tree
decision_tree_leaf
p1090
(dp1091
g31
g32
(g33
tp1092
Rp1093
S'Pn'
p1094
I1
ssg40
g1094
sbsg41
(idecision_tree
decision_tree_leaf
p1095
(dp1096
g31
g32
(g33
tp1097
Rp1098
g36
I1
ssg40
g36
sbsbsg41
(idecision_tree
continuous_decision_tree
p1099
(dp1100
g2
F-32.083349999999996
sg3
I63
sg4
(idecision_tree
continuous_decision_tree
p1101
(dp1102
g2
F-47.875
sg3
I67
sg4
(idecision_tree
continuous_decision_tree
p1103
(dp1104
g2
F-39.166650000000004
sg3
I67
sg4
(idecision_tree
decision_tree_leaf
p1105
(dp1106
g31
g32
(g33
tp1107
Rp1108
S'Sn'
p1109
I1
ssg40
g1109
sbsg41
(idecision_tree
decision_tree_leaf
p1110
(dp1111
g31
g32
(g33
tp1112
Rp1113
S'Pn'
p1114
I1
ssg40
g1114
sbsbsg41
(idecision_tree
continuous_decision_tree
p1115
(dp1116
g2
F-1.291665
sg3
I63
sg4
(idecision_tree
continuous_decision_tree
p1117
(dp1118
g2
F-78.375
sg3
I67
sg4
(idecision_tree
continuous_decision_tree
p1119
(dp1120
g2
F-67.83930000000001
sg3
I67
sg4
(idecision_tree
continuous_decision_tree
p1121
(dp1122
g2
F-62.05355
sg3
I67
sg4
(idecision_tree
continuous_decision_tree
p1123
(dp1124
g2
F-56.45885
sg3
I67
sg4
(idecision_tree
decision_tree_leaf
p1125
(dp1126
g31
g32
(g33
tp1127
Rp1128
S'Sn'
p1129
I1
ssg40
g1129
sbsg41
(idecision_tree
decision_tree_leaf
p1130
(dp1131
g31
g32
(g33
tp1132
Rp1133
S'Pn'
p1134
I1
ssg40
g1134
sbsbsg41
(idecision_tree
decision_tree_leaf
p1135
(dp1136
g31
g32
(g33
tp1137
Rp1138
S'Pn'
p1139
I1
ssg40
g1139
sbsbsg41
(idecision_tree
continuous_decision_tree
p1140
(dp1141
g2
F-72.83930000000001
sg3
I67
sg4
(idecision_tree
decision_tree_leaf
p1142
(dp1143
g31
g32
(g33
tp1144
Rp1145
S'Sn'
p1146
I1
ssg40
g1146
sbsg41
(idecision_tree
decision_tree_leaf
p1147
(dp1148
g31
g32
(g33
tp1149
Rp1150
S'Pn'
p1151
I1
ssg40
g1151
sbsbsbsg41
(idecision_tree
continuous_decision_tree
p1152
(dp1153
g2
F-85.17855
sg3
I67
sg4
(idecision_tree
decision_tree_leaf
p1154
(dp1155
g31
g32
(g33
tp1156
Rp1157
g36
I1
ssg40
g36
sbsg41
(idecision_tree
decision_tree_leaf
p1158
(dp1159
g31
g32
(g33
tp1160
Rp1161
S'Pn'
p1162
I1
ssg40
g1162
sbsbsbsg41
(idecision_tree
continuous_decision_tree
p1163
(dp1164
g2
F-69.5972
sg3
I67
sg4
(idecision_tree
decision_tree_leaf
p1165
(dp1166
g31
g32
(g33
tp1167
Rp1168
S'Sn'
p1169
I1
ssg40
g1169
sbsg41
(idecision_tree
decision_tree_leaf
p1170
(dp1171
g31
g32
(g33
tp1172
Rp1173
S'Pn'
p1174
I1
ssg40
g1174
sbsbsbsbsg41
(idecision_tree
continuous_decision_tree
p1175
(dp1176
g2
F-52.214299999999994
sg3
I67
sg4
(idecision_tree
decision_tree_leaf
p1177
(dp1178
g31
g32
(g33
tp1179
Rp1180
g36
I1
ssg40
g36
sbsg41
(idecision_tree
decision_tree_leaf
p1181
(dp1182
g31
g32
(g33
tp1183
Rp1184
S'Pn'
p1185
I1
ssg40
g1185
sbsbsbsbsbsg41
(idecision_tree
continuous_decision_tree
p1186
(dp1187
g2
F-14.5
sg3
I67
sg4
(idecision_tree
continuous_decision_tree
p1188
(dp1189
g2
F-11.375
sg3
I67
sg4
(idecision_tree
decision_tree_leaf
p1190
(dp1191
g31
g32
(g33
tp1192
Rp1193
S'Pn'
p1194
I1
ssg40
g1194
sbsg41
(idecision_tree
decision_tree_leaf
p1195
(dp1196
g31
g32
(g33
tp1197
Rp1198
g36
I1
ssg40
g36
sbsbsg41
(idecision_tree
continuous_decision_tree
p1199
(dp1200
g2
F-5.0
sg3
I66
sg4
(idecision_tree
continuous_decision_tree
p1201
(dp1202
g2
F2.5
sg3
I66
sg4
(idecision_tree
continuous_decision_tree
p1203
(dp1204
g2
F-58.15
sg3
I67
sg4
(idecision_tree
decision_tree_leaf
p1205
(dp1206
g31
g32
(g33
tp1207
Rp1208
S'Pn'
p1209
I1
ssg40
g1209
sbsg41
(idecision_tree
decision_tree_leaf
p1210
(dp1211
g31
g32
(g33
tp1212
Rp1213
g36
I1
ssg40
g36
sbsbsg41
(idecision_tree
continuous_decision_tree
p1214
(dp1215
g2
F1.0
sg3
I66
sg4
(idecision_tree
continuous_decision_tree
p1216
(dp1217
g2
F-63.03335
sg3
I67
sg4
(idecision_tree
decision_tree_leaf
p1218
(dp1219
g31
g32
(g33
tp1220
Rp1221
g36
I1
sS'Pn'
p1222
I2
ssg40
g1222
sbsg41
(idecision_tree
continuous_decision_tree
p1223
(dp1224
g2
F-81.73335
sg3
I67
sg4
(idecision_tree
decision_tree_leaf
p1225
(dp1226
g31
g32
(g33
tp1227
Rp1228
S'Sn'
p1229
I1
ssg40
g1229
sbsg41
(idecision_tree
decision_tree_leaf
p1230
(dp1231
g31
g32
(g33
tp1232
Rp1233
S'Pn'
p1234
I1
ssg40
g1234
sbsbsbsg41
(idecision_tree
continuous_decision_tree
p1235
(dp1236
g2
F-37.375
sg3
I67
sg4
(idecision_tree
continuous_decision_tree
p1237
(dp1238
g2
F-1.5
sg3
I66
sg4
(idecision_tree
continuous_decision_tree
p1239
(dp1240
g2
F-29.625
sg3
I67
sg4
(idecision_tree
decision_tree_leaf
p1241
(dp1242
g31
g32
(g33
tp1243
Rp1244
g36
I1
ssg40
g36
sbsg41
(idecision_tree
decision_tree_leaf
p1245
(dp1246
g31
g32
(g33
tp1247
Rp1248
S'Pn'
p1249
I1
ssg40
g1249
sbsbsg41
(idecision_tree
continuous_decision_tree
p1250
(dp1251
g2
F-23.5
sg3
I67
sg4
(idecision_tree
decision_tree_leaf
p1252
(dp1253
g31
g32
(g33
tp1254
Rp1255
S'Pn'
p1256
I1
ssg40
g1256
sbsg41
(idecision_tree
decision_tree_leaf
p1257
(dp1258
g31
g32
(g33
tp1259
Rp1260
g36
I1
ssg40
g36
sbsbsbsg41
(idecision_tree
continuous_decision_tree
p1261
(dp1262
g2
F-2.5
sg3
I66
sg4
(idecision_tree
continuous_decision_tree
p1263
(dp1264
g2
F-65.375
sg3
I67
sg4
(idecision_tree
decision_tree_leaf
p1265
(dp1266
g31
g32
(g33
tp1267
Rp1268
g36
I1
ssg40
g36
sbsg41
(idecision_tree
decision_tree_leaf
p1269
(dp1270
g31
g32
(g33
tp1271
Rp1272
S'Pn'
p1273
I1
ssg40
g1273
sbsbsg41
(idecision_tree
continuous_decision_tree
p1274
(dp1275
g2
F-57.45
sg3
I67
sg4
(idecision_tree
decision_tree_leaf
p1276
(dp1277
g31
g32
(g33
tp1278
Rp1279
g37
I1
ssg40
g37
sbsg41
(idecision_tree
decision_tree_leaf
p1280
(dp1281
g31
g32
(g33
tp1282
Rp1283
S'Pn'
p1284
I1
ssg40
g1284
sbsbsbsbsbsbsg41
(idecision_tree
continuous_decision_tree
p1285
(dp1286
g2
F-69.86590000000001
sg3
I67
sg4
(idecision_tree
decision_tree_leaf
p1287
(dp1288
g31
g32
(g33
tp1289
Rp1290
S'Pn'
p1291
I1
ssg40
g1291
sbsg41
(idecision_tree
decision_tree_leaf
p1292
(dp1293
g31
g32
(g33
tp1294
Rp1295
S'Sn'
p1296
I1
ssg40
g1296
sbsbsbsbsbsbsg41
(idecision_tree
continuous_decision_tree
p1297
(dp1298
g2
F0.404737
sg3
I52
sg4
(idecision_tree
continuous_decision_tree
p1299
(dp1300
g2
F0.6783485
sg3
I38
sg4
(idecision_tree
continuous_decision_tree
p1301
(dp1302
g2
F-151.236
sg3
I67
sg4
(idecision_tree
continuous_decision_tree
p1303
(dp1304
g2
F-134.7145
sg3
I67
sg4
(idecision_tree
continuous_decision_tree
p1305
(dp1306
g2
F-5.5
sg3
I66
sg4
(idecision_tree
continuous_decision_tree
p1307
(dp1308
g2
F5.0
sg3
I66
sg4
(idecision_tree
continuous_decision_tree
p1309
(dp1310
g2
F-132.048
sg3
I67
sg4
(idecision_tree
decision_tree_leaf
p1311
(dp1312
g31
g32
(g33
tp1313
Rp1314
S'Sn'
p1315
I1
ssg40
g1315
sbsg41
(idecision_tree
decision_tree_leaf
p1316
(dp1317
g31
g32
(g33
tp1318
Rp1319
S'Pn'
p1320
I1
ssg40
g1320
sbsbsg41
(idecision_tree
continuous_decision_tree
p1321
(dp1322
g2
F-131.4835
sg3
I67
sg4
(idecision_tree
continuous_decision_tree
p1323
(dp1324
g2
F0.0
sg3
I66
sg4
(idecision_tree
continuous_decision_tree
p1325
(dp1326
g2
F2.0
sg3
I66
sg4
(idecision_tree
decision_tree_leaf
p1327
(dp1328
g31
g32
(g33
tp1329
Rp1330
S'Pn'
p1331
I1
ssg40
g1331
sbsg41
(idecision_tree
continuous_decision_tree
p1332
(dp1333
g2
F2.76058
sg3
I48
sg4
(idecision_tree
continuous_decision_tree
p1334
(dp1335
g2
F-102.16665
sg3
I67
sg4
(idecision_tree
decision_tree_leaf
p1336
(dp1337
g31
g32
(g33
tp1338
Rp1339
g37
I1
ssg40
g37
sbsg41
(idecision_tree
decision_tree_leaf
p1340
(dp1341
g31
g32
(g33
tp1342
Rp1343
S'Pn'
p1344
I1
ssg40
g1344
sbsbsg41
(idecision_tree
decision_tree_leaf
p1345
(dp1346
g31
g32
(g33
tp1347
Rp1348
S'Pn'
p1349
I1
ssg40
g1349
sbsbsbsg41
(idecision_tree
continuous_decision_tree
p1350
(dp1351
g2
F-102.0
sg3
I67
sg4
(idecision_tree
continuous_decision_tree
p1352
(dp1353
g2
F-94.66665
sg3
I67
sg4
(idecision_tree
decision_tree_leaf
p1354
(dp1355
g31
g32
(g33
tp1356
Rp1357
S'Pn'
p1358
I1
ssg40
g1358
sbsg41
(idecision_tree
decision_tree_leaf
p1359
(dp1360
g31
g32
(g33
tp1361
Rp1362
g37
I1
ssg40
g37
sbsbsg41
(idecision_tree
continuous_decision_tree
p1363
(dp1364
g2
F-3.0
sg3
I66
sg4
(idecision_tree
decision_tree_leaf
p1365
(dp1366
g31
g32
(g33
tp1367
Rp1368
S'Pn'
p1369
I2
sS'Sn'
p1370
I1
ssg40
g1369
sbsg41
(idecision_tree
decision_tree_leaf
p1371
(dp1372
g31
g32
(g33
tp1373
Rp1374
S'Sn'
p1375
I2
ssg40
g1375
sbsbsbsbsg41
(idecision_tree
continuous_decision_tree
p1376
(dp1377
g2
F-133.4
sg3
I67
sg4
(idecision_tree
decision_tree_leaf
p1378
(dp1379
g31
g32
(g33
tp1380
Rp1381
S'Pn'
p1382
I1
ssg40
g1382
sbsg41
(idecision_tree
decision_tree_leaf
p1383
(dp1384
g31
g32
(g33
tp1385
Rp1386
g36
I1
ssg40
g36
sbsbsbsbsg41
(idecision_tree
continuous_decision_tree
p1387
(dp1388
g2
F-109.55965
sg3
I67
sg4
(idecision_tree
decision_tree_leaf
p1389
(dp1390
g31
g32
(g33
tp1391
Rp1392
S'Pn'
p1393
I1
ssg40
g1393
sbsg41
(idecision_tree
decision_tree_leaf
p1394
(dp1395
g31
g32
(g33
tp1396
Rp1397
g37
I1
ssg40
g37
sbsbsbsg41
(idecision_tree
continuous_decision_tree
p1398
(dp1399
g2
F-141.659
sg3
I67
sg4
(idecision_tree
decision_tree_leaf
p1400
(dp1401
g31
g32
(g33
tp1402
Rp1403
S'Sn'
p1404
I1
ssg40
g1404
sbsg41
(idecision_tree
decision_tree_leaf
p1405
(dp1406
g31
g32
(g33
tp1407
Rp1408
S'Pn'
p1409
I1
ssg40
g1409
sbsbsbsg41
(idecision_tree
continuous_decision_tree
p1410
(dp1411
g2
F-156.04149999999998
sg3
I67
sg4
(idecision_tree
decision_tree_leaf
p1412
(dp1413
g31
g32
(g33
tp1414
Rp1415
g36
I1
ssg40
g36
sbsg41
(idecision_tree
decision_tree_leaf
p1416
(dp1417
g31
g32
(g33
tp1418
Rp1419
S'Pn'
p1420
I1
ssg40
g1420
sbsbsbsg41
(idecision_tree
continuous_decision_tree
p1421
(dp1422
g2
F-3.0
sg3
I66
sg4
(idecision_tree
continuous_decision_tree
p1423
(dp1424
g2
F-0.5
sg3
I62
sg4
(idecision_tree
continuous_decision_tree
p1425
(dp1426
g2
F0.4943775
sg3
I52
sg4
(idecision_tree
continuous_decision_tree
p1427
(dp1428
g2
F0.5914360000000001
sg3
I52
sg4
(idecision_tree
continuous_decision_tree
p1429
(dp1430
g2
F-121.0
sg3
I67
sg4
(idecision_tree
continuous_decision_tree
p1431
(dp1432
g2
F-113.5
sg3
I67
sg4
(idecision_tree
continuous_decision_tree
p1433
(dp1434
g2
F0.801987
sg3
I52
sg4
(idecision_tree
continuous_decision_tree
p1435
(dp1436
g2
F-100.875
sg3
I67
sg4
(idecision_tree
decision_tree_leaf
p1437
(dp1438
g31
g32
(g33
tp1439
Rp1440
S'Pn'
p1441
I1
ssg40
g1441
sbsg41
(idecision_tree
decision_tree_leaf
p1442
(dp1443
g31
g32
(g33
tp1444
Rp1445
g36
I1
ssg40
g36
sbsbsg41
(idecision_tree
decision_tree_leaf
p1446
(dp1447
g31
g32
(g33
tp1448
Rp1449
S'Pn'
p1450
I1
ssg40
g1450
sbsbsg41
(idecision_tree
continuous_decision_tree
p1451
(dp1452
g2
F-119.0
sg3
I67
sg4
(idecision_tree
decision_tree_leaf
p1453
(dp1454
g31
g32
(g33
tp1455
Rp1456
S'Pn'
p1457
I1
ssg40
g1457
sbsg41
(idecision_tree
decision_tree_leaf
p1458
(dp1459
g31
g32
(g33
tp1460
Rp1461
g36
I1
ssg40
g36
sbsbsbsg41
(idecision_tree
continuous_decision_tree
p1462
(dp1463
g2
F-133.75
sg3
I67
sg4
(idecision_tree
decision_tree_leaf
p1464
(dp1465
g31
g32
(g33
tp1466
Rp1467
S'Pn'
p1468
I1
ssg40
g1468
sbsg41
(idecision_tree
decision_tree_leaf
p1469
(dp1470
g31
g32
(g33
tp1471
Rp1472
g36
I1
ssg40
g36
sbsbsbsg41
(idecision_tree
continuous_decision_tree
p1473
(dp1474
g2
F-127.25
sg3
I67
sg4
(idecision_tree
decision_tree_leaf
p1475
(dp1476
g31
g32
(g33
tp1477
Rp1478
g36
I1
ssg40
g36
sbsg41
(idecision_tree
decision_tree_leaf
p1479
(dp1480
g31
g32
(g33
tp1481
Rp1482
S'Pn'
p1483
I1
ssg40
g1483
sbsbsbsg41
(idecision_tree
continuous_decision_tree
p1484
(dp1485
g2
F-128.0
sg3
I67
sg4
(idecision_tree
decision_tree_leaf
p1486
(dp1487
g31
g32
(g33
tp1488
Rp1489
S'Pn'
p1490
I1
ssg40
g1490
sbsg41
(idecision_tree
decision_tree_leaf
p1491
(dp1492
g31
g32
(g33
tp1493
Rp1494
g36
I1
ssg40
g36
sbsbsbsg41
(idecision_tree
continuous_decision_tree
p1495
(dp1496
g2
F-120.9165
sg3
I67
sg4
(idecision_tree
decision_tree_leaf
p1497
(dp1498
g31
g32
(g33
tp1499
Rp1500
S'Pn'
p1501
I1
ssg40
g1501
sbsg41
(idecision_tree
decision_tree_leaf
p1502
(dp1503
g31
g32
(g33
tp1504
Rp1505
g36
I1
ssg40
g36
sbsbsbsg41
(idecision_tree
continuous_decision_tree
p1506
(dp1507
g2
F-132.524
sg3
I67
sg4
(idecision_tree
decision_tree_leaf
p1508
(dp1509
g31
g32
(g33
tp1510
Rp1511
S'Pn'
p1512
I1
ssg40
g1512
sbsg41
(idecision_tree
decision_tree_leaf
p1513
(dp1514
g31
g32
(g33
tp1515
Rp1516
g37
I1
ssg40
g37
sbsbsbsbsg41
(idecision_tree
continuous_decision_tree
p1517
(dp1518
g2
F-6.0
sg3
I66
sg4
(idecision_tree
continuous_decision_tree
p1519
(dp1520
g2
F0.1513885
sg3
I51
sg4
(idecision_tree
continuous_decision_tree
p1521
(dp1522
g2
F-126.24700000000001
sg3
I67
sg4
(idecision_tree
continuous_decision_tree
p1523
(dp1524
g2
F-115.7855
sg3
I67
sg4
(idecision_tree
continuous_decision_tree
p1525
(dp1526
g2
F-3.5
sg3
I66
sg4
(idecision_tree
continuous_decision_tree
p1527
(dp1528
g2
F-103.6
sg3
I67
sg4
(idecision_tree
continuous_decision_tree
p1529
(dp1530
g2
F-98.975
sg3
I67
sg4
(idecision_tree
decision_tree_leaf
p1531
(dp1532
g31
g32
(g33
tp1533
Rp1534
g36
I1
ssg40
g36
sbsg41
(idecision_tree
decision_tree_leaf
p1535
(dp1536
g31
g32
(g33
tp1537
Rp1538
S'Pn'
p1539
I1
ssg40
g1539
sbsbsg41
(idecision_tree
continuous_decision_tree
p1540
(dp1541
g2
F-109.125
sg3
I67
sg4
(idecision_tree
continuous_decision_tree
p1542
(dp1543
g2
F-108.25
sg3
I67
sg4
(idecision_tree
decision_tree_leaf
p1544
(dp1545
g31
g32
(g33
tp1546
Rp1547
g36
I1
ssg40
g36
sbsg41
(idecision_tree
decision_tree_leaf
p1548
(dp1549
g31
g32
(g33
tp1550
Rp1551
S'Pn'
p1552
I1
ssg40
g1552
sbsbsg41
(idecision_tree
continuous_decision_tree
p1553
(dp1554
g2
F0.5408795
sg3
I51
sg4
(idecision_tree
continuous_decision_tree
p1555
(dp1556
g2
F-112.6605
sg3
I67
sg4
(idecision_tree
decision_tree_leaf
p1557
(dp1558
g31
g32
(g33
tp1559
Rp1560
g36
I1
ssg40
g36
sbsg41
(idecision_tree
decision_tree_leaf
p1561
(dp1562
g31
g32
(g33
tp1563
Rp1564
S'Pn'
p1565
I1
ssg40
g1565
sbsbsg41
(idecision_tree
decision_tree_leaf
p1566
(dp1567
g31
g32
(g33
tp1568
Rp1569
S'Pn'
p1570
I1
ssg40
g1570
sbsbsbsbsg41
(idecision_tree
continuous_decision_tree
p1571
(dp1572
g2
F-97.12485000000001
sg3
I67
sg4
(idecision_tree
decision_tree_leaf
p1573
(dp1574
g31
g32
(g33
tp1575
Rp1576
g36
I1
ssg40
g36
sbsg41
(idecision_tree
decision_tree_leaf
p1577
(dp1578
g31
g32
(g33
tp1579
Rp1580
S'Pn'
p1581
I1
ssg40
g1581
sbsbsbsg41
(idecision_tree
continuous_decision_tree
p1582
(dp1583
g2
F-118.72200000000001
sg3
I67
sg4
(idecision_tree
decision_tree_leaf
p1584
(dp1585
g31
g32
(g33
tp1586
Rp1587
g36
I1
ssg40
g36
sbsg41
(idecision_tree
decision_tree_leaf
p1588
(dp1589
g31
g32
(g33
tp1590
Rp1591
S'Pn'
p1592
I1
ssg40
g1592
sbsbsbsg41
(idecision_tree
continuous_decision_tree
p1593
(dp1594
g2
F-142.525
sg3
I67
sg4
(idecision_tree
decision_tree_leaf
p1595
(dp1596
g31
g32
(g33
tp1597
Rp1598
g36
I1
ssg40
g36
sbsg41
(idecision_tree
decision_tree_leaf
p1599
(dp1600
g31
g32
(g33
tp1601
Rp1602
S'Pn'
p1603
I1
ssg40
g1603
sbsbsbsg41
(idecision_tree
continuous_decision_tree
p1604
(dp1605
g2
F-111.5355
sg3
I67
sg4
(idecision_tree
decision_tree_leaf
p1606
(dp1607
g31
g32
(g33
tp1608
Rp1609
S'Pn'
p1610
I1
ssg40
g1610
sbsg41
(idecision_tree
decision_tree_leaf
p1611
(dp1612
g31
g32
(g33
tp1613
Rp1614
g36
I1
ssg40
g36
sbsbsbsg41
(idecision_tree
continuous_decision_tree
p1615
(dp1616
g2
F-119.5035
sg3
I67
sg4
(idecision_tree
decision_tree_leaf
p1617
(dp1618
g31
g32
(g33
tp1619
Rp1620
S'Pn'
p1621
I1
ssg40
g1621
sbsg41
(idecision_tree
decision_tree_leaf
p1622
(dp1623
g31
g32
(g33
tp1624
Rp1625
g36
I1
ssg40
g36
sbsbsbsbsbsg41
(idecision_tree
continuous_decision_tree
p1626
(dp1627
g2
F2.186635
sg3
I49
sg4
(idecision_tree
continuous_decision_tree
p1628
(dp1629
g2
F0.512148
sg3
I52
sg4
(idecision_tree
continuous_decision_tree
p1630
(dp1631
g2
F0.6701475
sg3
I35
sg4
(idecision_tree
continuous_decision_tree
p1632
(dp1633
g2
F0.7417685
sg3
I35
sg4
(idecision_tree
continuous_decision_tree
p1634
(dp1635
g2
F-28.99495
sg3
I67
sg4
(idecision_tree
continuous_decision_tree
p1636
(dp1637
g2
F-21.39495
sg3
I67
sg4
(idecision_tree
decision_tree_leaf
p1638
(dp1639
g31
g32
(g33
tp1640
Rp1641
S'Sn'
p1642
I1
ssg40
g1642
sbsg41
(idecision_tree
decision_tree_leaf
p1643
(dp1644
g31
g32
(g33
tp1645
Rp1646
S'Pn'
p1647
I1
ssg40
g1647
sbsbsg41
(idecision_tree
continuous_decision_tree
p1648
(dp1649
g2
F-3.0
sg3
I66
sg4
(idecision_tree
continuous_decision_tree
p1650
(dp1651
g2
F-3.0
sg3
I63
sg4
(idecision_tree
continuous_decision_tree
p1652
(dp1653
g2
F0.0
sg3
I66
sg4
(idecision_tree
continuous_decision_tree
p1654
(dp1655
g2
F0.639695
sg3
I52
sg4
(idecision_tree
continuous_decision_tree
p1656
(dp1657
g2
F-116.0
sg3
I67
sg4
(idecision_tree
continuous_decision_tree
p1658
(dp1659
g2
F-78.75
sg3
I67
sg4
(idecision_tree
decision_tree_leaf
p1660
(dp1661
g31
g32
(g33
tp1662
Rp1663
S'Sn'
p1664
I1
ssg40
g1664
sbsg41
(idecision_tree
decision_tree_leaf
p1665
(dp1666
g31
g32
(g33
tp1667
Rp1668
S'Pn'
p1669
I1
ssg40
g1669
sbsbsg41
(idecision_tree
continuous_decision_tree
p1670
(dp1671
g2
F-128.75
sg3
I67
sg4
(idecision_tree
decision_tree_leaf
p1672
(dp1673
g31
g32
(g33
tp1674
Rp1675
S'Sn'
p1676
I1
ssg40
g1676
sbsg41
(idecision_tree
decision_tree_leaf
p1677
(dp1678
g31
g32
(g33
tp1679
Rp1680
S'Pn'
p1681
I1
ssg40
g1681
sbsbsbsg41
(idecision_tree
continuous_decision_tree
p1682
(dp1683
g2
F-117.0
sg3
I67
sg4
(idecision_tree
decision_tree_leaf
p1684
(dp1685
g31
g32
(g33
tp1686
Rp1687
g36
I1
ssg40
g36
sbsg41
(idecision_tree
decision_tree_leaf
p1688
(dp1689
g31
g32
(g33
tp1690
Rp1691
S'Pn'
p1692
I1
ssg40
g1692
sbsbsbsg41
(idecision_tree
continuous_decision_tree
p1693
(dp1694
g2
F-59.166650000000004
sg3
I67
sg4
(idecision_tree
decision_tree_leaf
p1695
(dp1696
g31
g32
(g33
tp1697
Rp1698
S'Pn'
p1699
I1
ssg40
g1699
sbsg41
(idecision_tree
decision_tree_leaf
p1700
(dp1701
g31
g32
(g33
tp1702
Rp1703
S'Pn'
p1704
I2
sS'Sn'
p1705
I1
ssg40
g1704
sbsbsbsg41
(idecision_tree
continuous_decision_tree
p1706
(dp1707
g2
F-66.0
sg3
I67
sg4
(idecision_tree
continuous_decision_tree
p1708
(dp1709
g2
F1.0
sg3
I58
sg4
(idecision_tree
continuous_decision_tree
p1710
(dp1711
g2
F-42.94445
sg3
I67
sg4
(idecision_tree
decision_tree_leaf
p1712
(dp1713
g31
g32
(g33
tp1714
Rp1715
S'Pn'
p1716
I1
ssg40
g1716
sbsg41
(idecision_tree
decision_tree_leaf
p1717
(dp1718
g31
g32
(g33
tp1719
Rp1720
S'Sn'
p1721
I1
ssg40
g1721
sbsbsg41
(idecision_tree
continuous_decision_tree
p1722
(dp1723
g2
F0.8799745
sg3
I35
sg4
(idecision_tree
continuous_decision_tree
p1724
(dp1725
g2
F-50.5
sg3
I67
sg4
(idecision_tree
decision_tree_leaf
p1726
(dp1727
g31
g32
(g33
tp1728
Rp1729
S'Pn'
p1730
I1
ssg40
g1730
sbsg41
(idecision_tree
decision_tree_leaf
p1731
(dp1732
g31
g32
(g33
tp1733
Rp1734
S'Sn'
p1735
I1
ssg40
g1735
sbsbsg41
(idecision_tree
continuous_decision_tree
p1736
(dp1737
g2
F-32.6
sg3
I67
sg4
(idecision_tree
decision_tree_leaf
p1738
(dp1739
g31
g32
(g33
tp1740
Rp1741
S'Sn'
p1742
I1
ssg40
g1742
sbsg41
(idecision_tree
decision_tree_leaf
p1743
(dp1744
g31
g32
(g33
tp1745
Rp1746
S'Pn'
p1747
I1
ssg40
g1747
sbsbsbsbsg41
(idecision_tree
continuous_decision_tree
p1748
(dp1749
g2
F-68.0
sg3
I67
sg4
(idecision_tree
decision_tree_leaf
p1750
(dp1751
g31
g32
(g33
tp1752
Rp1753
S'Pn'
p1754
I1
ssg40
g1754
sbsg41
(idecision_tree
decision_tree_leaf
p1755
(dp1756
g31
g32
(g33
tp1757
Rp1758
g36
I1
ssg40
g36
sbsbsbsbsg41
(idecision_tree
decision_tree_leaf
p1759
(dp1760
g31
g32
(g33
tp1761
Rp1762
S'Sn'
p1763
I1
ssg40
g1763
sbsbsbsg41
(idecision_tree
continuous_decision_tree
p1764
(dp1765
g2
F-133.33350000000002
sg3
I67
sg4
(idecision_tree
continuous_decision_tree
p1766
(dp1767
g2
F-2.0
sg3
I66
sg4
(idecision_tree
continuous_decision_tree
p1768
(dp1769
g2
F0.0
sg3
I59
sg4
(idecision_tree
continuous_decision_tree
p1770
(dp1771
g2
F-44.75
sg3
I67
sg4
(idecision_tree
continuous_decision_tree
p1772
(dp1773
g2
F-28.66665
sg3
I67
sg4
(idecision_tree
decision_tree_leaf
p1774
(dp1775
g31
g32
(g33
tp1776
Rp1777
g36
I1
ssg40
g36
sbsg41
(idecision_tree
decision_tree_leaf
p1778
(dp1779
g31
g32
(g33
tp1780
Rp1781
S'Pn'
p1782
I1
ssg40
g1782
sbsbsg41
(idecision_tree
continuous_decision_tree
p1783
(dp1784
g2
F2.5
sg3
I66
sg4
(idecision_tree
continuous_decision_tree
p1785
(dp1786
g2
F-65.31665
sg3
I67
sg4
(idecision_tree
decision_tree_leaf
p1787
(dp1788
g31
g32
(g33
tp1789
Rp1790
g36
I1
ssg40
g36
sbsg41
(idecision_tree
decision_tree_leaf
p1791
(dp1792
g31
g32
(g33
tp1793
Rp1794
S'Pn'
p1795
I1
ssg40
g1795
sbsbsg41
(idecision_tree
continuous_decision_tree
p1796
(dp1797
g2
F13.0
sg3
I59
sg4
(idecision_tree
continuous_decision_tree
p1798
(dp1799
g2
F0.8209835
sg3
I52
sg4
(idecision_tree
continuous_decision_tree
p1800
(dp1801
g2
F-75.5
sg3
I67
sg4
(idecision_tree
decision_tree_leaf
p1802
(dp1803
g31
g32
(g33
tp1804
Rp1805
g36
I1
ssg40
g36
sbsg41
(idecision_tree
decision_tree_leaf
p1806
(dp1807
g31
g32
(g33
tp1808
Rp1809
S'Pn'
p1810
I1
ssg40
g1810
sbsbsg41
(idecision_tree
decision_tree_leaf
p1811
(dp1812
g31
g32
(g33
tp1813
Rp1814
S'Pn'
p1815
I1
ssg40
g1815
sbsbsg41
(idecision_tree
continuous_decision_tree
p1816
(dp1817
g2
F-89.8335
sg3
I67
sg4
(idecision_tree
decision_tree_leaf
p1818
(dp1819
g31
g32
(g33
tp1820
Rp1821
g37
I1
ssg40
g37
sbsg41
(idecision_tree
decision_tree_leaf
p1822
(dp1823
g31
g32
(g33
tp1824
Rp1825
S'Pn'
p1826
I1
ssg40
g1826
sbsbsbsbsbsg41
(idecision_tree
continuous_decision_tree
p1827
(dp1828
g2
F-63.5
sg3
I67
sg4
(idecision_tree
continuous_decision_tree
p1829
(dp1830
g2
F-20.5
sg3
I67
sg4
(idecision_tree
decision_tree_leaf
p1831
(dp1832
g31
g32
(g33
tp1833
Rp1834
g36
I1
ssg40
g36
sbsg41
(idecision_tree
decision_tree_leaf
p1835
(dp1836
g31
g32
(g33
tp1837
Rp1838
S'Sn'
p1839
I1
ssg40
g1839
sbsbsg41
(idecision_tree
decision_tree_leaf
p1840
(dp1841
g31
g32
(g33
tp1842
Rp1843
S'Pn'
p1844
I1
ssg40
g1844
sbsbsbsg41
(idecision_tree
decision_tree_leaf
p1845
(dp1846
g31
g32
(g33
tp1847
Rp1848
S'Pn'
p1849
I1
ssg40
g1849
sbsbsg41
(idecision_tree
continuous_decision_tree
p1850
(dp1851
g2
F-149.25
sg3
I67
sg4
(idecision_tree
decision_tree_leaf
p1852
(dp1853
g31
g32
(g33
tp1854
Rp1855
g36
I1
ssg40
g36
sbsg41
(idecision_tree
decision_tree_leaf
p1856
(dp1857
g31
g32
(g33
tp1858
Rp1859
S'Pn'
p1860
I1
ssg40
g1860
sbsbsbsbsg41
(idecision_tree
continuous_decision_tree
p1861
(dp1862
g2
F-145.66649999999998
sg3
I67
sg4
(idecision_tree
continuous_decision_tree
p1863
(dp1864
g2
F-113.3335
sg3
I67
sg4
(idecision_tree
continuous_decision_tree
p1865
(dp1866
g2
F2.5
sg3
I66
sg4
(idecision_tree
continuous_decision_tree
p1867
(dp1868
g2
F-27.76665
sg3
I67
sg4
(idecision_tree
decision_tree_leaf
p1869
(dp1870
g31
g32
(g33
tp1871
Rp1872
S'Pn'
p1873
I1
ssg40
g1873
sbsg41
(idecision_tree
decision_tree_leaf
p1874
(dp1875
g31
g32
(g33
tp1876
Rp1877
g37
I1
ssg40
g37
sbsbsg41
(idecision_tree
continuous_decision_tree
p1878
(dp1879
g2
F-44.333349999999996
sg3
I63
sg4
(idecision_tree
continuous_decision_tree
p1880
(dp1881
g2
F-26.3
sg3
I63
sg4
(idecision_tree
continuous_decision_tree
p1882
(dp1883
g2
F7.833335
sg3
I63
sg4
(idecision_tree
continuous_decision_tree
p1884
(dp1885
g2
F-70.0
sg3
I67
sg4
(idecision_tree
decision_tree_leaf
p1886
(dp1887
g31
g32
(g33
tp1888
Rp1889
S'Pn'
p1890
I1
ssg40
g1890
sbsg41
(idecision_tree
decision_tree_leaf
p1891
(dp1892
g31
g32
(g33
tp1893
Rp1894
g37
I1
ssg40
g37
sbsbsg41
(idecision_tree
continuous_decision_tree
p1895
(dp1896
g2
F-1.5
sg3
I66
sg4
(idecision_tree
continuous_decision_tree
p1897
(dp1898
g2
F-60.4
sg3
I67
sg4
(idecision_tree
decision_tree_leaf
p1899
(dp1900
g31
g32
(g33
tp1901
Rp1902
g36
I1
ssg40
g36
sbsg41
(idecision_tree
decision_tree_leaf
p1903
(dp1904
g31
g32
(g33
tp1905
Rp1906
S'Pn'
p1907
I1
ssg40
g1907
sbsbsg41
(idecision_tree
continuous_decision_tree
p1908
(dp1909
g2
F0.559935
sg3
I48
sg4
(idecision_tree
continuous_decision_tree
p1910
(dp1911
g2
F-36.285700000000006
sg3
I67
sg4
(idecision_tree
decision_tree_leaf
p1912
(dp1913
g31
g32
(g33
tp1914
Rp1915
S'Sn'
p1916
I1
ssg40
g1916
sbsg41
(idecision_tree
decision_tree_leaf
p1917
(dp1918
g31
g32
(g33
tp1919
Rp1920
S'Pn'
p1921
I1
ssg40
g1921
sbsbsg41
(idecision_tree
decision_tree_leaf
p1922
(dp1923
g31
g32
(g33
tp1924
Rp1925
S'Pn'
p1926
I1
ssg40
g1926
sbsbsbsbsg41
(idecision_tree
continuous_decision_tree
p1927
(dp1928
g2
F-63.958349999999996
sg3
I67
sg4
(idecision_tree
decision_tree_leaf
p1929
(dp1930
g31
g32
(g33
tp1931
Rp1932
g36
I1
ssg40
g36
sbsg41
(idecision_tree
decision_tree_leaf
p1933
(dp1934
g31
g32
(g33
tp1935
Rp1936
S'Pn'
p1937
I1
ssg40
g1937
sbsbsbsg41
(idecision_tree
continuous_decision_tree
p1938
(dp1939
g2
F-72.5
sg3
I67
sg4
(idecision_tree
decision_tree_leaf
p1940
(dp1941
g31
g32
(g33
tp1942
Rp1943
S'Pn'
p1944
I1
ssg40
g1944
sbsg41
(idecision_tree
decision_tree_leaf
p1945
(dp1946
g31
g32
(g33
tp1947
Rp1948
S'Sn'
p1949
I1
ssg40
g1949
sbsbsbsbsg41
(idecision_tree
continuous_decision_tree
p1950
(dp1951
g2
F-126.0
sg3
I67
sg4
(idecision_tree
decision_tree_leaf
p1952
(dp1953
g31
g32
(g33
tp1954
Rp1955
g36
I1
ssg40
g36
sbsg41
(idecision_tree
decision_tree_leaf
p1956
(dp1957
g31
g32
(g33
tp1958
Rp1959
S'Pn'
p1960
I1
ssg40
g1960
sbsbsbsg41
(idecision_tree
continuous_decision_tree
p1961
(dp1962
g2
F-154.4
sg3
I67
sg4
(idecision_tree
decision_tree_leaf
p1963
(dp1964
g31
g32
(g33
tp1965
Rp1966
S'Sn'
p1967
I1
ssg40
g1967
sbsg41
(idecision_tree
decision_tree_leaf
p1968
(dp1969
g31
g32
(g33
tp1970
Rp1971
S'Pn'
p1972
I1
ssg40
g1972
sbsbsbsbsg41
(idecision_tree
continuous_decision_tree
p1973
(dp1974
g2
F-2.0
sg3
I63
sg4
(idecision_tree
continuous_decision_tree
p1975
(dp1976
g2
F0.1336585
sg3
I51
sg4
(idecision_tree
continuous_decision_tree
p1977
(dp1978
g2
F10.83335
sg3
I63
sg4
(idecision_tree
continuous_decision_tree
p1979
(dp1980
g2
F20.1
sg3
I63
sg4
(idecision_tree
continuous_decision_tree
p1981
(dp1982
g2
F-105.5
sg3
I67
sg4
(idecision_tree
continuous_decision_tree
p1983
(dp1984
g2
F21.5
sg3
I59
sg4
(idecision_tree
continuous_decision_tree
p1985
(dp1986
g2
F0.443967
sg3
I52
sg4
(idecision_tree
continuous_decision_tree
p1987
(dp1988
g2
F-74.38635
sg3
I67
sg4
(idecision_tree
decision_tree_leaf
p1989
(dp1990
g31
g32
(g33
tp1991
Rp1992
S'Pn'
p1993
I1
ssg40
g1993
sbsg41
(idecision_tree
decision_tree_leaf
p1994
(dp1995
g31
g32
(g33
tp1996
Rp1997
g36
I1
ssg40
g36
sbsbsg41
(idecision_tree
continuous_decision_tree
p1998
(dp1999
g2
F0.405623
sg3
I52
sg4
(idecision_tree
continuous_decision_tree
p2000
(dp2001
g2
F-88.5
sg3
I67
sg4
(idecision_tree
decision_tree_leaf
p2002
(dp2003
g31
g32
(g33
tp2004
Rp2005
g36
I1
ssg40
g36
sbsg41
(idecision_tree
decision_tree_leaf
p2006
(dp2007
g31
g32
(g33
tp2008
Rp2009
S'Pn'
p2010
I1
ssg40
g2010
sbsbsg41
(idecision_tree
continuous_decision_tree
p2011
(dp2012
g2
F2.27413
sg3
I50
sg4
(idecision_tree
continuous_decision_tree
p2013
(dp2014
g2
F-48.166650000000004
sg3
I67
sg4
(idecision_tree
decision_tree_leaf
p2015
(dp2016
g31
g32
(g33
tp2017
Rp2018
S'Pn'
p2019
I1
ssg40
g2019
sbsg41
(idecision_tree
decision_tree_leaf
p2020
(dp2021
g31
g32
(g33
tp2022
Rp2023
g36
I1
ssg40
g36
sbsbsg41
(idecision_tree
decision_tree_leaf
p2024
(dp2025
g31
g32
(g33
tp2026
Rp2027
S'Pn'
p2028
I1
ssg40
g2028
sbsbsbsbsg41
(idecision_tree
continuous_decision_tree
p2029
(dp2030
g2
F-68.53569999999999
sg3
I67
sg4
(idecision_tree
decision_tree_leaf
p2031
(dp2032
g31
g32
(g33
tp2033
Rp2034
S'Pn'
p2035
I1
ssg40
g2035
sbsg41
(idecision_tree
decision_tree_leaf
p2036
(dp2037
g31
g32
(g33
tp2038
Rp2039
g36
I1
ssg40
g36
sbsbsbsg41
(idecision_tree
continuous_decision_tree
p2040
(dp2041
g2
F-133.33350000000002
sg3
I67
sg4
(idecision_tree
decision_tree_leaf
p2042
(dp2043
g31
g32
(g33
tp2044
Rp2045
S'Sn'
p2046
I1
ssg40
g2046
sbsg41
(idecision_tree
decision_tree_leaf
p2047
(dp2048
g31
g32
(g33
tp2049
Rp2050
S'Pn'
p2051
I1
ssg40
g2051
sbsbsbsg41
(idecision_tree
continuous_decision_tree
p2052
(dp2053
g2
F-103.275
sg3
I67
sg4
(idecision_tree
decision_tree_leaf
p2054
(dp2055
g31
g32
(g33
tp2056
Rp2057
g36
I1
ssg40
g36
sbsg41
(idecision_tree
decision_tree_leaf
p2058
(dp2059
g31
g32
(g33
tp2060
Rp2061
S'Pn'
p2062
I1
ssg40
g2062
sbsbsbsg41
(idecision_tree
continuous_decision_tree
p2063
(dp2064
g2
F-76.91665
sg3
I67
sg4
(idecision_tree
decision_tree_leaf
p2065
(dp2066
g31
g32
(g33
tp2067
Rp2068
g36
I1
ssg40
g36
sbsg41
(idecision_tree
decision_tree_leaf
p2069
(dp2070
g31
g32
(g33
tp2071
Rp2072
S'Pn'
p2073
I1
ssg40
g2073
sbsbsbsg41
(idecision_tree
continuous_decision_tree
p2074
(dp2075
g2
F-85.2
sg3
I67
sg4
(idecision_tree
decision_tree_leaf
p2076
(dp2077
g31
g32
(g33
tp2078
Rp2079
g36
I1
ssg40
g36
sbsg41
(idecision_tree
decision_tree_leaf
p2080
(dp2081
g31
g32
(g33
tp2082
Rp2083
S'Pn'
p2084
I1
ssg40
g2084
sbsbsbsg41
(idecision_tree
continuous_decision_tree
p2085
(dp2086
g2
F1.0
sg3
I66
sg4
(idecision_tree
continuous_decision_tree
p2087
(dp2088
g2
F-33.8125
sg3
I67
sg4
(idecision_tree
decision_tree_leaf
p2089
(dp2090
g31
g32
(g33
tp2091
Rp2092
g36
I1
ssg40
g36
sbsg41
(idecision_tree
decision_tree_leaf
p2093
(dp2094
g31
g32
(g33
tp2095
Rp2096
S'Pn'
p2097
I1
ssg40
g2097
sbsbsg41
(idecision_tree
continuous_decision_tree
p2098
(dp2099
g2
F1.0
sg3
I58
sg4
(idecision_tree
continuous_decision_tree
p2100
(dp2101
g2
F-68.0
sg3
I67
sg4
(idecision_tree
continuous_decision_tree
p2102
(dp2103
g2
F-53.791650000000004
sg3
I67
sg4
(idecision_tree
decision_tree_leaf
p2104
(dp2105
g31
g32
(g33
tp2106
Rp2107
S'Pn'
p2108
I1
ssg40
g2108
sbsg41
(idecision_tree
decision_tree_leaf
p2109
(dp2110
g31
g32
(g33
tp2111
Rp2112
g36
I1
ssg40
g36
sbsbsg41
(idecision_tree
decision_tree_leaf
p2113
(dp2114
g31
g32
(g33
tp2115
Rp2116
S'Pn'
p2117
I1
ssg40
g2117
sbsbsg41
(idecision_tree
continuous_decision_tree
p2118
(dp2119
g2
F-2.0
sg3
I66
sg4
(idecision_tree
continuous_decision_tree
p2120
(dp2121
g2
F-11.125
sg3
I63
sg4
(idecision_tree
continuous_decision_tree
p2122
(dp2123
g2
F-35.49165
sg3
I67
sg4
(idecision_tree
decision_tree_leaf
p2124
(dp2125
g31
g32
(g33
tp2126
Rp2127
g36
I1
ssg40
g36
sbsg41
(idecision_tree
decision_tree_leaf
p2128
(dp2129
g31
g32
(g33
tp2130
Rp2131
S'Pn'
p2132
I1
ssg40
g2132
sbsbsg41
(idecision_tree
continuous_decision_tree
p2133
(dp2134
g2
F-30.0
sg3
I67
sg4
(idecision_tree
continuous_decision_tree
p2135
(dp2136
g2
F-17.0
sg3
I67
sg4
(idecision_tree
decision_tree_leaf
p2137
(dp2138
g31
g32
(g33
tp2139
Rp2140
g36
I1
ssg40
g36
sbsg41
(idecision_tree
decision_tree_leaf
p2141
(dp2142
g31
g32
(g33
tp2143
Rp2144
S'Pn'
p2145
I1
ssg40
g2145
sbsbsg41
(idecision_tree
continuous_decision_tree
p2146
(dp2147
g2
F-48.0
sg3
I67
sg4
(idecision_tree
continuous_decision_tree
p2148
(dp2149
g2
F-39.0
sg3
I67
sg4
(idecision_tree
decision_tree_leaf
p2150
(dp2151
g31
g32
(g33
tp2152
Rp2153
g36
I1
ssg40
g36
sbsg41
(idecision_tree
decision_tree_leaf
p2154
(dp2155
g31
g32
(g33
tp2156
Rp2157
S'Pn'
p2158
I1
ssg40
g2158
sbsbsg41
(idecision_tree
continuous_decision_tree
p2159
(dp2160
g2
F0.0
sg3
I58
sg4
(idecision_tree
continuous_decision_tree
p2161
(dp2162
g2
F0.38226550000000004
sg3
I52
sg4
(idecision_tree
continuous_decision_tree
p2163
(dp2164
g2
F-73.75
sg3
I67
sg4
(idecision_tree
decision_tree_leaf
p2165
(dp2166
g31
g32
(g33
tp2167
Rp2168
g36
I1
ssg40
g36
sbsg41
(idecision_tree
decision_tree_leaf
p2169
(dp2170
g31
g32
(g33
tp2171
Rp2172
S'Pn'
p2173
I1
ssg40
g2173
sbsbsg41
(idecision_tree
continuous_decision_tree
p2174
(dp2175
g2
F-78.0
sg3
I67
sg4
(idecision_tree
decision_tree_leaf
p2176
(dp2177
g31
g32
(g33
tp2178
Rp2179
S'Pn'
p2180
I1
ssg40
g2180
sbsg41
(idecision_tree
decision_tree_leaf
p2181
(dp2182
g31
g32
(g33
tp2183
Rp2184
g36
I1
ssg40
g36
sbsbsbsg41
(idecision_tree
decision_tree_leaf
p2185
(dp2186
g31
g32
(g33
tp2187
Rp2188
g36
I1
ssg40
g36
sbsbsbsbsbsg41
(idecision_tree
continuous_decision_tree
p2189
(dp2190
g2
F0.268065
sg3
I52
sg4
(idecision_tree
continuous_decision_tree
p2191
(dp2192
g2
F-129.417
sg3
I67
sg4
(idecision_tree
decision_tree_leaf
p2193
(dp2194
g31
g32
(g33
tp2195
Rp2196
S'Pn'
p2197
I1
ssg40
g2197
sbsg41
(idecision_tree
decision_tree_leaf
p2198
(dp2199
g31
g32
(g33
tp2200
Rp2201
g36
I1
ssg40
g36
sbsbsg41
(idecision_tree
decision_tree_leaf
p2202
(dp2203
g31
g32
(g33
tp2204
Rp2205
S'Pn'
p2206
I1
ssg40
g2206
sbsbsbsbsbsbsbsg41
(idecision_tree
continuous_decision_tree
p2207
(dp2208
g2
F-13.0
sg3
I59
sg4
(idecision_tree
continuous_decision_tree
p2209
(dp2210
g2
F3.0
sg3
I66
sg4
(idecision_tree
continuous_decision_tree
p2211
(dp2212
g2
F-126.875
sg3
I67
sg4
(idecision_tree
continuous_decision_tree
p2213
(dp2214
g2
F-92.97225
sg3
I67
sg4
(idecision_tree
continuous_decision_tree
p2215
(dp2216
g2
F-75.09525
sg3
I67
sg4
(idecision_tree
continuous_decision_tree
p2217
(dp2218
g2
F-29.0
sg3
I67
sg4
(idecision_tree
continuous_decision_tree
p2219
(dp2220
g2
F4.0
sg3
I66
sg4
(idecision_tree
decision_tree_leaf
p2221
(dp2222
g31
g32
(g33
tp2223
Rp2224
S'Pn'
p2225
I2
sS'Sn'
p2226
I1
ssg40
g2225
sbsg41
(idecision_tree
decision_tree_leaf
p2227
(dp2228
g31
g32
(g33
tp2229
Rp2230
g36
I1
ssg40
g36
sbsbsg41
(idecision_tree
continuous_decision_tree
p2231
(dp2232
g2
F-19.92857
sg3
I63
sg4
(idecision_tree
continuous_decision_tree
p2233
(dp2234
g2
F4.0
sg3
I66
sg4
(idecision_tree
continuous_decision_tree
p2235
(dp2236
g2
F4.5
sg3
I58
sg4
(idecision_tree
decision_tree_leaf
p2237
(dp2238
g31
g32
(g33
tp2239
Rp2240
g36
I2
sS'Pn'
p2241
I1
ssg40
g36
sbsg41
(idecision_tree
decision_tree_leaf
p2242
(dp2243
g31
g32
(g33
tp2244
Rp2245
g36
I2
sS'Pn'
p2246
I1
ssg40
g36
sbsbsg41
(idecision_tree
decision_tree_leaf
p2247
(dp2248
g31
g32
(g33
tp2249
Rp2250
S'Pn'
p2251
I2
ssg40
g2251
sbsbsg41
(idecision_tree
continuous_decision_tree
p2252
(dp2253
g2
F-57.66665
sg3
I67
sg4
(idecision_tree
decision_tree_leaf
p2254
(dp2255
g31
g32
(g33
tp2256
Rp2257
g36
I1
ssg40
g36
sbsg41
(idecision_tree
decision_tree_leaf
p2258
(dp2259
g31
g32
(g33
tp2260
Rp2261
S'Pn'
p2262
I1
ssg40
g2262
sbsbsbsbsg41
(idecision_tree
continuous_decision_tree
p2263
(dp2264
g2
F-83.8889
sg3
I67
sg4
(idecision_tree
decision_tree_leaf
p2265
(dp2266
g31
g32
(g33
tp2267
Rp2268
g36
I1
ssg40
g36
sbsg41
(idecision_tree
decision_tree_leaf
p2269
(dp2270
g31
g32
(g33
tp2271
Rp2272
S'Pn'
p2273
I1
ssg40
g2273
sbsbsbsg41
(idecision_tree
continuous_decision_tree
p2274
(dp2275
g2
F3.5
sg3
I66
sg4
(idecision_tree
continuous_decision_tree
p2276
(dp2277
g2
F0.2975765
sg3
I52
sg4
(idecision_tree
continuous_decision_tree
p2278
(dp2279
g2
F-103.08335
sg3
I67
sg4
(idecision_tree
decision_tree_leaf
p2280
(dp2281
g31
g32
(g33
tp2282
Rp2283
g36
I1
ssg40
g36
sbsg41
(idecision_tree
decision_tree_leaf
p2284
(dp2285
g31
g32
(g33
tp2286
Rp2287
S'Pn'
p2288
I1
ssg40
g2288
sbsbsg41
(idecision_tree
continuous_decision_tree
p2289
(dp2290
g2
F-111.675
sg3
I67
sg4
(idecision_tree
decision_tree_leaf
p2291
(dp2292
g31
g32
(g33
tp2293
Rp2294
g36
I1
ssg40
g36
sbsg41
(idecision_tree
decision_tree_leaf
p2295
(dp2296
g31
g32
(g33
tp2297
Rp2298
S'Pn'
p2299
I1
ssg40
g2299
sbsbsbsg41
(idecision_tree
continuous_decision_tree
p2300
(dp2301
g2
F-112.68350000000001
sg3
I67
sg4
(idecision_tree
decision_tree_leaf
p2302
(dp2303
g31
g32
(g33
tp2304
Rp2305
S'Sn'
p2306
I1
ssg40
g2306
sbsg41
(idecision_tree
decision_tree_leaf
p2307
(dp2308
g31
g32
(g33
tp2309
Rp2310
S'Pn'
p2311
I1
ssg40
g2311
sbsbsbsbsg41
(idecision_tree
continuous_decision_tree
p2312
(dp2313
g2
F-130.389
sg3
I67
sg4
(idecision_tree
decision_tree_leaf
p2314
(dp2315
g31
g32
(g33
tp2316
Rp2317
g36
I1
ssg40
g36
sbsg41
(idecision_tree
decision_tree_leaf
p2318
(dp2319
g31
g32
(g33
tp2320
Rp2321
S'Pn'
p2322
I1
ssg40
g2322
sbsbsbsg41
(idecision_tree
continuous_decision_tree
p2323
(dp2324
g2
F1.56711
sg3
I39
sg4
(idecision_tree
continuous_decision_tree
p2325
(dp2326
g2
F-12.875
sg3
I63
sg4
(idecision_tree
continuous_decision_tree
p2327
(dp2328
g2
F0.444444
sg3
I8
sg4
(idecision_tree
continuous_decision_tree
p2329
(dp2330
g2
F0.2508155
sg3
I51
sg4
(idecision_tree
continuous_decision_tree
p2331
(dp2332
g2
F34.25
sg3
I59
sg4
(idecision_tree
continuous_decision_tree
p2333
(dp2334
g2
F-78.10415
sg3
I67
sg4
(idecision_tree
decision_tree_leaf
p2335
(dp2336
g31
g32
(g33
tp2337
Rp2338
g36
I1
ssg40
g36
sbsg41
(idecision_tree
decision_tree_leaf
p2339
(dp2340
g31
g32
(g33
tp2341
Rp2342
S'Pn'
p2343
I1
ssg40
g2343
sbsbsg41
(idecision_tree
continuous_decision_tree
p2344
(dp2345
g2
F24.75
sg3
I63
sg4
(idecision_tree
continuous_decision_tree
p2346
(dp2347
g2
F-134.33350000000002
sg3
I67
sg4
(idecision_tree
decision_tree_leaf
p2348
(dp2349
g31
g32
(g33
tp2350
Rp2351
S'Sn'
p2352
I1
ssg40
g2352
sbsg41
(idecision_tree
decision_tree_leaf
p2353
(dp2354
g31
g32
(g33
tp2355
Rp2356
S'Pn'
p2357
I1
ssg40
g2357
sbsbsg41
(idecision_tree
continuous_decision_tree
p2358
(dp2359
g2
F-1.0
sg3
I66
sg4
(idecision_tree
continuous_decision_tree
p2360
(dp2361
g2
F0.5
sg3
I66
sg4
(idecision_tree
continuous_decision_tree
p2362
(dp2363
g2
F-78.53565
sg3
I67
sg4
(idecision_tree
decision_tree_leaf
p2364
(dp2365
g31
g32
(g33
tp2366
Rp2367
g37
I1
ssg40
g37
sbsg41
(idecision_tree
decision_tree_leaf
p2368
(dp2369
g31
g32
(g33
tp2370
Rp2371
S'Pn'
p2372
I1
ssg40
g2372
sbsbsg41
(idecision_tree
decision_tree_leaf
p2373
(dp2374
g31
g32
(g33
tp2375
Rp2376
S'Pn'
p2377
I1
ssg40
g2377
sbsbsg41
(idecision_tree
continuous_decision_tree
p2378
(dp2379
g2
F-78.8637
sg3
I67
sg4
(idecision_tree
decision_tree_leaf
p2380
(dp2381
g31
g32
(g33
tp2382
Rp2383
S'Sn'
p2384
I1
ssg40
g2384
sbsg41
(idecision_tree
decision_tree_leaf
p2385
(dp2386
g31
g32
(g33
tp2387
Rp2388
S'Pn'
p2389
I1
ssg40
g2389
sbsbsbsbsbsg41
(idecision_tree
continuous_decision_tree
p2390
(dp2391
g2
F-100.0
sg3
I67
sg4
(idecision_tree
continuous_decision_tree
p2392
(dp2393
g2
F-50.46665
sg3
I67
sg4
(idecision_tree
continuous_decision_tree
p2394
(dp2395
g2
F-46.8
sg3
I67
sg4
(idecision_tree
continuous_decision_tree
p2396
(dp2397
g2
F-44.2
sg3
I67
sg4
(idecision_tree
decision_tree_leaf
p2398
(dp2399
g31
g32
(g33
tp2400
Rp2401
S'Pn'
p2402
I1
ssg40
g2402
sbsg41
(idecision_tree
decision_tree_leaf
p2403
(dp2404
g31
g32
(g33
tp2405
Rp2406
g36
I1
ssg40
g36
sbsbsg41
(idecision_tree
decision_tree_leaf
p2407
(dp2408
g31
g32
(g33
tp2409
Rp2410
S'Pn'
p2411
I1
ssg40
g2411
sbsbsg41
(idecision_tree
continuous_decision_tree
p2412
(dp2413
g2
F-70.66665
sg3
I67
sg4
(idecision_tree
decision_tree_leaf
p2414
(dp2415
g31
g32
(g33
tp2416
Rp2417
g36
I1
ssg40
g36
sbsg41
(idecision_tree
decision_tree_leaf
p2418
(dp2419
g31
g32
(g33
tp2420
Rp2421
S'Pn'
p2422
I1
ssg40
g2422
sbsbsbsg41
(idecision_tree
continuous_decision_tree
p2423
(dp2424
g2
F-115.75
sg3
I67
sg4
(idecision_tree
decision_tree_leaf
p2425
(dp2426
g31
g32
(g33
tp2427
Rp2428
g36
I1
ssg40
g36
sbsg41
(idecision_tree
decision_tree_leaf
p2429
(dp2430
g31
g32
(g33
tp2431
Rp2432
S'Pn'
p2433
I1
ssg40
g2433
sbsbsbsbsg41
(idecision_tree
continuous_decision_tree
p2434
(dp2435
g2
F-2.0
sg3
I66
sg4
(idecision_tree
decision_tree_leaf
p2436
(dp2437
g31
g32
(g33
tp2438
Rp2439
g36
I5
sg37
I1
sS'Pn'
p2440
I7
sS'Sn'
p2441
I2
ssg40
g2440
sbsg41
(idecision_tree
decision_tree_leaf
p2442
(dp2443
g31
g32
(g33
tp2444
Rp2445
S'Pn'
p2446
I1
ssg40
g2446
sbsbsbsg41
(idecision_tree
continuous_decision_tree
p2447
(dp2448
g2
F0.21138
sg3
I52
sg4
(idecision_tree
continuous_decision_tree
p2449
(dp2450
g2
F-19.75
sg3
I67
sg4
(idecision_tree
decision_tree_leaf
p2451
(dp2452
g31
g32
(g33
tp2453
Rp2454
g36
I1
sS'Pn'
p2455
I1
ssg40
g36
sbsg41
(idecision_tree
continuous_decision_tree
p2456
(dp2457
g2
F-5.5
sg3
I59
sg4
(idecision_tree
continuous_decision_tree
p2458
(dp2459
g2
F-1.5
sg3
I62
sg4
(idecision_tree
decision_tree_leaf
p2460
(dp2461
g31
g32
(g33
tp2462
Rp2463
g36
I3
sg37
I1
sS'Pn'
p2464
I5
ssg40
g2464
sbsg41
(idecision_tree
continuous_decision_tree
p2465
(dp2466
g2
F-81.95835
sg3
I67
sg4
(idecision_tree
decision_tree_leaf
p2467
(dp2468
g31
g32
(g33
tp2469
Rp2470
S'Pn'
p2471
I1
ssg40
g2471
sbsg41
(idecision_tree
decision_tree_leaf
p2472
(dp2473
g31
g32
(g33
tp2474
Rp2475
g36
I1
ssg40
g36
sbsbsbsg41
(idecision_tree
continuous_decision_tree
p2476
(dp2477
g2
F-109.452
sg3
I67
sg4
(idecision_tree
decision_tree_leaf
p2478
(dp2479
g31
g32
(g33
tp2480
Rp2481
g36
I1
ssg40
g36
sbsg41
(idecision_tree
decision_tree_leaf
p2482
(dp2483
g31
g32
(g33
tp2484
Rp2485
S'Pn'
p2486
I1
ssg40
g2486
sbsbsbsbsg41
(idecision_tree
continuous_decision_tree
p2487
(dp2488
g2
F-67.58335
sg3
I67
sg4
(idecision_tree
decision_tree_leaf
p2489
(dp2490
g31
g32
(g33
tp2491
Rp2492
S'Pn'
p2493
I1
ssg40
g2493
sbsg41
(idecision_tree
decision_tree_leaf
p2494
(dp2495
g31
g32
(g33
tp2496
Rp2497
g36
I1
ssg40
g36
sbsbsbsbsg41
(idecision_tree
continuous_decision_tree
p2498
(dp2499
g2
F-113.1665
sg3
I67
sg4
(idecision_tree
continuous_decision_tree
p2500
(dp2501
g2
F-34.583349999999996
sg3
I67
sg4
(idecision_tree
continuous_decision_tree
p2502
(dp2503
g2
F-27.16665
sg3
I67
sg4
(idecision_tree
decision_tree_leaf
p2504
(dp2505
g31
g32
(g33
tp2506
Rp2507
g36
I1
ssg40
g36
sbsg41
(idecision_tree
decision_tree_leaf
p2508
(dp2509
g31
g32
(g33
tp2510
Rp2511
S'Pn'
p2512
I1
ssg40
g2512
sbsbsg41
(idecision_tree
continuous_decision_tree
p2513
(dp2514
g2
F2.0
sg3
I66
sg4
(idecision_tree
decision_tree_leaf
p2515
(dp2516
g31
g32
(g33
tp2517
Rp2518
g36
I2
sS'Pn'
p2519
I2
ssg40
g36
sbsg41
(idecision_tree
continuous_decision_tree
p2520
(dp2521
g2
F0.0
sg3
I66
sg4
(idecision_tree
continuous_decision_tree
p2522
(dp2523
g2
F-100.66665
sg3
I67
sg4
(idecision_tree
continuous_decision_tree
p2524
(dp2525
g2
F0.5
sg3
I66
sg4
(idecision_tree
decision_tree_leaf
p2526
(dp2527
g31
g32
(g33
tp2528
Rp2529
S'Pn'
p2530
I1
ssg40
g2530
sbsg41
(idecision_tree
continuous_decision_tree
p2531
(dp2532
g2
F1.333205
sg3
I49
sg4
(idecision_tree
continuous_decision_tree
p2533
(dp2534
g2
F-81.8333
sg3
I67
sg4
(idecision_tree
decision_tree_leaf
p2535
(dp2536
g31
g32
(g33
tp2537
Rp2538
S'Pn'
p2539
I1
ssg40
g2539
sbsg41
(idecision_tree
decision_tree_leaf
p2540
(dp2541
g31
g32
(g33
tp2542
Rp2543
g36
I1
ssg40
g36
sbsbsg41
(idecision_tree
decision_tree_leaf
p2544
(dp2545
g31
g32
(g33
tp2546
Rp2547
S'Pn'
p2548
I1
ssg40
g2548
sbsbsbsg41
(idecision_tree
decision_tree_leaf
p2549
(dp2550
g31
g32
(g33
tp2551
Rp2552
S'Pn'
p2553
I1
ssg40
g2553
sbsbsg41
(idecision_tree
continuous_decision_tree
p2554
(dp2555
g2
F-2.0
sg3
I66
sg4
(idecision_tree
decision_tree_leaf
p2556
(dp2557
g31
g32
(g33
tp2558
Rp2559
g36
I1
ssg40
g36
sbsg41
(idecision_tree
continuous_decision_tree
p2560
(dp2561
g2
F0.562837
sg3
I52
sg4
(idecision_tree
continuous_decision_tree
p2562
(dp2563
g2
F-81.73015000000001
sg3
I67
sg4
(idecision_tree
decision_tree_leaf
p2564
(dp2565
g31
g32
(g33
tp2566
Rp2567
g36
I1
ssg40
g36
sbsg41
(idecision_tree
decision_tree_leaf
p2568
(dp2569
g31
g32
(g33
tp2570
Rp2571
S'Pn'
p2572
I1
ssg40
g2572
sbsbsg41
(idecision_tree
decision_tree_leaf
p2573
(dp2574
g31
g32
(g33
tp2575
Rp2576
g36
I1
ssg40
g36
sbsbsbsbsbsbsg41
(idecision_tree
continuous_decision_tree
p2577
(dp2578
g2
F-131.0
sg3
I67
sg4
(idecision_tree
decision_tree_leaf
p2579
(dp2580
g31
g32
(g33
tp2581
Rp2582
S'Pn'
p2583
I1
ssg40
g2583
sbsg41
(idecision_tree
decision_tree_leaf
p2584
(dp2585
g31
g32
(g33
tp2586
Rp2587
g36
I1
ssg40
g36
sbsbsbsbsbsg41
(idecision_tree
continuous_decision_tree
p2588
(dp2589
g2
F-24.91665
sg3
I67
sg4
(idecision_tree
continuous_decision_tree
p2590
(dp2591
g2
F1.5
sg3
I66
sg4
(idecision_tree
continuous_decision_tree
p2592
(dp2593
g2
F-14.1
sg3
I67
sg4
(idecision_tree
decision_tree_leaf
p2594
(dp2595
g31
g32
(g33
tp2596
Rp2597
S'Pn'
p2598
I1
ssg40
g2598
sbsg41
(idecision_tree
decision_tree_leaf
p2599
(dp2600
g31
g32
(g33
tp2601
Rp2602
g36
I1
ssg40
g36
sbsbsg41
(idecision_tree
continuous_decision_tree
p2603
(dp2604
g2
F-14.5
sg3
I67
sg4
(idecision_tree
decision_tree_leaf
p2605
(dp2606
g31
g32
(g33
tp2607
Rp2608
g36
I1
sS'Pn'
p2609
I1
ssg40
g36
sbsg41
(idecision_tree
continuous_decision_tree
p2610
(dp2611
g2
F-17.25
sg3
I67
sg4
(idecision_tree
continuous_decision_tree
p2612
(dp2613
g2
F-16.0
sg3
I67
sg4
(idecision_tree
decision_tree_leaf
p2614
(dp2615
g31
g32
(g33
tp2616
Rp2617
S'Pn'
p2618
I1
ssg40
g2618
sbsg41
(idecision_tree
decision_tree_leaf
p2619
(dp2620
g31
g32
(g33
tp2621
Rp2622
g37
I1
ssg40
g37
sbsbsg41
(idecision_tree
continuous_decision_tree
p2623
(dp2624
g2
F-1.0
sg3
I66
sg4
(idecision_tree
decision_tree_leaf
p2625
(dp2626
g31
g32
(g33
tp2627
Rp2628
g36
I3
sS'Pn'
p2629
I3
ssg40
g36
sbsg41
(idecision_tree
decision_tree_leaf
p2630
(dp2631
g31
g32
(g33
tp2632
Rp2633
S'Pn'
p2634
I1
ssg40
g2634
sbsbsbsbsbsg41
(idecision_tree
continuous_decision_tree
p2635
(dp2636
g2
F-3.5
sg3
I66
sg4
(idecision_tree
continuous_decision_tree
p2637
(dp2638
g2
F-55.25
sg3
I67
sg4
(idecision_tree
continuous_decision_tree
p2639
(dp2640
g2
F-45.0
sg3
I67
sg4
(idecision_tree
continuous_decision_tree
p2641
(dp2642
g2
F18.5
sg3
I63
sg4
(idecision_tree
continuous_decision_tree
p2643
(dp2644
g2
F-30.25
sg3
I67
sg4
(idecision_tree
decision_tree_leaf
p2645
(dp2646
g31
g32
(g33
tp2647
Rp2648
S'Pn'
p2649
I1
ssg40
g2649
sbsg41
(idecision_tree
decision_tree_leaf
p2650
(dp2651
g31
g32
(g33
tp2652
Rp2653
g36
I1
ssg40
g36
sbsbsg41
(idecision_tree
continuous_decision_tree
p2654
(dp2655
g2
F0.5
sg3
I58
sg4
(idecision_tree
continuous_decision_tree
p2656
(dp2657
g2
F-35.0
sg3
I67
sg4
(idecision_tree
decision_tree_leaf
p2658
(dp2659
g31
g32
(g33
tp2660
Rp2661
S'Pn'
p2662
I1
ssg40
g2662
sbsg41
(idecision_tree
decision_tree_leaf
p2663
(dp2664
g31
g32
(g33
tp2665
Rp2666
g36
I1
ssg40
g36
sbsbsg41
(idecision_tree
continuous_decision_tree
p2667
(dp2668
g2
F-21.0
sg3
I59
sg4
(idecision_tree
continuous_decision_tree
p2669
(dp2670
g2
F-37.333349999999996
sg3
I67
sg4
(idecision_tree
decision_tree_leaf
p2671
(dp2672
g31
g32
(g33
tp2673
Rp2674
S'Pn'
p2675
I1
ssg40
g2675
sbsg41
(idecision_tree
decision_tree_leaf
p2676
(dp2677
g31
g32
(g33
tp2678
Rp2679
g36
I1
ssg40
g36
sbsbsg41
(idecision_tree
continuous_decision_tree
p2680
(dp2681
g2
F-1.5
sg3
I66
sg4
(idecision_tree
continuous_decision_tree
p2682
(dp2683
g2
F0.15388580000000002
sg3
I51
sg4
(idecision_tree
continuous_decision_tree
p2684
(dp2685
g2
F-29.0
sg3
I67
sg4
(idecision_tree
decision_tree_leaf
p2686
(dp2687
g31
g32
(g33
tp2688
Rp2689
S'Pn'
p2690
I1
ssg40
g2690
sbsg41
(idecision_tree
decision_tree_leaf
p2691
(dp2692
g31
g32
(g33
tp2693
Rp2694
g36
I1
ssg40
g36
sbsbsg41
(idecision_tree
decision_tree_leaf
p2695
(dp2696
g31
g32
(g33
tp2697
Rp2698
S'Pn'
p2699
I1
ssg40
g2699
sbsbsg41
(idecision_tree
continuous_decision_tree
p2700
(dp2701
g2
F-35.5
sg3
I67
sg4
(idecision_tree
decision_tree_leaf
p2702
(dp2703
g31
g32
(g33
tp2704
Rp2705
S'Pn'
p2706
I1
ssg40
g2706
sbsg41
(idecision_tree
decision_tree_leaf
p2707
(dp2708
g31
g32
(g33
tp2709
Rp2710
g36
I1
ssg40
g36
sbsbsbsbsbsbsg41
(idecision_tree
continuous_decision_tree
p2711
(dp2712
g2
F-49.0
sg3
I67
sg4
(idecision_tree
decision_tree_leaf
p2713
(dp2714
g31
g32
(g33
tp2715
Rp2716
S'Pn'
p2717
I1
ssg40
g2717
sbsg41
(idecision_tree
decision_tree_leaf
p2718
(dp2719
g31
g32
(g33
tp2720
Rp2721
g36
I1
ssg40
g36
sbsbsbsg41
(idecision_tree
continuous_decision_tree
p2722
(dp2723
g2
F-48.25
sg3
I63
sg4
(idecision_tree
continuous_decision_tree
p2724
(dp2725
g2
F-43.5
sg3
I63
sg4
(idecision_tree
continuous_decision_tree
p2726
(dp2727
g2
F0.5386595000000001
sg3
I50
sg4
(idecision_tree
decision_tree_leaf
p2728
(dp2729
g31
g32
(g33
tp2730
Rp2731
g36
I3
sS'Pn'
p2732
I4
ssg40
g2732
sbsg41
(idecision_tree
continuous_decision_tree
p2733
(dp2734
g2
F-78.0
sg3
I67
sg4
(idecision_tree
decision_tree_leaf
p2735
(dp2736
g31
g32
(g33
tp2737
Rp2738
S'Pn'
p2739
I1
ssg40
g2739
sbsg41
(idecision_tree
decision_tree_leaf
p2740
(dp2741
g31
g32
(g33
tp2742
Rp2743
g36
I1
ssg40
g36
sbsbsbsg41
(idecision_tree
continuous_decision_tree
p2744
(dp2745
g2
F-119.75
sg3
I67
sg4
(idecision_tree
decision_tree_leaf
p2746
(dp2747
g31
g32
(g33
tp2748
Rp2749
S'Pn'
p2750
I1
ssg40
g2750
sbsg41
(idecision_tree
decision_tree_leaf
p2751
(dp2752
g31
g32
(g33
tp2753
Rp2754
g36
I1
ssg40
g36
sbsbsbsg41
(idecision_tree
continuous_decision_tree
p2755
(dp2756
g2
F-90.3333
sg3
I67
sg4
(idecision_tree
decision_tree_leaf
p2757
(dp2758
g31
g32
(g33
tp2759
Rp2760
g37
I1
ssg40
g37
sbsg41
(idecision_tree
decision_tree_leaf
p2761
(dp2762
g31
g32
(g33
tp2763
Rp2764
S'Pn'
p2765
I1
ssg40
g2765
sbsbsbsbsg41
(idecision_tree
continuous_decision_tree
p2766
(dp2767
g2
F-30.3
sg3
I67
sg4
(idecision_tree
continuous_decision_tree
p2768
(dp2769
g2
F-26.7
sg3
I67
sg4
(idecision_tree
decision_tree_leaf
p2770
(dp2771
g31
g32
(g33
tp2772
Rp2773
S'Pn'
p2774
I1
ssg40
g2774
sbsg41
(idecision_tree
decision_tree_leaf
p2775
(dp2776
g31
g32
(g33
tp2777
Rp2778
g37
I1
ssg40
g37
sbsbsg41
(idecision_tree
continuous_decision_tree
p2779
(dp2780
g2
F-42.933350000000004
sg3
I63
sg4
(idecision_tree
continuous_decision_tree
p2781
(dp2782
g2
F-5.0
sg3
I66
sg4
(idecision_tree
continuous_decision_tree
p2783
(dp2784
g2
F-4.5
sg3
I66
sg4
(idecision_tree
decision_tree_leaf
p2785
(dp2786
g31
g32
(g33
tp2787
Rp2788
g36
I1
ssg40
g36
sbsg41
(idecision_tree
continuous_decision_tree
p2789
(dp2790
g2
F-30.6
sg3
I63
sg4
(idecision_tree
continuous_decision_tree
p2791
(dp2792
g2
F-138.5
sg3
I67
sg4
(idecision_tree
decision_tree_leaf
p2793
(dp2794
g31
g32
(g33
tp2795
Rp2796
g36
I1
ssg40
g36
sbsg41
(idecision_tree
decision_tree_leaf
p2797
(dp2798
g31
g32
(g33
tp2799
Rp2800
S'Pn'
p2801
I1
ssg40
g2801
sbsbsg41
(idecision_tree
decision_tree_leaf
p2802
(dp2803
g31
g32
(g33
tp2804
Rp2805
g36
I1
ssg40
g36
sbsbsbsg41
(idecision_tree
continuous_decision_tree
p2806
(dp2807
g2
F-149.0
sg3
I67
sg4
(idecision_tree
decision_tree_leaf
p2808
(dp2809
g31
g32
(g33
tp2810
Rp2811
g36
I1
sS'Pn'
p2812
I3
ssg40
g2812
sbsg41
(idecision_tree
decision_tree_leaf
p2813
(dp2814
g31
g32
(g33
tp2815
Rp2816
S'Pn'
p2817
I1
ssg40
g2817
sbsbsbsg41
(idecision_tree
continuous_decision_tree
p2818
(dp2819
g2
F-99.1335
sg3
I67
sg4
(idecision_tree
decision_tree_leaf
p2820
(dp2821
g31
g32
(g33
tp2822
Rp2823
g36
I1
ssg40
g36
sbsg41
(idecision_tree
decision_tree_leaf
p2824
(dp2825
g31
g32
(g33
tp2826
Rp2827
S'Pn'
p2828
I1
ssg40
g2828
sbsbsbsbsbsbsbsbsbsbsbsg41
(idecision_tree
continuous_decision_tree
p2829
(dp2830
g2
F-159.29149999999998
sg3
I67
sg4
(idecision_tree
decision_tree_leaf
p2831
(dp2832
g31
g32
(g33
tp2833
Rp2834
g36
I1
ssg40
g36
sbsg41
(idecision_tree
decision_tree_leaf
p2835
(dp2836
g31
g32
(g33
tp2837
Rp2838
S'Pn'
p2839
I1
ssg40
g2839
sbsbsbsg41
(idecision_tree
continuous_decision_tree
p2840
(dp2841
g2
F0.5258745
sg3
I52
sg4
(idecision_tree
continuous_decision_tree
p2842
(dp2843
g2
F-161.08350000000002
sg3
I67
sg4
(idecision_tree
decision_tree_leaf
p2844
(dp2845
g31
g32
(g33
tp2846
Rp2847
g36
I1
ssg40
g36
sbsg41
(idecision_tree
decision_tree_leaf
p2848
(dp2849
g31
g32
(g33
tp2850
Rp2851
S'Pn'
p2852
I1
ssg40
g2852
sbsbsg41
(idecision_tree
continuous_decision_tree
p2853
(dp2854
g2
F-161.125
sg3
I67
sg4
(idecision_tree
decision_tree_leaf
p2855
(dp2856
g31
g32
(g33
tp2857
Rp2858
g36
I1
ssg40
g36
sbsg41
(idecision_tree
decision_tree_leaf
p2859
(dp2860
g31
g32
(g33
tp2861
Rp2862
S'Pn'
p2863
I1
ssg40
g2863
sbsbsbsbsg41
(idecision_tree
continuous_decision_tree
p2864
(dp2865
g2
F-162.75
sg3
I67
sg4
(idecision_tree
decision_tree_leaf
p2866
(dp2867
g31
g32
(g33
tp2868
Rp2869
g36
I1
ssg40
g36
sbsg41
(idecision_tree
decision_tree_leaf
p2870
(dp2871
g31
g32
(g33
tp2872
Rp2873
S'Pn'
p2874
I1
ssg40
g2874
sbsbsbsg41
(idecision_tree
continuous_decision_tree
p2875
(dp2876
g2
F0.5
sg3
I66
sg4
(idecision_tree
continuous_decision_tree
p2877
(dp2878
g2
F0.45811349999999995
sg3
I51
sg4
(idecision_tree
continuous_decision_tree
p2879
(dp2880
g2
F-167.75
sg3
I67
sg4
(idecision_tree
decision_tree_leaf
p2881
(dp2882
g31
g32
(g33
tp2883
Rp2884
g36
I1
ssg40
g36
sbsg41
(idecision_tree
decision_tree_leaf
p2885
(dp2886
g31
g32
(g33
tp2887
Rp2888
S'Pn'
p2889
I1
ssg40
g2889
sbsbsg41
(idecision_tree
continuous_decision_tree
p2890
(dp2891
g2
F-170.61450000000002
sg3
I67
sg4
(idecision_tree
decision_tree_leaf
p2892
(dp2893
g31
g32
(g33
tp2894
Rp2895
g36
I1
ssg40
g36
sbsg41
(idecision_tree
decision_tree_leaf
p2896
(dp2897
g31
g32
(g33
tp2898
Rp2899
S'Pn'
p2900
I1
ssg40
g2900
sbsbsbsg41
(idecision_tree
continuous_decision_tree
p2901
(dp2902
g2
F-172.16649999999998
sg3
I67
sg4
(idecision_tree
decision_tree_leaf
p2903
(dp2904
g31
g32
(g33
tp2905
Rp2906
g36
I1
ssg40
g36
sbsg41
(idecision_tree
decision_tree_leaf
p2907
(dp2908
g31
g32
(g33
tp2909
Rp2910
S'Pn'
p2911
I1
ssg40
g2911
sbsbsbsbsg41
(idecision_tree
continuous_decision_tree
p2912
(dp2913
g2
F-3.0
sg3
I66
sg4
(idecision_tree
decision_tree_leaf
p2914
(dp2915
g31
g32
(g33
tp2916
Rp2917
g36
I7
sS'Pn'
p2918
I7
ssg40
g36
sbsg41
(idecision_tree
continuous_decision_tree
p2919
(dp2920
g2
F-179.75
sg3
I67
sg4
(idecision_tree
decision_tree_leaf
p2921
(dp2922
g31
g32
(g33
tp2923
Rp2924
g36
I1
ssg40
g36
sbsg41
(idecision_tree
decision_tree_leaf
p2925
(dp2926
g31
g32
(g33
tp2927
Rp2928
S'Pn'
p2929
I1
ssg40
g2929
sbsbsbsbsg41
(idecision_tree
continuous_decision_tree
p2930
(dp2931
g2
F-3.0
sg3
I66
sg4
(idecision_tree
continuous_decision_tree
p2932
(dp2933
g2
F21.16665
sg3
I63
sg4
(idecision_tree
continuous_decision_tree
p2934
(dp2935
g2
F-203.58350000000002
sg3
I67
sg4
(idecision_tree
continuous_decision_tree
p2936
(dp2937
g2
F-198.16649999999998
sg3
I67
sg4
(idecision_tree
continuous_decision_tree
p2938
(dp2939
g2
F31.0
sg3
I63
sg4
(idecision_tree
continuous_decision_tree
p2940
(dp2941
g2
F-191.66649999999998
sg3
I67
sg4
(idecision_tree
decision_tree_leaf
p2942
(dp2943
g31
g32
(g33
tp2944
Rp2945
S'Pn'
p2946
I1
ssg40
g2946
sbsg41
(idecision_tree
decision_tree_leaf
p2947
(dp2948
g31
g32
(g33
tp2949
Rp2950
g36
I1
ssg40
g36
sbsbsg41
(idecision_tree
continuous_decision_tree
p2951
(dp2952
g2
F1.5
sg3
I66
sg4
(idecision_tree
continuous_decision_tree
p2953
(dp2954
g2
F-191.025
sg3
I67
sg4
(idecision_tree
decision_tree_leaf
p2955
(dp2956
g31
g32
(g33
tp2957
Rp2958
S'Pn'
p2959
I1
ssg40
g2959
sbsg41
(idecision_tree
decision_tree_leaf
p2960
(dp2961
g31
g32
(g33
tp2962
Rp2963
g36
I1
ssg40
g36
sbsbsg41
(idecision_tree
continuous_decision_tree
p2964
(dp2965
g2
F-194.25
sg3
I67
sg4
(idecision_tree
decision_tree_leaf
p2966
(dp2967
g31
g32
(g33
tp2968
Rp2969
S'Pn'
p2970
I1
ssg40
g2970
sbsg41
(idecision_tree
decision_tree_leaf
p2971
(dp2972
g31
g32
(g33
tp2973
Rp2974
S'Sn'
p2975
I1
ssg40
g2975
sbsbsbsbsg41
(idecision_tree
continuous_decision_tree
p2976
(dp2977
g2
F-201.25
sg3
I67
sg4
(idecision_tree
decision_tree_leaf
p2978
(dp2979
g31
g32
(g33
tp2980
Rp2981
g36
I1
ssg40
g36
sbsg41
(idecision_tree
decision_tree_leaf
p2982
(dp2983
g31
g32
(g33
tp2984
Rp2985
S'Pn'
p2986
I1
ssg40
g2986
sbsbsbsg41
(idecision_tree
continuous_decision_tree
p2987
(dp2988
g2
F42.416650000000004
sg3
I63
sg4
(idecision_tree
continuous_decision_tree
p2989
(dp2990
g2
F2.017825
sg3
I49
sg4
(idecision_tree
continuous_decision_tree
p2991
(dp2992
g2
F-214.0
sg3
I67
sg4
(idecision_tree
decision_tree_leaf
p2993
(dp2994
g31
g32
(g33
tp2995
Rp2996
S'Pn'
p2997
I1
ssg40
g2997
sbsg41
(idecision_tree
decision_tree_leaf
p2998
(dp2999
g31
g32
(g33
tp3000
Rp3001
g36
I1
ssg40
g36
sbsbsg41
(idecision_tree
continuous_decision_tree
p3002
(dp3003
g2
F-211.5
sg3
I67
sg4
(idecision_tree
decision_tree_leaf
p3004
(dp3005
g31
g32
(g33
tp3006
Rp3007
S'Pn'
p3008
I1
ssg40
g3008
sbsg41
(idecision_tree
decision_tree_leaf
p3009
(dp3010
g31
g32
(g33
tp3011
Rp3012
g36
I1
ssg40
g36
sbsbsbsg41
(idecision_tree
decision_tree_leaf
p3013
(dp3014
g31
g32
(g33
tp3015
Rp3016
S'Pn'
p3017
I1
sS'Sn'
p3018
I1
ssg40
g3017
sbsbsbsg41
(idecision_tree
continuous_decision_tree
p3019
(dp3020
g2
F-1.0
sg3
I66
sg4
(idecision_tree
decision_tree_leaf
p3021
(dp3022
g31
g32
(g33
tp3023
Rp3024
g36
I5
sS'Pn'
p3025
I4
ssg40
g36
sbsg41
(idecision_tree
decision_tree_leaf
p3026
(dp3027
g31
g32
(g33
tp3028
Rp3029
S'Pn'
p3030
I1
ssg40
g3030
sbsbsbsg41
(idecision_tree
continuous_decision_tree
p3031
(dp3032
g2
F0.86165
sg3
I48
sg4
(idecision_tree
continuous_decision_tree
p3033
(dp3034
g2
F-195.139
sg3
I67
sg4
(idecision_tree
decision_tree_leaf
p3035
(dp3036
g31
g32
(g33
tp3037
Rp3038
S'Pn'
p3039
I1
ssg40
g3039
sbsg41
(idecision_tree
decision_tree_leaf
p3040
(dp3041
g31
g32
(g33
tp3042
Rp3043
g36
I1
ssg40
g36
sbsbsg41
(idecision_tree
continuous_decision_tree
p3044
(dp3045
g2
F-199.6855
sg3
I67
sg4
(idecision_tree
decision_tree_leaf
p3046
(dp3047
g31
g32
(g33
tp3048
Rp3049
g36
I1
ssg40
g36
sbsg41
(idecision_tree
decision_tree_leaf
p3050
(dp3051
g31
g32
(g33
tp3052
Rp3053
S'Pn'
p3054
I1
ssg40
g3054
sbsbsbsbsbsg41
(idecision_tree
continuous_decision_tree
p3055
(dp3056
g2
F-5.33335
sg3
I59
sg4
(idecision_tree
continuous_decision_tree
p3057
(dp3058
g2
F-217.875
sg3
I67
sg4
(idecision_tree
continuous_decision_tree
p3059
(dp3060
g2
F-217.625
sg3
I67
sg4
(idecision_tree
decision_tree_leaf
p3061
(dp3062
g31
g32
(g33
tp3063
Rp3064
S'Pn'
p3065
I1
ssg40
g3065
sbsg41
(idecision_tree
decision_tree_leaf
p3066
(dp3067
g31
g32
(g33
tp3068
Rp3069
g36
I1
ssg40
g36
sbsbsg41
(idecision_tree
continuous_decision_tree
p3070
(dp3071
g2
F0.47121500000000005
sg3
I51
sg4
(idecision_tree
continuous_decision_tree
p3072
(dp3073
g2
F4.0
sg3
I59
sg4
(idecision_tree
continuous_decision_tree
p3074
(dp3075
g2
F-221.225
sg3
I67
sg4
(idecision_tree
decision_tree_leaf
p3076
(dp3077
g31
g32
(g33
tp3078
Rp3079
g37
I1
ssg40
g37
sbsg41
(idecision_tree
decision_tree_leaf
p3080
(dp3081
g31
g32
(g33
tp3082
Rp3083
S'Pn'
p3084
I1
ssg40
g3084
sbsbsg41
(idecision_tree
continuous_decision_tree
p3085
(dp3086
g2
F-220.0
sg3
I67
sg4
(idecision_tree
decision_tree_leaf
p3087
(dp3088
g31
g32
(g33
tp3089
Rp3090
g36
I1
ssg40
g36
sbsg41
(idecision_tree
decision_tree_leaf
p3091
(dp3092
g31
g32
(g33
tp3093
Rp3094
S'Pn'
p3095
I1
ssg40
g3095
sbsbsbsg41
(idecision_tree
continuous_decision_tree
p3096
(dp3097
g2
F-218.3125
sg3
I67
sg4
(idecision_tree
decision_tree_leaf
p3098
(dp3099
g31
g32
(g33
tp3100
Rp3101
S'Pn'
p3102
I1
ssg40
g3102
sbsg41
(idecision_tree
decision_tree_leaf
p3103
(dp3104
g31
g32
(g33
tp3105
Rp3106
g36
I1
ssg40
g36
sbsbsbsbsg41
(idecision_tree
continuous_decision_tree
p3107
(dp3108
g2
F-217.7835
sg3
I67
sg4
(idecision_tree
decision_tree_leaf
p3109
(dp3110
g31
g32
(g33
tp3111
Rp3112
S'Pn'
p3113
I1
ssg40
g3113
sbsg41
(idecision_tree
decision_tree_leaf
p3114
(dp3115
g31
g32
(g33
tp3116
Rp3117
g36
I1
ssg40
g36
sbsbsbsbsg41
(idecision_tree
continuous_decision_tree
p3118
(dp3119
g2
F-257.33349999999996
sg3
I67
sg4
(idecision_tree
continuous_decision_tree
p3120
(dp3121
g2
F-1.0
sg3
I66
sg4
(idecision_tree
continuous_decision_tree
p3122
(dp3123
g2
F-244.8
sg3
I67
sg4
(idecision_tree
decision_tree_leaf
p3124
(dp3125
g31
g32
(g33
tp3126
Rp3127
g36
I5
sg37
I2
sS'Pn'
p3128
I2
ssg40
g36
sbsg41
(idecision_tree
continuous_decision_tree
p3129
(dp3130
g2
F-252.8
sg3
I67
sg4
(idecision_tree
decision_tree_leaf
p3131
(dp3132
g31
g32
(g33
tp3133
Rp3134
S'Pn'
p3135
I1
ssg40
g3135
sbsg41
(idecision_tree
decision_tree_leaf
p3136
(dp3137
g31
g32
(g33
tp3138
Rp3139
g36
I1
ssg40
g36
sbsbsbsg41
(idecision_tree
continuous_decision_tree
p3140
(dp3141
g2
F0.0
sg3
I63
sg4
(idecision_tree
continuous_decision_tree
p3142
(dp3143
g2
F0.5415465
sg3
I51
sg4
(idecision_tree
continuous_decision_tree
p3144
(dp3145
g2
F-242.125
sg3
I67
sg4
(idecision_tree
decision_tree_leaf
p3146
(dp3147
g31
g32
(g33
tp3148
Rp3149
g37
I1
ssg40
g37
sbsg41
(idecision_tree
decision_tree_leaf
p3150
(dp3151
g31
g32
(g33
tp3152
Rp3153
S'Pn'
p3154
I1
ssg40
g3154
sbsbsg41
(idecision_tree
continuous_decision_tree
p3155
(dp3156
g2
F-231.41649999999998
sg3
I67
sg4
(idecision_tree
decision_tree_leaf
p3157
(dp3158
g31
g32
(g33
tp3159
Rp3160
g36
I1
ssg40
g36
sbsg41
(idecision_tree
decision_tree_leaf
p3161
(dp3162
g31
g32
(g33
tp3163
Rp3164
S'Pn'
p3165
I1
ssg40
g3165
sbsbsbsg41
(idecision_tree
decision_tree_leaf
p3166
(dp3167
g31
g32
(g33
tp3168
Rp3169
g36
I1
ssg40
g36
sbsbsbsg41
(idecision_tree
continuous_decision_tree
p3170
(dp3171
g2
F-2.5
sg3
I66
sg4
(idecision_tree
continuous_decision_tree
p3172
(dp3173
g2
F-1.0
sg3
I66
sg4
(idecision_tree
continuous_decision_tree
p3174
(dp3175
g2
F-277.0
sg3
I67
sg4
(idecision_tree
continuous_decision_tree
p3176
(dp3177
g2
F-0.5
sg3
I66
sg4
(idecision_tree
continuous_decision_tree
p3178
(dp3179
g2
F22.5
sg3
I63
sg4
(idecision_tree
continuous_decision_tree
p3180
(dp3181
g2
F-262.7
sg3
I67
sg4
(idecision_tree
decision_tree_leaf
p3182
(dp3183
g31
g32
(g33
tp3184
Rp3185
g36
I1
ssg40
g36
sbsg41
(idecision_tree
decision_tree_leaf
p3186
(dp3187
g31
g32
(g33
tp3188
Rp3189
S'Pn'
p3190
I1
ssg40
g3190
sbsbsg41
(idecision_tree
continuous_decision_tree
p3191
(dp3192
g2
F68.93775
sg3
I40
sg4
(idecision_tree
continuous_decision_tree
p3193
(dp3194
g2
F-261.5
sg3
I67
sg4
(idecision_tree
decision_tree_leaf
p3195
(dp3196
g31
g32
(g33
tp3197
Rp3198
g36
I1
ssg40
g36
sbsg41
(idecision_tree
decision_tree_leaf
p3199
(dp3200
g31
g32
(g33
tp3201
Rp3202
S'Pn'
p3203
I1
ssg40
g3203
sbsbsg41
(idecision_tree
decision_tree_leaf
p3204
(dp3205
g31
g32
(g33
tp3206
Rp3207
S'Pn'
p3208
I1
ssg40
g3208
sbsbsbsg41
(idecision_tree
decision_tree_leaf
p3209
(dp3210
g31
g32
(g33
tp3211
Rp3212
g36
I1
sS'Pn'
p3213
I1
ssg40
g36
sbsbsg41
(idecision_tree
continuous_decision_tree
p3214
(dp3215
g2
F-284.5
sg3
I67
sg4
(idecision_tree
continuous_decision_tree
p3216
(dp3217
g2
F-281.0
sg3
I67
sg4
(idecision_tree
continuous_decision_tree
p3218
(dp3219
g2
F0.5077455
sg3
I48
sg4
(idecision_tree
continuous_decision_tree
p3220
(dp3221
g2
F-279.0
sg3
I67
sg4
(idecision_tree
decision_tree_leaf
p3222
(dp3223
g31
g32
(g33
tp3224
Rp3225
S'Pn'
p3226
I1
ssg40
g3226
sbsg41
(idecision_tree
decision_tree_leaf
p3227
(dp3228
g31
g32
(g33
tp3229
Rp3230
g36
I1
ssg40
g36
sbsbsg41
(idecision_tree
decision_tree_leaf
p3231
(dp3232
g31
g32
(g33
tp3233
Rp3234
S'Pn'
p3235
I1
ssg40
g3235
sbsbsg41
(idecision_tree
continuous_decision_tree
p3236
(dp3237
g2
F-283.0
sg3
I67
sg4
(idecision_tree
decision_tree_leaf
p3238
(dp3239
g31
g32
(g33
tp3240
Rp3241
S'Pn'
p3242
I1
ssg40
g3242
sbsg41
(idecision_tree
decision_tree_leaf
p3243
(dp3244
g31
g32
(g33
tp3245
Rp3246
g36
I1
ssg40
g36
sbsbsbsg41
(idecision_tree
continuous_decision_tree
p3247
(dp3248
g2
F-287.5
sg3
I67
sg4
(idecision_tree
decision_tree_leaf
p3249
(dp3250
g31
g32
(g33
tp3251
Rp3252
S'Pn'
p3253
I1
ssg40
g3253
sbsg41
(idecision_tree
decision_tree_leaf
p3254
(dp3255
g31
g32
(g33
tp3256
Rp3257
g36
I1
ssg40
g36
sbsbsbsbsg41
(idecision_tree
decision_tree_leaf
p3258
(dp3259
g31
g32
(g33
tp3260
Rp3261
g36
I2
ssg40
g36
sbsbsg41
(idecision_tree
continuous_decision_tree
p3262
(dp3263
g2
F-274.167
sg3
I67
sg4
(idecision_tree
decision_tree_leaf
p3264
(dp3265
g31
g32
(g33
tp3266
Rp3267
S'Pn'
p3268
I1
ssg40
g3268
sbsg41
(idecision_tree
decision_tree_leaf
p3269
(dp3270
g31
g32
(g33
tp3271
Rp3272
g36
I1
ssg40
g36
sbsbsbsbsbsg41
(idecision_tree
decision_tree_leaf
p3273
(dp3274
g31
g32
(g33
tp3275
Rp3276
g36
I158
sg37
I194
sS'Pn'
p3277
I231
sS'Sn'
p3278
I582
ssg40
g3278
sbsb.