(idecision_tree
decision_tree
p0
(dp1
S'attribute'
p2
I47
sS'value_to_tree'
p3
(dp4
S'20-OCT-2009'
p5
(idecision_tree
decision_tree
p6
(dp7
g2
I13
sg3
(dp8
S'Z1020'
p9
(idecision_tree
decision_tree_leaf
p10
(dp11
S'counts'
p12
ccollections
defaultdict
p13
(c__builtin__
int
p14
tp15
Rp16
S'P'
p17
I4
sS'PKP'
p18
I1
ssS'value'
p19
g17
sbsS'Z1530'
p20
(idecision_tree
decision_tree_leaf
p21
(dp22
g12
g13
(g14
tp23
Rp24
g17
I3
ssg19
g17
sbsS'Z2040'
p25
(idecision_tree
decision_tree_leaf
p26
(dp27
g12
g13
(g14
tp28
Rp29
g17
I1
ssg19
g17
sbssbsS'06-DEC-2009'
p30
(idecision_tree
decision_tree_leaf
p31
(dp32
g12
g13
(g14
tp33
Rp34
g17
I4
ssg19
g17
sbsS'12-NOV-2009'
p35
(idecision_tree
decision_tree_leaf
p36
(dp37
g12
g13
(g14
tp38
Rp39
g17
I7
ssg19
g17
sbsS'31-OCT-2009'
p40
(idecision_tree
decision_tree_leaf
p41
(dp42
g12
g13
(g14
tp43
Rp44
g17
I11
ssg19
g17
sbsS'02-DEC-2009'
p45
(idecision_tree
decision_tree_leaf
p46
(dp47
g12
g13
(g14
tp48
Rp49
g17
I9
ssg19
g17
sbsS'09-DEC-2009'
p50
(idecision_tree
decision_tree_leaf
p51
(dp52
g12
g13
(g14
tp53
Rp54
g17
I1
ssg19
g17
sbsS'04-MAR-2009'
p55
(idecision_tree
decision_tree_leaf
p56
(dp57
g12
g13
(g14
tp58
Rp59
g17
I1
ssg19
g17
sbsS'03-AUG-2009'
p60
(idecision_tree
decision_tree_leaf
p61
(dp62
g12
g13
(g14
tp63
Rp64
g17
I11
ssg19
g17
sbsS'19-MAR-2009'
p65
(idecision_tree
decision_tree_leaf
p66
(dp67
g12
g13
(g14
tp68
Rp69
g17
I10
ssg19
g17
sbsS'15-JUL-2009'
p70
(idecision_tree
decision_tree_leaf
p71
(dp72
g12
g13
(g14
tp73
Rp74
g17
I9
ssg19
g17
sbsS'30-APR-2009'
p75
(idecision_tree
decision_tree_leaf
p76
(dp77
g12
g13
(g14
tp78
Rp79
g17
I3
ssg19
g17
sbsS'11-APR-2009'
p80
(idecision_tree
decision_tree_leaf
p81
(dp82
g12
g13
(g14
tp83
Rp84
g17
I4
ssg19
g17
sbsS'26-MAR-2009'
p85
(idecision_tree
decision_tree_leaf
p86
(dp87
g12
g13
(g14
tp88
Rp89
g17
I5
ssg19
g17
sbsS'02-JUL-2009'
p90
(idecision_tree
decision_tree_leaf
p91
(dp92
g12
g13
(g14
tp93
Rp94
g17
I9
ssg19
g17
sbsS'31-AUG-2009'
p95
(idecision_tree
decision_tree
p96
(dp97
g2
I1
sg3
(dp98
g17
(idecision_tree
decision_tree_leaf
p99
(dp100
g12
g13
(g14
tp101
Rp102
g17
I5
ssg19
g17
sbsS'tx'
p103
(idecision_tree
continuous_decision_tree
p104
(dp105
S'split_point'
p106
F65.5
sg2
I67
sS'gt_subtree'
p107
(idecision_tree
decision_tree_leaf
p108
(dp109
g12
g13
(g14
tp110
Rp111
g17
I1
ssg19
g17
sbsS'lt_subtree'
p112
(idecision_tree
decision_tree_leaf
p113
(dp114
g12
g13
(g14
tp115
Rp116
S'PKP'
p117
I1
ssg19
g117
sbsbssbsS'08-MAR-2009'
p118
(idecision_tree
decision_tree_leaf
p119
(dp120
g12
g13
(g14
tp121
Rp122
g17
I3
ssg19
g17
sbsS'14-JUL-2009'
p123
(idecision_tree
decision_tree_leaf
p124
(dp125
g12
g13
(g14
tp126
Rp127
g17
I7
ssg19
g17
sbsS'09-JUL-2009'
p128
(idecision_tree
decision_tree_leaf
p129
(dp130
g12
g13
(g14
tp131
Rp132
g17
I6
ssg19
g17
sbsS'13-AUG-2009'
p133
(idecision_tree
continuous_decision_tree
p134
(dp135
g106
F83.8
sg2
I67
sg107
(idecision_tree
decision_tree_leaf
p136
(dp137
g12
g13
(g14
tp138
Rp139
g17
I1
ssg19
g17
sbsg112
(idecision_tree
continuous_decision_tree
p140
(dp141
g106
F-62.0
sg2
I63
sg107
(idecision_tree
continuous_decision_tree
p142
(dp143
g106
F289.931
sg2
I43
sg107
(idecision_tree
decision_tree
p144
(dp145
g2
I13
sg3
(dp146
S'Z1020'
p147
(idecision_tree
decision_tree_leaf
p148
(dp149
g12
g13
(g14
tp150
Rp151
S'PKP'
p152
I1
ssg19
g152
sbsS'Z1530'
p153
(idecision_tree
decision_tree_leaf
p154
(dp155
g12
g13
(g14
tp156
Rp157
g17
I1
ssg19
g17
sbssbsg112
(idecision_tree
decision_tree_leaf
p158
(dp159
g12
g13
(g14
tp160
Rp161
g17
I1
ssg19
g17
sbsbsg112
(idecision_tree
decision_tree_leaf
p162
(dp163
g12
g13
(g14
tp164
Rp165
g17
I1
ssg19
g17
sbsbsbsS'03-MAY-2009'
p166
(idecision_tree
decision_tree_leaf
p167
(dp168
g12
g13
(g14
tp169
Rp170
g17
I7
ssg19
g17
sbsS'21-DEC-2009'
p171
(idecision_tree
decision_tree
p172
(dp173
g2
I14
sg3
(dp174
S'coh'
p175
(idecision_tree
decision_tree_leaf
p176
(dp177
g12
g13
(g14
tp178
Rp179
g17
I4
ssg19
g17
sbsS'inc'
p180
(idecision_tree
decision_tree_leaf
p181
(dp182
g12
g13
(g14
tp183
Rp184
S'Pn'
p185
I1
ssg19
g185
sbssbsS'09-MAY-2009'
p186
(idecision_tree
continuous_decision_tree
p187
(dp188
g106
F-34.75
sg2
I67
sg107
(idecision_tree
continuous_decision_tree
p189
(dp190
g106
F-6.0
sg2
I67
sg107
(idecision_tree
decision_tree
p191
(dp192
g2
I14
sg3
(dp193
S'coh'
p194
(idecision_tree
decision_tree_leaf
p195
(dp196
g12
g13
(g14
tp197
Rp198
g17
I1
ssg19
g17
sbsS'inc'
p199
(idecision_tree
decision_tree_leaf
p200
(dp201
g12
g13
(g14
tp202
Rp203
S'Sn'
p204
I1
ssg19
g204
sbssbsg112
(idecision_tree
decision_tree_leaf
p205
(dp206
g12
g13
(g14
tp207
Rp208
g17
I1
ssg19
g17
sbsbsg112
(idecision_tree
decision_tree
p209
(dp210
g2
I13
sg3
(dp211
S'Z1020'
p212
(idecision_tree
decision_tree_leaf
p213
(dp214
g12
g13
(g14
tp215
Rp216
g17
I1
ssg19
g17
sbsS'Z2040'
p217
(idecision_tree
decision_tree_leaf
p218
(dp219
g12
g13
(g14
tp220
Rp221
S'Pn'
p222
I1
ssg19
g222
sbssbsbsS'22-JUL-2009'
p223
(idecision_tree
decision_tree_leaf
p224
(dp225
g12
g13
(g14
tp226
Rp227
g17
I1
ssg19
g17
sbsS'21-APR-2009'
p228
(idecision_tree
decision_tree_leaf
p229
(dp230
g12
g13
(g14
tp231
Rp232
g17
I9
sS'PKP'
p233
I3
sS'Pn'
p234
I1
ssg19
g17
sbsS'28-AUG-2009'
p235
(idecision_tree
continuous_decision_tree
p236
(dp237
g106
F0.0
sg2
I63
sg107
(idecision_tree
decision_tree_leaf
p238
(dp239
g12
g13
(g14
tp240
Rp241
g17
I4
sS'PKP'
p242
I3
ssg19
g17
sbsg112
(idecision_tree
decision_tree_leaf
p243
(dp244
g12
g13
(g14
tp245
Rp246
g17
I2
sS'PKP'
p247
I1
ssg19
g17
sbsbsS'03-OCT-2009'
p248
(idecision_tree
decision_tree
p249
(dp250
g2
I14
sg3
(dp251
S'coh'
p252
(idecision_tree
decision_tree_leaf
p253
(dp254
g12
g13
(g14
tp255
Rp256
g17
I7
ssg19
g17
sbsS'inc'
p257
(idecision_tree
decision_tree
p258
(dp259
g2
I1
sg3
(dp260
g17
(idecision_tree
decision_tree_leaf
p261
(dp262
g12
g13
(g14
tp263
Rp264
S'PKP'
p265
I1
ssg19
g265
sbsS'Sx'
p266
(idecision_tree
decision_tree_leaf
p267
(dp268
g12
g13
(g14
tp269
Rp270
g17
I1
ssg19
g17
sbssbssbsS'19-APR-2009'
p271
(idecision_tree
decision_tree_leaf
p272
(dp273
g12
g13
(g14
tp274
Rp275
g17
I1
ssg19
g17
sbsS'22-NOV-2009'
p276
(idecision_tree
decision_tree
p277
(dp278
g2
I13
sg3
(dp279
S'Z1530'
p280
(idecision_tree
decision_tree_leaf
p281
(dp282
g12
g13
(g14
tp283
Rp284
g17
I5
ssg19
g17
sbsS'H0515'
p285
(idecision_tree
decision_tree_leaf
p286
(dp287
g12
g13
(g14
tp288
Rp289
S'S'
p290
I1
ssg19
g290
sbsS'H1020'
p291
(idecision_tree
decision_tree_leaf
p292
(dp293
g12
g13
(g14
tp294
Rp295
g17
I1
ssg19
g17
sbsS'Z1020'
p296
(idecision_tree
decision_tree_leaf
p297
(dp298
g12
g13
(g14
tp299
Rp300
g17
I1
ssg19
g17
sbsS'Z0515'
p301
(idecision_tree
decision_tree_leaf
p302
(dp303
g12
g13
(g14
tp304
Rp305
g17
I1
ssg19
g17
sbssbsS'16-OCT-2009'
p306
(idecision_tree
decision_tree_leaf
p307
(dp308
g12
g13
(g14
tp309
Rp310
g17
I18
ssg19
g17
sbsS'16-MAY-2009'
p311
(idecision_tree
decision_tree_leaf
p312
(dp313
g12
g13
(g14
tp314
Rp315
g17
I6
ssg19
g17
sbsS'24-OCT-2009'
p316
(idecision_tree
decision_tree
p317
(dp318
g2
I14
sg3
(dp319
S'coh'
p320
(idecision_tree
decision_tree_leaf
p321
(dp322
g12
g13
(g14
tp323
Rp324
g17
I8
ssg19
g17
sbsS'inc'
p325
(idecision_tree
decision_tree_leaf
p326
(dp327
g12
g13
(g14
tp328
Rp329
g290
I1
ssg19
g290
sbssbsS'27-OCT-2009'
p330
(idecision_tree
decision_tree
p331
(dp332
g2
I13
sg3
(dp333
S'Z1530'
p334
(idecision_tree
continuous_decision_tree
p335
(dp336
g106
F97.4282
sg2
I42
sg107
(idecision_tree
continuous_decision_tree
p337
(dp338
g106
F0.9966809999999999
sg2
I34
sg107
(idecision_tree
decision_tree_leaf
p339
(dp340
g12
g13
(g14
tp341
Rp342
g17
I1
ssg19
g17
sbsg112
(idecision_tree
continuous_decision_tree
p343
(dp344
g106
F-1.5
sg2
I66
sg107
(idecision_tree
continuous_decision_tree
p345
(dp346
g106
F-23.0
sg2
I63
sg107
(idecision_tree
continuous_decision_tree
p347
(dp348
g106
F4.0
sg2
I67
sg107
(idecision_tree
decision_tree_leaf
p349
(dp350
g12
g13
(g14
tp351
Rp352
g17
I1
ssg19
g17
sbsg112
(idecision_tree
continuous_decision_tree
p353
(dp354
g106
F0.5
sg2
I53
sg107
(idecision_tree
continuous_decision_tree
p355
(dp356
g106
F163.5922
sg2
I41
sg107
(idecision_tree
continuous_decision_tree
p357
(dp358
g106
F-13.33335
sg2
I67
sg107
(idecision_tree
decision_tree_leaf
p359
(dp360
g12
g13
(g14
tp361
Rp362
S'PKP'
p363
I1
ssg19
g363
sbsg112
(idecision_tree
decision_tree_leaf
p364
(dp365
g12
g13
(g14
tp366
Rp367
g17
I1
ssg19
g17
sbsbsg112
(idecision_tree
decision_tree_leaf
p368
(dp369
g12
g13
(g14
tp370
Rp371
g17
I1
ssg19
g17
sbsbsg112
(idecision_tree
decision_tree_leaf
p372
(dp373
g12
g13
(g14
tp374
Rp375
g17
I1
ssg19
g17
sbsbsbsg112
(idecision_tree
decision_tree_leaf
p376
(dp377
g12
g13
(g14
tp378
Rp379
g17
I1
ssg19
g17
sbsbsg112
(idecision_tree
decision_tree_leaf
p380
(dp381
g12
g13
(g14
tp382
Rp383
g17
I1
ssg19
g17
sbsbsbsg112
(idecision_tree
decision_tree_leaf
p384
(dp385
g12
g13
(g14
tp386
Rp387
g17
I1
ssg19
g17
sbsbsS'Z1020'
p388
(idecision_tree
decision_tree_leaf
p389
(dp390
g12
g13
(g14
tp391
Rp392
g17
I2
ssg19
g17
sbsS'Z0515'
p393
(idecision_tree
decision_tree_leaf
p394
(dp395
g12
g13
(g14
tp396
Rp397
g17
I1
ssg19
g17
sbssbsS'02-MAY-2009'
p398
(idecision_tree
decision_tree_leaf
p399
(dp400
g12
g13
(g14
tp401
Rp402
g17
I5
ssg19
g17
sbsS'18-APR-2009'
p403
(idecision_tree
decision_tree_leaf
p404
(dp405
g12
g13
(g14
tp406
Rp407
g17
I7
ssg19
g17
sbsS'12-APR-2009'
p408
(idecision_tree
decision_tree_leaf
p409
(dp410
g12
g13
(g14
tp411
Rp412
g17
I3
ssg19
g17
sbsS'19-JUN-2009'
p413
(idecision_tree
continuous_decision_tree
p414
(dp415
g106
F0.07522055
sg2
I48
sg107
(idecision_tree
continuous_decision_tree
p416
(dp417
g106
F0.1327175
sg2
I52
sg107
(idecision_tree
continuous_decision_tree
p418
(dp419
g106
F73.16665
sg2
I67
sg107
(idecision_tree
decision_tree_leaf
p420
(dp421
g12
g13
(g14
tp422
Rp423
g17
I1
ssg19
g17
sbsg112
(idecision_tree
decision_tree_leaf
p424
(dp425
g12
g13
(g14
tp426
Rp427
g17
I5
sS'PKP'
p428
I1
ssg19
g17
sbsbsg112
(idecision_tree
decision_tree_leaf
p429
(dp430
g12
g13
(g14
tp431
Rp432
g17
I1
ssg19
g17
sbsbsg112
(idecision_tree
decision_tree_leaf
p433
(dp434
g12
g13
(g14
tp435
Rp436
g17
I1
ssg19
g17
sbsbsS'25-APR-2009'
p437
(idecision_tree
decision_tree_leaf
p438
(dp439
g12
g13
(g14
tp440
Rp441
g17
I11
ssg19
g17
sbsS'04-MAY-2009'
p442
(idecision_tree
decision_tree_leaf
p443
(dp444
g12
g13
(g14
tp445
Rp446
g17
I8
ssg19
g17
sbsS'15-APR-2009'
p447
(idecision_tree
decision_tree_leaf
p448
(dp449
g12
g13
(g14
tp450
Rp451
g17
I5
ssg19
g17
sbsS'28-MAR-2009'
p452
(idecision_tree
decision_tree
p453
(dp454
g2
I14
sg3
(dp455
S'coh'
p456
(idecision_tree
decision_tree_leaf
p457
(dp458
g12
g13
(g14
tp459
Rp460
g17
I4
ssg19
g17
sbsS'inc'
p461
(idecision_tree
decision_tree_leaf
p462
(dp463
g12
g13
(g14
tp464
Rp465
S'Pn'
p466
I1
ssg19
g466
sbssbsS'08-JUL-2009'
p467
(idecision_tree
decision_tree_leaf
p468
(dp469
g12
g13
(g14
tp470
Rp471
g17
I7
ssg19
g17
sbsS'01-NOV-2009'
p472
(idecision_tree
decision_tree_leaf
p473
(dp474
g12
g13
(g14
tp475
Rp476
g17
I5
ssg19
g17
sbsS'29-JUL-2009'
p477
(idecision_tree
decision_tree_leaf
p478
(dp479
g12
g13
(g14
tp480
Rp481
g17
I9
ssg19
g17
sbsS'21-SEP-2009'
p482
(idecision_tree
decision_tree_leaf
p483
(dp484
g12
g13
(g14
tp485
Rp486
g17
I4
ssg19
g17
sbsS'25-FEB-2009'
p487
(idecision_tree
decision_tree_leaf
p488
(dp489
g12
g13
(g14
tp490
Rp491
g17
I2
ssg19
g17
sbsS'25-MAR-2009'
p492
(idecision_tree
decision_tree
p493
(dp494
g2
I1
sg3
(dp495
g17
(idecision_tree
decision_tree_leaf
p496
(dp497
g12
g13
(g14
tp498
Rp499
g17
I5
ssg19
g17
sbsS'Pn'
p500
(idecision_tree
decision_tree_leaf
p501
(dp502
g12
g13
(g14
tp503
Rp504
S'Pn'
p505
I1
ssg19
g505
sbsS'tx'
p506
(idecision_tree
decision_tree_leaf
p507
(dp508
g12
g13
(g14
tp509
Rp510
g17
I1
ssg19
g17
sbssbsS'27-JUN-2009'
p511
(idecision_tree
decision_tree_leaf
p512
(dp513
g12
g13
(g14
tp514
Rp515
g17
I5
ssg19
g17
sbsS'12-SEP-2009'
p516
(idecision_tree
decision_tree_leaf
p517
(dp518
g12
g13
(g14
tp519
Rp520
g17
I4
ssg19
g17
sbsS'19-MAY-2009'
p521
(idecision_tree
decision_tree_leaf
p522
(dp523
g12
g13
(g14
tp524
Rp525
g17
I5
ssg19
g17
sbsS'10-JUL-2009'
p526
(idecision_tree
continuous_decision_tree
p527
(dp528
g106
F1.0
sg2
I62
sg107
(idecision_tree
continuous_decision_tree
p529
(dp530
g106
F8.0
sg2
I67
sg107
(idecision_tree
continuous_decision_tree
p531
(dp532
g106
F2.0
sg2
I66
sg107
(idecision_tree
decision_tree
p533
(dp534
g2
I13
sg3
(dp535
S'Z1020'
p536
(idecision_tree
decision_tree_leaf
p537
(dp538
g12
g13
(g14
tp539
Rp540
S'PKP'
p541
I1
ssg19
g541
sbsS'Z1530'
p542
(idecision_tree
decision_tree_leaf
p543
(dp544
g12
g13
(g14
tp545
Rp546
g17
I1
ssg19
g17
sbssbsg112
(idecision_tree
decision_tree_leaf
p547
(dp548
g12
g13
(g14
tp549
Rp550
g17
I1
ssg19
g17
sbsbsg112
(idecision_tree
decision_tree
p551
(dp552
g2
I13
sg3
(dp553
S'Z1020'
p554
(idecision_tree
decision_tree_leaf
p555
(dp556
g12
g13
(g14
tp557
Rp558
g17
I1
ssg19
g17
sbsS'Z1530'
p559
(idecision_tree
decision_tree_leaf
p560
(dp561
g12
g13
(g14
tp562
Rp563
S'Pn'
p564
I1
ssg19
g564
sbssbsbsg112
(idecision_tree
decision_tree_leaf
p565
(dp566
g12
g13
(g14
tp567
Rp568
g17
I3
ssg19
g17
sbsbsS'02-APR-2009'
p569
(idecision_tree
decision_tree
p570
(dp571
g2
I1
sg3
(dp572
g17
(idecision_tree
decision_tree_leaf
p573
(dp574
g12
g13
(g14
tp575
Rp576
g17
I11
ssg19
g17
sbsS'Pn'
p577
(idecision_tree
continuous_decision_tree
p578
(dp579
g106
F-104.9165
sg2
I67
sg107
(idecision_tree
decision_tree_leaf
p580
(dp581
g12
g13
(g14
tp582
Rp583
g17
I1
ssg19
g17
sbsg112
(idecision_tree
decision_tree_leaf
p584
(dp585
g12
g13
(g14
tp586
Rp587
S'Pn'
p588
I1
ssg19
g588
sbsbssbsS'13-MAR-2009'
p589
(idecision_tree
continuous_decision_tree
p590
(dp591
g106
F310.9955
sg2
I41
sg107
(idecision_tree
decision_tree_leaf
p592
(dp593
g12
g13
(g14
tp594
Rp595
g17
I3
sS'PKP'
p596
I1
ssg19
g17
sbsg112
(idecision_tree
decision_tree
p597
(dp598
g2
I13
sg3
(dp599
S'Z1020'
p600
(idecision_tree
decision_tree_leaf
p601
(dp602
g12
g13
(g14
tp603
Rp604
g17
I3
ssg19
g17
sbsS'Z2040'
p605
(idecision_tree
decision_tree_leaf
p606
(dp607
g12
g13
(g14
tp608
Rp609
S'PKP'
p610
I1
ssg19
g610
sbssbsbsS'21-AUG-2009'
p611
(idecision_tree
decision_tree_leaf
p612
(dp613
g12
g13
(g14
tp614
Rp615
g17
I3
ssg19
g17
sbsS'26-MAY-2009'
p616
(idecision_tree
decision_tree
p617
(dp618
g2
I14
sg3
(dp619
S'coh'
p620
(idecision_tree
decision_tree_leaf
p621
(dp622
g12
g13
(g14
tp623
Rp624
g17
I6
ssg19
g17
sbsS'inc'
p625
(idecision_tree
decision_tree_leaf
p626
(dp627
g12
g13
(g14
tp628
Rp629
S'Pn'
p630
I1
ssg19
g630
sbssbsS'20-MAR-2009'
p631
(idecision_tree
decision_tree_leaf
p632
(dp633
g12
g13
(g14
tp634
Rp635
g17
I7
ssg19
g17
sbsS'15-MAY-2009'
p636
(idecision_tree
decision_tree_leaf
p637
(dp638
g12
g13
(g14
tp639
Rp640
g17
I7
ssg19
g17
sbsS'31-MAR-2009'
p641
(idecision_tree
decision_tree_leaf
p642
(dp643
g12
g13
(g14
tp644
Rp645
g17
I6
ssg19
g17
sbsS'26-JUN-2009'
p646
(idecision_tree
decision_tree_leaf
p647
(dp648
g12
g13
(g14
tp649
Rp650
g17
I5
ssg19
g17
sbsS'07-JUL-2009'
p651
(idecision_tree
decision_tree
p652
(dp653
g2
I13
sg3
(dp654
S'Z1530'
p655
(idecision_tree
decision_tree_leaf
p656
(dp657
g12
g13
(g14
tp658
Rp659
g17
I4
ssg19
g17
sbsS'Z1020'
p660
(idecision_tree
decision_tree_leaf
p661
(dp662
g12
g13
(g14
tp663
Rp664
g17
I10
ssg19
g17
sbsS'Z0515'
p665
(idecision_tree
decision_tree_leaf
p666
(dp667
g12
g13
(g14
tp668
Rp669
S'PKP'
p670
I1
ssg19
g670
sbssbsS'20-JUN-2009'
p671
(idecision_tree
decision_tree_leaf
p672
(dp673
g12
g13
(g14
tp674
Rp675
g17
I7
ssg19
g17
sbsS'30-JUL-2009'
p676
(idecision_tree
decision_tree_leaf
p677
(dp678
g12
g13
(g14
tp679
Rp680
g17
I7
ssg19
g17
sbsS'24-JUN-2009'
p681
(idecision_tree
decision_tree_leaf
p682
(dp683
g12
g13
(g14
tp684
Rp685
g17
I11
ssg19
g17
sbsS'14-DEC-2009'
p686
(idecision_tree
decision_tree_leaf
p687
(dp688
g12
g13
(g14
tp689
Rp690
g17
I9
ssg19
g17
sbsS'02-MAR-2009'
p691
(idecision_tree
decision_tree_leaf
p692
(dp693
g12
g13
(g14
tp694
Rp695
g17
I6
ssg19
g17
sbsS'07-MAY-2009'
p696
(idecision_tree
decision_tree_leaf
p697
(dp698
g12
g13
(g14
tp699
Rp700
g17
I9
ssg19
g17
sbsS'03-APR-2009'
p701
(idecision_tree
continuous_decision_tree
p702
(dp703
g106
F1.25
sg2
I67
sg107
(idecision_tree
decision_tree_leaf
p704
(dp705
g12
g13
(g14
tp706
Rp707
g17
I4
sS'PKP'
p708
I1
ssg19
g17
sbsg112
(idecision_tree
continuous_decision_tree
p709
(dp710
g106
F-163.2
sg2
I67
sg107
(idecision_tree
continuous_decision_tree
p711
(dp712
g106
F11.5
sg2
I59
sg107
(idecision_tree
decision_tree_leaf
p713
(dp714
g12
g13
(g14
tp715
Rp716
g17
I1
ssg19
g17
sbsg112
(idecision_tree
continuous_decision_tree
p717
(dp718
g106
F0.5
sg2
I62
sg107
(idecision_tree
continuous_decision_tree
p719
(dp720
g106
F0.9492400000000001
sg2
I48
sg107
(idecision_tree
decision_tree
p721
(dp722
g2
I13
sg3
(dp723
S'Z1020'
p724
(idecision_tree
decision_tree_leaf
p725
(dp726
g12
g13
(g14
tp727
Rp728
g17
I1
ssg19
g17
sbsS'Z1530'
p729
(idecision_tree
decision_tree_leaf
p730
(dp731
g12
g13
(g14
tp732
Rp733
S'Pn'
p734
I1
ssg19
g734
sbssbsg112
(idecision_tree
decision_tree_leaf
p735
(dp736
g12
g13
(g14
tp737
Rp738
g17
I1
ssg19
g17
sbsbsg112
(idecision_tree
decision_tree_leaf
p739
(dp740
g12
g13
(g14
tp741
Rp742
g17
I1
ssg19
g17
sbsbsbsg112
(idecision_tree
decision_tree_leaf
p743
(dp744
g12
g13
(g14
tp745
Rp746
g17
I1
ssg19
g17
sbsbsbsS'25-JUL-2009'
p747
(idecision_tree
decision_tree
p748
(dp749
g2
I13
sg3
(dp750
S'Z1020'
p751
(idecision_tree
decision_tree_leaf
p752
(dp753
g12
g13
(g14
tp754
Rp755
g17
I7
ssg19
g17
sbsS'Z1530'
p756
(idecision_tree
continuous_decision_tree
p757
(dp758
g106
F2.5
sg2
I66
sg107
(idecision_tree
decision_tree_leaf
p759
(dp760
g12
g13
(g14
tp761
Rp762
g17
I1
ssg19
g17
sbsg112
(idecision_tree
continuous_decision_tree
p763
(dp764
g106
F64.5
sg2
I67
sg107
(idecision_tree
decision_tree_leaf
p765
(dp766
g12
g13
(g14
tp767
Rp768
g17
I1
ssg19
g17
sbsg112
(idecision_tree
decision_tree_leaf
p769
(dp770
g12
g13
(g14
tp771
Rp772
g17
I2
sS'PKP'
p773
I1
ssg19
g17
sbsbsbssbsS'26-OCT-2009'
p774
(idecision_tree
decision_tree_leaf
p775
(dp776
g12
g13
(g14
tp777
Rp778
g17
I8
ssg19
g17
sbsS'17-NOV-2009'
p779
(idecision_tree
decision_tree
p780
(dp781
g2
I1
sg3
(dp782
g17
(idecision_tree
decision_tree_leaf
p783
(dp784
g12
g13
(g14
tp785
Rp786
g17
I6
ssg19
g17
sbsS'tx'
p787
(idecision_tree
decision_tree_leaf
p788
(dp789
g12
g13
(g14
tp790
Rp791
S'PKP'
p792
I1
ssg19
g792
sbssbsS'11-OCT-2009'
p793
(idecision_tree
decision_tree_leaf
p794
(dp795
g12
g13
(g14
tp796
Rp797
g17
I8
ssg19
g17
sbsS'02-NOV-2009'
p798
(idecision_tree
decision_tree_leaf
p799
(dp800
g12
g13
(g14
tp801
Rp802
g17
I12
ssg19
g17
sbsS'12-JUL-2009'
p803
(idecision_tree
decision_tree_leaf
p804
(dp805
g12
g13
(g14
tp806
Rp807
g17
I9
ssg19
g17
sbsS'23-MAR-2009'
p808
(idecision_tree
decision_tree_leaf
p809
(dp810
g12
g13
(g14
tp811
Rp812
g17
I4
ssg19
g17
sbsS'10-APR-2009'
p813
(idecision_tree
decision_tree_leaf
p814
(dp815
g12
g13
(g14
tp816
Rp817
g17
I9
ssg19
g17
sbsS'10-SEP-2009'
p818
(idecision_tree
continuous_decision_tree
p819
(dp820
g106
F61.333349999999996
sg2
I67
sg107
(idecision_tree
continuous_decision_tree
p821
(dp822
g106
F45.0
sg2
I63
sg107
(idecision_tree
decision_tree_leaf
p823
(dp824
g12
g13
(g14
tp825
Rp826
g17
I1
ssg19
g17
sbsg112
(idecision_tree
continuous_decision_tree
p827
(dp828
g106
F0.1956415
sg2
I48
sg107
(idecision_tree
continuous_decision_tree
p829
(dp830
g106
F231.66699999999997
sg2
I67
sg107
(idecision_tree
decision_tree_leaf
p831
(dp832
g12
g13
(g14
tp833
Rp834
S'PKP'
p835
I1
ssg19
g835
sbsg112
(idecision_tree
decision_tree_leaf
p836
(dp837
g12
g13
(g14
tp838
Rp839
g17
I1
ssg19
g17
sbsbsg112
(idecision_tree
decision_tree_leaf
p840
(dp841
g12
g13
(g14
tp842
Rp843
g17
I1
ssg19
g17
sbsbsbsg112
(idecision_tree
continuous_decision_tree
p844
(dp845
g106
F0.5
sg2
I66
sg107
(idecision_tree
decision_tree
p846
(dp847
g2
I13
sg3
(dp848
S'Z1020'
p849
(idecision_tree
decision_tree_leaf
p850
(dp851
g12
g13
(g14
tp852
Rp853
S'PKP'
p854
I1
ssg19
g854
sbsS'Z0515'
p855
(idecision_tree
decision_tree_leaf
p856
(dp857
g12
g13
(g14
tp858
Rp859
g17
I1
ssg19
g17
sbssbsg112
(idecision_tree
decision_tree_leaf
p860
(dp861
g12
g13
(g14
tp862
Rp863
g17
I1
ssg19
g17
sbsbsbsS'30-JUN-2009'
p864
(idecision_tree
decision_tree_leaf
p865
(dp866
g12
g13
(g14
tp867
Rp868
g17
I11
ssg19
g17
sbsS'31-JUL-2009'
p869
(idecision_tree
decision_tree_leaf
p870
(dp871
g12
g13
(g14
tp872
Rp873
g17
I7
ssg19
g17
sbsS'22-MAR-2009'
p874
(idecision_tree
decision_tree_leaf
p875
(dp876
g12
g13
(g14
tp877
Rp878
g17
I13
ssg19
g17
sbsS'17-APR-2009'
p879
(idecision_tree
decision_tree
p880
(dp881
g2
I13
sg3
(dp882
S'Z1020'
p883
(idecision_tree
continuous_decision_tree
p884
(dp885
g106
F0.1398145
sg2
I52
sg107
(idecision_tree
decision_tree_leaf
p886
(dp887
g12
g13
(g14
tp888
Rp889
g17
I8
sS'PKP'
p890
I1
ssg19
g17
sbsg112
(idecision_tree
decision_tree_leaf
p891
(dp892
g12
g13
(g14
tp893
Rp894
g17
I1
ssg19
g17
sbsbsS'Z1530'
p895
(idecision_tree
decision_tree_leaf
p896
(dp897
g12
g13
(g14
tp898
Rp899
g17
I8
ssg19
g17
sbssbsS'12-JUN-2009'
p900
(idecision_tree
decision_tree_leaf
p901
(dp902
g12
g13
(g14
tp903
Rp904
g17
I9
ssg19
g17
sbsS'01-SEP-2009'
p905
(idecision_tree
decision_tree
p906
(dp907
g2
I14
sg3
(dp908
S'coh'
p909
(idecision_tree
decision_tree_leaf
p910
(dp911
g12
g13
(g14
tp912
Rp913
g17
I7
ssg19
g17
sbsS'inc'
p914
(idecision_tree
decision_tree_leaf
p915
(dp916
g12
g13
(g14
tp917
Rp918
S'Pn'
p919
I1
ssg19
g919
sbssbsS'12-MAY-2009'
p920
(idecision_tree
decision_tree_leaf
p921
(dp922
g12
g13
(g14
tp923
Rp924
g17
I8
ssg19
g17
sbsS'26-FEB-2009'
p925
(idecision_tree
decision_tree_leaf
p926
(dp927
g12
g13
(g14
tp928
Rp929
g17
I5
ssg19
g17
sbsS'14-AUG-2009'
p930
(idecision_tree
decision_tree_leaf
p931
(dp932
g12
g13
(g14
tp933
Rp934
g17
I8
ssg19
g17
sbsS'28-APR-2009'
p935
(idecision_tree
continuous_decision_tree
p936
(dp937
g106
F-6.0
sg2
I63
sg107
(idecision_tree
continuous_decision_tree
p938
(dp939
g106
F0.16710550000000002
sg2
I50
sg107
(idecision_tree
continuous_decision_tree
p940
(dp941
g106
F13.6665
sg2
I67
sg107
(idecision_tree
decision_tree_leaf
p942
(dp943
g12
g13
(g14
tp944
Rp945
S'PKP'
p946
I1
ssg19
g946
sbsg112
(idecision_tree
decision_tree_leaf
p947
(dp948
g12
g13
(g14
tp949
Rp950
g17
I1
ssg19
g17
sbsbsg112
(idecision_tree
decision_tree_leaf
p951
(dp952
g12
g13
(g14
tp953
Rp954
g17
I1
ssg19
g17
sbsbsg112
(idecision_tree
decision_tree_leaf
p955
(dp956
g12
g13
(g14
tp957
Rp958
g17
I1
ssg19
g17
sbsbsS'06-MAY-2009'
p959
(idecision_tree
decision_tree_leaf
p960
(dp961
g12
g13
(g14
tp962
Rp963
g17
I12
ssg19
g17
sbsS'09-NOV-2009'
p964
(idecision_tree
decision_tree
p965
(dp966
g2
I13
sg3
(dp967
S'Z1020'
p968
(idecision_tree
decision_tree
p969
(dp970
g2
I1
sg3
(dp971
g17
(idecision_tree
decision_tree
p972
(dp973
g2
I27
sg3
(dp974
S'09-NOV-2009'
p975
(idecision_tree
decision_tree
p976
(dp977
g2
I14
sg3
(dp978
S'coh'
p979
(idecision_tree
decision_tree
p980
(dp981
g2
I10
sg3
(dp982
S'09-NOV-2009'
p983
(idecision_tree
decision_tree
p984
(dp985
g2
I9
sg3
(dp986
S'-999'
p987
(idecision_tree
continuous_decision_tree
p988
(dp989
g106
F0.08672535
sg2
I51
sg107
(idecision_tree
continuous_decision_tree
p990
(dp991
g106
F2.11938
sg2
I48
sg107
(idecision_tree
decision_tree_leaf
p992
(dp993
g12
g13
(g14
tp994
Rp995
g17
I1
ssg19
g17
sbsg112
(idecision_tree
continuous_decision_tree
p996
(dp997
g106
F0.953299
sg2
I34
sg107
(idecision_tree
continuous_decision_tree
p998
(dp999
g106
F20.75665
sg2
I44
sg107
(idecision_tree
continuous_decision_tree
p1000
(dp1001
g106
F0.1145005
sg2
I38
sg107
(idecision_tree
continuous_decision_tree
p1002
(dp1003
g106
F303.2035
sg2
I43
sg107
(idecision_tree
decision_tree_leaf
p1004
(dp1005
g12
g13
(g14
tp1006
Rp1007
g17
I1
ssg19
g17
sbsg112
(idecision_tree
continuous_decision_tree
p1008
(dp1009
g106
F2.5
sg2
I66
sg107
(idecision_tree
decision_tree_leaf
p1010
(dp1011
g12
g13
(g14
tp1012
Rp1013
g17
I1
ssg19
g17
sbsg112
(idecision_tree
continuous_decision_tree
p1014
(dp1015
g106
F15.75
sg2
I63
sg107
(idecision_tree
decision_tree_leaf
p1016
(dp1017
g12
g13
(g14
tp1018
Rp1019
g17
I1
ssg19
g17
sbsg112
(idecision_tree
continuous_decision_tree
p1020
(dp1021
g106
F0.207991
sg2
I49
sg107
(idecision_tree
continuous_decision_tree
p1022
(dp1023
g106
F66.0473
sg2
I42
sg107
(idecision_tree
continuous_decision_tree
p1024
(dp1025
g106
F125.0
sg2
I67
sg107
(idecision_tree
decision_tree_leaf
p1026
(dp1027
g12
g13
(g14
tp1028
Rp1029
S'PKP'
p1030
I1
ssg19
g1030
sbsg112
(idecision_tree
decision_tree_leaf
p1031
(dp1032
g12
g13
(g14
tp1033
Rp1034
g17
I1
ssg19
g17
sbsbsg112
(idecision_tree
decision_tree_leaf
p1035
(dp1036
g12
g13
(g14
tp1037
Rp1038
g17
I1
ssg19
g17
sbsbsg112
(idecision_tree
decision_tree_leaf
p1039
(dp1040
g12
g13
(g14
tp1041
Rp1042
g17
I1
ssg19
g17
sbsbsbsbsbsg112
(idecision_tree
decision_tree_leaf
p1043
(dp1044
g12
g13
(g14
tp1045
Rp1046
g17
I1
ssg19
g17
sbsbsg112
(idecision_tree
decision_tree_leaf
p1047
(dp1048
g12
g13
(g14
tp1049
Rp1050
g17
I1
ssg19
g17
sbsbsg112
(idecision_tree
decision_tree_leaf
p1051
(dp1052
g12
g13
(g14
tp1053
Rp1054
g17
I1
ssg19
g17
sbsbsbsg112
(idecision_tree
decision_tree_leaf
p1055
(dp1056
g12
g13
(g14
tp1057
Rp1058
g17
I1
ssg19
g17
sbsbssbssbssbssbsS'N'
p1059
(idecision_tree
decision_tree_leaf
p1060
(dp1061
g12
g13
(g14
tp1062
Rp1063
g17
I1
ssg19
g17
sbssbsS'Z1530'
p1064
(idecision_tree
decision_tree_leaf
p1065
(dp1066
g12
g13
(g14
tp1067
Rp1068
g17
I3
ssg19
g17
sbsS'Z2040'
p1069
(idecision_tree
decision_tree_leaf
p1070
(dp1071
g12
g13
(g14
tp1072
Rp1073
g17
I1
ssg19
g17
sbssbsS'07-MAR-2009'
p1074
(idecision_tree
decision_tree_leaf
p1075
(dp1076
g12
g13
(g14
tp1077
Rp1078
g17
I4
ssg19
g17
sbsS'15-JUN-2009'
p1079
(idecision_tree
decision_tree_leaf
p1080
(dp1081
g12
g13
(g14
tp1082
Rp1083
g17
I10
ssg19
g17
sbsS'08-JUN-2009'
p1084
(idecision_tree
decision_tree
p1085
(dp1086
g2
I1
sg3
(dp1087
g17
(idecision_tree
decision_tree_leaf
p1088
(dp1089
g12
g13
(g14
tp1090
Rp1091
g17
I7
ssg19
g17
sbsS'tx'
p1092
(idecision_tree
decision_tree_leaf
p1093
(dp1094
g12
g13
(g14
tp1095
Rp1096
g17
I4
ssg19
g17
sbsg1059
(idecision_tree
decision_tree_leaf
p1097
(dp1098
g12
g13
(g14
tp1099
Rp1100
g290
I1
ssg19
g290
sbssbsS'05-MAR-2009'
p1101
(idecision_tree
decision_tree_leaf
p1102
(dp1103
g12
g13
(g14
tp1104
Rp1105
g17
I4
ssg19
g17
sbsS'25-MAY-2009'
p1106
(idecision_tree
decision_tree_leaf
p1107
(dp1108
g12
g13
(g14
tp1109
Rp1110
g17
I2
ssg19
g17
sbsS'05-APR-2009'
p1111
(idecision_tree
continuous_decision_tree
p1112
(dp1113
g106
F3.5
sg2
I66
sg107
(idecision_tree
decision_tree_leaf
p1114
(dp1115
g12
g13
(g14
tp1116
Rp1117
g17
I1
ssg19
g17
sbsg112
(idecision_tree
decision_tree_leaf
p1118
(dp1119
g12
g13
(g14
tp1120
Rp1121
g17
I7
sS'PKP'
p1122
I1
ssg19
g17
sbsbsS'22-DEC-2009'
p1123
(idecision_tree
decision_tree_leaf
p1124
(dp1125
g12
g13
(g14
tp1126
Rp1127
g17
I4
ssg19
g17
sbsS'26-APR-2009'
p1128
(idecision_tree
decision_tree_leaf
p1129
(dp1130
g12
g13
(g14
tp1131
Rp1132
g17
I1
ssg19
g17
sbsS'17-AUG-2009'
p1133
(idecision_tree
decision_tree_leaf
p1134
(dp1135
g12
g13
(g14
tp1136
Rp1137
g17
I8
ssg19
g17
sbsS'21-JUN-2009'
p1138
(idecision_tree
decision_tree_leaf
p1139
(dp1140
g12
g13
(g14
tp1141
Rp1142
g17
I2
ssg19
g17
sbsS'13-DEC-2009'
p1143
(idecision_tree
continuous_decision_tree
p1144
(dp1145
g106
F142.0
sg2
I67
sg107
(idecision_tree
decision_tree_leaf
p1146
(dp1147
g12
g13
(g14
tp1148
Rp1149
g17
I1
ssg19
g17
sbsg112
(idecision_tree
decision_tree_leaf
p1150
(dp1151
g12
g13
(g14
tp1152
Rp1153
S'PKP'
p1154
I1
ssg19
g1154
sbsbsS'19-NOV-2009'
p1155
(idecision_tree
decision_tree_leaf
p1156
(dp1157
g12
g13
(g14
tp1158
Rp1159
g17
I3
ssg19
g17
sbsS'13-OCT-2009'
p1160
(idecision_tree
decision_tree
p1161
(dp1162
g2
I1
sg3
(dp1163
g17
(idecision_tree
decision_tree_leaf
p1164
(dp1165
g12
g13
(g14
tp1166
Rp1167
g17
I18
ssg19
g17
sbsS'tx'
p1168
(idecision_tree
decision_tree
p1169
(dp1170
g2
I13
sg3
(dp1171
S'Z1020'
p1172
(idecision_tree
decision_tree_leaf
p1173
(dp1174
g12
g13
(g14
tp1175
Rp1176
g17
I1
ssg19
g17
sbsS'Z0515'
p1177
(idecision_tree
decision_tree_leaf
p1178
(dp1179
g12
g13
(g14
tp1180
Rp1181
S'PKP'
p1182
I1
ssg19
g1182
sbssbssbsS'12-DEC-2009'
p1183
(idecision_tree
continuous_decision_tree
p1184
(dp1185
g106
F-89.0
sg2
I67
sg107
(idecision_tree
decision_tree
p1186
(dp1187
g2
I13
sg3
(dp1188
S'Z1020'
p1189
(idecision_tree
decision_tree_leaf
p1190
(dp1191
g12
g13
(g14
tp1192
Rp1193
S'PKP'
p1194
I1
ssg19
g1194
sbsS'Z1530'
p1195
(idecision_tree
decision_tree_leaf
p1196
(dp1197
g12
g13
(g14
tp1198
Rp1199
g17
I4
ssg19
g17
sbssbsg112
(idecision_tree
decision_tree_leaf
p1200
(dp1201
g12
g13
(g14
tp1202
Rp1203
g17
I1
ssg19
g17
sbsbsS'13-SEP-2009'
p1204
(idecision_tree
decision_tree_leaf
p1205
(dp1206
g12
g13
(g14
tp1207
Rp1208
g17
I2
ssg19
g17
sbsS'23-NOV-2009'
p1209
(idecision_tree
decision_tree_leaf
p1210
(dp1211
g12
g13
(g14
tp1212
Rp1213
g17
I4
ssg19
g17
sbsS'23-JUL-2009'
p1214
(idecision_tree
decision_tree_leaf
p1215
(dp1216
g12
g13
(g14
tp1217
Rp1218
g17
I5
ssg19
g17
sbsS'18-SEP-2009'
p1219
(idecision_tree
continuous_decision_tree
p1220
(dp1221
g106
F1.0
sg2
I66
sg107
(idecision_tree
decision_tree
p1222
(dp1223
g2
I13
sg3
(dp1224
S'Z1530'
p1225
(idecision_tree
decision_tree_leaf
p1226
(dp1227
g12
g13
(g14
tp1228
Rp1229
g17
I2
ssg19
g17
sbsS'Z1020'
p1230
(idecision_tree
decision_tree_leaf
p1231
(dp1232
g12
g13
(g14
tp1233
Rp1234
S'PKP'
p1235
I1
ssg19
g1235
sbsS'Z0515'
p1236
(idecision_tree
decision_tree_leaf
p1237
(dp1238
g12
g13
(g14
tp1239
Rp1240
g17
I1
ssg19
g17
sbssbsg112
(idecision_tree
decision_tree_leaf
p1241
(dp1242
g12
g13
(g14
tp1243
Rp1244
g17
I2
sS'PKP'
p1245
I1
ssg19
g17
sbsbsS'24-MAY-2009'
p1246
(idecision_tree
decision_tree_leaf
p1247
(dp1248
g12
g13
(g14
tp1249
Rp1250
g17
I7
ssg19
g17
sbsS'17-JUN-2009'
p1251
(idecision_tree
decision_tree
p1252
(dp1253
g2
I1
sg3
(dp1254
g17
(idecision_tree
decision_tree_leaf
p1255
(dp1256
g12
g13
(g14
tp1257
Rp1258
g17
I5
ssg19
g17
sbsS'Pn'
p1259
(idecision_tree
decision_tree_leaf
p1260
(dp1261
g12
g13
(g14
tp1262
Rp1263
S'PKP'
p1264
I1
ssg19
g1264
sbssbsS'19-SEP-2009'
p1265
(idecision_tree
continuous_decision_tree
p1266
(dp1267
g106
F-20.0
sg2
I67
sg107
(idecision_tree
decision_tree_leaf
p1268
(dp1269
g12
g13
(g14
tp1270
Rp1271
g17
I4
sS'PKP'
p1272
I1
ssg19
g17
sbsg112
(idecision_tree
continuous_decision_tree
p1273
(dp1274
g106
F-3.5
sg2
I66
sg107
(idecision_tree
decision_tree_leaf
p1275
(dp1276
g12
g13
(g14
tp1277
Rp1278
g17
I2
sS'PKP'
p1279
I1
ssg19
g17
sbsg112
(idecision_tree
decision_tree_leaf
p1280
(dp1281
g12
g13
(g14
tp1282
Rp1283
g17
I1
ssg19
g17
sbsbsbsS'22-MAY-2009'
p1284
(idecision_tree
decision_tree_leaf
p1285
(dp1286
g12
g13
(g14
tp1287
Rp1288
g17
I7
ssg19
g17
sbsS'19-DEC-2009'
p1289
(idecision_tree
continuous_decision_tree
p1290
(dp1291
g106
F4.0
sg2
I67
sg107
(idecision_tree
decision_tree
p1292
(dp1293
g2
I14
sg3
(dp1294
S'coh'
p1295
(idecision_tree
decision_tree_leaf
p1296
(dp1297
g12
g13
(g14
tp1298
Rp1299
g17
I1
ssg19
g17
sbsS'inc'
p1300
(idecision_tree
decision_tree_leaf
p1301
(dp1302
g12
g13
(g14
tp1303
Rp1304
S'Pn'
p1305
I1
ssg19
g1305
sbssbsg112
(idecision_tree
continuous_decision_tree
p1306
(dp1307
g106
F0.311999
sg2
I50
sg107
(idecision_tree
decision_tree
p1308
(dp1309
g2
I14
sg3
(dp1310
S'coh'
p1311
(idecision_tree
decision_tree_leaf
p1312
(dp1313
g12
g13
(g14
tp1314
Rp1315
g17
I1
ssg19
g17
sbsS'inc'
p1316
(idecision_tree
decision_tree_leaf
p1317
(dp1318
g12
g13
(g14
tp1319
Rp1320
S'Pn'
p1321
I1
ssg19
g1321
sbssbsg112
(idecision_tree
decision_tree_leaf
p1322
(dp1323
g12
g13
(g14
tp1324
Rp1325
g17
I1
ssg19
g17
sbsbsbsS'22-APR-2009'
p1326
(idecision_tree
decision_tree
p1327
(dp1328
g2
I13
sg3
(dp1329
S'Z0515'
p1330
(idecision_tree
decision_tree_leaf
p1331
(dp1332
g12
g13
(g14
tp1333
Rp1334
g17
I2
ssg19
g17
sbsS'Z1020'
p1335
(idecision_tree
decision_tree_leaf
p1336
(dp1337
g12
g13
(g14
tp1338
Rp1339
S'PKP'
p1340
I1
ssg19
g1340
sbsS'Z1530'
p1341
(idecision_tree
decision_tree_leaf
p1342
(dp1343
g12
g13
(g14
tp1344
Rp1345
g17
I1
ssg19
g17
sbssbsS'15-DEC-2009'
p1346
(idecision_tree
decision_tree_leaf
p1347
(dp1348
g12
g13
(g14
tp1349
Rp1350
g17
I3
ssg19
g17
sbsS'27-NOV-2009'
p1351
(idecision_tree
decision_tree_leaf
p1352
(dp1353
g12
g13
(g14
tp1354
Rp1355
g17
I2
ssg19
g17
sbsS'25-NOV-2009'
p1356
(idecision_tree
decision_tree_leaf
p1357
(dp1358
g12
g13
(g14
tp1359
Rp1360
g17
I3
ssg19
g17
sbsS'11-DEC-2009'
p1361
(idecision_tree
decision_tree
p1362
(dp1363
g2
I13
sg3
(dp1364
S'Z1020'
p1365
(idecision_tree
decision_tree_leaf
p1366
(dp1367
g12
g13
(g14
tp1368
Rp1369
g17
I5
ssg19
g17
sbsS'Z4080'
p1370
(idecision_tree
decision_tree_leaf
p1371
(dp1372
g12
g13
(g14
tp1373
Rp1374
g17
I1
ssg19
g17
sbsS'Z1530'
p1375
(idecision_tree
continuous_decision_tree
p1376
(dp1377
g106
F-65.3335
sg2
I67
sg107
(idecision_tree
continuous_decision_tree
p1378
(dp1379
g106
F-1.5
sg2
I62
sg107
(idecision_tree
continuous_decision_tree
p1380
(dp1381
g106
F-4.0
sg2
I67
sg107
(idecision_tree
decision_tree_leaf
p1382
(dp1383
g12
g13
(g14
tp1384
Rp1385
g17
I1
ssg19
g17
sbsg112
(idecision_tree
decision_tree_leaf
p1386
(dp1387
g12
g13
(g14
tp1388
Rp1389
S'PKP'
p1390
I1
ssg19
g1390
sbsbsg112
(idecision_tree
decision_tree_leaf
p1391
(dp1392
g12
g13
(g14
tp1393
Rp1394
g17
I1
ssg19
g17
sbsbsg112
(idecision_tree
decision_tree_leaf
p1395
(dp1396
g12
g13
(g14
tp1397
Rp1398
g17
I1
ssg19
g17
sbsbssbsS'17-MAR-2009'
p1399
(idecision_tree
decision_tree_leaf
p1400
(dp1401
g12
g13
(g14
tp1402
Rp1403
g17
I2
ssg19
g17
sbsS'28-FEB-2009'
p1404
(idecision_tree
decision_tree_leaf
p1405
(dp1406
g12
g13
(g14
tp1407
Rp1408
g17
I8
ssg19
g17
sbsS'01-MAY-2009'
p1409
(idecision_tree
decision_tree_leaf
p1410
(dp1411
g12
g13
(g14
tp1412
Rp1413
g17
I13
ssg19
g17
sbsS'12-MAR-2009'
p1414
(idecision_tree
decision_tree_leaf
p1415
(dp1416
g12
g13
(g14
tp1417
Rp1418
g17
I11
ssg19
g17
sbsS'09-APR-2009'
p1419
(idecision_tree
decision_tree
p1420
(dp1421
g2
I13
sg3
(dp1422
S'Z1530'
p1423
(idecision_tree
decision_tree_leaf
p1424
(dp1425
g12
g13
(g14
tp1426
Rp1427
g17
I3
ssg19
g17
sbsS'Z1020'
p1428
(idecision_tree
continuous_decision_tree
p1429
(dp1430
g106
F-0.5
sg2
I58
sg107
(idecision_tree
continuous_decision_tree
p1431
(dp1432
g106
F0.1309195
sg2
I49
sg107
(idecision_tree
continuous_decision_tree
p1433
(dp1434
g106
F-47.75
sg2
I63
sg107
(idecision_tree
continuous_decision_tree
p1435
(dp1436
g106
F-28.08335
sg2
I67
sg107
(idecision_tree
decision_tree_leaf
p1437
(dp1438
g12
g13
(g14
tp1439
Rp1440
g17
I1
ssg19
g17
sbsg112
(idecision_tree
continuous_decision_tree
p1441
(dp1442
g106
F0.5
sg2
I53
sg107
(idecision_tree
continuous_decision_tree
p1443
(dp1444
g106
F-45.125
sg2
I67
sg107
(idecision_tree
decision_tree_leaf
p1445
(dp1446
g12
g13
(g14
tp1447
Rp1448
S'PKP'
p1449
I1
ssg19
g1449
sbsg112
(idecision_tree
decision_tree_leaf
p1450
(dp1451
g12
g13
(g14
tp1452
Rp1453
g17
I1
ssg19
g17
sbsbsg112
(idecision_tree
decision_tree_leaf
p1454
(dp1455
g12
g13
(g14
tp1456
Rp1457
g17
I1
ssg19
g17
sbsbsbsg112
(idecision_tree
decision_tree_leaf
p1458
(dp1459
g12
g13
(g14
tp1460
Rp1461
g17
I1
ssg19
g17
sbsbsg112
(idecision_tree
decision_tree_leaf
p1462
(dp1463
g12
g13
(g14
tp1464
Rp1465
g17
I1
ssg19
g17
sbsbsg112
(idecision_tree
decision_tree_leaf
p1466
(dp1467
g12
g13
(g14
tp1468
Rp1469
g17
I1
ssg19
g17
sbsbsS'Z0515'
p1470
(idecision_tree
decision_tree_leaf
p1471
(dp1472
g12
g13
(g14
tp1473
Rp1474
g17
I1
ssg19
g17
sbsS'Z2040'
p1475
(idecision_tree
decision_tree_leaf
p1476
(dp1477
g12
g13
(g14
tp1478
Rp1479
g17
I2
ssg19
g17
sbssbsS'24-APR-2009'
p1480
(idecision_tree
decision_tree_leaf
p1481
(dp1482
g12
g13
(g14
tp1483
Rp1484
g17
I4
ssg19
g17
sbsS'16-MAR-2009'
p1485
(idecision_tree
decision_tree
p1486
(dp1487
g2
I13
sg3
(dp1488
S'Z1530'
p1489
(idecision_tree
decision_tree_leaf
p1490
(dp1491
g12
g13
(g14
tp1492
Rp1493
g17
I2
ssg19
g17
sbsS'Z1020'
p1494
(idecision_tree
decision_tree_leaf
p1495
(dp1496
g12
g13
(g14
tp1497
Rp1498
g17
I5
ssg19
g17
sbsS'H1020'
p1499
(idecision_tree
decision_tree_leaf
p1500
(dp1501
g12
g13
(g14
tp1502
Rp1503
S'Pn'
p1504
I1
ssg19
g1504
sbsS'H0515'
p1505
(idecision_tree
decision_tree_leaf
p1506
(dp1507
g12
g13
(g14
tp1508
Rp1509
g17
I1
ssg19
g17
sbssbsS'24-FEB-2009'
p1510
(idecision_tree
decision_tree_leaf
p1511
(dp1512
g12
g13
(g14
tp1513
Rp1514
g17
I6
ssg19
g17
sbsS'08-DEC-2009'
p1515
(idecision_tree
decision_tree_leaf
p1516
(dp1517
g12
g13
(g14
tp1518
Rp1519
g17
I8
ssg19
g17
sbsS'08-AUG-2009'
p1520
(idecision_tree
decision_tree_leaf
p1521
(dp1522
g12
g13
(g14
tp1523
Rp1524
g17
I8
ssg19
g17
sbsS'01-APR-2009'
p1525
(idecision_tree
continuous_decision_tree
p1526
(dp1527
g106
F-1.5
sg2
I66
sg107
(idecision_tree
decision_tree_leaf
p1528
(dp1529
g12
g13
(g14
tp1530
Rp1531
g17
I4
sS'Sn'
p1532
I1
ssg19
g17
sbsg112
(idecision_tree
decision_tree_leaf
p1533
(dp1534
g12
g13
(g14
tp1535
Rp1536
g17
I1
ssg19
g17
sbsbsS'21-JUL-2009'
p1537
(idecision_tree
decision_tree_leaf
p1538
(dp1539
g12
g13
(g14
tp1540
Rp1541
g17
I6
ssg19
g17
sbsS'05-SEP-2009'
p1542
(idecision_tree
decision_tree_leaf
p1543
(dp1544
g12
g13
(g14
tp1545
Rp1546
g17
I2
ssg19
g17
sbsS'07-SEP-2009'
p1547
(idecision_tree
decision_tree
p1548
(dp1549
g2
I1
sg3
(dp1550
g17
(idecision_tree
decision_tree_leaf
p1551
(dp1552
g12
g13
(g14
tp1553
Rp1554
g17
I6
ssg19
g17
sbsS'tx'
p1555
(idecision_tree
decision_tree_leaf
p1556
(dp1557
g12
g13
(g14
tp1558
Rp1559
S'PKP'
p1560
I1
ssg19
g1560
sbssbsS'03-MAR-2009'
p1561
(idecision_tree
decision_tree_leaf
p1562
(dp1563
g12
g13
(g14
tp1564
Rp1565
g17
I6
ssg19
g17
sbsS'26-AUG-2009'
p1566
(idecision_tree
decision_tree_leaf
p1567
(dp1568
g12
g13
(g14
tp1569
Rp1570
g17
I12
ssg19
g17
sbsS'16-JUL-2009'
p1571
(idecision_tree
continuous_decision_tree
p1572
(dp1573
g106
F174.9765
sg2
I42
sg107
(idecision_tree
decision_tree
p1574
(dp1575
g2
I13
sg3
(dp1576
S'Z1530'
p1577
(idecision_tree
continuous_decision_tree
p1578
(dp1579
g106
F12.0
sg2
I67
sg107
(idecision_tree
continuous_decision_tree
p1580
(dp1581
g106
F0.0
sg2
I66
sg107
(idecision_tree
decision_tree
p1582
(dp1583
g2
I1
sg3
(dp1584
g17
(idecision_tree
decision_tree_leaf
p1585
(dp1586
g12
g13
(g14
tp1587
Rp1588
S'PKP'
p1589
I1
ssg19
g1589
sbsg1059
(idecision_tree
decision_tree_leaf
p1590
(dp1591
g12
g13
(g14
tp1592
Rp1593
g17
I1
ssg19
g17
sbssbsg112
(idecision_tree
decision_tree_leaf
p1594
(dp1595
g12
g13
(g14
tp1596
Rp1597
g17
I1
ssg19
g17
sbsbsg112
(idecision_tree
decision_tree_leaf
p1598
(dp1599
g12
g13
(g14
tp1600
Rp1601
g17
I1
ssg19
g17
sbsbsS'Z1020'
p1602
(idecision_tree
decision_tree_leaf
p1603
(dp1604
g12
g13
(g14
tp1605
Rp1606
g17
I3
ssg19
g17
sbsS'Z4080'
p1607
(idecision_tree
decision_tree_leaf
p1608
(dp1609
g12
g13
(g14
tp1610
Rp1611
g17
I1
ssg19
g17
sbsS'Z0515'
p1612
(idecision_tree
decision_tree_leaf
p1613
(dp1614
g12
g13
(g14
tp1615
Rp1616
g17
I1
ssg19
g17
sbssbsg112
(idecision_tree
decision_tree
p1617
(dp1618
g2
I13
sg3
(dp1619
S'Z1020'
p1620
(idecision_tree
continuous_decision_tree
p1621
(dp1622
g106
F-75.5
sg2
I67
sg107
(idecision_tree
continuous_decision_tree
p1623
(dp1624
g106
F-0.5
sg2
I62
sg107
(idecision_tree
continuous_decision_tree
p1625
(dp1626
g106
F31.5
sg2
I67
sg107
(idecision_tree
decision_tree_leaf
p1627
(dp1628
g12
g13
(g14
tp1629
Rp1630
g17
I1
ssg19
g17
sbsg112
(idecision_tree
decision_tree_leaf
p1631
(dp1632
g12
g13
(g14
tp1633
Rp1634
S'PKP'
p1635
I1
ssg19
g1635
sbsbsg112
(idecision_tree
decision_tree_leaf
p1636
(dp1637
g12
g13
(g14
tp1638
Rp1639
g17
I1
ssg19
g17
sbsbsg112
(idecision_tree
decision_tree_leaf
p1640
(dp1641
g12
g13
(g14
tp1642
Rp1643
g17
I1
ssg19
g17
sbsbsS'Z1530'
p1644
(idecision_tree
decision_tree_leaf
p1645
(dp1646
g12
g13
(g14
tp1647
Rp1648
g17
I5
ssg19
g17
sbssbsbsS'11-MAR-2009'
p1649
(idecision_tree
decision_tree_leaf
p1650
(dp1651
g12
g13
(g14
tp1652
Rp1653
g17
I7
ssg19
g17
sbsS'24-MAR-2009'
p1654
(idecision_tree
decision_tree_leaf
p1655
(dp1656
g12
g13
(g14
tp1657
Rp1658
g17
I4
ssg19
g17
sbsS'21-MAY-2009'
p1659
(idecision_tree
continuous_decision_tree
p1660
(dp1661
g106
F0.5
sg2
I66
sg107
(idecision_tree
decision_tree
p1662
(dp1663
g2
I1
sg3
(dp1664
g17
(idecision_tree
decision_tree_leaf
p1665
(dp1666
g12
g13
(g14
tp1667
Rp1668
g17
I3
ssg19
g17
sbsS'Pn'
p1669
(idecision_tree
decision_tree_leaf
p1670
(dp1671
g12
g13
(g14
tp1672
Rp1673
g17
I1
ssg19
g17
sbsg1059
(idecision_tree
decision_tree_leaf
p1674
(dp1675
g12
g13
(g14
tp1676
Rp1677
S'PKP'
p1678
I1
ssg19
g1678
sbssbsg112
(idecision_tree
continuous_decision_tree
p1679
(dp1680
g106
F-40.24165
sg2
I67
sg107
(idecision_tree
decision_tree_leaf
p1681
(dp1682
g12
g13
(g14
tp1683
Rp1684
g17
I1
ssg19
g17
sbsg112
(idecision_tree
decision_tree
p1685
(dp1686
g2
I13
sg3
(dp1687
S'Z1020'
p1688
(idecision_tree
decision_tree_leaf
p1689
(dp1690
g12
g13
(g14
tp1691
Rp1692
S'PKP'
p1693
I1
ssg19
g1693
sbsS'Z1530'
p1694
(idecision_tree
decision_tree_leaf
p1695
(dp1696
g12
g13
(g14
tp1697
Rp1698
g17
I2
ssg19
g17
sbsS'Z2040'
p1699
(idecision_tree
decision_tree_leaf
p1700
(dp1701
g12
g13
(g14
tp1702
Rp1703
g17
I1
ssg19
g17
sbssbsbsbsS'13-APR-2009'
p1704
(idecision_tree
decision_tree_leaf
p1705
(dp1706
g12
g13
(g14
tp1707
Rp1708
g17
I1
ssg19
g17
sbsS'16-AUG-2009'
p1709
(idecision_tree
decision_tree_leaf
p1710
(dp1711
g12
g13
(g14
tp1712
Rp1713
g17
I23
ssg19
g17
sbsS'05-JUL-2009'
p1714
(idecision_tree
decision_tree_leaf
p1715
(dp1716
g12
g13
(g14
tp1717
Rp1718
S'PKP'
p1719
I1
ssg19
g1719
sbsS'18-JUN-2009'
p1720
(idecision_tree
decision_tree_leaf
p1721
(dp1722
g12
g13
(g14
tp1723
Rp1724
g17
I3
ssg19
g17
sbsS'24-NOV-2009'
p1725
(idecision_tree
decision_tree_leaf
p1726
(dp1727
g12
g13
(g14
tp1728
Rp1729
g17
I3
ssg19
g17
sbsS'03-NOV-2009'
p1730
(idecision_tree
decision_tree
p1731
(dp1732
g2
I13
sg3
(dp1733
S'Z1020'
p1734
(idecision_tree
continuous_decision_tree
p1735
(dp1736
g106
F27212150.0
sg2
I64
sg107
(idecision_tree
continuous_decision_tree
p1737
(dp1738
g106
F-0.5
sg2
I66
sg107
(idecision_tree
continuous_decision_tree
p1739
(dp1740
g106
F-100.0
sg2
I67
sg107
(idecision_tree
continuous_decision_tree
p1741
(dp1742
g106
F0.2082675
sg2
I52
sg107
(idecision_tree
decision_tree_leaf
p1743
(dp1744
g12
g13
(g14
tp1745
Rp1746
g17
I1
ssg19
g17
sbsg112
(idecision_tree
continuous_decision_tree
p1747
(dp1748
g106
F0.25584850000000003
sg2
I48
sg107
(idecision_tree
continuous_decision_tree
p1749
(dp1750
g106
F107.0
sg2
I67
sg107
(idecision_tree
decision_tree_leaf
p1751
(dp1752
g12
g13
(g14
tp1753
Rp1754
g17
I1
ssg19
g17
sbsg112
(idecision_tree
decision_tree_leaf
p1755
(dp1756
g12
g13
(g14
tp1757
Rp1758
S'PKP'
p1759
I1
ssg19
g1759
sbsbsg112
(idecision_tree
decision_tree_leaf
p1760
(dp1761
g12
g13
(g14
tp1762
Rp1763
g17
I1
ssg19
g17
sbsbsbsg112
(idecision_tree
decision_tree_leaf
p1764
(dp1765
g12
g13
(g14
tp1766
Rp1767
g17
I1
ssg19
g17
sbsbsg112
(idecision_tree
decision_tree_leaf
p1768
(dp1769
g12
g13
(g14
tp1770
Rp1771
g17
I1
ssg19
g17
sbsbsg112
(idecision_tree
decision_tree_leaf
p1772
(dp1773
g12
g13
(g14
tp1774
Rp1775
g17
I1
ssg19
g17
sbsbsS'Z1530'
p1776
(idecision_tree
decision_tree_leaf
p1777
(dp1778
g12
g13
(g14
tp1779
Rp1780
g17
I3
ssg19
g17
sbssbsS'11-MAY-2009'
p1781
(idecision_tree
decision_tree_leaf
p1782
(dp1783
g12
g13
(g14
tp1784
Rp1785
g17
I3
ssg19
g17
sbsS'04-JUN-2009'
p1786
(idecision_tree
decision_tree_leaf
p1787
(dp1788
g12
g13
(g14
tp1789
Rp1790
g17
I10
ssg19
g17
sbsS'04-OCT-2009'
p1791
(idecision_tree
decision_tree
p1792
(dp1793
g2
I14
sg3
(dp1794
S'coh'
p1795
(idecision_tree
decision_tree_leaf
p1796
(dp1797
g12
g13
(g14
tp1798
Rp1799
g17
I19
ssg19
g17
sbsS'inc'
p1800
(idecision_tree
decision_tree_leaf
p1801
(dp1802
g12
g13
(g14
tp1803
Rp1804
g290
I1
ssg19
g290
sbssbsS'06-APR-2009'
p1805
(idecision_tree
decision_tree
p1806
(dp1807
g2
I13
sg3
(dp1808
S'Z0515'
p1809
(idecision_tree
decision_tree_leaf
p1810
(dp1811
g12
g13
(g14
tp1812
Rp1813
S'PKP'
p1814
I1
ssg19
g1814
sbsS'Z1020'
p1815
(idecision_tree
decision_tree_leaf
p1816
(dp1817
g12
g13
(g14
tp1818
Rp1819
g17
I5
ssg19
g17
sbsS'Z1530'
p1820
(idecision_tree
decision_tree_leaf
p1821
(dp1822
g12
g13
(g14
tp1823
Rp1824
g17
I2
ssg19
g17
sbssbsS'17-MAY-2009'
p1825
(idecision_tree
decision_tree
p1826
(dp1827
g2
I1
sg3
(dp1828
g17
(idecision_tree
decision_tree_leaf
p1829
(dp1830
g12
g13
(g14
tp1831
Rp1832
g17
I4
ssg19
g17
sbsS'Pg'
p1833
(idecision_tree
decision_tree_leaf
p1834
(dp1835
g12
g13
(g14
tp1836
Rp1837
S'PKP'
p1838
I1
ssg19
g1838
sbsS'tx'
p1839
(idecision_tree
decision_tree_leaf
p1840
(dp1841
g12
g13
(g14
tp1842
Rp1843
g17
I2
ssg19
g17
sbssbsS'20-SEP-2009'
p1844
(idecision_tree
continuous_decision_tree
p1845
(dp1846
g106
F-2.0
sg2
I66
sg107
(idecision_tree
decision_tree_leaf
p1847
(dp1848
g12
g13
(g14
tp1849
Rp1850
g17
I3
sS'PKP'
p1851
I1
ssg19
g17
sbsg112
(idecision_tree
decision_tree_leaf
p1852
(dp1853
g12
g13
(g14
tp1854
Rp1855
g17
I1
ssg19
g17
sbsbsS'11-JUL-2009'
p1856
(idecision_tree
decision_tree_leaf
p1857
(dp1858
g12
g13
(g14
tp1859
Rp1860
g17
I9
ssg19
g17
sbsS'10-MAR-2009'
p1861
(idecision_tree
decision_tree
p1862
(dp1863
g2
I1
sg3
(dp1864
g17
(idecision_tree
decision_tree_leaf
p1865
(dp1866
g12
g13
(g14
tp1867
Rp1868
g17
I9
ssg19
g17
sbsS'tx'
p1869
(idecision_tree
decision_tree_leaf
p1870
(dp1871
g12
g13
(g14
tp1872
Rp1873
g17
I1
ssg19
g17
sbsg1059
(idecision_tree
decision_tree_leaf
p1874
(dp1875
g12
g13
(g14
tp1876
Rp1877
S'PKP'
p1878
I1
ssg19
g1878
sbssbsS'24-SEP-2009'
p1879
(idecision_tree
decision_tree
p1880
(dp1881
g2
I13
sg3
(dp1882
S'Z1020'
p1883
(idecision_tree
decision_tree_leaf
p1884
(dp1885
g12
g13
(g14
tp1886
Rp1887
g17
I6
ssg19
g17
sbsS'Z1530'
p1888
(idecision_tree
decision_tree_leaf
p1889
(dp1890
g12
g13
(g14
tp1891
Rp1892
g17
I5
ssg19
g17
sbsS'Z2040'
p1893
(idecision_tree
decision_tree_leaf
p1894
(dp1895
g12
g13
(g14
tp1896
Rp1897
S'PKP'
p1898
I1
ssg19
g1898
sbssbsS'26-JUL-2009'
p1899
(idecision_tree
decision_tree_leaf
p1900
(dp1901
g12
g13
(g14
tp1902
Rp1903
g17
I11
ssg19
g17
sbsS'29-MAR-2009'
p1904
(idecision_tree
decision_tree_leaf
p1905
(dp1906
g12
g13
(g14
tp1907
Rp1908
g17
I3
ssg19
g17
sbsS'02-OCT-2009'
p1909
(idecision_tree
decision_tree_leaf
p1910
(dp1911
g12
g13
(g14
tp1912
Rp1913
g17
I34
sS'PKP'
p1914
I1
sS'Pn'
p1915
I1
ssg19
g17
sbsS'08-SEP-2009'
p1916
(idecision_tree
decision_tree_leaf
p1917
(dp1918
g12
g13
(g14
tp1919
Rp1920
g17
I7
ssg19
g17
sbsS'27-SEP-2009'
p1921
(idecision_tree
decision_tree_leaf
p1922
(dp1923
g12
g13
(g14
tp1924
Rp1925
g17
I4
ssg19
g17
sbsS'20-DEC-2009'
p1926
(idecision_tree
decision_tree
p1927
(dp1928
g2
I1
sg3
(dp1929
g17
(idecision_tree
decision_tree_leaf
p1930
(dp1931
g12
g13
(g14
tp1932
Rp1933
g17
I1
ssg19
g17
sbsg1059
(idecision_tree
decision_tree_leaf
p1934
(dp1935
g12
g13
(g14
tp1936
Rp1937
S'PKP'
p1938
I1
ssg19
g1938
sbssbsS'01-MAR-2009'
p1939
(idecision_tree
continuous_decision_tree
p1940
(dp1941
g106
F-120.625
sg2
I67
sg107
(idecision_tree
continuous_decision_tree
p1942
(dp1943
g106
F-2.0
sg2
I66
sg107
(idecision_tree
decision_tree
p1944
(dp1945
g2
I13
sg3
(dp1946
S'Z1020'
p1947
(idecision_tree
decision_tree_leaf
p1948
(dp1949
g12
g13
(g14
tp1950
Rp1951
S'PKP'
p1952
I1
ssg19
g1952
sbsS'Z2040'
p1953
(idecision_tree
decision_tree_leaf
p1954
(dp1955
g12
g13
(g14
tp1956
Rp1957
g17
I1
ssg19
g17
sbssbsg112
(idecision_tree
decision_tree_leaf
p1958
(dp1959
g12
g13
(g14
tp1960
Rp1961
g17
I1
ssg19
g17
sbsbsg112
(idecision_tree
decision_tree_leaf
p1962
(dp1963
g12
g13
(g14
tp1964
Rp1965
g17
I1
ssg19
g17
sbsbsS'12-AUG-2009'
p1966
(idecision_tree
decision_tree_leaf
p1967
(dp1968
g12
g13
(g14
tp1969
Rp1970
g17
I8
ssg19
g17
sbsS'06-JUN-2009'
p1971
(idecision_tree
decision_tree_leaf
p1972
(dp1973
g12
g13
(g14
tp1974
Rp1975
g17
I5
sS'PKP'
p1976
I2
ssg19
g17
sbsS'01-JUN-2009'
p1977
(idecision_tree
decision_tree_leaf
p1978
(dp1979
g12
g13
(g14
tp1980
Rp1981
g17
I3
ssg19
g17
sbsS'08-OCT-2009'
p1982
(idecision_tree
decision_tree
p1983
(dp1984
g2
I1
sg3
(dp1985
g17
(idecision_tree
decision_tree_leaf
p1986
(dp1987
g12
g13
(g14
tp1988
Rp1989
g17
I46
ssg19
g17
sbsS'Pg'
p1990
(idecision_tree
decision_tree_leaf
p1991
(dp1992
g12
g13
(g14
tp1993
Rp1994
g17
I1
ssg19
g17
sbsS'tx'
p1995
(idecision_tree
decision_tree_leaf
p1996
(dp1997
g12
g13
(g14
tp1998
Rp1999
g17
I8
ssg19
g17
sbsg1059
(idecision_tree
decision_tree
p2000
(dp2001
g2
I13
sg3
(dp2002
S'Z1020'
p2003
(idecision_tree
decision_tree_leaf
p2004
(dp2005
g12
g13
(g14
tp2006
Rp2007
S'PKP'
p2008
I1
ssg19
g2008
sbsS'Z1530'
p2009
(idecision_tree
decision_tree_leaf
p2010
(dp2011
g12
g13
(g14
tp2012
Rp2013
g17
I1
ssg19
g17
sbssbssbsS'15-AUG-2009'
p2014
(idecision_tree
decision_tree_leaf
p2015
(dp2016
g12
g13
(g14
tp2017
Rp2018
g17
I13
ssg19
g17
sbsS'07-NOV-2009'
p2019
(idecision_tree
decision_tree_leaf
p2020
(dp2021
g12
g13
(g14
tp2022
Rp2023
g17
I11
ssg19
g17
sbsS'26-NOV-2009'
p2024
(idecision_tree
decision_tree_leaf
p2025
(dp2026
g12
g13
(g14
tp2027
Rp2028
g17
I10
ssg19
g17
sbsS'21-MAR-2009'
p2029
(idecision_tree
decision_tree
p2030
(dp2031
g2
I14
sg3
(dp2032
S'coh'
p2033
(idecision_tree
decision_tree_leaf
p2034
(dp2035
g12
g13
(g14
tp2036
Rp2037
g17
I10
ssg19
g17
sbsS'inc'
p2038
(idecision_tree
decision_tree_leaf
p2039
(dp2040
g12
g13
(g14
tp2041
Rp2042
S'Pn'
p2043
I1
ssg19
g2043
sbssbsS'08-APR-2009'
p2044
(idecision_tree
decision_tree_leaf
p2045
(dp2046
g12
g13
(g14
tp2047
Rp2048
g17
I10
ssg19
g17
sbsS'17-DEC-2009'
p2049
(idecision_tree
continuous_decision_tree
p2050
(dp2051
g106
F0.1264145
sg2
I52
sg107
(idecision_tree
decision_tree
p2052
(dp2053
g2
I13
sg3
(dp2054
S'Z1530'
p2055
(idecision_tree
decision_tree_leaf
p2056
(dp2057
g12
g13
(g14
tp2058
Rp2059
g17
I3
ssg19
g17
sbsS'Z0515'
p2060
(idecision_tree
decision_tree_leaf
p2061
(dp2062
g12
g13
(g14
tp2063
Rp2064
S'PKP'
p2065
I1
ssg19
g2065
sbssbsg112
(idecision_tree
continuous_decision_tree
p2066
(dp2067
g106
F0.409908
sg2
I48
sg107
(idecision_tree
decision_tree
p2068
(dp2069
g2
I13
sg3
(dp2070
S'Z1020'
p2071
(idecision_tree
decision_tree_leaf
p2072
(dp2073
g12
g13
(g14
tp2074
Rp2075
g17
I1
ssg19
g17
sbsS'Z1530'
p2076
(idecision_tree
decision_tree_leaf
p2077
(dp2078
g12
g13
(g14
tp2079
Rp2080
S'PKP'
p2081
I1
ssg19
g2081
sbssbsg112
(idecision_tree
decision_tree_leaf
p2082
(dp2083
g12
g13
(g14
tp2084
Rp2085
g17
I1
ssg19
g17
sbsbsbsS'18-OCT-2009'
p2086
(idecision_tree
decision_tree_leaf
p2087
(dp2088
g12
g13
(g14
tp2089
Rp2090
g17
I17
ssg19
g17
sbsS'16-JUN-2009'
p2091
(idecision_tree
continuous_decision_tree
p2092
(dp2093
g106
F-1.5
sg2
I62
sg107
(idecision_tree
continuous_decision_tree
p2094
(dp2095
g106
F-1.0
sg2
I59
sg107
(idecision_tree
continuous_decision_tree
p2096
(dp2097
g106
F-0.5
sg2
I58
sg107
(idecision_tree
continuous_decision_tree
p2098
(dp2099
g106
F0.5
sg2
I53
sg107
(idecision_tree
continuous_decision_tree
p2100
(dp2101
g106
F-104.875
sg2
I67
sg107
(idecision_tree
decision_tree_leaf
p2102
(dp2103
g12
g13
(g14
tp2104
Rp2105
g17
I1
ssg19
g17
sbsg112
(idecision_tree
decision_tree_leaf
p2106
(dp2107
g12
g13
(g14
tp2108
Rp2109
S'PKP'
p2110
I1
ssg19
g2110
sbsbsg112
(idecision_tree
decision_tree_leaf
p2111
(dp2112
g12
g13
(g14
tp2113
Rp2114
g17
I1
ssg19
g17
sbsbsg112
(idecision_tree
decision_tree_leaf
p2115
(dp2116
g12
g13
(g14
tp2117
Rp2118
g17
I1
ssg19
g17
sbsbsg112
(idecision_tree
decision_tree_leaf
p2119
(dp2120
g12
g13
(g14
tp2121
Rp2122
g17
I1
ssg19
g17
sbsbsg112
(idecision_tree
decision_tree_leaf
p2123
(dp2124
g12
g13
(g14
tp2125
Rp2126
g17
I1
ssg19
g17
sbsbsS'31-MAY-2009'
p2127
(idecision_tree
decision_tree_leaf
p2128
(dp2129
g12
g13
(g14
tp2130
Rp2131
g17
I10
ssg19
g17
sbsS'14-MAY-2009'
p2132
(idecision_tree
decision_tree_leaf
p2133
(dp2134
g12
g13
(g14
tp2135
Rp2136
g17
I4
ssg19
g17
sbsS'20-NOV-2009'
p2137
(idecision_tree
decision_tree_leaf
p2138
(dp2139
g12
g13
(g14
tp2140
Rp2141
g17
I1
ssg19
g17
sbsS'18-JUL-2009'
p2142
(idecision_tree
decision_tree_leaf
p2143
(dp2144
g12
g13
(g14
tp2145
Rp2146
g17
I4
ssg19
g17
sbsS'05-AUG-2009'
p2147
(idecision_tree
decision_tree_leaf
p2148
(dp2149
g12
g13
(g14
tp2150
Rp2151
g17
I7
ssg19
g17
sbsS'18-NOV-2009'
p2152
(idecision_tree
decision_tree_leaf
p2153
(dp2154
g12
g13
(g14
tp2155
Rp2156
g17
I5
ssg19
g17
sbsS'03-JUN-2009'
p2157
(idecision_tree
decision_tree_leaf
p2158
(dp2159
g12
g13
(g14
tp2160
Rp2161
g17
I10
ssg19
g17
sbsS'09-AUG-2009'
p2162
(idecision_tree
decision_tree_leaf
p2163
(dp2164
g12
g13
(g14
tp2165
Rp2166
g17
I5
ssg19
g17
sbsS'14-MAR-2009'
p2167
(idecision_tree
decision_tree
p2168
(dp2169
g2
I14
sg3
(dp2170
S'coh'
p2171
(idecision_tree
decision_tree_leaf
p2172
(dp2173
g12
g13
(g14
tp2174
Rp2175
g17
I7
ssg19
g17
sbsS'inc'
p2176
(idecision_tree
decision_tree_leaf
p2177
(dp2178
g12
g13
(g14
tp2179
Rp2180
S'Pn'
p2181
I1
ssg19
g2181
sbssbsS'28-MAY-2009'
p2182
(idecision_tree
decision_tree_leaf
p2183
(dp2184
g12
g13
(g14
tp2185
Rp2186
g17
I5
sS'PKP'
p2187
I1
ssg19
g17
sbsS'04-SEP-2009'
p2188
(idecision_tree
decision_tree_leaf
p2189
(dp2190
g12
g13
(g14
tp2191
Rp2192
g17
I5
ssg19
g17
sbsS'30-MAR-2009'
p2193
(idecision_tree
continuous_decision_tree
p2194
(dp2195
g106
F7.625
sg2
I67
sg107
(idecision_tree
continuous_decision_tree
p2196
(dp2197
g106
F42.5
sg2
I67
sg107
(idecision_tree
continuous_decision_tree
p2198
(dp2199
g106
F82.8
sg2
I67
sg107
(idecision_tree
decision_tree_leaf
p2200
(dp2201
g12
g13
(g14
tp2202
Rp2203
g17
I1
ssg19
g17
sbsg112
(idecision_tree
decision_tree_leaf
p2204
(dp2205
g12
g13
(g14
tp2206
Rp2207
S'PKP'
p2208
I1
ssg19
g2208
sbsbsg112
(idecision_tree
continuous_decision_tree
p2209
(dp2210
g106
F-14.75
sg2
I63
sg107
(idecision_tree
decision_tree
p2211
(dp2212
g2
I13
sg3
(dp2213
S'Z1020'
p2214
(idecision_tree
decision_tree_leaf
p2215
(dp2216
g12
g13
(g14
tp2217
Rp2218
S'PKP'
p2219
I1
ssg19
g2219
sbsS'Z1530'
p2220
(idecision_tree
decision_tree_leaf
p2221
(dp2222
g12
g13
(g14
tp2223
Rp2224
g17
I1
ssg19
g17
sbssbsg112
(idecision_tree
decision_tree_leaf
p2225
(dp2226
g12
g13
(g14
tp2227
Rp2228
g17
I1
ssg19
g17
sbsbsbsg112
(idecision_tree
decision_tree
p2229
(dp2230
g2
I14
sg3
(dp2231
S'coh'
p2232
(idecision_tree
decision_tree_leaf
p2233
(dp2234
g12
g13
(g14
tp2235
Rp2236
S'PKP'
p2237
I1
ssg19
g2237
sbsS'inc'
p2238
(idecision_tree
decision_tree_leaf
p2239
(dp2240
g12
g13
(g14
tp2241
Rp2242
g17
I1
ssg19
g17
sbssbsbsS'22-AUG-2009'
p2243
(idecision_tree
decision_tree
p2244
(dp2245
g2
I13
sg3
(dp2246
S'Z1020'
p2247
(idecision_tree
decision_tree_leaf
p2248
(dp2249
g12
g13
(g14
tp2250
Rp2251
S'PKP'
p2252
I1
ssg19
g2252
sbsS'Z0515'
p2253
(idecision_tree
decision_tree_leaf
p2254
(dp2255
g12
g13
(g14
tp2256
Rp2257
g17
I1
ssg19
g17
sbssbsS'04-AUG-2009'
p2258
(idecision_tree
decision_tree_leaf
p2259
(dp2260
g12
g13
(g14
tp2261
Rp2262
g17
I4
ssg19
g17
sbsS'25-AUG-2009'
p2263
(idecision_tree
decision_tree_leaf
p2264
(dp2265
g12
g13
(g14
tp2266
Rp2267
g17
I6
ssg19
g17
sbsS'11-NOV-2009'
p2268
(idecision_tree
decision_tree_leaf
p2269
(dp2270
g12
g13
(g14
tp2271
Rp2272
g17
I1
ssg19
g17
sbsS'29-APR-2009'
p2273
(idecision_tree
decision_tree_leaf
p2274
(dp2275
g12
g13
(g14
tp2276
Rp2277
g17
I5
ssg19
g17
sbsS'11-SEP-2009'
p2278
(idecision_tree
continuous_decision_tree
p2279
(dp2280
g106
F1.0
sg2
I63
sg107
(idecision_tree
decision_tree
p2281
(dp2282
g2
I13
sg3
(dp2283
S'Z1020'
p2284
(idecision_tree
decision_tree_leaf
p2285
(dp2286
g12
g13
(g14
tp2287
Rp2288
g17
I1
ssg19
g17
sbsS'Z1530'
p2289
(idecision_tree
decision_tree_leaf
p2290
(dp2291
g12
g13
(g14
tp2292
Rp2293
S'Pn'
p2294
I1
ssg19
g2294
sbssbsg112
(idecision_tree
continuous_decision_tree
p2295
(dp2296
g106
F-135.0
sg2
I67
sg107
(idecision_tree
decision_tree_leaf
p2297
(dp2298
g12
g13
(g14
tp2299
Rp2300
g17
I1
ssg19
g17
sbsg112
(idecision_tree
decision_tree_leaf
p2301
(dp2302
g12
g13
(g14
tp2303
Rp2304
S'PKP'
p2305
I1
ssg19
g2305
sbsbsbsS'04-DEC-2009'
p2306
(idecision_tree
decision_tree_leaf
p2307
(dp2308
g12
g13
(g14
tp2309
Rp2310
g17
I2
ssg19
g17
sbsS'01-JUL-2009'
p2311
(idecision_tree
decision_tree
p2312
(dp2313
g2
I13
sg3
(dp2314
S'Z1530'
p2315
(idecision_tree
decision_tree_leaf
p2316
(dp2317
g12
g13
(g14
tp2318
Rp2319
g17
I2
ssg19
g17
sbsS'Z1020'
p2320
(idecision_tree
continuous_decision_tree
p2321
(dp2322
g106
F0.0383562
sg2
I51
sg107
(idecision_tree
continuous_decision_tree
p2323
(dp2324
g106
F0.6064145000000001
sg2
I49
sg107
(idecision_tree
decision_tree_leaf
p2325
(dp2326
g12
g13
(g14
tp2327
Rp2328
g17
I1
ssg19
g17
sbsg112
(idecision_tree
continuous_decision_tree
p2329
(dp2330
g106
F-12.2
sg2
I67
sg107
(idecision_tree
decision_tree_leaf
p2331
(dp2332
g12
g13
(g14
tp2333
Rp2334
g17
I1
ssg19
g17
sbsg112
(idecision_tree
decision_tree_leaf
p2335
(dp2336
g12
g13
(g14
tp2337
Rp2338
g17
I3
sS'PKP'
p2339
I1
ssg19
g17
sbsbsbsg112
(idecision_tree
decision_tree_leaf
p2340
(dp2341
g12
g13
(g14
tp2342
Rp2343
g17
I1
ssg19
g17
sbsbsS'Z0515'
p2344
(idecision_tree
decision_tree_leaf
p2345
(dp2346
g12
g13
(g14
tp2347
Rp2348
g17
I1
ssg19
g17
sbssbsS'10-DEC-2009'
p2349
(idecision_tree
decision_tree
p2350
(dp2351
g2
I13
sg3
(dp2352
S'Z1530'
p2353
(idecision_tree
decision_tree_leaf
p2354
(dp2355
g12
g13
(g14
tp2356
Rp2357
g17
I4
ssg19
g17
sbsS'Z1020'
p2358
(idecision_tree
decision_tree_leaf
p2359
(dp2360
g12
g13
(g14
tp2361
Rp2362
g17
I3
ssg19
g17
sbsS'Z0515'
p2363
(idecision_tree
continuous_decision_tree
p2364
(dp2365
g106
F-65.0
sg2
I67
sg107
(idecision_tree
decision_tree_leaf
p2366
(dp2367
g12
g13
(g14
tp2368
Rp2369
g17
I1
ssg19
g17
sbsg112
(idecision_tree
decision_tree_leaf
p2370
(dp2371
g12
g13
(g14
tp2372
Rp2373
S'PKP'
p2374
I1
ssg19
g2374
sbsbsS'Z2040'
p2375
(idecision_tree
decision_tree_leaf
p2376
(dp2377
g12
g13
(g14
tp2378
Rp2379
g17
I2
ssg19
g17
sbssbsS'07-OCT-2009'
p2380
(idecision_tree
decision_tree
p2381
(dp2382
g2
I13
sg3
(dp2383
S'Z1530'
p2384
(idecision_tree
decision_tree
p2385
(dp2386
g2
I1
sg3
(dp2387
g17
(idecision_tree
decision_tree_leaf
p2388
(dp2389
g12
g13
(g14
tp2390
Rp2391
g17
I4
ssg19
g17
sbsS'tx'
p2392
(idecision_tree
decision_tree_leaf
p2393
(dp2394
g12
g13
(g14
tp2395
Rp2396
S'PKP'
p2397
I1
ssg19
g2397
sbsg1059
(idecision_tree
decision_tree_leaf
p2398
(dp2399
g12
g13
(g14
tp2400
Rp2401
g17
I1
ssg19
g17
sbssbsS'Z1020'
p2402
(idecision_tree
decision_tree_leaf
p2403
(dp2404
g12
g13
(g14
tp2405
Rp2406
g17
I10
ssg19
g17
sbsS'Z0515'
p2407
(idecision_tree
continuous_decision_tree
p2408
(dp2409
g106
F-3.5
sg2
I66
sg107
(idecision_tree
continuous_decision_tree
p2410
(dp2411
g106
F-3.0
sg2
I63
sg107
(idecision_tree
decision_tree
p2412
(dp2413
g2
I1
sg3
(dp2414
g17
(idecision_tree
decision_tree_leaf
p2415
(dp2416
g12
g13
(g14
tp2417
Rp2418
S'PKP'
p2419
I1
ssg19
g2419
sbsS'Pn'
p2420
(idecision_tree
decision_tree_leaf
p2421
(dp2422
g12
g13
(g14
tp2423
Rp2424
g17
I1
ssg19
g17
sbssbsg112
(idecision_tree
decision_tree_leaf
p2425
(dp2426
g12
g13
(g14
tp2427
Rp2428
g17
I1
ssg19
g17
sbsbsg112
(idecision_tree
decision_tree_leaf
p2429
(dp2430
g12
g13
(g14
tp2431
Rp2432
g17
I1
ssg19
g17
sbsbssbsS'29-JUN-2009'
p2433
(idecision_tree
decision_tree_leaf
p2434
(dp2435
g12
g13
(g14
tp2436
Rp2437
g17
I12
ssg19
g17
sbsS'27-MAY-2009'
p2438
(idecision_tree
decision_tree_leaf
p2439
(dp2440
g12
g13
(g14
tp2441
Rp2442
g17
I9
ssg19
g17
sbsS'01-AUG-2009'
p2443
(idecision_tree
decision_tree
p2444
(dp2445
g2
I1
sg3
(dp2446
g17
(idecision_tree
decision_tree_leaf
p2447
(dp2448
g12
g13
(g14
tp2449
Rp2450
g17
I9
ssg19
g17
sbsS'Pn'
p2451
(idecision_tree
decision_tree_leaf
p2452
(dp2453
g12
g13
(g14
tp2454
Rp2455
g17
I1
ssg19
g17
sbsS'tx'
p2456
(idecision_tree
decision_tree_leaf
p2457
(dp2458
g12
g13
(g14
tp2459
Rp2460
g17
I2
ssg19
g17
sbsg1059
(idecision_tree
decision_tree_leaf
p2461
(dp2462
g12
g13
(g14
tp2463
Rp2464
S'PKP'
p2465
I1
ssg19
g2465
sbssbsS'09-SEP-2009'
p2466
(idecision_tree
decision_tree_leaf
p2467
(dp2468
g12
g13
(g14
tp2469
Rp2470
g17
I7
ssg19
g17
sbsS'16-DEC-2009'
p2471
(idecision_tree
decision_tree_leaf
p2472
(dp2473
g12
g13
(g14
tp2474
Rp2475
g17
I13
ssg19
g17
sbsS'06-AUG-2009'
p2476
(idecision_tree
decision_tree_leaf
p2477
(dp2478
g12
g13
(g14
tp2479
Rp2480
g17
I5
ssg19
g17
sbsS'25-OCT-2009'
p2481
(idecision_tree
decision_tree
p2482
(dp2483
g2
I1
sg3
(dp2484
g17
(idecision_tree
decision_tree_leaf
p2485
(dp2486
g12
g13
(g14
tp2487
Rp2488
g17
I15
ssg19
g17
sbsS'Pn'
p2489
(idecision_tree
decision_tree_leaf
p2490
(dp2491
g12
g13
(g14
tp2492
Rp2493
S'PKP'
p2494
I1
ssg19
g2494
sbsS'tx'
p2495
(idecision_tree
decision_tree_leaf
p2496
(dp2497
g12
g13
(g14
tp2498
Rp2499
g17
I1
ssg19
g17
sbssbsS'09-OCT-2009'
p2500
(idecision_tree
decision_tree_leaf
p2501
(dp2502
g12
g13
(g14
tp2503
Rp2504
g17
I20
ssg19
g17
sbsS'28-SEP-2009'
p2505
(idecision_tree
decision_tree_leaf
p2506
(dp2507
g12
g13
(g14
tp2508
Rp2509
g17
I8
ssg19
g17
sbsS'23-SEP-2009'
p2510
(idecision_tree
decision_tree_leaf
p2511
(dp2512
g12
g13
(g14
tp2513
Rp2514
g17
I8
ssg19
g17
sbsS'28-NOV-2009'
p2515
(idecision_tree
decision_tree_leaf
p2516
(dp2517
g12
g13
(g14
tp2518
Rp2519
g17
I4
ssg19
g17
sbsS'30-SEP-2009'
p2520
(idecision_tree
decision_tree
p2521
(dp2522
g2
I13
sg3
(dp2523
S'Z0515'
p2524
(idecision_tree
decision_tree_leaf
p2525
(dp2526
g12
g13
(g14
tp2527
Rp2528
g17
I3
ssg19
g17
sbsS'Z1020'
p2529
(idecision_tree
decision_tree_leaf
p2530
(dp2531
g12
g13
(g14
tp2532
Rp2533
g17
I45
ssg19
g17
sbsS'H2040'
p2534
(idecision_tree
decision_tree_leaf
p2535
(dp2536
g12
g13
(g14
tp2537
Rp2538
g17
I1
ssg19
g17
sbsS'H0515'
p2539
(idecision_tree
decision_tree_leaf
p2540
(dp2541
g12
g13
(g14
tp2542
Rp2543
g290
I1
ssg19
g290
sbsS'Z1530'
p2544
(idecision_tree
continuous_decision_tree
p2545
(dp2546
g106
F8.0
sg2
I59
sg107
(idecision_tree
decision_tree_leaf
p2547
(dp2548
g12
g13
(g14
tp2549
Rp2550
g17
I1
ssg19
g17
sbsg112
(idecision_tree
continuous_decision_tree
p2551
(dp2552
g106
F40.0
sg2
I63
sg107
(idecision_tree
decision_tree_leaf
p2553
(dp2554
g12
g13
(g14
tp2555
Rp2556
g17
I1
ssg19
g17
sbsg112
(idecision_tree
continuous_decision_tree
p2557
(dp2558
g106
F2.0
sg2
I66
sg107
(idecision_tree
decision_tree_leaf
p2559
(dp2560
g12
g13
(g14
tp2561
Rp2562
g17
I1
ssg19
g17
sbsg112
(idecision_tree
continuous_decision_tree
p2563
(dp2564
g106
F0.1481865
sg2
I52
sg107
(idecision_tree
continuous_decision_tree
p2565
(dp2566
g106
F0.0818782
sg2
I50
sg107
(idecision_tree
continuous_decision_tree
p2567
(dp2568
g106
F68.0
sg2
I67
sg107
(idecision_tree
decision_tree_leaf
p2569
(dp2570
g12
g13
(g14
tp2571
Rp2572
g17
I1
ssg19
g17
sbsg112
(idecision_tree
continuous_decision_tree
p2573
(dp2574
g106
F0.0697015
sg2
I51
sg107
(idecision_tree
continuous_decision_tree
p2575
(dp2576
g106
F1.0
sg2
I67
sg107
(idecision_tree
decision_tree_leaf
p2577
(dp2578
g12
g13
(g14
tp2579
Rp2580
S'PKP'
p2581
I1
ssg19
g2581
sbsg112
(idecision_tree
decision_tree_leaf
p2582
(dp2583
g12
g13
(g14
tp2584
Rp2585
g17
I1
ssg19
g17
sbsbsg112
(idecision_tree
decision_tree_leaf
p2586
(dp2587
g12
g13
(g14
tp2588
Rp2589
g17
I1
ssg19
g17
sbsbsbsg112
(idecision_tree
decision_tree_leaf
p2590
(dp2591
g12
g13
(g14
tp2592
Rp2593
g17
I1
ssg19
g17
sbsbsg112
(idecision_tree
decision_tree_leaf
p2594
(dp2595
g12
g13
(g14
tp2596
Rp2597
g17
I1
ssg19
g17
sbsbsbsbsbsS'Z2040'
p2598
(idecision_tree
decision_tree_leaf
p2599
(dp2600
g12
g13
(g14
tp2601
Rp2602
g17
I2
ssg19
g17
sbssbsS'09-JUN-2009'
p2603
(idecision_tree
decision_tree_leaf
p2604
(dp2605
g12
g13
(g14
tp2606
Rp2607
g17
I7
ssg19
g17
sbsS'23-JUN-2009'
p2608
(idecision_tree
continuous_decision_tree
p2609
(dp2610
g106
F0.5
sg2
I66
sg107
(idecision_tree
continuous_decision_tree
p2611
(dp2612
g106
F-103.5
sg2
I67
sg107
(idecision_tree
decision_tree_leaf
p2613
(dp2614
g12
g13
(g14
tp2615
Rp2616
g17
I2
sS'PKP'
p2617
I1
ssg19
g17
sbsg112
(idecision_tree
decision_tree_leaf
p2618
(dp2619
g12
g13
(g14
tp2620
Rp2621
g17
I1
ssg19
g17
sbsbsg112
(idecision_tree
decision_tree_leaf
p2622
(dp2623
g12
g13
(g14
tp2624
Rp2625
g17
I1
ssg19
g17
sbsbsS'30-MAY-2009'
p2626
(idecision_tree
decision_tree_leaf
p2627
(dp2628
g12
g13
(g14
tp2629
Rp2630
g17
I12
ssg19
g17
sbsS'17-JUL-2009'
p2631
(idecision_tree
decision_tree_leaf
p2632
(dp2633
g12
g13
(g14
tp2634
Rp2635
g17
I6
ssg19
g17
sbsS'14-APR-2009'
p2636
(idecision_tree
continuous_decision_tree
p2637
(dp2638
g106
F63.53335
sg2
I67
sg107
(idecision_tree
decision_tree_leaf
p2639
(dp2640
g12
g13
(g14
tp2641
Rp2642
g17
I1
ssg19
g17
sbsg112
(idecision_tree
continuous_decision_tree
p2643
(dp2644
g106
F0.195046
sg2
I52
sg107
(idecision_tree
decision_tree_leaf
p2645
(dp2646
g12
g13
(g14
tp2647
Rp2648
g17
I1
ssg19
g17
sbsg112
(idecision_tree
continuous_decision_tree
p2649
(dp2650
g106
F0.14716
sg2
I50
sg107
(idecision_tree
continuous_decision_tree
p2651
(dp2652
g106
F1.9333500000000008
sg2
I67
sg107
(idecision_tree
decision_tree_leaf
p2653
(dp2654
g12
g13
(g14
tp2655
Rp2656
S'PKP'
p2657
I1
ssg19
g2657
sbsg112
(idecision_tree
decision_tree_leaf
p2658
(dp2659
g12
g13
(g14
tp2660
Rp2661
g17
I1
ssg19
g17
sbsbsg112
(idecision_tree
decision_tree_leaf
p2662
(dp2663
g12
g13
(g14
tp2664
Rp2665
g17
I1
ssg19
g17
sbsbsbsbsS'15-NOV-2009'
p2666
(idecision_tree
decision_tree
p2667
(dp2668
g2
I13
sg3
(dp2669
S'Z1020'
p2670
(idecision_tree
decision_tree_leaf
p2671
(dp2672
g12
g13
(g14
tp2673
Rp2674
g17
I1
ssg19
g17
sbsS'Z2040'
p2675
(idecision_tree
decision_tree_leaf
p2676
(dp2677
g12
g13
(g14
tp2678
Rp2679
S'PKP'
p2680
I1
ssg19
g2680
sbssbsS'13-JUL-2009'
p2681
(idecision_tree
decision_tree_leaf
p2682
(dp2683
g12
g13
(g14
tp2684
Rp2685
g17
I9
ssg19
g17
sbsS'21-OCT-2009'
p2686
(idecision_tree
continuous_decision_tree
p2687
(dp2688
g106
F3.0
sg2
I63
sg107
(idecision_tree
decision_tree_leaf
p2689
(dp2690
g12
g13
(g14
tp2691
Rp2692
g17
I1
ssg19
g17
sbsg112
(idecision_tree
continuous_decision_tree
p2693
(dp2694
g106
F0.5
sg2
I62
sg107
(idecision_tree
decision_tree_leaf
p2695
(dp2696
g12
g13
(g14
tp2697
Rp2698
g17
I1
ssg19
g17
sbsg112
(idecision_tree
decision_tree_leaf
p2699
(dp2700
g12
g13
(g14
tp2701
Rp2702
g17
I4
sS'PKP'
p2703
I1
ssg19
g17
sbsbsbsS'15-SEP-2009'
p2704
(idecision_tree
decision_tree_leaf
p2705
(dp2706
g12
g13
(g14
tp2707
Rp2708
g17
I8
ssg19
g17
sbsS'25-SEP-2009'
p2709
(idecision_tree
decision_tree_leaf
p2710
(dp2711
g12
g13
(g14
tp2712
Rp2713
g17
I6
ssg19
g17
sbsS'26-SEP-2009'
p2714
(idecision_tree
decision_tree
p2715
(dp2716
g2
I14
sg3
(dp2717
S'coh'
p2718
(idecision_tree
decision_tree_leaf
p2719
(dp2720
g12
g13
(g14
tp2721
Rp2722
g17
I7
ssg19
g17
sbsS'inc'
p2723
(idecision_tree
decision_tree_leaf
p2724
(dp2725
g12
g13
(g14
tp2726
Rp2727
S'Pn'
p2728
I1
ssg19
g2728
sbssbsS'05-OCT-2009'
p2729
(idecision_tree
decision_tree_leaf
p2730
(dp2731
g12
g13
(g14
tp2732
Rp2733
g17
I18
ssg19
g17
sbsS'05-MAY-2009'
p2734
(idecision_tree
decision_tree
p2735
(dp2736
g2
I13
sg3
(dp2737
S'Z1020'
p2738
(idecision_tree
decision_tree_leaf
p2739
(dp2740
g12
g13
(g14
tp2741
Rp2742
g17
I5
ssg19
g17
sbsS'Z1530'
p2743
(idecision_tree
decision_tree_leaf
p2744
(dp2745
g12
g13
(g14
tp2746
Rp2747
g17
I6
ssg19
g17
sbsS'Z2040'
p2748
(idecision_tree
decision_tree_leaf
p2749
(dp2750
g12
g13
(g14
tp2751
Rp2752
S'Pn'
p2753
I1
ssg19
g2753
sbssbsS'23-APR-2009'
p2754
(idecision_tree
continuous_decision_tree
p2755
(dp2756
g106
F110.5
sg2
I67
sg107
(idecision_tree
decision_tree
p2757
(dp2758
g2
I13
sg3
(dp2759
S'Z1530'
p2760
(idecision_tree
decision_tree_leaf
p2761
(dp2762
g12
g13
(g14
tp2763
Rp2764
g17
I1
ssg19
g17
sbsS'Z2040'
p2765
(idecision_tree
decision_tree_leaf
p2766
(dp2767
g12
g13
(g14
tp2768
Rp2769
S'PKP'
p2770
I1
ssg19
g2770
sbssbsg112
(idecision_tree
decision_tree_leaf
p2771
(dp2772
g12
g13
(g14
tp2773
Rp2774
g17
I1
ssg19
g17
sbsbsS'12-OCT-2009'
p2775
(idecision_tree
decision_tree_leaf
p2776
(dp2777
g12
g13
(g14
tp2778
Rp2779
g17
I7
ssg19
g17
sbsS'18-MAY-2009'
p2780
(idecision_tree
decision_tree
p2781
(dp2782
g2
I13
sg3
(dp2783
S'H4080'
p2784
(idecision_tree
decision_tree_leaf
p2785
(dp2786
g12
g13
(g14
tp2787
Rp2788
g17
I1
ssg19
g17
sbsS'Z1020'
p2789
(idecision_tree
decision_tree_leaf
p2790
(dp2791
g12
g13
(g14
tp2792
Rp2793
g17
I6
ssg19
g17
sbsS'Z1530'
p2794
(idecision_tree
decision_tree_leaf
p2795
(dp2796
g12
g13
(g14
tp2797
Rp2798
g17
I1
ssg19
g17
sbsS'H1020'
p2799
(idecision_tree
decision_tree_leaf
p2800
(dp2801
g12
g13
(g14
tp2802
Rp2803
S'Pn'
p2804
I1
ssg19
g2804
sbssbsS'16-NOV-2009'
p2805
(idecision_tree
decision_tree_leaf
p2806
(dp2807
g12
g13
(g14
tp2808
Rp2809
g17
I3
ssg19
g17
sbsS'22-JUN-2009'
p2810
(idecision_tree
continuous_decision_tree
p2811
(dp2812
g106
F-1.0
sg2
I66
sg107
(idecision_tree
continuous_decision_tree
p2813
(dp2814
g106
F-12.25
sg2
I67
sg107
(idecision_tree
decision_tree_leaf
p2815
(dp2816
g12
g13
(g14
tp2817
Rp2818
g17
I3
sS'PKP'
p2819
I1
ssg19
g17
sbsg112
(idecision_tree
decision_tree_leaf
p2820
(dp2821
g12
g13
(g14
tp2822
Rp2823
g17
I1
ssg19
g17
sbsbsg112
(idecision_tree
decision_tree_leaf
p2824
(dp2825
g12
g13
(g14
tp2826
Rp2827
g17
I1
ssg19
g17
sbsbsS'22-OCT-2009'
p2828
(idecision_tree
decision_tree
p2829
(dp2830
g2
I1
sg3
(dp2831
g17
(idecision_tree
decision_tree_leaf
p2832
(dp2833
g12
g13
(g14
tp2834
Rp2835
g17
I8
ssg19
g17
sbsS'tx'
p2836
(idecision_tree
decision_tree_leaf
p2837
(dp2838
g12
g13
(g14
tp2839
Rp2840
S'PKP'
p2841
I1
ssg19
g2841
sbsg1059
(idecision_tree
decision_tree_leaf
p2842
(dp2843
g12
g13
(g14
tp2844
Rp2845
g17
I1
ssg19
g17
sbssbsS'14-JUN-2009'
p2846
(idecision_tree
decision_tree_leaf
p2847
(dp2848
g12
g13
(g14
tp2849
Rp2850
g17
I9
ssg19
g17
sbsS'02-AUG-2009'
p2851
(idecision_tree
decision_tree_leaf
p2852
(dp2853
g12
g13
(g14
tp2854
Rp2855
g17
I7
ssg19
g17
sbsS'24-JUL-2009'
p2856
(idecision_tree
decision_tree_leaf
p2857
(dp2858
g12
g13
(g14
tp2859
Rp2860
g17
I3
ssg19
g17
sbsS'06-OCT-2009'
p2861
(idecision_tree
decision_tree_leaf
p2862
(dp2863
g12
g13
(g14
tp2864
Rp2865
g17
I15
ssg19
g17
sbsS'15-OCT-2009'
p2866
(idecision_tree
continuous_decision_tree
p2867
(dp2868
g106
F13.0
sg2
I63
sg107
(idecision_tree
continuous_decision_tree
p2869
(dp2870
g106
F-158.75
sg2
I67
sg107
(idecision_tree
decision_tree_leaf
p2871
(dp2872
g12
g13
(g14
tp2873
Rp2874
g17
I3
sS'PKP'
p2875
I1
ssg19
g17
sbsg112
(idecision_tree
decision_tree_leaf
p2876
(dp2877
g12
g13
(g14
tp2878
Rp2879
g17
I1
ssg19
g17
sbsbsg112
(idecision_tree
continuous_decision_tree
p2880
(dp2881
g106
F22.366664999999998
sg2
I67
sg107
(idecision_tree
decision_tree
p2882
(dp2883
g2
I14
sg3
(dp2884
S'coh'
p2885
(idecision_tree
decision_tree_leaf
p2886
(dp2887
g12
g13
(g14
tp2888
Rp2889
g17
I3
ssg19
g17
sbsS'inc'
p2890
(idecision_tree
decision_tree_leaf
p2891
(dp2892
g12
g13
(g14
tp2893
Rp2894
S'PKP'
p2895
I1
ssg19
g2895
sbssbsg112
(idecision_tree
decision_tree
p2896
(dp2897
g2
I14
sg3
(dp2898
S'coh'
p2899
(idecision_tree
decision_tree_leaf
p2900
(dp2901
g12
g13
(g14
tp2902
Rp2903
g17
I4
ssg19
g17
sbsS'inc'
p2904
(idecision_tree
decision_tree_leaf
p2905
(dp2906
g12
g13
(g14
tp2907
Rp2908
S'Pn'
p2909
I1
ssg19
g2909
sbssbsbsbsS'28-OCT-2009'
p2910
(idecision_tree
decision_tree_leaf
p2911
(dp2912
g12
g13
(g14
tp2913
Rp2914
g17
I4
ssg19
g17
sbsS'03-DEC-2009'
p2915
(idecision_tree
decision_tree_leaf
p2916
(dp2917
g12
g13
(g14
tp2918
Rp2919
g17
I7
ssg19
g17
sbsS'08-MAY-2009'
p2920
(idecision_tree
continuous_decision_tree
p2921
(dp2922
g106
F-0.5
sg2
I66
sg107
(idecision_tree
decision_tree
p2923
(dp2924
g2
I13
sg3
(dp2925
S'Z1020'
p2926
(idecision_tree
decision_tree_leaf
p2927
(dp2928
g12
g13
(g14
tp2929
Rp2930
g17
I1
ssg19
g17
sbsS'Z4080'
p2931
(idecision_tree
decision_tree_leaf
p2932
(dp2933
g12
g13
(g14
tp2934
Rp2935
S'PKP'
p2936
I1
ssg19
g2936
sbssbsg112
(idecision_tree
decision_tree_leaf
p2937
(dp2938
g12
g13
(g14
tp2939
Rp2940
g17
I1
ssg19
g17
sbsbsS'11-AUG-2009'
p2941
(idecision_tree
decision_tree_leaf
p2942
(dp2943
g12
g13
(g14
tp2944
Rp2945
g17
I5
ssg19
g17
sbsS'27-MAR-2009'
p2946
(idecision_tree
continuous_decision_tree
p2947
(dp2948
g106
F-4.0
sg2
I66
sg107
(idecision_tree
decision_tree_leaf
p2949
(dp2950
g12
g13
(g14
tp2951
Rp2952
S'Lg'
p2953
I1
sS'Pg'
p2954
I1
sg17
I1
ssg19
g2953
sbsg112
(idecision_tree
decision_tree_leaf
p2955
(dp2956
g12
g13
(g14
tp2957
Rp2958
g17
I1
ssg19
g17
sbsbsS'03-JUL-2009'
p2959
(idecision_tree
decision_tree_leaf
p2960
(dp2961
g12
g13
(g14
tp2962
Rp2963
g17
I14
ssg19
g17
sbsS'08-NOV-2009'
p2964
(idecision_tree
decision_tree
p2965
(dp2966
g2
I13
sg3
(dp2967
S'Z1530'
p2968
(idecision_tree
decision_tree_leaf
p2969
(dp2970
g12
g13
(g14
tp2971
Rp2972
g17
I4
ssg19
g17
sbsS'Z1020'
p2973
(idecision_tree
decision_tree_leaf
p2974
(dp2975
g12
g13
(g14
tp2976
Rp2977
g17
I5
ssg19
g17
sbsS'Z0515'
p2978
(idecision_tree
continuous_decision_tree
p2979
(dp2980
g106
F-144.267
sg2
I67
sg107
(idecision_tree
decision_tree_leaf
p2981
(dp2982
g12
g13
(g14
tp2983
Rp2984
g17
I1
ssg19
g17
sbsg112
(idecision_tree
decision_tree_leaf
p2985
(dp2986
g12
g13
(g14
tp2987
Rp2988
S'PKP'
p2989
I1
ssg19
g2989
sbsbssbsS'28-JUN-2009'
p2990
(idecision_tree
decision_tree_leaf
p2991
(dp2992
g12
g13
(g14
tp2993
Rp2994
g17
I13
ssg19
g17
sbsS'29-SEP-2009'
p2995
(idecision_tree
decision_tree_leaf
p2996
(dp2997
g12
g13
(g14
tp2998
Rp2999
g17
I45
sS'Pn'
p3000
I1
ssg19
g17
sbsS'15-MAR-2009'
p3001
(idecision_tree
decision_tree_leaf
p3002
(dp3003
g12
g13
(g14
tp3004
Rp3005
g17
I14
ssg19
g17
sbsS'13-JUN-2009'
p3006
(idecision_tree
decision_tree_leaf
p3007
(dp3008
g12
g13
(g14
tp3009
Rp3010
g17
I4
ssg19
g17
sbsS'14-SEP-2009'
p3011
(idecision_tree
decision_tree_leaf
p3012
(dp3013
g12
g13
(g14
tp3014
Rp3015
g17
I2
ssg19
g17
sbsS'18-AUG-2009'
p3016
(idecision_tree
decision_tree_leaf
p3017
(dp3018
g12
g13
(g14
tp3019
Rp3020
g17
I19
ssg19
g17
sbsS'10-OCT-2009'
p3021
(idecision_tree
decision_tree
p3022
(dp3023
g2
I1
sg3
(dp3024
g17
(idecision_tree
decision_tree_leaf
p3025
(dp3026
g12
g13
(g14
tp3027
Rp3028
g17
I16
ssg19
g17
sbsS'Pn'
p3029
(idecision_tree
decision_tree_leaf
p3030
(dp3031
g12
g13
(g14
tp3032
Rp3033
g17
I1
ssg19
g17
sbsS'tx'
p3034
(idecision_tree
continuous_decision_tree
p3035
(dp3036
g106
F44.25
sg2
I63
sg107
(idecision_tree
decision_tree_leaf
p3037
(dp3038
g12
g13
(g14
tp3039
Rp3040
g17
I1
ssg19
g17
sbsg112
(idecision_tree
continuous_decision_tree
p3041
(dp3042
g106
F0.42081999999999997
sg2
I48
sg107
(idecision_tree
continuous_decision_tree
p3043
(dp3044
g106
F-25.333334999999998
sg2
I67
sg107
(idecision_tree
decision_tree_leaf
p3045
(dp3046
g12
g13
(g14
tp3047
Rp3048
S'PKP'
p3049
I1
ssg19
g3049
sbsg112
(idecision_tree
decision_tree_leaf
p3050
(dp3051
g12
g13
(g14
tp3052
Rp3053
g17
I1
ssg19
g17
sbsbsg112
(idecision_tree
decision_tree_leaf
p3054
(dp3055
g12
g13
(g14
tp3056
Rp3057
g17
I1
ssg19
g17
sbsbsbssbsS'29-AUG-2009'
p3058
(idecision_tree
decision_tree_leaf
p3059
(dp3060
g12
g13
(g14
tp3061
Rp3062
g17
I11
ssg19
g17
sbsS'18-MAR-2009'
p3063
(idecision_tree
decision_tree_leaf
p3064
(dp3065
g12
g13
(g14
tp3066
Rp3067
g17
I5
ssg19
g17
sbsS'07-APR-2009'
p3068
(idecision_tree
decision_tree
p3069
(dp3070
g2
I1
sg3
(dp3071
g17
(idecision_tree
decision_tree_leaf
p3072
(dp3073
g12
g13
(g14
tp3074
Rp3075
g17
I3
ssg19
g17
sbsS'tx'
p3076
(idecision_tree
decision_tree_leaf
p3077
(dp3078
g12
g13
(g14
tp3079
Rp3080
S'PKP'
p3081
I1
ssg19
g3081
sbssbsS'28-JUL-2009'
p3082
(idecision_tree
decision_tree_leaf
p3083
(dp3084
g12
g13
(g14
tp3085
Rp3086
g17
I4
ssg19
g17
sbsS'23-AUG-2009'
p3087
(idecision_tree
decision_tree_leaf
p3088
(dp3089
g12
g13
(g14
tp3090
Rp3091
g17
I12
ssg19
g17
sbsS'04-NOV-2009'
p3092
(idecision_tree
continuous_decision_tree
p3093
(dp3094
g106
F-11.0
sg2
I67
sg107
(idecision_tree
decision_tree
p3095
(dp3096
g2
I13
sg3
(dp3097
S'Z1530'
p3098
(idecision_tree
decision_tree_leaf
p3099
(dp3100
g12
g13
(g14
tp3101
Rp3102
g17
I2
ssg19
g17
sbsS'Z1020'
p3103
(idecision_tree
decision_tree_leaf
p3104
(dp3105
g12
g13
(g14
tp3106
Rp3107
g17
I1
ssg19
g17
sbsS'Z0515'
p3108
(idecision_tree
decision_tree_leaf
p3109
(dp3110
g12
g13
(g14
tp3111
Rp3112
S'PKP'
p3113
I1
ssg19
g3113
sbssbsg112
(idecision_tree
continuous_decision_tree
p3114
(dp3115
g106
F0.1275063
sg2
I50
sg107
(idecision_tree
decision_tree
p3116
(dp3117
g2
I13
sg3
(dp3118
S'Z1020'
p3119
(idecision_tree
decision_tree_leaf
p3120
(dp3121
g12
g13
(g14
tp3122
Rp3123
S'PKP'
p3124
I1
ssg19
g3124
sbsS'Z1530'
p3125
(idecision_tree
decision_tree_leaf
p3126
(dp3127
g12
g13
(g14
tp3128
Rp3129
g17
I1
ssg19
g17
sbssbsg112
(idecision_tree
decision_tree_leaf
p3130
(dp3131
g12
g13
(g14
tp3132
Rp3133
g17
I1
ssg19
g17
sbsbsbsS'25-JUN-2009'
p3134
(idecision_tree
decision_tree_leaf
p3135
(dp3136
g12
g13
(g14
tp3137
Rp3138
g17
I10
ssg19
g17
sbsS'05-NOV-2009'
p3139
(idecision_tree
decision_tree_leaf
p3140
(dp3141
g12
g13
(g14
tp3142
Rp3143
g17
I6
ssg19
g17
sbsS'29-NOV-2009'
p3144
(idecision_tree
decision_tree_leaf
p3145
(dp3146
g12
g13
(g14
tp3147
Rp3148
g17
I7
ssg19
g17
sbsS'22-SEP-2009'
p3149
(idecision_tree
continuous_decision_tree
p3150
(dp3151
g106
F0.0
sg2
I58
sg107
(idecision_tree
continuous_decision_tree
p3152
(dp3153
g106
F15.5
sg2
I63
sg107
(idecision_tree
decision_tree_leaf
p3154
(dp3155
g12
g13
(g14
tp3156
Rp3157
g17
I3
sS'PKP'
p3158
I1
ssg19
g17
sbsg112
(idecision_tree
continuous_decision_tree
p3159
(dp3160
g106
F2.0
sg2
I66
sg107
(idecision_tree
decision_tree
p3161
(dp3162
g2
I13
sg3
(dp3163
S'Z1020'
p3164
(idecision_tree
decision_tree_leaf
p3165
(dp3166
g12
g13
(g14
tp3167
Rp3168
S'PKP'
p3169
I1
ssg19
g3169
sbsS'Z1530'
p3170
(idecision_tree
decision_tree_leaf
p3171
(dp3172
g12
g13
(g14
tp3173
Rp3174
g17
I1
ssg19
g17
sbssbsg112
(idecision_tree
decision_tree_leaf
p3175
(dp3176
g12
g13
(g14
tp3177
Rp3178
g17
I3
ssg19
g17
sbsbsbsg112
(idecision_tree
decision_tree_leaf
p3179
(dp3180
g12
g13
(g14
tp3181
Rp3182
g17
I2
ssg19
g17
sbsbsS'01-OCT-2009'
p3183
(idecision_tree
decision_tree_leaf
p3184
(dp3185
g12
g13
(g14
tp3186
Rp3187
g17
I35
ssg19
g17
sbsS'10-NOV-2009'
p3188
(idecision_tree
decision_tree_leaf
p3189
(dp3190
g12
g13
(g14
tp3191
Rp3192
g17
I12
ssg19
g17
sbsS'30-OCT-2009'
p3193
(idecision_tree
decision_tree
p3194
(dp3195
g2
I1
sg3
(dp3196
g17
(idecision_tree
decision_tree_leaf
p3197
(dp3198
g12
g13
(g14
tp3199
Rp3200
g17
I5
ssg19
g17
sbsS'Pn'
p3201
(idecision_tree
decision_tree_leaf
p3202
(dp3203
g12
g13
(g14
tp3204
Rp3205
S'PKP'
p3206
I1
ssg19
g3206
sbsS'tx'
p3207
(idecision_tree
decision_tree_leaf
p3208
(dp3209
g12
g13
(g14
tp3210
Rp3211
g17
I2
ssg19
g17
sbsg1059
(idecision_tree
decision_tree_leaf
p3212
(dp3213
g12
g13
(g14
tp3214
Rp3215
g17
I1
ssg19
g17
sbssbsS'16-SEP-2009'
p3216
(idecision_tree
decision_tree_leaf
p3217
(dp3218
g12
g13
(g14
tp3219
Rp3220
g17
I9
ssg19
g17
sbsS'07-JUN-2009'
p3221
(idecision_tree
decision_tree
p3222
(dp3223
g2
I13
sg3
(dp3224
S'Z1020'
p3225
(idecision_tree
continuous_decision_tree
p3226
(dp3227
g106
F23.25
sg2
I63
sg107
(idecision_tree
decision_tree_leaf
p3228
(dp3229
g12
g13
(g14
tp3230
Rp3231
g17
I1
ssg19
g17
sbsg112
(idecision_tree
continuous_decision_tree
p3232
(dp3233
g106
F0.2221615
sg2
I52
sg107
(idecision_tree
continuous_decision_tree
p3234
(dp3235
g106
F0.392632
sg2
I49
sg107
(idecision_tree
continuous_decision_tree
p3236
(dp3237
g106
F2.875
sg2
I67
sg107
(idecision_tree
decision_tree_leaf
p3238
(dp3239
g12
g13
(g14
tp3240
Rp3241
g17
I1
ssg19
g17
sbsg112
(idecision_tree
decision_tree_leaf
p3242
(dp3243
g12
g13
(g14
tp3244
Rp3245
S'PKP'
p3246
I1
ssg19
g3246
sbsbsg112
(idecision_tree
decision_tree_leaf
p3247
(dp3248
g12
g13
(g14
tp3249
Rp3250
g17
I1
ssg19
g17
sbsbsg112
(idecision_tree
decision_tree_leaf
p3251
(dp3252
g12
g13
(g14
tp3253
Rp3254
g17
I1
ssg19
g17
sbsbsbsS'Z1530'
p3255
(idecision_tree
decision_tree_leaf
p3256
(dp3257
g12
g13
(g14
tp3258
Rp3259
g17
I4
ssg19
g17
sbssbsS'03-SEP-2009'
p3260
(idecision_tree
decision_tree_leaf
p3261
(dp3262
g12
g13
(g14
tp3263
Rp3264
g17
I4
ssg19
g17
sbsS'04-APR-2009'
p3265
(idecision_tree
decision_tree
p3266
(dp3267
g2
I1
sg3
(dp3268
g17
(idecision_tree
decision_tree_leaf
p3269
(dp3270
g12
g13
(g14
tp3271
Rp3272
g17
I6
ssg19
g17
sbsS'Pn'
p3273
(idecision_tree
decision_tree
p3274
(dp3275
g2
I13
sg3
(dp3276
S'Z1530'
p3277
(idecision_tree
decision_tree_leaf
p3278
(dp3279
g12
g13
(g14
tp3280
Rp3281
S'Pn'
p3282
I1
ssg19
g3282
sbsS'Z2040'
p3283
(idecision_tree
decision_tree_leaf
p3284
(dp3285
g12
g13
(g14
tp3286
Rp3287
g17
I1
ssg19
g17
sbssbssbsS'29-MAY-2009'
p3288
(idecision_tree
decision_tree_leaf
p3289
(dp3290
g12
g13
(g14
tp3291
Rp3292
g17
I14
ssg19
g17
sbsS'18-DEC-2009'
p3293
(idecision_tree
decision_tree_leaf
p3294
(dp3295
g12
g13
(g14
tp3296
Rp3297
g17
I5
ssg19
g17
sbsS'19-JUL-2009'
p3298
(idecision_tree
decision_tree_leaf
p3299
(dp3300
g12
g13
(g14
tp3301
Rp3302
g17
I5
ssg19
g17
sbsS'02-SEP-2009'
p3303
(idecision_tree
decision_tree
p3304
(dp3305
g2
I14
sg3
(dp3306
S'coh'
p3307
(idecision_tree
decision_tree_leaf
p3308
(dp3309
g12
g13
(g14
tp3310
Rp3311
g17
I9
ssg19
g17
sbsS'inc'
p3312
(idecision_tree
decision_tree_leaf
p3313
(dp3314
g12
g13
(g14
tp3315
Rp3316
g290
I1
ssg19
g290
sbssbsS'30-AUG-2009'
p3317
(idecision_tree
continuous_decision_tree
p3318
(dp3319
g106
F-112.0
sg2
I67
sg107
(idecision_tree
continuous_decision_tree
p3320
(dp3321
g106
F140.75
sg2
I67
sg107
(idecision_tree
decision_tree_leaf
p3322
(dp3323
g12
g13
(g14
tp3324
Rp3325
g17
I2
sS'Sn'
p3326
I1
ssg19
g17
sbsg112
(idecision_tree
decision_tree_leaf
p3327
(dp3328
g12
g13
(g14
tp3329
Rp3330
g17
I6
sS'PKP'
p3331
I1
sS'Pn'
p3332
I2
ssg19
g17
sbsbsg112
(idecision_tree
continuous_decision_tree
p3333
(dp3334
g106
F-13.5
sg2
I63
sg107
(idecision_tree
decision_tree
p3335
(dp3336
g2
I13
sg3
(dp3337
S'Z1020'
p3338
(idecision_tree
decision_tree_leaf
p3339
(dp3340
g12
g13
(g14
tp3341
Rp3342
S'PKP'
p3343
I1
ssg19
g3343
sbsS'Z1530'
p3344
(idecision_tree
decision_tree_leaf
p3345
(dp3346
g12
g13
(g14
tp3347
Rp3348
g17
I1
ssg19
g17
sbssbsg112
(idecision_tree
decision_tree_leaf
p3349
(dp3350
g12
g13
(g14
tp3351
Rp3352
g17
I1
ssg19
g17
sbsbsbsS'07-DEC-2009'
p3353
(idecision_tree
decision_tree_leaf
p3354
(dp3355
g12
g13
(g14
tp3356
Rp3357
g17
I7
ssg19
g17
sbsS'10-AUG-2009'
p3358
(idecision_tree
decision_tree
p3359
(dp3360
g2
I13
sg3
(dp3361
S'Z1530'
p3362
(idecision_tree
decision_tree_leaf
p3363
(dp3364
g12
g13
(g14
tp3365
Rp3366
g17
I2
ssg19
g17
sbsS'Z1020'
p3367
(idecision_tree
decision_tree_leaf
p3368
(dp3369
g12
g13
(g14
tp3370
Rp3371
g17
I1
ssg19
g17
sbsS'Z0515'
p3372
(idecision_tree
decision_tree_leaf
p3373
(dp3374
g12
g13
(g14
tp3375
Rp3376
g17
I3
ssg19
g17
sbsS'Z2040'
p3377
(idecision_tree
decision_tree_leaf
p3378
(dp3379
g12
g13
(g14
tp3380
Rp3381
S'Pn'
p3382
I1
ssg19
g3382
sbssbsS'14-OCT-2009'
p3383
(idecision_tree
decision_tree_leaf
p3384
(dp3385
g12
g13
(g14
tp3386
Rp3387
g17
I16
ssg19
g17
sbsS'27-AUG-2009'
p3388
(idecision_tree
decision_tree_leaf
p3389
(dp3390
g12
g13
(g14
tp3391
Rp3392
g17
I8
sS'PKP'
p3393
I1
ssg19
g17
sbsS'20-JUL-2009'
p3394
(idecision_tree
decision_tree_leaf
p3395
(dp3396
g12
g13
(g14
tp3397
Rp3398
g17
I8
ssg19
g17
sbsS'13-NOV-2009'
p3399
(idecision_tree
decision_tree_leaf
p3400
(dp3401
g12
g13
(g14
tp3402
Rp3403
g17
I7
ssg19
g17
sbsS'11-JUN-2009'
p3404
(idecision_tree
decision_tree
p3405
(dp3406
g2
I13
sg3
(dp3407
S'Z1020'
p3408
(idecision_tree
decision_tree_leaf
p3409
(dp3410
g12
g13
(g14
tp3411
Rp3412
g17
I6
ssg19
g17
sbsS'Z1530'
p3413
(idecision_tree
continuous_decision_tree
p3414
(dp3415
g106
F2.5
sg2
I66
sg107
(idecision_tree
decision_tree
p3416
(dp3417
g2
I1
sg3
(dp3418
g17
(idecision_tree
decision_tree_leaf
p3419
(dp3420
g12
g13
(g14
tp3421
Rp3422
S'PKP'
p3423
I1
ssg19
g3423
sbsS'tx'
p3424
(idecision_tree
decision_tree_leaf
p3425
(dp3426
g12
g13
(g14
tp3427
Rp3428
g17
I1
ssg19
g17
sbssbsg112
(idecision_tree
decision_tree_leaf
p3429
(dp3430
g12
g13
(g14
tp3431
Rp3432
g17
I1
ssg19
g17
sbsbssbsS'19-AUG-2009'
p3433
(idecision_tree
decision_tree
p3434
(dp3435
g2
I13
sg3
(dp3436
S'Z1530'
p3437
(idecision_tree
decision_tree_leaf
p3438
(dp3439
g12
g13
(g14
tp3440
Rp3441
g17
I3
ssg19
g17
sbsS'Z1020'
p3442
(idecision_tree
continuous_decision_tree
p3443
(dp3444
g106
F3.0
sg2
I66
sg107
(idecision_tree
decision_tree_leaf
p3445
(dp3446
g12
g13
(g14
tp3447
Rp3448
g17
I1
ssg19
g17
sbsg112
(idecision_tree
continuous_decision_tree
p3449
(dp3450
g106
F0.12864124999999998
sg2
I52
sg107
(idecision_tree
continuous_decision_tree
p3451
(dp3452
g106
F0.4589045
sg2
I50
sg107
(idecision_tree
decision_tree_leaf
p3453
(dp3454
g12
g13
(g14
tp3455
Rp3456
g17
I1
ssg19
g17
sbsg112
(idecision_tree
continuous_decision_tree
p3457
(dp3458
g106
F0.335432
sg2
I49
sg107
(idecision_tree
decision_tree_leaf
p3459
(dp3460
g12
g13
(g14
tp3461
Rp3462
g17
I1
ssg19
g17
sbsg112
(idecision_tree
continuous_decision_tree
p3463
(dp3464
g106
F2.5
sg2
I63
sg107
(idecision_tree
decision_tree_leaf
p3465
(dp3466
g12
g13
(g14
tp3467
Rp3468
g17
I1
ssg19
g17
sbsg112
(idecision_tree
continuous_decision_tree
p3469
(dp3470
g106
F0.09273825
sg2
I51
sg107
(idecision_tree
continuous_decision_tree
p3471
(dp3472
g106
F15.752199999999998
sg2
I44
sg107
(idecision_tree
continuous_decision_tree
p3473
(dp3474
g106
F93.0
sg2
I67
sg107
(idecision_tree
decision_tree_leaf
p3475
(dp3476
g12
g13
(g14
tp3477
Rp3478
S'PKP'
p3479
I1
ssg19
g3479
sbsg112
(idecision_tree
decision_tree_leaf
p3480
(dp3481
g12
g13
(g14
tp3482
Rp3483
g17
I1
ssg19
g17
sbsbsg112
(idecision_tree
decision_tree_leaf
p3484
(dp3485
g12
g13
(g14
tp3486
Rp3487
g17
I1
ssg19
g17
sbsbsg112
(idecision_tree
decision_tree_leaf
p3488
(dp3489
g12
g13
(g14
tp3490
Rp3491
g17
I1
ssg19
g17
sbsbsbsbsbsg112
(idecision_tree
decision_tree_leaf
p3492
(dp3493
g12
g13
(g14
tp3494
Rp3495
g17
I1
ssg19
g17
sbsbsbsS'H1020'
p3496
(idecision_tree
decision_tree_leaf
p3497
(dp3498
g12
g13
(g14
tp3499
Rp3500
g17
I1
ssg19
g17
sbssbsS'07-AUG-2009'
p3501
(idecision_tree
decision_tree_leaf
p3502
(dp3503
g12
g13
(g14
tp3504
Rp3505
g17
I8
ssg19
g17
sbsS'13-MAY-2009'
p3506
(idecision_tree
decision_tree_leaf
p3507
(dp3508
g12
g13
(g14
tp3509
Rp3510
g17
I9
ssg19
g17
sbsS'20-AUG-2009'
p3511
(idecision_tree
decision_tree_leaf
p3512
(dp3513
g12
g13
(g14
tp3514
Rp3515
g17
I14
ssg19
g17
sbsS'14-NOV-2009'
p3516
(idecision_tree
decision_tree_leaf
p3517
(dp3518
g12
g13
(g14
tp3519
Rp3520
g17
I3
ssg19
g17
sbsS'05-DEC-2009'
p3521
(idecision_tree
decision_tree_leaf
p3522
(dp3523
g12
g13
(g14
tp3524
Rp3525
g17
I5
ssg19
g17
sbsS'05-JUN-2009'
p3526
(idecision_tree
continuous_decision_tree
p3527
(dp3528
g106
F7.0
sg2
I63
sg107
(idecision_tree
decision_tree
p3529
(dp3530
g2
I1
sg3
(dp3531
g17
(idecision_tree
decision_tree_leaf
p3532
(dp3533
g12
g13
(g14
tp3534
Rp3535
S'PKP'
p3536
I1
ssg19
g3536
sbsS'tx'
p3537
(idecision_tree
decision_tree_leaf
p3538
(dp3539
g12
g13
(g14
tp3540
Rp3541
g17
I1
ssg19
g17
sbssbsg112
(idecision_tree
decision_tree_leaf
p3542
(dp3543
g12
g13
(g14
tp3544
Rp3545
g17
I1
ssg19
g17
sbsbsS'21-NOV-2009'
p3546
(idecision_tree
decision_tree_leaf
p3547
(dp3548
g12
g13
(g14
tp3549
Rp3550
g17
I7
ssg19
g17
sbsS'29-OCT-2009'
p3551
(idecision_tree
decision_tree
p3552
(dp3553
g2
I1
sg3
(dp3554
g17
(idecision_tree
decision_tree_leaf
p3555
(dp3556
g12
g13
(g14
tp3557
Rp3558
g17
I9
ssg19
g17
sbsS'Pn'
p3559
(idecision_tree
decision_tree_leaf
p3560
(dp3561
g12
g13
(g14
tp3562
Rp3563
g17
I1
ssg19
g17
sbsS'tx'
p3564
(idecision_tree
decision_tree_leaf
p3565
(dp3566
g12
g13
(g14
tp3567
Rp3568
S'PKP'
p3569
I1
ssg19
g3569
sbssbsS'17-OCT-2009'
p3570
(idecision_tree
decision_tree_leaf
p3571
(dp3572
g12
g13
(g14
tp3573
Rp3574
g17
I8
ssg19
g17
sbsS'02-JUN-2009'
p3575
(idecision_tree
decision_tree_leaf
p3576
(dp3577
g12
g13
(g14
tp3578
Rp3579
g17
I12
ssg19
g17
sbsS'10-MAY-2009'
p3580
(idecision_tree
continuous_decision_tree
p3581
(dp3582
g106
F88.31649999999999
sg2
I67
sg107
(idecision_tree
decision_tree_leaf
p3583
(dp3584
g12
g13
(g14
tp3585
Rp3586
g17
I1
ssg19
g17
sbsg112
(idecision_tree
continuous_decision_tree
p3587
(dp3588
g106
F-1.5
sg2
I62
sg107
(idecision_tree
decision_tree_leaf
p3589
(dp3590
g12
g13
(g14
tp3591
Rp3592
g17
I3
sS'PKP'
p3593
I1
ssg19
g17
sbsg112
(idecision_tree
decision_tree_leaf
p3594
(dp3595
g12
g13
(g14
tp3596
Rp3597
g17
I1
ssg19
g17
sbsbsbsS'06-SEP-2009'
p3598
(idecision_tree
decision_tree_leaf
p3599
(dp3600
g12
g13
(g14
tp3601
Rp3602
g17
I5
ssg19
g17
sbsS'19-OCT-2009'
p3603
(idecision_tree
decision_tree_leaf
p3604
(dp3605
g12
g13
(g14
tp3606
Rp3607
g17
I10
ssg19
g17
sbsS'06-JUL-2009'
p3608
(idecision_tree
decision_tree_leaf
p3609
(dp3610
g12
g13
(g14
tp3611
Rp3612
g17
I7
ssg19
g17
sbsS'20-MAY-2009'
p3613
(idecision_tree
decision_tree_leaf
p3614
(dp3615
g12
g13
(g14
tp3616
Rp3617
g17
I5
ssg19
g17
sbsS'04-JUL-2009'
p3618
(idecision_tree
decision_tree_leaf
p3619
(dp3620
g12
g13
(g14
tp3621
Rp3622
g17
I9
ssg19
g17
sbsS'06-MAR-2009'
p3623
(idecision_tree
decision_tree
p3624
(dp3625
g2
I13
sg3
(dp3626
S'Z0515'
p3627
(idecision_tree
decision_tree_leaf
p3628
(dp3629
g12
g13
(g14
tp3630
Rp3631
S'PKP'
p3632
I1
ssg19
g3632
sbsS'Z1020'
p3633
(idecision_tree
decision_tree_leaf
p3634
(dp3635
g12
g13
(g14
tp3636
Rp3637
g17
I7
ssg19
g17
sbsS'Z1530'
p3638
(idecision_tree
decision_tree_leaf
p3639
(dp3640
g12
g13
(g14
tp3641
Rp3642
g17
I3
ssg19
g17
sbssbsS'01-DEC-2009'
p3643
(idecision_tree
decision_tree_leaf
p3644
(dp3645
g12
g13
(g14
tp3646
Rp3647
g17
I6
sS'Pn'
p3648
I1
ssg19
g17
sbsS'10-JUN-2009'
p3649
(idecision_tree
decision_tree
p3650
(dp3651
g2
I13
sg3
(dp3652
S'Z0515'
p3653
(idecision_tree
continuous_decision_tree
p3654
(dp3655
g106
F-43.85
sg2
I67
sg107
(idecision_tree
decision_tree_leaf
p3656
(dp3657
g12
g13
(g14
tp3658
Rp3659
g17
I1
ssg19
g17
sbsg112
(idecision_tree
decision_tree_leaf
p3660
(dp3661
g12
g13
(g14
tp3662
Rp3663
S'PKP'
p3664
I1
ssg19
g3664
sbsbsS'Z1020'
p3665
(idecision_tree
decision_tree_leaf
p3666
(dp3667
g12
g13
(g14
tp3668
Rp3669
g17
I4
ssg19
g17
sbsS'Z1530'
p3670
(idecision_tree
decision_tree_leaf
p3671
(dp3672
g12
g13
(g14
tp3673
Rp3674
g17
I1
ssg19
g17
sbssbsS'23-OCT-2009'
p3675
(idecision_tree
decision_tree_leaf
p3676
(dp3677
g12
g13
(g14
tp3678
Rp3679
g17
I14
ssg19
g17
sbsS'23-MAY-2009'
p3680
(idecision_tree
decision_tree_leaf
p3681
(dp3682
g12
g13
(g14
tp3683
Rp3684
g17
I6
ssg19
g17
sbsS'17-SEP-2009'
p3685
(idecision_tree
continuous_decision_tree
p3686
(dp3687
g106
F-28.16665
sg2
I67
sg107
(idecision_tree
decision_tree_leaf
p3688
(dp3689
g12
g13
(g14
tp3690
Rp3691
g17
I4
sS'PKP'
p3692
I1
ssg19
g17
sbsg112
(idecision_tree
continuous_decision_tree
p3693
(dp3694
g106
F-121.3335
sg2
I67
sg107
(idecision_tree
continuous_decision_tree
p3695
(dp3696
g106
F0.5
sg2
I53
sg107
(idecision_tree
decision_tree
p3697
(dp3698
g2
I13
sg3
(dp3699
S'Z1020'
p3700
(idecision_tree
decision_tree_leaf
p3701
(dp3702
g12
g13
(g14
tp3703
Rp3704
g17
I1
ssg19
g17
sbsS'Z1530'
p3705
(idecision_tree
decision_tree_leaf
p3706
(dp3707
g12
g13
(g14
tp3708
Rp3709
S'PKP'
p3710
I1
ssg19
g3710
sbssbsg112
(idecision_tree
decision_tree_leaf
p3711
(dp3712
g12
g13
(g14
tp3713
Rp3714
g17
I1
ssg19
g17
sbsbsg112
(idecision_tree
decision_tree_leaf
p3715
(dp3716
g12
g13
(g14
tp3717
Rp3718
g17
I1
ssg19
g17
sbsbsbsS'27-JUL-2009'
p3719
(idecision_tree
decision_tree
p3720
(dp3721
g2
I13
sg3
(dp3722
S'Z1020'
p3723
(idecision_tree
decision_tree_leaf
p3724
(dp3725
g12
g13
(g14
tp3726
Rp3727
g17
I7
ssg19
g17
sbsS'Z1530'
p3728
(idecision_tree
continuous_decision_tree
p3729
(dp3730
g106
F68.333
sg2
I67
sg107
(idecision_tree
decision_tree_leaf
p3731
(dp3732
g12
g13
(g14
tp3733
Rp3734
S'PKP'
p3735
I1
ssg19
g3735
sbsg112
(idecision_tree
decision_tree_leaf
p3736
(dp3737
g12
g13
(g14
tp3738
Rp3739
g17
I1
ssg19
g17
sbsbssbsS'06-NOV-2009'
p3740
(idecision_tree
decision_tree
p3741
(dp3742
g2
I13
sg3
(dp3743
S'Z1530'
p3744
(idecision_tree
decision_tree_leaf
p3745
(dp3746
g12
g13
(g14
tp3747
Rp3748
g17
I4
ssg19
g17
sbsS'Z1020'
p3749
(idecision_tree
decision_tree_leaf
p3750
(dp3751
g12
g13
(g14
tp3752
Rp3753
g17
I7
ssg19
g17
sbsS'H1020'
p3754
(idecision_tree
decision_tree_leaf
p3755
(dp3756
g12
g13
(g14
tp3757
Rp3758
S'Pn'
p3759
I1
ssg19
g3759
sbsS'H1530'
p3760
(idecision_tree
decision_tree_leaf
p3761
(dp3762
g12
g13
(g14
tp3763
Rp3764
g17
I1
ssg19
g17
sbssbsS'27-FEB-2009'
p3765
(idecision_tree
decision_tree_leaf
p3766
(dp3767
g12
g13
(g14
tp3768
Rp3769
g17
I5
ssg19
g17
sbsS'16-APR-2009'
p3770
(idecision_tree
continuous_decision_tree
p3771
(dp3772
g106
F0.5788215
sg2
I49
sg107
(idecision_tree
decision_tree_leaf
p3773
(dp3774
g12
g13
(g14
tp3775
Rp3776
g17
I1
ssg19
g17
sbsg112
(idecision_tree
continuous_decision_tree
p3777
(dp3778
g106
F152.34550000000002
sg2
I43
sg107
(idecision_tree
continuous_decision_tree
p3779
(dp3780
g106
F3.5
sg2
I66
sg107
(idecision_tree
decision_tree_leaf
p3781
(dp3782
g12
g13
(g14
tp3783
Rp3784
g17
I1
ssg19
g17
sbsg112
(idecision_tree
continuous_decision_tree
p3785
(dp3786
g106
F-0.25
sg2
I63
sg107
(idecision_tree
decision_tree_leaf
p3787
(dp3788
g12
g13
(g14
tp3789
Rp3790
g17
I1
ssg19
g17
sbsg112
(idecision_tree
continuous_decision_tree
p3791
(dp3792
g106
F0.5
sg2
I62
sg107
(idecision_tree
decision_tree_leaf
p3793
(dp3794
g12
g13
(g14
tp3795
Rp3796
g17
I1
ssg19
g17
sbsg112
(idecision_tree
continuous_decision_tree
p3797
(dp3798
g106
F18.16665
sg2
I67
sg107
(idecision_tree
continuous_decision_tree
p3799
(dp3800
g106
F-0.5
sg2
I58
sg107
(idecision_tree
continuous_decision_tree
p3801
(dp3802
g106
F59.083299999999994
sg2
I67
sg107
(idecision_tree
decision_tree_leaf
p3803
(dp3804
g12
g13
(g14
tp3805
Rp3806
g17
I1
ssg19
g17
sbsg112
(idecision_tree
decision_tree_leaf
p3807
(dp3808
g12
g13
(g14
tp3809
Rp3810
S'PKP'
p3811
I1
ssg19
g3811
sbsbsg112
(idecision_tree
decision_tree_leaf
p3812
(dp3813
g12
g13
(g14
tp3814
Rp3815
g17
I1
ssg19
g17
sbsbsg112
(idecision_tree
decision_tree_leaf
p3816
(dp3817
g12
g13
(g14
tp3818
Rp3819
g17
I1
ssg19
g17
sbsbsbsbsbsg112
(idecision_tree
decision_tree_leaf
p3820
(dp3821
g12
g13
(g14
tp3822
Rp3823
g17
I1
ssg19
g17
sbsbsbsS'27-APR-2009'
p3824
(idecision_tree
decision_tree_leaf
p3825
(dp3826
g12
g13
(g14
tp3827
Rp3828
g17
I5
sS'PKP'
p3829
I2
ssg19
g17
sbsS'24-AUG-2009'
p3830
(idecision_tree
continuous_decision_tree
p3831
(dp3832
g106
F1.5
sg2
I66
sg107
(idecision_tree
decision_tree_leaf
p3833
(dp3834
g12
g13
(g14
tp3835
Rp3836
g17
I1
ssg19
g17
sbsg112
(idecision_tree
continuous_decision_tree
p3837
(dp3838
g106
F-106.25
sg2
I67
sg107
(idecision_tree
decision_tree_leaf
p3839
(dp3840
g12
g13
(g14
tp3841
Rp3842
g17
I5
sS'PKP'
p3843
I1
ssg19
g17
sbsg112
(idecision_tree
decision_tree_leaf
p3844
(dp3845
g12
g13
(g14
tp3846
Rp3847
g17
I1
ssg19
g17
sbsbsbsS'20-APR-2009'
p3848
(idecision_tree
decision_tree_leaf
p3849
(dp3850
g12
g13
(g14
tp3851
Rp3852
g17
I5
ssg19
g17
sbssb.